   1              		.syntax unified
   2              		.cpu cortex-m4
   3              		.fpu softvfp
   4              		.eabi_attribute 20, 1
   5              		.eabi_attribute 21, 1
   6              		.eabi_attribute 23, 3
   7              		.eabi_attribute 24, 1
   8              		.eabi_attribute 25, 1
   9              		.eabi_attribute 26, 1
  10              		.eabi_attribute 30, 6
  11              		.eabi_attribute 18, 4
  12              		.thumb
  13              		.file	"usbd_req.c"
  23              	.Ltext0:
  24              		.file 1 "../inc/STM32_USB_Device_Library/Core/src/usbd_req.c"
 25336              		.align	2
 25339              	USBD_ep_status:
 25340 0000 00000000 		.space	4
 25341              		.global	USBD_default_cfg
 25342              		.section	.bss.USBD_default_cfg,"aw",%nobits
 25343              		.align	2
 25346              	USBD_default_cfg:
 25347 0000 00000000 		.space	4
 25348              		.global	USBD_cfg_status
 25349              		.section	.bss.USBD_cfg_status,"aw",%nobits
 25350              		.align	2
 25353              	USBD_cfg_status:
 25354 0000 00000000 		.space	4
 25355              		.comm	USBD_StrDesc,50,4
 25356              		.section	.text.USBD_StdDevReq,"ax",%progbits
 25357              		.align	2
 25358              		.global	USBD_StdDevReq
 25359              		.thumb
 25360              		.thumb_func
 25362              	USBD_StdDevReq:
 25363              	.LFB110:
   1:../inc/STM32_USB_Device_Library/Core/src/usbd_req.c **** /**
   2:../inc/STM32_USB_Device_Library/Core/src/usbd_req.c ****   ******************************************************************************
   3:../inc/STM32_USB_Device_Library/Core/src/usbd_req.c ****   * @file    usbd_req.c
   4:../inc/STM32_USB_Device_Library/Core/src/usbd_req.c ****   * @author  MCD Application Team
   5:../inc/STM32_USB_Device_Library/Core/src/usbd_req.c ****   * @version V1.0.0
   6:../inc/STM32_USB_Device_Library/Core/src/usbd_req.c ****   * @date    22-July-2011  
   7:../inc/STM32_USB_Device_Library/Core/src/usbd_req.c ****   * @brief   This file provides the standard USB requests following chapter 9.
   8:../inc/STM32_USB_Device_Library/Core/src/usbd_req.c ****   ******************************************************************************
   9:../inc/STM32_USB_Device_Library/Core/src/usbd_req.c ****   * @attention
  10:../inc/STM32_USB_Device_Library/Core/src/usbd_req.c ****   *
  11:../inc/STM32_USB_Device_Library/Core/src/usbd_req.c ****   * THE PRESENT FIRMWARE WHICH IS FOR GUIDANCE ONLY AIMS AT PROVIDING CUSTOMERS
  12:../inc/STM32_USB_Device_Library/Core/src/usbd_req.c ****   * WITH CODING INFORMATION REGARDING THEIR PRODUCTS IN ORDER FOR THEM TO SAVE
  13:../inc/STM32_USB_Device_Library/Core/src/usbd_req.c ****   * TIME. AS A RESULT, STMICROELECTRONICS SHALL NOT BE HELD LIABLE FOR ANY
  14:../inc/STM32_USB_Device_Library/Core/src/usbd_req.c ****   * DIRECT, INDIRECT OR CONSEQUENTIAL DAMAGES WITH RESPECT TO ANY CLAIMS ARISING
  15:../inc/STM32_USB_Device_Library/Core/src/usbd_req.c ****   * FROM THE CONTENT OF SUCH FIRMWARE AND/OR THE USE MADE BY CUSTOMERS OF THE
  16:../inc/STM32_USB_Device_Library/Core/src/usbd_req.c ****   * CODING INFORMATION CONTAINED HEREIN IN CONNECTION WITH THEIR PRODUCTS.
  17:../inc/STM32_USB_Device_Library/Core/src/usbd_req.c ****   *
  18:../inc/STM32_USB_Device_Library/Core/src/usbd_req.c ****   * <h2><center>&copy; COPYRIGHT 2011 STMicroelectronics</center></h2>
  19:../inc/STM32_USB_Device_Library/Core/src/usbd_req.c ****   ******************************************************************************
  20:../inc/STM32_USB_Device_Library/Core/src/usbd_req.c ****   */ 
  21:../inc/STM32_USB_Device_Library/Core/src/usbd_req.c **** 
  22:../inc/STM32_USB_Device_Library/Core/src/usbd_req.c **** /* Includes ------------------------------------------------------------------*/
  23:../inc/STM32_USB_Device_Library/Core/src/usbd_req.c **** #include "usbd_req.h"
  24:../inc/STM32_USB_Device_Library/Core/src/usbd_req.c **** #include "usbd_ioreq.h"
  25:../inc/STM32_USB_Device_Library/Core/src/usbd_req.c **** #include "usbd_desc.h"
  26:../inc/STM32_USB_Device_Library/Core/src/usbd_req.c **** 
  27:../inc/STM32_USB_Device_Library/Core/src/usbd_req.c **** 
  28:../inc/STM32_USB_Device_Library/Core/src/usbd_req.c **** /** @addtogroup STM32_USB_OTG_DEVICE_LIBRARY
  29:../inc/STM32_USB_Device_Library/Core/src/usbd_req.c ****   * @{
  30:../inc/STM32_USB_Device_Library/Core/src/usbd_req.c ****   */
  31:../inc/STM32_USB_Device_Library/Core/src/usbd_req.c **** 
  32:../inc/STM32_USB_Device_Library/Core/src/usbd_req.c **** 
  33:../inc/STM32_USB_Device_Library/Core/src/usbd_req.c **** /** @defgroup USBD_REQ 
  34:../inc/STM32_USB_Device_Library/Core/src/usbd_req.c ****   * @brief USB standard requests module
  35:../inc/STM32_USB_Device_Library/Core/src/usbd_req.c ****   * @{
  36:../inc/STM32_USB_Device_Library/Core/src/usbd_req.c ****   */ 
  37:../inc/STM32_USB_Device_Library/Core/src/usbd_req.c **** 
  38:../inc/STM32_USB_Device_Library/Core/src/usbd_req.c **** /** @defgroup USBD_REQ_Private_TypesDefinitions
  39:../inc/STM32_USB_Device_Library/Core/src/usbd_req.c ****   * @{
  40:../inc/STM32_USB_Device_Library/Core/src/usbd_req.c ****   */ 
  41:../inc/STM32_USB_Device_Library/Core/src/usbd_req.c **** /**
  42:../inc/STM32_USB_Device_Library/Core/src/usbd_req.c ****   * @}
  43:../inc/STM32_USB_Device_Library/Core/src/usbd_req.c ****   */ 
  44:../inc/STM32_USB_Device_Library/Core/src/usbd_req.c **** 
  45:../inc/STM32_USB_Device_Library/Core/src/usbd_req.c **** 
  46:../inc/STM32_USB_Device_Library/Core/src/usbd_req.c **** /** @defgroup USBD_REQ_Private_Defines
  47:../inc/STM32_USB_Device_Library/Core/src/usbd_req.c ****   * @{
  48:../inc/STM32_USB_Device_Library/Core/src/usbd_req.c ****   */ 
  49:../inc/STM32_USB_Device_Library/Core/src/usbd_req.c **** 
  50:../inc/STM32_USB_Device_Library/Core/src/usbd_req.c **** /**
  51:../inc/STM32_USB_Device_Library/Core/src/usbd_req.c ****   * @}
  52:../inc/STM32_USB_Device_Library/Core/src/usbd_req.c ****   */ 
  53:../inc/STM32_USB_Device_Library/Core/src/usbd_req.c **** 
  54:../inc/STM32_USB_Device_Library/Core/src/usbd_req.c **** 
  55:../inc/STM32_USB_Device_Library/Core/src/usbd_req.c **** /** @defgroup USBD_REQ_Private_Macros
  56:../inc/STM32_USB_Device_Library/Core/src/usbd_req.c ****   * @{
  57:../inc/STM32_USB_Device_Library/Core/src/usbd_req.c ****   */ 
  58:../inc/STM32_USB_Device_Library/Core/src/usbd_req.c **** /**
  59:../inc/STM32_USB_Device_Library/Core/src/usbd_req.c ****   * @}
  60:../inc/STM32_USB_Device_Library/Core/src/usbd_req.c ****   */ 
  61:../inc/STM32_USB_Device_Library/Core/src/usbd_req.c **** 
  62:../inc/STM32_USB_Device_Library/Core/src/usbd_req.c **** 
  63:../inc/STM32_USB_Device_Library/Core/src/usbd_req.c **** /** @defgroup USBD_REQ_Private_Variables
  64:../inc/STM32_USB_Device_Library/Core/src/usbd_req.c ****   * @{
  65:../inc/STM32_USB_Device_Library/Core/src/usbd_req.c ****   */ 
  66:../inc/STM32_USB_Device_Library/Core/src/usbd_req.c **** 
  67:../inc/STM32_USB_Device_Library/Core/src/usbd_req.c **** #ifdef USB_OTG_HS_INTERNAL_DMA_ENABLED
  68:../inc/STM32_USB_Device_Library/Core/src/usbd_req.c ****   #if defined ( __ICCARM__ ) /*!< IAR Compiler */
  69:../inc/STM32_USB_Device_Library/Core/src/usbd_req.c ****     #pragma data_alignment=4   
  70:../inc/STM32_USB_Device_Library/Core/src/usbd_req.c ****   #endif
  71:../inc/STM32_USB_Device_Library/Core/src/usbd_req.c **** #endif /* USB_OTG_HS_INTERNAL_DMA_ENABLED */  
  72:../inc/STM32_USB_Device_Library/Core/src/usbd_req.c **** __ALIGN_BEGIN uint32_t USBD_ep_status __ALIGN_END  = 0; 
  73:../inc/STM32_USB_Device_Library/Core/src/usbd_req.c **** 
  74:../inc/STM32_USB_Device_Library/Core/src/usbd_req.c **** #ifdef USB_OTG_HS_INTERNAL_DMA_ENABLED
  75:../inc/STM32_USB_Device_Library/Core/src/usbd_req.c ****   #if defined ( __ICCARM__ ) /*!< IAR Compiler */
  76:../inc/STM32_USB_Device_Library/Core/src/usbd_req.c ****     #pragma data_alignment=4   
  77:../inc/STM32_USB_Device_Library/Core/src/usbd_req.c ****   #endif
  78:../inc/STM32_USB_Device_Library/Core/src/usbd_req.c **** #endif /* USB_OTG_HS_INTERNAL_DMA_ENABLED */
  79:../inc/STM32_USB_Device_Library/Core/src/usbd_req.c **** __ALIGN_BEGIN uint32_t  USBD_default_cfg __ALIGN_END  = 0;
  80:../inc/STM32_USB_Device_Library/Core/src/usbd_req.c **** 
  81:../inc/STM32_USB_Device_Library/Core/src/usbd_req.c **** #ifdef USB_OTG_HS_INTERNAL_DMA_ENABLED
  82:../inc/STM32_USB_Device_Library/Core/src/usbd_req.c ****   #if defined ( __ICCARM__ ) /*!< IAR Compiler */
  83:../inc/STM32_USB_Device_Library/Core/src/usbd_req.c ****     #pragma data_alignment=4   
  84:../inc/STM32_USB_Device_Library/Core/src/usbd_req.c ****   #endif
  85:../inc/STM32_USB_Device_Library/Core/src/usbd_req.c **** #endif /* USB_OTG_HS_INTERNAL_DMA_ENABLED */
  86:../inc/STM32_USB_Device_Library/Core/src/usbd_req.c **** __ALIGN_BEGIN uint32_t  USBD_cfg_status __ALIGN_END  = 0;  
  87:../inc/STM32_USB_Device_Library/Core/src/usbd_req.c **** 
  88:../inc/STM32_USB_Device_Library/Core/src/usbd_req.c **** #ifdef USB_OTG_HS_INTERNAL_DMA_ENABLED
  89:../inc/STM32_USB_Device_Library/Core/src/usbd_req.c ****   #if defined ( __ICCARM__ ) /*!< IAR Compiler */
  90:../inc/STM32_USB_Device_Library/Core/src/usbd_req.c ****     #pragma data_alignment=4   
  91:../inc/STM32_USB_Device_Library/Core/src/usbd_req.c ****   #endif
  92:../inc/STM32_USB_Device_Library/Core/src/usbd_req.c **** #endif /* USB_OTG_HS_INTERNAL_DMA_ENABLED */
  93:../inc/STM32_USB_Device_Library/Core/src/usbd_req.c **** __ALIGN_BEGIN uint8_t USBD_StrDesc[USB_MAX_STR_DESC_SIZ] __ALIGN_END ;
  94:../inc/STM32_USB_Device_Library/Core/src/usbd_req.c **** /**
  95:../inc/STM32_USB_Device_Library/Core/src/usbd_req.c ****   * @}
  96:../inc/STM32_USB_Device_Library/Core/src/usbd_req.c ****   */ 
  97:../inc/STM32_USB_Device_Library/Core/src/usbd_req.c **** 
  98:../inc/STM32_USB_Device_Library/Core/src/usbd_req.c **** 
  99:../inc/STM32_USB_Device_Library/Core/src/usbd_req.c **** /** @defgroup USBD_REQ_Private_FunctionPrototypes
 100:../inc/STM32_USB_Device_Library/Core/src/usbd_req.c ****   * @{
 101:../inc/STM32_USB_Device_Library/Core/src/usbd_req.c ****   */ 
 102:../inc/STM32_USB_Device_Library/Core/src/usbd_req.c **** static void USBD_GetDescriptor(USB_OTG_CORE_HANDLE  *pdev, 
 103:../inc/STM32_USB_Device_Library/Core/src/usbd_req.c ****                                USB_SETUP_REQ *req);
 104:../inc/STM32_USB_Device_Library/Core/src/usbd_req.c **** 
 105:../inc/STM32_USB_Device_Library/Core/src/usbd_req.c **** static void USBD_SetAddress(USB_OTG_CORE_HANDLE  *pdev, 
 106:../inc/STM32_USB_Device_Library/Core/src/usbd_req.c ****                             USB_SETUP_REQ *req);
 107:../inc/STM32_USB_Device_Library/Core/src/usbd_req.c **** 
 108:../inc/STM32_USB_Device_Library/Core/src/usbd_req.c **** static void USBD_SetConfig(USB_OTG_CORE_HANDLE  *pdev, 
 109:../inc/STM32_USB_Device_Library/Core/src/usbd_req.c ****                            USB_SETUP_REQ *req);
 110:../inc/STM32_USB_Device_Library/Core/src/usbd_req.c **** 
 111:../inc/STM32_USB_Device_Library/Core/src/usbd_req.c **** static void USBD_GetConfig(USB_OTG_CORE_HANDLE  *pdev, 
 112:../inc/STM32_USB_Device_Library/Core/src/usbd_req.c ****                            USB_SETUP_REQ *req);
 113:../inc/STM32_USB_Device_Library/Core/src/usbd_req.c **** 
 114:../inc/STM32_USB_Device_Library/Core/src/usbd_req.c **** static void USBD_GetStatus(USB_OTG_CORE_HANDLE  *pdev, 
 115:../inc/STM32_USB_Device_Library/Core/src/usbd_req.c ****                            USB_SETUP_REQ *req);
 116:../inc/STM32_USB_Device_Library/Core/src/usbd_req.c **** 
 117:../inc/STM32_USB_Device_Library/Core/src/usbd_req.c **** static void USBD_SetFeature(USB_OTG_CORE_HANDLE  *pdev, 
 118:../inc/STM32_USB_Device_Library/Core/src/usbd_req.c ****                             USB_SETUP_REQ *req);
 119:../inc/STM32_USB_Device_Library/Core/src/usbd_req.c **** 
 120:../inc/STM32_USB_Device_Library/Core/src/usbd_req.c **** static void USBD_ClrFeature(USB_OTG_CORE_HANDLE  *pdev, 
 121:../inc/STM32_USB_Device_Library/Core/src/usbd_req.c ****                             USB_SETUP_REQ *req);
 122:../inc/STM32_USB_Device_Library/Core/src/usbd_req.c **** 
 123:../inc/STM32_USB_Device_Library/Core/src/usbd_req.c **** static uint8_t USBD_GetLen(uint8_t *buf);
 124:../inc/STM32_USB_Device_Library/Core/src/usbd_req.c **** /**
 125:../inc/STM32_USB_Device_Library/Core/src/usbd_req.c ****   * @}
 126:../inc/STM32_USB_Device_Library/Core/src/usbd_req.c ****   */ 
 127:../inc/STM32_USB_Device_Library/Core/src/usbd_req.c **** 
 128:../inc/STM32_USB_Device_Library/Core/src/usbd_req.c **** 
 129:../inc/STM32_USB_Device_Library/Core/src/usbd_req.c **** /** @defgroup USBD_REQ_Private_Functions
 130:../inc/STM32_USB_Device_Library/Core/src/usbd_req.c ****   * @{
 131:../inc/STM32_USB_Device_Library/Core/src/usbd_req.c ****   */ 
 132:../inc/STM32_USB_Device_Library/Core/src/usbd_req.c **** 
 133:../inc/STM32_USB_Device_Library/Core/src/usbd_req.c **** 
 134:../inc/STM32_USB_Device_Library/Core/src/usbd_req.c **** /**
 135:../inc/STM32_USB_Device_Library/Core/src/usbd_req.c **** * @brief  USBD_StdDevReq
 136:../inc/STM32_USB_Device_Library/Core/src/usbd_req.c **** *         Handle standard usb device requests
 137:../inc/STM32_USB_Device_Library/Core/src/usbd_req.c **** * @param  pdev: device instance
 138:../inc/STM32_USB_Device_Library/Core/src/usbd_req.c **** * @param  req: usb request
 139:../inc/STM32_USB_Device_Library/Core/src/usbd_req.c **** * @retval status
 140:../inc/STM32_USB_Device_Library/Core/src/usbd_req.c **** */
 141:../inc/STM32_USB_Device_Library/Core/src/usbd_req.c **** USBD_Status  USBD_StdDevReq (USB_OTG_CORE_HANDLE  *pdev, USB_SETUP_REQ  *req)
 142:../inc/STM32_USB_Device_Library/Core/src/usbd_req.c **** {
 25364              		.loc 1 142 0
 25365              		.cfi_startproc
 25366              		@ args = 0, pretend = 0, frame = 16
 25367              		@ frame_needed = 1, uses_anonymous_args = 0
 25368 0000 80B5     		push	{r7, lr}
 25369              	.LCFI0:
 25370              		.cfi_def_cfa_offset 8
 25371 0002 84B0     		sub	sp, sp, #16
 25372              	.LCFI1:
 25373              		.cfi_def_cfa_offset 24
 25374 0004 00AF     		add	r7, sp, #0
 25375              		.cfi_offset 14, -4
 25376              		.cfi_offset 7, -8
 25377              	.LCFI2:
 25378              		.cfi_def_cfa_register 7
 25379 0006 7860     		str	r0, [r7, #4]
 25380 0008 3960     		str	r1, [r7, #0]
 143:../inc/STM32_USB_Device_Library/Core/src/usbd_req.c ****   USBD_Status ret = USBD_OK;  
 25381              		.loc 1 143 0
 25382 000a 4FF00003 		mov	r3, #0
 25383 000e FB73     		strb	r3, [r7, #15]
 144:../inc/STM32_USB_Device_Library/Core/src/usbd_req.c ****   
 145:../inc/STM32_USB_Device_Library/Core/src/usbd_req.c ****   switch (req->bRequest) 
 25384              		.loc 1 145 0
 25385 0010 3B68     		ldr	r3, [r7, #0]
 25386 0012 5B78     		ldrb	r3, [r3, #1]	@ zero_extendqisi2
 25387 0014 092B     		cmp	r3, #9
 25388 0016 3AD8     		bhi	.L2
 25389 0018 01A2     		adr	r2, .L10
 25390 001a 52F823F0 		ldr	pc, [r2, r3, lsl #2]
 25391 001e 00BF     		.align	2
 25392              	.L10:
 25393 0020 71000000 		.word	.L3+1
 25394 0024 85000000 		.word	.L4+1
 25395 0028 8F000000 		.word	.L2+1
 25396 002c 7B000000 		.word	.L5+1
 25397 0030 8F000000 		.word	.L2+1
 25398 0034 53000000 		.word	.L6+1
 25399 0038 49000000 		.word	.L7+1
 25400 003c 8F000000 		.word	.L2+1
 25401 0040 67000000 		.word	.L8+1
 25402 0044 5D000000 		.word	.L9+1
 25403              	.L7:
 146:../inc/STM32_USB_Device_Library/Core/src/usbd_req.c ****   {
 147:../inc/STM32_USB_Device_Library/Core/src/usbd_req.c ****   case USB_REQ_GET_DESCRIPTOR: 
 148:../inc/STM32_USB_Device_Library/Core/src/usbd_req.c ****     
 149:../inc/STM32_USB_Device_Library/Core/src/usbd_req.c ****     USBD_GetDescriptor (pdev, req) ;
 25404              		.loc 1 149 0
 25405 0048 7868     		ldr	r0, [r7, #4]
 25406 004a 3968     		ldr	r1, [r7, #0]
 25407 004c FFF7FEFF 		bl	USBD_GetDescriptor
 150:../inc/STM32_USB_Device_Library/Core/src/usbd_req.c ****     break;
 25408              		.loc 1 150 0
 25409 0050 22E0     		b	.L11
 25410              	.L6:
 151:../inc/STM32_USB_Device_Library/Core/src/usbd_req.c ****     
 152:../inc/STM32_USB_Device_Library/Core/src/usbd_req.c ****   case USB_REQ_SET_ADDRESS:                      
 153:../inc/STM32_USB_Device_Library/Core/src/usbd_req.c ****     USBD_SetAddress(pdev, req);
 25411              		.loc 1 153 0
 25412 0052 7868     		ldr	r0, [r7, #4]
 25413 0054 3968     		ldr	r1, [r7, #0]
 25414 0056 FFF7FEFF 		bl	USBD_SetAddress
 154:../inc/STM32_USB_Device_Library/Core/src/usbd_req.c ****     break;
 25415              		.loc 1 154 0
 25416 005a 1DE0     		b	.L11
 25417              	.L9:
 155:../inc/STM32_USB_Device_Library/Core/src/usbd_req.c ****     
 156:../inc/STM32_USB_Device_Library/Core/src/usbd_req.c ****   case USB_REQ_SET_CONFIGURATION:                    
 157:../inc/STM32_USB_Device_Library/Core/src/usbd_req.c ****     USBD_SetConfig (pdev , req);
 25418              		.loc 1 157 0
 25419 005c 7868     		ldr	r0, [r7, #4]
 25420 005e 3968     		ldr	r1, [r7, #0]
 25421 0060 FFF7FEFF 		bl	USBD_SetConfig
 158:../inc/STM32_USB_Device_Library/Core/src/usbd_req.c ****     break;
 25422              		.loc 1 158 0
 25423 0064 18E0     		b	.L11
 25424              	.L8:
 159:../inc/STM32_USB_Device_Library/Core/src/usbd_req.c ****     
 160:../inc/STM32_USB_Device_Library/Core/src/usbd_req.c ****   case USB_REQ_GET_CONFIGURATION:                 
 161:../inc/STM32_USB_Device_Library/Core/src/usbd_req.c ****     USBD_GetConfig (pdev , req);
 25425              		.loc 1 161 0
 25426 0066 7868     		ldr	r0, [r7, #4]
 25427 0068 3968     		ldr	r1, [r7, #0]
 25428 006a FFF7FEFF 		bl	USBD_GetConfig
 162:../inc/STM32_USB_Device_Library/Core/src/usbd_req.c ****     break;
 25429              		.loc 1 162 0
 25430 006e 13E0     		b	.L11
 25431              	.L3:
 163:../inc/STM32_USB_Device_Library/Core/src/usbd_req.c ****     
 164:../inc/STM32_USB_Device_Library/Core/src/usbd_req.c ****   case USB_REQ_GET_STATUS:                                  
 165:../inc/STM32_USB_Device_Library/Core/src/usbd_req.c ****     USBD_GetStatus (pdev , req);
 25432              		.loc 1 165 0
 25433 0070 7868     		ldr	r0, [r7, #4]
 25434 0072 3968     		ldr	r1, [r7, #0]
 25435 0074 FFF7FEFF 		bl	USBD_GetStatus
 166:../inc/STM32_USB_Device_Library/Core/src/usbd_req.c ****     break;
 25436              		.loc 1 166 0
 25437 0078 0EE0     		b	.L11
 25438              	.L5:
 167:../inc/STM32_USB_Device_Library/Core/src/usbd_req.c ****     
 168:../inc/STM32_USB_Device_Library/Core/src/usbd_req.c ****     
 169:../inc/STM32_USB_Device_Library/Core/src/usbd_req.c ****   case USB_REQ_SET_FEATURE:   
 170:../inc/STM32_USB_Device_Library/Core/src/usbd_req.c ****     USBD_SetFeature (pdev , req);    
 25439              		.loc 1 170 0
 25440 007a 7868     		ldr	r0, [r7, #4]
 25441 007c 3968     		ldr	r1, [r7, #0]
 25442 007e FFF7FEFF 		bl	USBD_SetFeature
 171:../inc/STM32_USB_Device_Library/Core/src/usbd_req.c ****     break;
 25443              		.loc 1 171 0
 25444 0082 09E0     		b	.L11
 25445              	.L4:
 172:../inc/STM32_USB_Device_Library/Core/src/usbd_req.c ****     
 173:../inc/STM32_USB_Device_Library/Core/src/usbd_req.c ****   case USB_REQ_CLEAR_FEATURE:                                   
 174:../inc/STM32_USB_Device_Library/Core/src/usbd_req.c ****     USBD_ClrFeature (pdev , req);
 25446              		.loc 1 174 0
 25447 0084 7868     		ldr	r0, [r7, #4]
 25448 0086 3968     		ldr	r1, [r7, #0]
 25449 0088 FFF7FEFF 		bl	USBD_ClrFeature
 175:../inc/STM32_USB_Device_Library/Core/src/usbd_req.c ****     break;
 25450              		.loc 1 175 0
 25451 008c 04E0     		b	.L11
 25452              	.L2:
 176:../inc/STM32_USB_Device_Library/Core/src/usbd_req.c ****     
 177:../inc/STM32_USB_Device_Library/Core/src/usbd_req.c ****   default:  
 178:../inc/STM32_USB_Device_Library/Core/src/usbd_req.c ****     USBD_CtlError(pdev , req);
 25453              		.loc 1 178 0
 25454 008e 7868     		ldr	r0, [r7, #4]
 25455 0090 3968     		ldr	r1, [r7, #0]
 25456 0092 FFF7FEFF 		bl	USBD_CtlError
 179:../inc/STM32_USB_Device_Library/Core/src/usbd_req.c ****     break;
 25457              		.loc 1 179 0
 25458 0096 00BF     		nop
 25459              	.L11:
 180:../inc/STM32_USB_Device_Library/Core/src/usbd_req.c ****   }
 181:../inc/STM32_USB_Device_Library/Core/src/usbd_req.c ****   
 182:../inc/STM32_USB_Device_Library/Core/src/usbd_req.c ****   return ret;
 25460              		.loc 1 182 0
 25461 0098 FB7B     		ldrb	r3, [r7, #15]	@ zero_extendqisi2
 183:../inc/STM32_USB_Device_Library/Core/src/usbd_req.c **** }
 25462              		.loc 1 183 0
 25463 009a 1846     		mov	r0, r3
 25464 009c 07F11007 		add	r7, r7, #16
 25465 00a0 BD46     		mov	sp, r7
 25466 00a2 80BD     		pop	{r7, pc}
 25467              		.cfi_endproc
 25468              	.LFE110:
 25470              		.section	.text.USBD_StdItfReq,"ax",%progbits
 25471              		.align	2
 25472              		.global	USBD_StdItfReq
 25473              		.thumb
 25474              		.thumb_func
 25476              	USBD_StdItfReq:
 25477              	.LFB111:
 184:../inc/STM32_USB_Device_Library/Core/src/usbd_req.c **** 
 185:../inc/STM32_USB_Device_Library/Core/src/usbd_req.c **** /**
 186:../inc/STM32_USB_Device_Library/Core/src/usbd_req.c **** * @brief  USBD_StdItfReq
 187:../inc/STM32_USB_Device_Library/Core/src/usbd_req.c **** *         Handle standard usb interface requests
 188:../inc/STM32_USB_Device_Library/Core/src/usbd_req.c **** * @param  pdev: USB OTG device instance
 189:../inc/STM32_USB_Device_Library/Core/src/usbd_req.c **** * @param  req: usb request
 190:../inc/STM32_USB_Device_Library/Core/src/usbd_req.c **** * @retval status
 191:../inc/STM32_USB_Device_Library/Core/src/usbd_req.c **** */
 192:../inc/STM32_USB_Device_Library/Core/src/usbd_req.c **** USBD_Status  USBD_StdItfReq (USB_OTG_CORE_HANDLE  *pdev, USB_SETUP_REQ  *req)
 193:../inc/STM32_USB_Device_Library/Core/src/usbd_req.c **** {
 25478              		.loc 1 193 0
 25479              		.cfi_startproc
 25480              		@ args = 0, pretend = 0, frame = 16
 25481              		@ frame_needed = 1, uses_anonymous_args = 0
 25482 0000 80B5     		push	{r7, lr}
 25483              	.LCFI3:
 25484              		.cfi_def_cfa_offset 8
 25485 0002 84B0     		sub	sp, sp, #16
 25486              	.LCFI4:
 25487              		.cfi_def_cfa_offset 24
 25488 0004 00AF     		add	r7, sp, #0
 25489              		.cfi_offset 14, -4
 25490              		.cfi_offset 7, -8
 25491              	.LCFI5:
 25492              		.cfi_def_cfa_register 7
 25493 0006 7860     		str	r0, [r7, #4]
 25494 0008 3960     		str	r1, [r7, #0]
 194:../inc/STM32_USB_Device_Library/Core/src/usbd_req.c ****   USBD_Status ret = USBD_OK; 
 25495              		.loc 1 194 0
 25496 000a 4FF00003 		mov	r3, #0
 25497 000e FB73     		strb	r3, [r7, #15]
 195:../inc/STM32_USB_Device_Library/Core/src/usbd_req.c ****   
 196:../inc/STM32_USB_Device_Library/Core/src/usbd_req.c ****   switch (pdev->dev.device_status) 
 25498              		.loc 1 196 0
 25499 0010 7B68     		ldr	r3, [r7, #4]
 25500 0012 93F81231 		ldrb	r3, [r3, #274]	@ zero_extendqisi2
 25501 0016 032B     		cmp	r3, #3
 25502 0018 1BD1     		bne	.L18
 25503              	.L14:
 197:../inc/STM32_USB_Device_Library/Core/src/usbd_req.c ****   {
 198:../inc/STM32_USB_Device_Library/Core/src/usbd_req.c ****   case USB_OTG_CONFIGURED:
 199:../inc/STM32_USB_Device_Library/Core/src/usbd_req.c ****     
 200:../inc/STM32_USB_Device_Library/Core/src/usbd_req.c ****     if (LOBYTE(req->wIndex) <= USBD_ITF_MAX_NUM) 
 25504              		.loc 1 200 0
 25505 001a 3B68     		ldr	r3, [r7, #0]
 25506 001c 9B88     		ldrh	r3, [r3, #4]
 25507 001e DBB2     		uxtb	r3, r3
 25508 0020 012B     		cmp	r3, #1
 25509 0022 11D8     		bhi	.L15
 201:../inc/STM32_USB_Device_Library/Core/src/usbd_req.c ****     {
 202:../inc/STM32_USB_Device_Library/Core/src/usbd_req.c ****       pdev->dev.class_cb->Setup (pdev, req); 
 25510              		.loc 1 202 0
 25511 0024 7B68     		ldr	r3, [r7, #4]
 25512 0026 D3F8E035 		ldr	r3, [r3, #1504]
 25513 002a 9B68     		ldr	r3, [r3, #8]
 25514 002c 7868     		ldr	r0, [r7, #4]
 25515 002e 3968     		ldr	r1, [r7, #0]
 25516 0030 9847     		blx	r3
 203:../inc/STM32_USB_Device_Library/Core/src/usbd_req.c ****       
 204:../inc/STM32_USB_Device_Library/Core/src/usbd_req.c ****       if((req->wLength == 0)&& (ret == USBD_OK))
 25517              		.loc 1 204 0
 25518 0032 3B68     		ldr	r3, [r7, #0]
 25519 0034 DB88     		ldrh	r3, [r3, #6]
 25520 0036 002B     		cmp	r3, #0
 25521 0038 10D1     		bne	.L19
 25522              		.loc 1 204 0 is_stmt 0 discriminator 1
 25523 003a FB7B     		ldrb	r3, [r7, #15]	@ zero_extendqisi2
 25524 003c 002B     		cmp	r3, #0
 25525 003e 0FD1     		bne	.L20
 205:../inc/STM32_USB_Device_Library/Core/src/usbd_req.c ****       {
 206:../inc/STM32_USB_Device_Library/Core/src/usbd_req.c ****          USBD_CtlSendStatus(pdev);
 25526              		.loc 1 206 0 is_stmt 1
 25527 0040 7868     		ldr	r0, [r7, #4]
 25528 0042 FFF7FEFF 		bl	USBD_CtlSendStatus
 207:../inc/STM32_USB_Device_Library/Core/src/usbd_req.c ****       }
 208:../inc/STM32_USB_Device_Library/Core/src/usbd_req.c ****     } 
 209:../inc/STM32_USB_Device_Library/Core/src/usbd_req.c ****     else 
 210:../inc/STM32_USB_Device_Library/Core/src/usbd_req.c ****     {                                               
 211:../inc/STM32_USB_Device_Library/Core/src/usbd_req.c ****        USBD_CtlError(pdev , req);
 212:../inc/STM32_USB_Device_Library/Core/src/usbd_req.c ****     }
 213:../inc/STM32_USB_Device_Library/Core/src/usbd_req.c ****     break;
 25529              		.loc 1 213 0
 25530 0046 0CE0     		b	.L17
 25531              	.L15:
 211:../inc/STM32_USB_Device_Library/Core/src/usbd_req.c ****        USBD_CtlError(pdev , req);
 25532              		.loc 1 211 0
 25533 0048 7868     		ldr	r0, [r7, #4]
 25534 004a 3968     		ldr	r1, [r7, #0]
 25535 004c FFF7FEFF 		bl	USBD_CtlError
 25536              		.loc 1 213 0
 25537 0050 07E0     		b	.L17
 25538              	.L18:
 214:../inc/STM32_USB_Device_Library/Core/src/usbd_req.c ****     
 215:../inc/STM32_USB_Device_Library/Core/src/usbd_req.c ****   default:
 216:../inc/STM32_USB_Device_Library/Core/src/usbd_req.c ****      USBD_CtlError(pdev , req);
 25539              		.loc 1 216 0
 25540 0052 7868     		ldr	r0, [r7, #4]
 25541 0054 3968     		ldr	r1, [r7, #0]
 25542 0056 FFF7FEFF 		bl	USBD_CtlError
 217:../inc/STM32_USB_Device_Library/Core/src/usbd_req.c ****     break;
 25543              		.loc 1 217 0
 25544 005a 02E0     		b	.L17
 25545              	.L19:
 213:../inc/STM32_USB_Device_Library/Core/src/usbd_req.c ****     break;
 25546              		.loc 1 213 0
 25547 005c 00BF     		nop
 25548 005e 00E0     		b	.L17
 25549              	.L20:
 25550 0060 00BF     		nop
 25551              	.L17:
 218:../inc/STM32_USB_Device_Library/Core/src/usbd_req.c ****   }
 219:../inc/STM32_USB_Device_Library/Core/src/usbd_req.c ****   return ret;
 25552              		.loc 1 219 0
 25553 0062 FB7B     		ldrb	r3, [r7, #15]	@ zero_extendqisi2
 220:../inc/STM32_USB_Device_Library/Core/src/usbd_req.c **** }
 25554              		.loc 1 220 0
 25555 0064 1846     		mov	r0, r3
 25556 0066 07F11007 		add	r7, r7, #16
 25557 006a BD46     		mov	sp, r7
 25558 006c 80BD     		pop	{r7, pc}
 25559              		.cfi_endproc
 25560              	.LFE111:
 25562 006e 00BF     		.section	.text.USBD_StdEPReq,"ax",%progbits
 25563              		.align	2
 25564              		.global	USBD_StdEPReq
 25565              		.thumb
 25566              		.thumb_func
 25568              	USBD_StdEPReq:
 25569              	.LFB112:
 221:../inc/STM32_USB_Device_Library/Core/src/usbd_req.c **** 
 222:../inc/STM32_USB_Device_Library/Core/src/usbd_req.c **** /**
 223:../inc/STM32_USB_Device_Library/Core/src/usbd_req.c **** * @brief  USBD_StdEPReq
 224:../inc/STM32_USB_Device_Library/Core/src/usbd_req.c **** *         Handle standard usb endpoint requests
 225:../inc/STM32_USB_Device_Library/Core/src/usbd_req.c **** * @param  pdev: USB OTG device instance
 226:../inc/STM32_USB_Device_Library/Core/src/usbd_req.c **** * @param  req: usb request
 227:../inc/STM32_USB_Device_Library/Core/src/usbd_req.c **** * @retval status
 228:../inc/STM32_USB_Device_Library/Core/src/usbd_req.c **** */
 229:../inc/STM32_USB_Device_Library/Core/src/usbd_req.c **** USBD_Status  USBD_StdEPReq (USB_OTG_CORE_HANDLE  *pdev, USB_SETUP_REQ  *req)
 230:../inc/STM32_USB_Device_Library/Core/src/usbd_req.c **** {
 25570              		.loc 1 230 0
 25571              		.cfi_startproc
 25572              		@ args = 0, pretend = 0, frame = 16
 25573              		@ frame_needed = 1, uses_anonymous_args = 0
 25574 0000 80B5     		push	{r7, lr}
 25575              	.LCFI6:
 25576              		.cfi_def_cfa_offset 8
 25577 0002 84B0     		sub	sp, sp, #16
 25578              	.LCFI7:
 25579              		.cfi_def_cfa_offset 24
 25580 0004 00AF     		add	r7, sp, #0
 25581              		.cfi_offset 14, -4
 25582              		.cfi_offset 7, -8
 25583              	.LCFI8:
 25584              		.cfi_def_cfa_register 7
 25585 0006 7860     		str	r0, [r7, #4]
 25586 0008 3960     		str	r1, [r7, #0]
 231:../inc/STM32_USB_Device_Library/Core/src/usbd_req.c ****   
 232:../inc/STM32_USB_Device_Library/Core/src/usbd_req.c ****   uint8_t   ep_addr;
 233:../inc/STM32_USB_Device_Library/Core/src/usbd_req.c ****   USBD_Status ret = USBD_OK; 
 25587              		.loc 1 233 0
 25588 000a 4FF00003 		mov	r3, #0
 25589 000e FB73     		strb	r3, [r7, #15]
 234:../inc/STM32_USB_Device_Library/Core/src/usbd_req.c ****   
 235:../inc/STM32_USB_Device_Library/Core/src/usbd_req.c ****   ep_addr  = LOBYTE(req->wIndex);   
 25590              		.loc 1 235 0
 25591 0010 3B68     		ldr	r3, [r7, #0]
 25592 0012 9B88     		ldrh	r3, [r3, #4]
 25593 0014 BB73     		strb	r3, [r7, #14]
 236:../inc/STM32_USB_Device_Library/Core/src/usbd_req.c ****   
 237:../inc/STM32_USB_Device_Library/Core/src/usbd_req.c ****   switch (req->bRequest) 
 25594              		.loc 1 237 0
 25595 0016 3B68     		ldr	r3, [r7, #0]
 25596 0018 5B78     		ldrb	r3, [r3, #1]	@ zero_extendqisi2
 25597 001a 012B     		cmp	r3, #1
 25598 001c 38D0     		beq	.L24
 25599 001e 032B     		cmp	r3, #3
 25600 0020 02D0     		beq	.L25
 25601 0022 002B     		cmp	r3, #0
 25602 0024 68D0     		beq	.L23
 238:../inc/STM32_USB_Device_Library/Core/src/usbd_req.c ****   {
 239:../inc/STM32_USB_Device_Library/Core/src/usbd_req.c ****     
 240:../inc/STM32_USB_Device_Library/Core/src/usbd_req.c ****   case USB_REQ_SET_FEATURE :
 241:../inc/STM32_USB_Device_Library/Core/src/usbd_req.c ****     
 242:../inc/STM32_USB_Device_Library/Core/src/usbd_req.c ****     switch (pdev->dev.device_status) 
 243:../inc/STM32_USB_Device_Library/Core/src/usbd_req.c ****     {
 244:../inc/STM32_USB_Device_Library/Core/src/usbd_req.c ****     case USB_OTG_ADDRESSED:          
 245:../inc/STM32_USB_Device_Library/Core/src/usbd_req.c ****       if ((ep_addr != 0x00) && (ep_addr != 0x80)) 
 246:../inc/STM32_USB_Device_Library/Core/src/usbd_req.c ****       {
 247:../inc/STM32_USB_Device_Library/Core/src/usbd_req.c ****         DCD_EP_Stall(pdev , ep_addr);
 248:../inc/STM32_USB_Device_Library/Core/src/usbd_req.c ****       }
 249:../inc/STM32_USB_Device_Library/Core/src/usbd_req.c ****       break;	
 250:../inc/STM32_USB_Device_Library/Core/src/usbd_req.c ****       
 251:../inc/STM32_USB_Device_Library/Core/src/usbd_req.c ****     case USB_OTG_CONFIGURED:   
 252:../inc/STM32_USB_Device_Library/Core/src/usbd_req.c ****       if (req->wValue == USB_FEATURE_EP_HALT)
 253:../inc/STM32_USB_Device_Library/Core/src/usbd_req.c ****       {
 254:../inc/STM32_USB_Device_Library/Core/src/usbd_req.c ****         if ((ep_addr != 0x00) && (ep_addr != 0x80)) 
 255:../inc/STM32_USB_Device_Library/Core/src/usbd_req.c ****         { 
 256:../inc/STM32_USB_Device_Library/Core/src/usbd_req.c ****           DCD_EP_Stall(pdev , ep_addr);
 257:../inc/STM32_USB_Device_Library/Core/src/usbd_req.c ****           
 258:../inc/STM32_USB_Device_Library/Core/src/usbd_req.c ****         }
 259:../inc/STM32_USB_Device_Library/Core/src/usbd_req.c ****       }
 260:../inc/STM32_USB_Device_Library/Core/src/usbd_req.c ****       pdev->dev.class_cb->Setup (pdev, req);   
 261:../inc/STM32_USB_Device_Library/Core/src/usbd_req.c ****       USBD_CtlSendStatus(pdev);
 262:../inc/STM32_USB_Device_Library/Core/src/usbd_req.c ****       
 263:../inc/STM32_USB_Device_Library/Core/src/usbd_req.c ****       break;
 264:../inc/STM32_USB_Device_Library/Core/src/usbd_req.c ****       
 265:../inc/STM32_USB_Device_Library/Core/src/usbd_req.c ****     default:                         
 266:../inc/STM32_USB_Device_Library/Core/src/usbd_req.c ****       USBD_CtlError(pdev , req);
 267:../inc/STM32_USB_Device_Library/Core/src/usbd_req.c ****       break;    
 268:../inc/STM32_USB_Device_Library/Core/src/usbd_req.c ****     }
 269:../inc/STM32_USB_Device_Library/Core/src/usbd_req.c ****     break;
 270:../inc/STM32_USB_Device_Library/Core/src/usbd_req.c ****     
 271:../inc/STM32_USB_Device_Library/Core/src/usbd_req.c ****   case USB_REQ_CLEAR_FEATURE :
 272:../inc/STM32_USB_Device_Library/Core/src/usbd_req.c ****     
 273:../inc/STM32_USB_Device_Library/Core/src/usbd_req.c ****     switch (pdev->dev.device_status) 
 274:../inc/STM32_USB_Device_Library/Core/src/usbd_req.c ****     {
 275:../inc/STM32_USB_Device_Library/Core/src/usbd_req.c ****     case USB_OTG_ADDRESSED:          
 276:../inc/STM32_USB_Device_Library/Core/src/usbd_req.c ****       if ((ep_addr != 0x00) && (ep_addr != 0x80)) 
 277:../inc/STM32_USB_Device_Library/Core/src/usbd_req.c ****       {
 278:../inc/STM32_USB_Device_Library/Core/src/usbd_req.c ****         DCD_EP_Stall(pdev , ep_addr);
 279:../inc/STM32_USB_Device_Library/Core/src/usbd_req.c ****       }
 280:../inc/STM32_USB_Device_Library/Core/src/usbd_req.c ****       break;	
 281:../inc/STM32_USB_Device_Library/Core/src/usbd_req.c ****       
 282:../inc/STM32_USB_Device_Library/Core/src/usbd_req.c ****     case USB_OTG_CONFIGURED:   
 283:../inc/STM32_USB_Device_Library/Core/src/usbd_req.c ****       if (req->wValue == USB_FEATURE_EP_HALT)
 284:../inc/STM32_USB_Device_Library/Core/src/usbd_req.c ****       {
 285:../inc/STM32_USB_Device_Library/Core/src/usbd_req.c ****         if ((ep_addr != 0x00) && (ep_addr != 0x80)) 
 286:../inc/STM32_USB_Device_Library/Core/src/usbd_req.c ****         {        
 287:../inc/STM32_USB_Device_Library/Core/src/usbd_req.c ****           DCD_EP_ClrStall(pdev , ep_addr);
 288:../inc/STM32_USB_Device_Library/Core/src/usbd_req.c ****           pdev->dev.class_cb->Setup (pdev, req);
 289:../inc/STM32_USB_Device_Library/Core/src/usbd_req.c ****         }
 290:../inc/STM32_USB_Device_Library/Core/src/usbd_req.c ****         USBD_CtlSendStatus(pdev);
 291:../inc/STM32_USB_Device_Library/Core/src/usbd_req.c ****       }
 292:../inc/STM32_USB_Device_Library/Core/src/usbd_req.c ****       break;
 293:../inc/STM32_USB_Device_Library/Core/src/usbd_req.c ****       
 294:../inc/STM32_USB_Device_Library/Core/src/usbd_req.c ****     default:                         
 295:../inc/STM32_USB_Device_Library/Core/src/usbd_req.c ****        USBD_CtlError(pdev , req);
 296:../inc/STM32_USB_Device_Library/Core/src/usbd_req.c ****       break;    
 297:../inc/STM32_USB_Device_Library/Core/src/usbd_req.c ****     }
 298:../inc/STM32_USB_Device_Library/Core/src/usbd_req.c ****     break;
 299:../inc/STM32_USB_Device_Library/Core/src/usbd_req.c ****     
 300:../inc/STM32_USB_Device_Library/Core/src/usbd_req.c ****   case USB_REQ_GET_STATUS:                  
 301:../inc/STM32_USB_Device_Library/Core/src/usbd_req.c ****     switch (pdev->dev.device_status) 
 302:../inc/STM32_USB_Device_Library/Core/src/usbd_req.c ****     {
 303:../inc/STM32_USB_Device_Library/Core/src/usbd_req.c ****     case USB_OTG_ADDRESSED:          
 304:../inc/STM32_USB_Device_Library/Core/src/usbd_req.c ****       if ((ep_addr != 0x00) && (ep_addr != 0x80)) 
 305:../inc/STM32_USB_Device_Library/Core/src/usbd_req.c ****       {
 306:../inc/STM32_USB_Device_Library/Core/src/usbd_req.c ****         DCD_EP_Stall(pdev , ep_addr);
 307:../inc/STM32_USB_Device_Library/Core/src/usbd_req.c ****       }
 308:../inc/STM32_USB_Device_Library/Core/src/usbd_req.c ****       break;	
 309:../inc/STM32_USB_Device_Library/Core/src/usbd_req.c ****       
 310:../inc/STM32_USB_Device_Library/Core/src/usbd_req.c ****     case USB_OTG_CONFIGURED:         
 311:../inc/STM32_USB_Device_Library/Core/src/usbd_req.c ****       
 312:../inc/STM32_USB_Device_Library/Core/src/usbd_req.c ****       
 313:../inc/STM32_USB_Device_Library/Core/src/usbd_req.c ****       if ((ep_addr & 0x80)== 0x80)
 314:../inc/STM32_USB_Device_Library/Core/src/usbd_req.c ****       {
 315:../inc/STM32_USB_Device_Library/Core/src/usbd_req.c ****         if(pdev->dev.in_ep[ep_addr & 0x7F].is_stall)
 316:../inc/STM32_USB_Device_Library/Core/src/usbd_req.c ****         {
 317:../inc/STM32_USB_Device_Library/Core/src/usbd_req.c ****           USBD_ep_status = 0x0001;     
 318:../inc/STM32_USB_Device_Library/Core/src/usbd_req.c ****         }
 319:../inc/STM32_USB_Device_Library/Core/src/usbd_req.c ****         else
 320:../inc/STM32_USB_Device_Library/Core/src/usbd_req.c ****         {
 321:../inc/STM32_USB_Device_Library/Core/src/usbd_req.c ****           USBD_ep_status = 0x0000;  
 322:../inc/STM32_USB_Device_Library/Core/src/usbd_req.c ****         }
 323:../inc/STM32_USB_Device_Library/Core/src/usbd_req.c ****       }
 324:../inc/STM32_USB_Device_Library/Core/src/usbd_req.c ****       else if ((ep_addr & 0x80)== 0x00)
 325:../inc/STM32_USB_Device_Library/Core/src/usbd_req.c ****       {
 326:../inc/STM32_USB_Device_Library/Core/src/usbd_req.c ****         if(pdev->dev.out_ep[ep_addr].is_stall)
 327:../inc/STM32_USB_Device_Library/Core/src/usbd_req.c ****         {
 328:../inc/STM32_USB_Device_Library/Core/src/usbd_req.c ****           USBD_ep_status = 0x0001;     
 329:../inc/STM32_USB_Device_Library/Core/src/usbd_req.c ****         }
 330:../inc/STM32_USB_Device_Library/Core/src/usbd_req.c ****         
 331:../inc/STM32_USB_Device_Library/Core/src/usbd_req.c ****         else 
 332:../inc/STM32_USB_Device_Library/Core/src/usbd_req.c ****         {
 333:../inc/STM32_USB_Device_Library/Core/src/usbd_req.c ****           USBD_ep_status = 0x0000;     
 334:../inc/STM32_USB_Device_Library/Core/src/usbd_req.c ****         }      
 335:../inc/STM32_USB_Device_Library/Core/src/usbd_req.c ****       }
 336:../inc/STM32_USB_Device_Library/Core/src/usbd_req.c ****       USBD_CtlSendData (pdev,
 337:../inc/STM32_USB_Device_Library/Core/src/usbd_req.c ****                         (uint8_t *)&USBD_ep_status,
 338:../inc/STM32_USB_Device_Library/Core/src/usbd_req.c ****                         2);
 339:../inc/STM32_USB_Device_Library/Core/src/usbd_req.c ****       break;
 340:../inc/STM32_USB_Device_Library/Core/src/usbd_req.c ****       
 341:../inc/STM32_USB_Device_Library/Core/src/usbd_req.c ****     default:                         
 342:../inc/STM32_USB_Device_Library/Core/src/usbd_req.c ****        USBD_CtlError(pdev , req);
 343:../inc/STM32_USB_Device_Library/Core/src/usbd_req.c ****       break;
 344:../inc/STM32_USB_Device_Library/Core/src/usbd_req.c ****     }
 345:../inc/STM32_USB_Device_Library/Core/src/usbd_req.c ****     break;
 346:../inc/STM32_USB_Device_Library/Core/src/usbd_req.c ****     
 347:../inc/STM32_USB_Device_Library/Core/src/usbd_req.c ****   default:
 348:../inc/STM32_USB_Device_Library/Core/src/usbd_req.c ****     break;
 25603              		.loc 1 348 0
 25604 0026 C2E0     		b	.L32
 25605              	.L25:
 242:../inc/STM32_USB_Device_Library/Core/src/usbd_req.c ****     switch (pdev->dev.device_status) 
 25606              		.loc 1 242 0
 25607 0028 7B68     		ldr	r3, [r7, #4]
 25608 002a 93F81231 		ldrb	r3, [r3, #274]	@ zero_extendqisi2
 25609 002e 022B     		cmp	r3, #2
 25610 0030 02D0     		beq	.L27
 25611 0032 032B     		cmp	r3, #3
 25612 0034 0CD0     		beq	.L28
 25613 0036 25E0     		b	.L49
 25614              	.L27:
 245:../inc/STM32_USB_Device_Library/Core/src/usbd_req.c ****       if ((ep_addr != 0x00) && (ep_addr != 0x80)) 
 25615              		.loc 1 245 0
 25616 0038 BB7B     		ldrb	r3, [r7, #14]	@ zero_extendqisi2
 25617 003a 002B     		cmp	r3, #0
 25618 003c 07D0     		beq	.L29
 245:../inc/STM32_USB_Device_Library/Core/src/usbd_req.c ****       if ((ep_addr != 0x00) && (ep_addr != 0x80)) 
 25619              		.loc 1 245 0 is_stmt 0 discriminator 1
 25620 003e BB7B     		ldrb	r3, [r7, #14]	@ zero_extendqisi2
 25621 0040 802B     		cmp	r3, #128
 25622 0042 04D0     		beq	.L29
 247:../inc/STM32_USB_Device_Library/Core/src/usbd_req.c ****         DCD_EP_Stall(pdev , ep_addr);
 25623              		.loc 1 247 0 is_stmt 1
 25624 0044 BB7B     		ldrb	r3, [r7, #14]	@ zero_extendqisi2
 25625 0046 7868     		ldr	r0, [r7, #4]
 25626 0048 1946     		mov	r1, r3
 25627 004a FFF7FEFF 		bl	DCD_EP_Stall
 25628              	.L29:
 249:../inc/STM32_USB_Device_Library/Core/src/usbd_req.c ****       break;	
 25629              		.loc 1 249 0
 25630 004e 1EE0     		b	.L30
 25631              	.L28:
 252:../inc/STM32_USB_Device_Library/Core/src/usbd_req.c ****       if (req->wValue == USB_FEATURE_EP_HALT)
 25632              		.loc 1 252 0
 25633 0050 3B68     		ldr	r3, [r7, #0]
 25634 0052 5B88     		ldrh	r3, [r3, #2]
 25635 0054 002B     		cmp	r3, #0
 25636 0056 0AD1     		bne	.L31
 254:../inc/STM32_USB_Device_Library/Core/src/usbd_req.c ****         if ((ep_addr != 0x00) && (ep_addr != 0x80)) 
 25637              		.loc 1 254 0
 25638 0058 BB7B     		ldrb	r3, [r7, #14]	@ zero_extendqisi2
 25639 005a 002B     		cmp	r3, #0
 25640 005c 07D0     		beq	.L31
 254:../inc/STM32_USB_Device_Library/Core/src/usbd_req.c ****         if ((ep_addr != 0x00) && (ep_addr != 0x80)) 
 25641              		.loc 1 254 0 is_stmt 0 discriminator 1
 25642 005e BB7B     		ldrb	r3, [r7, #14]	@ zero_extendqisi2
 25643 0060 802B     		cmp	r3, #128
 25644 0062 04D0     		beq	.L31
 256:../inc/STM32_USB_Device_Library/Core/src/usbd_req.c ****           DCD_EP_Stall(pdev , ep_addr);
 25645              		.loc 1 256 0 is_stmt 1
 25646 0064 BB7B     		ldrb	r3, [r7, #14]	@ zero_extendqisi2
 25647 0066 7868     		ldr	r0, [r7, #4]
 25648 0068 1946     		mov	r1, r3
 25649 006a FFF7FEFF 		bl	DCD_EP_Stall
 25650              	.L31:
 260:../inc/STM32_USB_Device_Library/Core/src/usbd_req.c ****       pdev->dev.class_cb->Setup (pdev, req);   
 25651              		.loc 1 260 0
 25652 006e 7B68     		ldr	r3, [r7, #4]
 25653 0070 D3F8E035 		ldr	r3, [r3, #1504]
 25654 0074 9B68     		ldr	r3, [r3, #8]
 25655 0076 7868     		ldr	r0, [r7, #4]
 25656 0078 3968     		ldr	r1, [r7, #0]
 25657 007a 9847     		blx	r3
 261:../inc/STM32_USB_Device_Library/Core/src/usbd_req.c ****       USBD_CtlSendStatus(pdev);
 25658              		.loc 1 261 0
 25659 007c 7868     		ldr	r0, [r7, #4]
 25660 007e FFF7FEFF 		bl	USBD_CtlSendStatus
 263:../inc/STM32_USB_Device_Library/Core/src/usbd_req.c ****       break;
 25661              		.loc 1 263 0
 25662 0082 04E0     		b	.L30
 25663              	.L49:
 266:../inc/STM32_USB_Device_Library/Core/src/usbd_req.c ****       USBD_CtlError(pdev , req);
 25664              		.loc 1 266 0
 25665 0084 7868     		ldr	r0, [r7, #4]
 25666 0086 3968     		ldr	r1, [r7, #0]
 25667 0088 FFF7FEFF 		bl	USBD_CtlError
 267:../inc/STM32_USB_Device_Library/Core/src/usbd_req.c ****       break;    
 25668              		.loc 1 267 0
 25669 008c 00BF     		nop
 25670              	.L30:
 269:../inc/STM32_USB_Device_Library/Core/src/usbd_req.c ****     break;
 25671              		.loc 1 269 0
 25672 008e 8EE0     		b	.L32
 25673              	.L24:
 273:../inc/STM32_USB_Device_Library/Core/src/usbd_req.c ****     switch (pdev->dev.device_status) 
 25674              		.loc 1 273 0
 25675 0090 7B68     		ldr	r3, [r7, #4]
 25676 0092 93F81231 		ldrb	r3, [r3, #274]	@ zero_extendqisi2
 25677 0096 022B     		cmp	r3, #2
 25678 0098 02D0     		beq	.L34
 25679 009a 032B     		cmp	r3, #3
 25680 009c 0CD0     		beq	.L35
 25681 009e 25E0     		b	.L50
 25682              	.L34:
 276:../inc/STM32_USB_Device_Library/Core/src/usbd_req.c ****       if ((ep_addr != 0x00) && (ep_addr != 0x80)) 
 25683              		.loc 1 276 0
 25684 00a0 BB7B     		ldrb	r3, [r7, #14]	@ zero_extendqisi2
 25685 00a2 002B     		cmp	r3, #0
 25686 00a4 07D0     		beq	.L36
 276:../inc/STM32_USB_Device_Library/Core/src/usbd_req.c ****       if ((ep_addr != 0x00) && (ep_addr != 0x80)) 
 25687              		.loc 1 276 0 is_stmt 0 discriminator 1
 25688 00a6 BB7B     		ldrb	r3, [r7, #14]	@ zero_extendqisi2
 25689 00a8 802B     		cmp	r3, #128
 25690 00aa 04D0     		beq	.L36
 278:../inc/STM32_USB_Device_Library/Core/src/usbd_req.c ****         DCD_EP_Stall(pdev , ep_addr);
 25691              		.loc 1 278 0 is_stmt 1
 25692 00ac BB7B     		ldrb	r3, [r7, #14]	@ zero_extendqisi2
 25693 00ae 7868     		ldr	r0, [r7, #4]
 25694 00b0 1946     		mov	r1, r3
 25695 00b2 FFF7FEFF 		bl	DCD_EP_Stall
 25696              	.L36:
 280:../inc/STM32_USB_Device_Library/Core/src/usbd_req.c ****       break;	
 25697              		.loc 1 280 0
 25698 00b6 1EE0     		b	.L37
 25699              	.L35:
 283:../inc/STM32_USB_Device_Library/Core/src/usbd_req.c ****       if (req->wValue == USB_FEATURE_EP_HALT)
 25700              		.loc 1 283 0
 25701 00b8 3B68     		ldr	r3, [r7, #0]
 25702 00ba 5B88     		ldrh	r3, [r3, #2]
 25703 00bc 002B     		cmp	r3, #0
 25704 00be 14D1     		bne	.L38
 285:../inc/STM32_USB_Device_Library/Core/src/usbd_req.c ****         if ((ep_addr != 0x00) && (ep_addr != 0x80)) 
 25705              		.loc 1 285 0
 25706 00c0 BB7B     		ldrb	r3, [r7, #14]	@ zero_extendqisi2
 25707 00c2 002B     		cmp	r3, #0
 25708 00c4 0ED0     		beq	.L39
 285:../inc/STM32_USB_Device_Library/Core/src/usbd_req.c ****         if ((ep_addr != 0x00) && (ep_addr != 0x80)) 
 25709              		.loc 1 285 0 is_stmt 0 discriminator 1
 25710 00c6 BB7B     		ldrb	r3, [r7, #14]	@ zero_extendqisi2
 25711 00c8 802B     		cmp	r3, #128
 25712 00ca 0BD0     		beq	.L39
 287:../inc/STM32_USB_Device_Library/Core/src/usbd_req.c ****           DCD_EP_ClrStall(pdev , ep_addr);
 25713              		.loc 1 287 0 is_stmt 1
 25714 00cc BB7B     		ldrb	r3, [r7, #14]	@ zero_extendqisi2
 25715 00ce 7868     		ldr	r0, [r7, #4]
 25716 00d0 1946     		mov	r1, r3
 25717 00d2 FFF7FEFF 		bl	DCD_EP_ClrStall
 288:../inc/STM32_USB_Device_Library/Core/src/usbd_req.c ****           pdev->dev.class_cb->Setup (pdev, req);
 25718              		.loc 1 288 0
 25719 00d6 7B68     		ldr	r3, [r7, #4]
 25720 00d8 D3F8E035 		ldr	r3, [r3, #1504]
 25721 00dc 9B68     		ldr	r3, [r3, #8]
 25722 00de 7868     		ldr	r0, [r7, #4]
 25723 00e0 3968     		ldr	r1, [r7, #0]
 25724 00e2 9847     		blx	r3
 25725              	.L39:
 290:../inc/STM32_USB_Device_Library/Core/src/usbd_req.c ****         USBD_CtlSendStatus(pdev);
 25726              		.loc 1 290 0
 25727 00e4 7868     		ldr	r0, [r7, #4]
 25728 00e6 FFF7FEFF 		bl	USBD_CtlSendStatus
 25729              	.L38:
 292:../inc/STM32_USB_Device_Library/Core/src/usbd_req.c ****       break;
 25730              		.loc 1 292 0
 25731 00ea 04E0     		b	.L37
 25732              	.L50:
 295:../inc/STM32_USB_Device_Library/Core/src/usbd_req.c ****        USBD_CtlError(pdev , req);
 25733              		.loc 1 295 0
 25734 00ec 7868     		ldr	r0, [r7, #4]
 25735 00ee 3968     		ldr	r1, [r7, #0]
 25736 00f0 FFF7FEFF 		bl	USBD_CtlError
 296:../inc/STM32_USB_Device_Library/Core/src/usbd_req.c ****       break;    
 25737              		.loc 1 296 0
 25738 00f4 00BF     		nop
 25739              	.L37:
 298:../inc/STM32_USB_Device_Library/Core/src/usbd_req.c ****     break;
 25740              		.loc 1 298 0
 25741 00f6 5AE0     		b	.L32
 25742              	.L23:
 301:../inc/STM32_USB_Device_Library/Core/src/usbd_req.c ****     switch (pdev->dev.device_status) 
 25743              		.loc 1 301 0
 25744 00f8 7B68     		ldr	r3, [r7, #4]
 25745 00fa 93F81231 		ldrb	r3, [r3, #274]	@ zero_extendqisi2
 25746 00fe 022B     		cmp	r3, #2
 25747 0100 02D0     		beq	.L41
 25748 0102 032B     		cmp	r3, #3
 25749 0104 0CD0     		beq	.L42
 25750 0106 4CE0     		b	.L51
 25751              	.L41:
 304:../inc/STM32_USB_Device_Library/Core/src/usbd_req.c ****       if ((ep_addr != 0x00) && (ep_addr != 0x80)) 
 25752              		.loc 1 304 0
 25753 0108 BB7B     		ldrb	r3, [r7, #14]	@ zero_extendqisi2
 25754 010a 002B     		cmp	r3, #0
 25755 010c 07D0     		beq	.L43
 304:../inc/STM32_USB_Device_Library/Core/src/usbd_req.c ****       if ((ep_addr != 0x00) && (ep_addr != 0x80)) 
 25756              		.loc 1 304 0 is_stmt 0 discriminator 1
 25757 010e BB7B     		ldrb	r3, [r7, #14]	@ zero_extendqisi2
 25758 0110 802B     		cmp	r3, #128
 25759 0112 04D0     		beq	.L43
 306:../inc/STM32_USB_Device_Library/Core/src/usbd_req.c ****         DCD_EP_Stall(pdev , ep_addr);
 25760              		.loc 1 306 0 is_stmt 1
 25761 0114 BB7B     		ldrb	r3, [r7, #14]	@ zero_extendqisi2
 25762 0116 7868     		ldr	r0, [r7, #4]
 25763 0118 1946     		mov	r1, r3
 25764 011a FFF7FEFF 		bl	DCD_EP_Stall
 25765              	.L43:
 308:../inc/STM32_USB_Device_Library/Core/src/usbd_req.c ****       break;	
 25766              		.loc 1 308 0
 25767 011e 45E0     		b	.L44
 25768              	.L42:
 313:../inc/STM32_USB_Device_Library/Core/src/usbd_req.c ****       if ((ep_addr & 0x80)== 0x80)
 25769              		.loc 1 313 0
 25770 0120 BB7B     		ldrb	r3, [r7, #14]	@ zero_extendqisi2
 25771 0122 5BB2     		sxtb	r3, r3
 25772 0124 002B     		cmp	r3, #0
 25773 0126 19DA     		bge	.L45
 315:../inc/STM32_USB_Device_Library/Core/src/usbd_req.c ****         if(pdev->dev.in_ep[ep_addr & 0x7F].is_stall)
 25774              		.loc 1 315 0
 25775 0128 BB7B     		ldrb	r3, [r7, #14]	@ zero_extendqisi2
 25776 012a 03F07F02 		and	r2, r3, #127
 25777 012e 7968     		ldr	r1, [r7, #4]
 25778 0130 1346     		mov	r3, r2
 25779 0132 4FEA8303 		lsl	r3, r3, #2
 25780 0136 9B18     		adds	r3, r3, r2
 25781 0138 4FEAC303 		lsl	r3, r3, #3
 25782 013c CB18     		adds	r3, r1, r3
 25783 013e 03F58C73 		add	r3, r3, #280
 25784 0142 9B78     		ldrb	r3, [r3, #2]	@ zero_extendqisi2
 25785 0144 002B     		cmp	r3, #0
 25786 0146 04D0     		beq	.L46
 317:../inc/STM32_USB_Device_Library/Core/src/usbd_req.c ****           USBD_ep_status = 0x0001;     
 25787              		.loc 1 317 0
 25788 0148 1C4B     		ldr	r3, .L52
 25789 014a 4FF00102 		mov	r2, #1
 25790 014e 1A60     		str	r2, [r3, #0]
 25791 0150 1FE0     		b	.L47
 25792              	.L46:
 321:../inc/STM32_USB_Device_Library/Core/src/usbd_req.c ****           USBD_ep_status = 0x0000;  
 25793              		.loc 1 321 0
 25794 0152 1A4B     		ldr	r3, .L52
 25795 0154 4FF00002 		mov	r2, #0
 25796 0158 1A60     		str	r2, [r3, #0]
 25797 015a 1AE0     		b	.L47
 25798              	.L45:
 324:../inc/STM32_USB_Device_Library/Core/src/usbd_req.c ****       else if ((ep_addr & 0x80)== 0x00)
 25799              		.loc 1 324 0
 25800 015c BB7B     		ldrb	r3, [r7, #14]	@ zero_extendqisi2
 25801 015e 5BB2     		sxtb	r3, r3
 25802 0160 002B     		cmp	r3, #0
 25803 0162 16DB     		blt	.L47
 326:../inc/STM32_USB_Device_Library/Core/src/usbd_req.c ****         if(pdev->dev.out_ep[ep_addr].is_stall)
 25804              		.loc 1 326 0
 25805 0164 BA7B     		ldrb	r2, [r7, #14]	@ zero_extendqisi2
 25806 0166 7968     		ldr	r1, [r7, #4]
 25807 0168 1346     		mov	r3, r2
 25808 016a 4FEA8303 		lsl	r3, r3, #2
 25809 016e 9B18     		adds	r3, r3, r2
 25810 0170 4FEAC303 		lsl	r3, r3, #3
 25811 0174 CB18     		adds	r3, r1, r3
 25812 0176 03F55C73 		add	r3, r3, #880
 25813 017a 9B78     		ldrb	r3, [r3, #2]	@ zero_extendqisi2
 25814 017c 002B     		cmp	r3, #0
 25815 017e 04D0     		beq	.L48
 328:../inc/STM32_USB_Device_Library/Core/src/usbd_req.c ****           USBD_ep_status = 0x0001;     
 25816              		.loc 1 328 0
 25817 0180 0E4B     		ldr	r3, .L52
 25818 0182 4FF00102 		mov	r2, #1
 25819 0186 1A60     		str	r2, [r3, #0]
 25820 0188 03E0     		b	.L47
 25821              	.L48:
 333:../inc/STM32_USB_Device_Library/Core/src/usbd_req.c ****           USBD_ep_status = 0x0000;     
 25822              		.loc 1 333 0
 25823 018a 0C4B     		ldr	r3, .L52
 25824 018c 4FF00002 		mov	r2, #0
 25825 0190 1A60     		str	r2, [r3, #0]
 25826              	.L47:
 336:../inc/STM32_USB_Device_Library/Core/src/usbd_req.c ****       USBD_CtlSendData (pdev,
 25827              		.loc 1 336 0
 25828 0192 0A4B     		ldr	r3, .L52
 25829 0194 7868     		ldr	r0, [r7, #4]
 25830 0196 1946     		mov	r1, r3
 25831 0198 4FF00202 		mov	r2, #2
 25832 019c FFF7FEFF 		bl	USBD_CtlSendData
 339:../inc/STM32_USB_Device_Library/Core/src/usbd_req.c ****       break;
 25833              		.loc 1 339 0
 25834 01a0 04E0     		b	.L44
 25835              	.L51:
 342:../inc/STM32_USB_Device_Library/Core/src/usbd_req.c ****        USBD_CtlError(pdev , req);
 25836              		.loc 1 342 0
 25837 01a2 7868     		ldr	r0, [r7, #4]
 25838 01a4 3968     		ldr	r1, [r7, #0]
 25839 01a6 FFF7FEFF 		bl	USBD_CtlError
 343:../inc/STM32_USB_Device_Library/Core/src/usbd_req.c ****       break;
 25840              		.loc 1 343 0
 25841 01aa 00BF     		nop
 25842              	.L44:
 345:../inc/STM32_USB_Device_Library/Core/src/usbd_req.c ****     break;
 25843              		.loc 1 345 0
 25844 01ac 00BF     		nop
 25845              	.L32:
 349:../inc/STM32_USB_Device_Library/Core/src/usbd_req.c ****   }
 350:../inc/STM32_USB_Device_Library/Core/src/usbd_req.c ****   return ret;
 25846              		.loc 1 350 0
 25847 01ae FB7B     		ldrb	r3, [r7, #15]	@ zero_extendqisi2
 351:../inc/STM32_USB_Device_Library/Core/src/usbd_req.c **** }
 25848              		.loc 1 351 0
 25849 01b0 1846     		mov	r0, r3
 25850 01b2 07F11007 		add	r7, r7, #16
 25851 01b6 BD46     		mov	sp, r7
 25852 01b8 80BD     		pop	{r7, pc}
 25853              	.L53:
 25854 01ba 00BF     		.align	2
 25855              	.L52:
 25856 01bc 00000000 		.word	USBD_ep_status
 25857              		.cfi_endproc
 25858              	.LFE112:
 25860              		.section	.text.USBD_GetDescriptor,"ax",%progbits
 25861              		.align	2
 25862              		.thumb
 25863              		.thumb_func
 25865              	USBD_GetDescriptor:
 25866              	.LFB113:
 352:../inc/STM32_USB_Device_Library/Core/src/usbd_req.c **** /**
 353:../inc/STM32_USB_Device_Library/Core/src/usbd_req.c **** * @brief  USBD_GetDescriptor
 354:../inc/STM32_USB_Device_Library/Core/src/usbd_req.c **** *         Handle Get Descriptor requests
 355:../inc/STM32_USB_Device_Library/Core/src/usbd_req.c **** * @param  pdev: device instance
 356:../inc/STM32_USB_Device_Library/Core/src/usbd_req.c **** * @param  req: usb request
 357:../inc/STM32_USB_Device_Library/Core/src/usbd_req.c **** * @retval status
 358:../inc/STM32_USB_Device_Library/Core/src/usbd_req.c **** */
 359:../inc/STM32_USB_Device_Library/Core/src/usbd_req.c **** static void USBD_GetDescriptor(USB_OTG_CORE_HANDLE  *pdev, 
 360:../inc/STM32_USB_Device_Library/Core/src/usbd_req.c ****                                USB_SETUP_REQ *req)
 361:../inc/STM32_USB_Device_Library/Core/src/usbd_req.c **** {
 25867              		.loc 1 361 0
 25868              		.cfi_startproc
 25869              		@ args = 0, pretend = 0, frame = 16
 25870              		@ frame_needed = 1, uses_anonymous_args = 0
 25871 0000 80B5     		push	{r7, lr}
 25872              	.LCFI9:
 25873              		.cfi_def_cfa_offset 8
 25874 0002 84B0     		sub	sp, sp, #16
 25875              	.LCFI10:
 25876              		.cfi_def_cfa_offset 24
 25877 0004 00AF     		add	r7, sp, #0
 25878              		.cfi_offset 14, -4
 25879              		.cfi_offset 7, -8
 25880              	.LCFI11:
 25881              		.cfi_def_cfa_register 7
 25882 0006 7860     		str	r0, [r7, #4]
 25883 0008 3960     		str	r1, [r7, #0]
 362:../inc/STM32_USB_Device_Library/Core/src/usbd_req.c ****   uint16_t len;
 363:../inc/STM32_USB_Device_Library/Core/src/usbd_req.c ****   uint8_t *pbuf;
 364:../inc/STM32_USB_Device_Library/Core/src/usbd_req.c ****   
 365:../inc/STM32_USB_Device_Library/Core/src/usbd_req.c ****   switch (req->wValue >> 8)
 25884              		.loc 1 365 0
 25885 000a 3B68     		ldr	r3, [r7, #0]
 25886 000c 5B88     		ldrh	r3, [r3, #2]
 25887 000e 4FEA1323 		lsr	r3, r3, #8
 25888 0012 9BB2     		uxth	r3, r3
 25889 0014 03F1FF33 		add	r3, r3, #-1
 25890 0018 062B     		cmp	r3, #6
 25891 001a 00F2B580 		bhi	.L55
 25892 001e 01A2     		adr	r2, .L61
 25893 0020 52F823F0 		ldr	pc, [r2, r3, lsl #2]
 25894              		.align	2
 25895              	.L61:
 25896 0024 41000000 		.word	.L56+1
 25897 0028 75000000 		.word	.L57+1
 25898 002c A3000000 		.word	.L58+1
 25899 0030 89010000 		.word	.L55+1
 25900 0034 89010000 		.word	.L55+1
 25901 0038 75010000 		.word	.L59+1
 25902 003c 7F010000 		.word	.L60+1
 25903              	.L56:
 366:../inc/STM32_USB_Device_Library/Core/src/usbd_req.c ****   {
 367:../inc/STM32_USB_Device_Library/Core/src/usbd_req.c ****   case USB_DESC_TYPE_DEVICE:
 368:../inc/STM32_USB_Device_Library/Core/src/usbd_req.c ****     pbuf = pdev->dev.usr_device->GetDeviceDescriptor(pdev->cfg.speed, &len);
 25904              		.loc 1 368 0
 25905 0040 7B68     		ldr	r3, [r7, #4]
 25906 0042 D3F8E835 		ldr	r3, [r3, #1512]
 25907 0046 1B68     		ldr	r3, [r3, #0]
 25908 0048 7A68     		ldr	r2, [r7, #4]
 25909 004a 9178     		ldrb	r1, [r2, #2]	@ zero_extendqisi2
 25910 004c 07F10A02 		add	r2, r7, #10
 25911 0050 0846     		mov	r0, r1
 25912 0052 1146     		mov	r1, r2
 25913 0054 9847     		blx	r3
 25914 0056 F860     		str	r0, [r7, #12]
 369:../inc/STM32_USB_Device_Library/Core/src/usbd_req.c ****     if ((req->wLength == 64) ||( pdev->dev.device_status == USB_OTG_DEFAULT))  
 25915              		.loc 1 369 0
 25916 0058 3B68     		ldr	r3, [r7, #0]
 25917 005a DB88     		ldrh	r3, [r3, #6]
 25918 005c 402B     		cmp	r3, #64
 25919 005e 05D0     		beq	.L62
 25920              		.loc 1 369 0 is_stmt 0 discriminator 1
 25921 0060 7B68     		ldr	r3, [r7, #4]
 25922 0062 93F81231 		ldrb	r3, [r3, #274]	@ zero_extendqisi2
 25923 0066 012B     		cmp	r3, #1
 25924 0068 40F09380 		bne	.L75
 25925              	.L62:
 370:../inc/STM32_USB_Device_Library/Core/src/usbd_req.c ****     {                  
 371:../inc/STM32_USB_Device_Library/Core/src/usbd_req.c ****       len = 8;
 25926              		.loc 1 371 0 is_stmt 1
 25927 006c 4FF00803 		mov	r3, #8
 25928 0070 7B81     		strh	r3, [r7, #10]	@ movhi
 372:../inc/STM32_USB_Device_Library/Core/src/usbd_req.c ****     }
 373:../inc/STM32_USB_Device_Library/Core/src/usbd_req.c ****     break;
 25929              		.loc 1 373 0
 25930 0072 8FE0     		b	.L64
 25931              	.L57:
 374:../inc/STM32_USB_Device_Library/Core/src/usbd_req.c ****     
 375:../inc/STM32_USB_Device_Library/Core/src/usbd_req.c ****   case USB_DESC_TYPE_CONFIGURATION:
 376:../inc/STM32_USB_Device_Library/Core/src/usbd_req.c ****       pbuf   = (uint8_t *)pdev->dev.class_cb->GetConfigDescriptor(pdev->cfg.speed, &len);
 25932              		.loc 1 376 0
 25933 0074 7B68     		ldr	r3, [r7, #4]
 25934 0076 D3F8E035 		ldr	r3, [r3, #1504]
 25935 007a 9B6A     		ldr	r3, [r3, #40]
 25936 007c 7A68     		ldr	r2, [r7, #4]
 25937 007e 9178     		ldrb	r1, [r2, #2]	@ zero_extendqisi2
 25938 0080 07F10A02 		add	r2, r7, #10
 25939 0084 0846     		mov	r0, r1
 25940 0086 1146     		mov	r1, r2
 25941 0088 9847     		blx	r3
 25942 008a F860     		str	r0, [r7, #12]
 377:../inc/STM32_USB_Device_Library/Core/src/usbd_req.c **** #ifdef USB_OTG_HS_CORE
 378:../inc/STM32_USB_Device_Library/Core/src/usbd_req.c ****     if((pdev->cfg.speed == USB_OTG_SPEED_FULL )&&
 379:../inc/STM32_USB_Device_Library/Core/src/usbd_req.c ****        (pdev->cfg.phy_itface  == USB_OTG_ULPI_PHY))
 380:../inc/STM32_USB_Device_Library/Core/src/usbd_req.c ****     {
 381:../inc/STM32_USB_Device_Library/Core/src/usbd_req.c ****       pbuf   = (uint8_t *)pdev->dev.class_cb->GetOtherConfigDescriptor(pdev->cfg.speed, &len);
 382:../inc/STM32_USB_Device_Library/Core/src/usbd_req.c ****     }
 383:../inc/STM32_USB_Device_Library/Core/src/usbd_req.c **** #endif  
 384:../inc/STM32_USB_Device_Library/Core/src/usbd_req.c ****     pbuf[1] = USB_DESC_TYPE_CONFIGURATION;
 25943              		.loc 1 384 0
 25944 008c FB68     		ldr	r3, [r7, #12]
 25945 008e 03F10103 		add	r3, r3, #1
 25946 0092 4FF00202 		mov	r2, #2
 25947 0096 1A70     		strb	r2, [r3, #0]
 385:../inc/STM32_USB_Device_Library/Core/src/usbd_req.c ****     pdev->dev.pConfig_descriptor = pbuf;    
 25948              		.loc 1 385 0
 25949 0098 7B68     		ldr	r3, [r7, #4]
 25950 009a FA68     		ldr	r2, [r7, #12]
 25951 009c C3F8EC25 		str	r2, [r3, #1516]
 386:../inc/STM32_USB_Device_Library/Core/src/usbd_req.c ****     break;
 25952              		.loc 1 386 0
 25953 00a0 78E0     		b	.L64
 25954              	.L58:
 387:../inc/STM32_USB_Device_Library/Core/src/usbd_req.c ****     
 388:../inc/STM32_USB_Device_Library/Core/src/usbd_req.c ****   case USB_DESC_TYPE_STRING:
 389:../inc/STM32_USB_Device_Library/Core/src/usbd_req.c ****     switch ((uint8_t)(req->wValue))
 25955              		.loc 1 389 0
 25956 00a2 3B68     		ldr	r3, [r7, #0]
 25957 00a4 5B88     		ldrh	r3, [r3, #2]
 25958 00a6 DBB2     		uxtb	r3, r3
 25959 00a8 052B     		cmp	r3, #5
 25960 00aa 5DD8     		bhi	.L65
 25961 00ac 01A2     		adr	r2, .L72
 25962 00ae 52F823F0 		ldr	pc, [r2, r3, lsl #2]
 25963 00b2 00BF     		.align	2
 25964              	.L72:
 25965 00b4 CD000000 		.word	.L66+1
 25966 00b8 E7000000 		.word	.L67+1
 25967 00bc 01010000 		.word	.L68+1
 25968 00c0 1B010000 		.word	.L69+1
 25969 00c4 35010000 		.word	.L70+1
 25970 00c8 4F010000 		.word	.L71+1
 25971              	.L66:
 390:../inc/STM32_USB_Device_Library/Core/src/usbd_req.c ****     {
 391:../inc/STM32_USB_Device_Library/Core/src/usbd_req.c ****     case USBD_IDX_LANGID_STR:
 392:../inc/STM32_USB_Device_Library/Core/src/usbd_req.c ****      pbuf = pdev->dev.usr_device->GetLangIDStrDescriptor(pdev->cfg.speed, &len);        
 25972              		.loc 1 392 0
 25973 00cc 7B68     		ldr	r3, [r7, #4]
 25974 00ce D3F8E835 		ldr	r3, [r3, #1512]
 25975 00d2 5B68     		ldr	r3, [r3, #4]
 25976 00d4 7A68     		ldr	r2, [r7, #4]
 25977 00d6 9178     		ldrb	r1, [r2, #2]	@ zero_extendqisi2
 25978 00d8 07F10A02 		add	r2, r7, #10
 25979 00dc 0846     		mov	r0, r1
 25980 00de 1146     		mov	r1, r2
 25981 00e0 9847     		blx	r3
 25982 00e2 F860     		str	r0, [r7, #12]
 393:../inc/STM32_USB_Device_Library/Core/src/usbd_req.c ****       break;
 25983              		.loc 1 393 0
 25984 00e4 45E0     		b	.L73
 25985              	.L67:
 394:../inc/STM32_USB_Device_Library/Core/src/usbd_req.c ****       
 395:../inc/STM32_USB_Device_Library/Core/src/usbd_req.c ****     case USBD_IDX_MFC_STR:
 396:../inc/STM32_USB_Device_Library/Core/src/usbd_req.c ****       pbuf = pdev->dev.usr_device->GetManufacturerStrDescriptor(pdev->cfg.speed, &len);
 25986              		.loc 1 396 0
 25987 00e6 7B68     		ldr	r3, [r7, #4]
 25988 00e8 D3F8E835 		ldr	r3, [r3, #1512]
 25989 00ec 9B68     		ldr	r3, [r3, #8]
 25990 00ee 7A68     		ldr	r2, [r7, #4]
 25991 00f0 9178     		ldrb	r1, [r2, #2]	@ zero_extendqisi2
 25992 00f2 07F10A02 		add	r2, r7, #10
 25993 00f6 0846     		mov	r0, r1
 25994 00f8 1146     		mov	r1, r2
 25995 00fa 9847     		blx	r3
 25996 00fc F860     		str	r0, [r7, #12]
 397:../inc/STM32_USB_Device_Library/Core/src/usbd_req.c ****       break;
 25997              		.loc 1 397 0
 25998 00fe 38E0     		b	.L73
 25999              	.L68:
 398:../inc/STM32_USB_Device_Library/Core/src/usbd_req.c ****       
 399:../inc/STM32_USB_Device_Library/Core/src/usbd_req.c ****     case USBD_IDX_PRODUCT_STR:
 400:../inc/STM32_USB_Device_Library/Core/src/usbd_req.c ****       pbuf = pdev->dev.usr_device->GetProductStrDescriptor(pdev->cfg.speed, &len);
 26000              		.loc 1 400 0
 26001 0100 7B68     		ldr	r3, [r7, #4]
 26002 0102 D3F8E835 		ldr	r3, [r3, #1512]
 26003 0106 DB68     		ldr	r3, [r3, #12]
 26004 0108 7A68     		ldr	r2, [r7, #4]
 26005 010a 9178     		ldrb	r1, [r2, #2]	@ zero_extendqisi2
 26006 010c 07F10A02 		add	r2, r7, #10
 26007 0110 0846     		mov	r0, r1
 26008 0112 1146     		mov	r1, r2
 26009 0114 9847     		blx	r3
 26010 0116 F860     		str	r0, [r7, #12]
 401:../inc/STM32_USB_Device_Library/Core/src/usbd_req.c ****       break;
 26011              		.loc 1 401 0
 26012 0118 2BE0     		b	.L73
 26013              	.L69:
 402:../inc/STM32_USB_Device_Library/Core/src/usbd_req.c ****       
 403:../inc/STM32_USB_Device_Library/Core/src/usbd_req.c ****     case USBD_IDX_SERIAL_STR:
 404:../inc/STM32_USB_Device_Library/Core/src/usbd_req.c ****       pbuf = pdev->dev.usr_device->GetSerialStrDescriptor(pdev->cfg.speed, &len);
 26014              		.loc 1 404 0
 26015 011a 7B68     		ldr	r3, [r7, #4]
 26016 011c D3F8E835 		ldr	r3, [r3, #1512]
 26017 0120 1B69     		ldr	r3, [r3, #16]
 26018 0122 7A68     		ldr	r2, [r7, #4]
 26019 0124 9178     		ldrb	r1, [r2, #2]	@ zero_extendqisi2
 26020 0126 07F10A02 		add	r2, r7, #10
 26021 012a 0846     		mov	r0, r1
 26022 012c 1146     		mov	r1, r2
 26023 012e 9847     		blx	r3
 26024 0130 F860     		str	r0, [r7, #12]
 405:../inc/STM32_USB_Device_Library/Core/src/usbd_req.c ****       break;
 26025              		.loc 1 405 0
 26026 0132 1EE0     		b	.L73
 26027              	.L70:
 406:../inc/STM32_USB_Device_Library/Core/src/usbd_req.c ****       
 407:../inc/STM32_USB_Device_Library/Core/src/usbd_req.c ****     case USBD_IDX_CONFIG_STR:
 408:../inc/STM32_USB_Device_Library/Core/src/usbd_req.c ****       pbuf = pdev->dev.usr_device->GetConfigurationStrDescriptor(pdev->cfg.speed, &len);
 26028              		.loc 1 408 0
 26029 0134 7B68     		ldr	r3, [r7, #4]
 26030 0136 D3F8E835 		ldr	r3, [r3, #1512]
 26031 013a 5B69     		ldr	r3, [r3, #20]
 26032 013c 7A68     		ldr	r2, [r7, #4]
 26033 013e 9178     		ldrb	r1, [r2, #2]	@ zero_extendqisi2
 26034 0140 07F10A02 		add	r2, r7, #10
 26035 0144 0846     		mov	r0, r1
 26036 0146 1146     		mov	r1, r2
 26037 0148 9847     		blx	r3
 26038 014a F860     		str	r0, [r7, #12]
 409:../inc/STM32_USB_Device_Library/Core/src/usbd_req.c ****       break;
 26039              		.loc 1 409 0
 26040 014c 11E0     		b	.L73
 26041              	.L71:
 410:../inc/STM32_USB_Device_Library/Core/src/usbd_req.c ****       
 411:../inc/STM32_USB_Device_Library/Core/src/usbd_req.c ****     case USBD_IDX_INTERFACE_STR:
 412:../inc/STM32_USB_Device_Library/Core/src/usbd_req.c ****       pbuf = pdev->dev.usr_device->GetInterfaceStrDescriptor(pdev->cfg.speed, &len);
 26042              		.loc 1 412 0
 26043 014e 7B68     		ldr	r3, [r7, #4]
 26044 0150 D3F8E835 		ldr	r3, [r3, #1512]
 26045 0154 9B69     		ldr	r3, [r3, #24]
 26046 0156 7A68     		ldr	r2, [r7, #4]
 26047 0158 9178     		ldrb	r1, [r2, #2]	@ zero_extendqisi2
 26048 015a 07F10A02 		add	r2, r7, #10
 26049 015e 0846     		mov	r0, r1
 26050 0160 1146     		mov	r1, r2
 26051 0162 9847     		blx	r3
 26052 0164 F860     		str	r0, [r7, #12]
 413:../inc/STM32_USB_Device_Library/Core/src/usbd_req.c ****       break;
 26053              		.loc 1 413 0
 26054 0166 04E0     		b	.L73
 26055              	.L65:
 414:../inc/STM32_USB_Device_Library/Core/src/usbd_req.c ****       
 415:../inc/STM32_USB_Device_Library/Core/src/usbd_req.c ****     default:
 416:../inc/STM32_USB_Device_Library/Core/src/usbd_req.c **** #ifdef USB_SUPPORT_USER_STRING_DESC
 417:../inc/STM32_USB_Device_Library/Core/src/usbd_req.c ****       pbuf = pdev->dev.class_cb->GetUsrStrDescriptor(pdev->cfg.speed, (req->wValue) , &len);
 418:../inc/STM32_USB_Device_Library/Core/src/usbd_req.c ****       break;
 419:../inc/STM32_USB_Device_Library/Core/src/usbd_req.c **** #else      
 420:../inc/STM32_USB_Device_Library/Core/src/usbd_req.c ****        USBD_CtlError(pdev , req);
 26056              		.loc 1 420 0
 26057 0168 7868     		ldr	r0, [r7, #4]
 26058 016a 3968     		ldr	r1, [r7, #0]
 26059 016c FFF7FEFF 		bl	USBD_CtlError
 421:../inc/STM32_USB_Device_Library/Core/src/usbd_req.c ****       return;
 26060              		.loc 1 421 0
 26061 0170 25E0     		b	.L54
 26062              	.L73:
 422:../inc/STM32_USB_Device_Library/Core/src/usbd_req.c **** #endif /* USBD_CtlError(pdev , req); */      
 423:../inc/STM32_USB_Device_Library/Core/src/usbd_req.c ****     }
 424:../inc/STM32_USB_Device_Library/Core/src/usbd_req.c ****     break;
 26063              		.loc 1 424 0
 26064 0172 0FE0     		b	.L64
 26065              	.L59:
 425:../inc/STM32_USB_Device_Library/Core/src/usbd_req.c ****   case USB_DESC_TYPE_DEVICE_QUALIFIER:                   
 426:../inc/STM32_USB_Device_Library/Core/src/usbd_req.c **** #ifdef USB_OTG_HS_CORE
 427:../inc/STM32_USB_Device_Library/Core/src/usbd_req.c ****     if(pdev->cfg.speed == USB_OTG_SPEED_HIGH  )   
 428:../inc/STM32_USB_Device_Library/Core/src/usbd_req.c ****     {
 429:../inc/STM32_USB_Device_Library/Core/src/usbd_req.c ****       
 430:../inc/STM32_USB_Device_Library/Core/src/usbd_req.c ****       pbuf   = (uint8_t *)pdev->dev.class_cb->GetConfigDescriptor(pdev->cfg.speed, &len);
 431:../inc/STM32_USB_Device_Library/Core/src/usbd_req.c ****             
 432:../inc/STM32_USB_Device_Library/Core/src/usbd_req.c ****       USBD_DeviceQualifierDesc[4]= pbuf[14];
 433:../inc/STM32_USB_Device_Library/Core/src/usbd_req.c ****       USBD_DeviceQualifierDesc[5]= pbuf[15];
 434:../inc/STM32_USB_Device_Library/Core/src/usbd_req.c ****       USBD_DeviceQualifierDesc[6]= pbuf[16];
 435:../inc/STM32_USB_Device_Library/Core/src/usbd_req.c ****       
 436:../inc/STM32_USB_Device_Library/Core/src/usbd_req.c ****       pbuf = USBD_DeviceQualifierDesc;
 437:../inc/STM32_USB_Device_Library/Core/src/usbd_req.c ****       len  = USB_LEN_DEV_QUALIFIER_DESC;
 438:../inc/STM32_USB_Device_Library/Core/src/usbd_req.c ****       break;
 439:../inc/STM32_USB_Device_Library/Core/src/usbd_req.c ****     }
 440:../inc/STM32_USB_Device_Library/Core/src/usbd_req.c ****     else
 441:../inc/STM32_USB_Device_Library/Core/src/usbd_req.c ****     {
 442:../inc/STM32_USB_Device_Library/Core/src/usbd_req.c ****       USBD_CtlError(pdev , req);
 443:../inc/STM32_USB_Device_Library/Core/src/usbd_req.c ****       return;
 444:../inc/STM32_USB_Device_Library/Core/src/usbd_req.c ****     }
 445:../inc/STM32_USB_Device_Library/Core/src/usbd_req.c **** #else
 446:../inc/STM32_USB_Device_Library/Core/src/usbd_req.c ****       USBD_CtlError(pdev , req);
 26066              		.loc 1 446 0
 26067 0174 7868     		ldr	r0, [r7, #4]
 26068 0176 3968     		ldr	r1, [r7, #0]
 26069 0178 FFF7FEFF 		bl	USBD_CtlError
 447:../inc/STM32_USB_Device_Library/Core/src/usbd_req.c ****       return;
 26070              		.loc 1 447 0
 26071 017c 1FE0     		b	.L54
 26072              	.L60:
 448:../inc/STM32_USB_Device_Library/Core/src/usbd_req.c **** #endif    
 449:../inc/STM32_USB_Device_Library/Core/src/usbd_req.c **** 
 450:../inc/STM32_USB_Device_Library/Core/src/usbd_req.c ****   case USB_DESC_TYPE_OTHER_SPEED_CONFIGURATION:
 451:../inc/STM32_USB_Device_Library/Core/src/usbd_req.c **** #ifdef USB_OTG_HS_CORE   
 452:../inc/STM32_USB_Device_Library/Core/src/usbd_req.c **** 
 453:../inc/STM32_USB_Device_Library/Core/src/usbd_req.c ****     if(pdev->cfg.speed == USB_OTG_SPEED_HIGH  )   
 454:../inc/STM32_USB_Device_Library/Core/src/usbd_req.c ****     {
 455:../inc/STM32_USB_Device_Library/Core/src/usbd_req.c ****       pbuf   = (uint8_t *)pdev->dev.class_cb->GetOtherConfigDescriptor(pdev->cfg.speed, &len);
 456:../inc/STM32_USB_Device_Library/Core/src/usbd_req.c ****       pbuf[1] = USB_DESC_TYPE_OTHER_SPEED_CONFIGURATION;
 457:../inc/STM32_USB_Device_Library/Core/src/usbd_req.c ****       break; 
 458:../inc/STM32_USB_Device_Library/Core/src/usbd_req.c ****     }
 459:../inc/STM32_USB_Device_Library/Core/src/usbd_req.c ****     else
 460:../inc/STM32_USB_Device_Library/Core/src/usbd_req.c ****     {
 461:../inc/STM32_USB_Device_Library/Core/src/usbd_req.c ****       USBD_CtlError(pdev , req);
 462:../inc/STM32_USB_Device_Library/Core/src/usbd_req.c ****       return;
 463:../inc/STM32_USB_Device_Library/Core/src/usbd_req.c ****     }
 464:../inc/STM32_USB_Device_Library/Core/src/usbd_req.c **** #else
 465:../inc/STM32_USB_Device_Library/Core/src/usbd_req.c ****       USBD_CtlError(pdev , req);
 26073              		.loc 1 465 0
 26074 017e 7868     		ldr	r0, [r7, #4]
 26075 0180 3968     		ldr	r1, [r7, #0]
 26076 0182 FFF7FEFF 		bl	USBD_CtlError
 466:../inc/STM32_USB_Device_Library/Core/src/usbd_req.c ****       return;
 26077              		.loc 1 466 0
 26078 0186 1AE0     		b	.L54
 26079              	.L55:
 467:../inc/STM32_USB_Device_Library/Core/src/usbd_req.c **** #endif     
 468:../inc/STM32_USB_Device_Library/Core/src/usbd_req.c **** 
 469:../inc/STM32_USB_Device_Library/Core/src/usbd_req.c ****     
 470:../inc/STM32_USB_Device_Library/Core/src/usbd_req.c ****   default: 
 471:../inc/STM32_USB_Device_Library/Core/src/usbd_req.c ****      USBD_CtlError(pdev , req);
 26080              		.loc 1 471 0
 26081 0188 7868     		ldr	r0, [r7, #4]
 26082 018a 3968     		ldr	r1, [r7, #0]
 26083 018c FFF7FEFF 		bl	USBD_CtlError
 472:../inc/STM32_USB_Device_Library/Core/src/usbd_req.c ****     return;
 26084              		.loc 1 472 0
 26085 0190 15E0     		b	.L54
 26086              	.L75:
 373:../inc/STM32_USB_Device_Library/Core/src/usbd_req.c ****     break;
 26087              		.loc 1 373 0
 26088 0192 00BF     		nop
 26089              	.L64:
 473:../inc/STM32_USB_Device_Library/Core/src/usbd_req.c ****   }
 474:../inc/STM32_USB_Device_Library/Core/src/usbd_req.c ****   
 475:../inc/STM32_USB_Device_Library/Core/src/usbd_req.c ****   if((len != 0)&& (req->wLength != 0))
 26090              		.loc 1 475 0
 26091 0194 7B89     		ldrh	r3, [r7, #10]
 26092 0196 002B     		cmp	r3, #0
 26093 0198 11D0     		beq	.L54
 26094              		.loc 1 475 0 is_stmt 0 discriminator 1
 26095 019a 3B68     		ldr	r3, [r7, #0]
 26096 019c DB88     		ldrh	r3, [r3, #6]
 26097 019e 002B     		cmp	r3, #0
 26098 01a0 0DD0     		beq	.L54
 476:../inc/STM32_USB_Device_Library/Core/src/usbd_req.c ****   {
 477:../inc/STM32_USB_Device_Library/Core/src/usbd_req.c ****     
 478:../inc/STM32_USB_Device_Library/Core/src/usbd_req.c ****     len = MIN(len , req->wLength);
 26099              		.loc 1 478 0 is_stmt 1
 26100 01a2 3B68     		ldr	r3, [r7, #0]
 26101 01a4 DA88     		ldrh	r2, [r3, #6]
 26102 01a6 7B89     		ldrh	r3, [r7, #10]
 26103 01a8 9A42     		cmp	r2, r3
 26104 01aa 38BF     		it	cc
 26105 01ac 1346     		movcc	r3, r2
 26106 01ae 9BB2     		uxth	r3, r3
 26107 01b0 7B81     		strh	r3, [r7, #10]	@ movhi
 479:../inc/STM32_USB_Device_Library/Core/src/usbd_req.c ****     
 480:../inc/STM32_USB_Device_Library/Core/src/usbd_req.c ****     USBD_CtlSendData (pdev, 
 26108              		.loc 1 480 0
 26109 01b2 7B89     		ldrh	r3, [r7, #10]
 26110 01b4 7868     		ldr	r0, [r7, #4]
 26111 01b6 F968     		ldr	r1, [r7, #12]
 26112 01b8 1A46     		mov	r2, r3
 26113 01ba FFF7FEFF 		bl	USBD_CtlSendData
 26114              	.L54:
 481:../inc/STM32_USB_Device_Library/Core/src/usbd_req.c ****                       pbuf,
 482:../inc/STM32_USB_Device_Library/Core/src/usbd_req.c ****                       len);
 483:../inc/STM32_USB_Device_Library/Core/src/usbd_req.c ****   }
 484:../inc/STM32_USB_Device_Library/Core/src/usbd_req.c ****   
 485:../inc/STM32_USB_Device_Library/Core/src/usbd_req.c **** }
 26115              		.loc 1 485 0
 26116 01be 07F11007 		add	r7, r7, #16
 26117 01c2 BD46     		mov	sp, r7
 26118 01c4 80BD     		pop	{r7, pc}
 26119              		.cfi_endproc
 26120              	.LFE113:
 26122 01c6 00BF     		.section	.text.USBD_SetAddress,"ax",%progbits
 26123              		.align	2
 26124              		.thumb
 26125              		.thumb_func
 26127              	USBD_SetAddress:
 26128              	.LFB114:
 486:../inc/STM32_USB_Device_Library/Core/src/usbd_req.c **** 
 487:../inc/STM32_USB_Device_Library/Core/src/usbd_req.c **** /**
 488:../inc/STM32_USB_Device_Library/Core/src/usbd_req.c **** * @brief  USBD_SetAddress
 489:../inc/STM32_USB_Device_Library/Core/src/usbd_req.c **** *         Set device address
 490:../inc/STM32_USB_Device_Library/Core/src/usbd_req.c **** * @param  pdev: device instance
 491:../inc/STM32_USB_Device_Library/Core/src/usbd_req.c **** * @param  req: usb request
 492:../inc/STM32_USB_Device_Library/Core/src/usbd_req.c **** * @retval status
 493:../inc/STM32_USB_Device_Library/Core/src/usbd_req.c **** */
 494:../inc/STM32_USB_Device_Library/Core/src/usbd_req.c **** static void USBD_SetAddress(USB_OTG_CORE_HANDLE  *pdev, 
 495:../inc/STM32_USB_Device_Library/Core/src/usbd_req.c ****                             USB_SETUP_REQ *req)
 496:../inc/STM32_USB_Device_Library/Core/src/usbd_req.c **** {
 26129              		.loc 1 496 0
 26130              		.cfi_startproc
 26131              		@ args = 0, pretend = 0, frame = 16
 26132              		@ frame_needed = 1, uses_anonymous_args = 0
 26133 0000 80B5     		push	{r7, lr}
 26134              	.LCFI12:
 26135              		.cfi_def_cfa_offset 8
 26136 0002 84B0     		sub	sp, sp, #16
 26137              	.LCFI13:
 26138              		.cfi_def_cfa_offset 24
 26139 0004 00AF     		add	r7, sp, #0
 26140              		.cfi_offset 14, -4
 26141              		.cfi_offset 7, -8
 26142              	.LCFI14:
 26143              		.cfi_def_cfa_register 7
 26144 0006 7860     		str	r0, [r7, #4]
 26145 0008 3960     		str	r1, [r7, #0]
 497:../inc/STM32_USB_Device_Library/Core/src/usbd_req.c ****   uint8_t  dev_addr; 
 498:../inc/STM32_USB_Device_Library/Core/src/usbd_req.c ****   
 499:../inc/STM32_USB_Device_Library/Core/src/usbd_req.c ****   if ((req->wIndex == 0) && (req->wLength == 0)) 
 26146              		.loc 1 499 0
 26147 000a 3B68     		ldr	r3, [r7, #0]
 26148 000c 9B88     		ldrh	r3, [r3, #4]
 26149 000e 002B     		cmp	r3, #0
 26150 0010 2ED1     		bne	.L77
 26151              		.loc 1 499 0 is_stmt 0 discriminator 1
 26152 0012 3B68     		ldr	r3, [r7, #0]
 26153 0014 DB88     		ldrh	r3, [r3, #6]
 26154 0016 002B     		cmp	r3, #0
 26155 0018 2AD1     		bne	.L77
 500:../inc/STM32_USB_Device_Library/Core/src/usbd_req.c ****   {
 501:../inc/STM32_USB_Device_Library/Core/src/usbd_req.c ****     dev_addr = (uint8_t)(req->wValue) & 0x7F;     
 26156              		.loc 1 501 0 is_stmt 1
 26157 001a 3B68     		ldr	r3, [r7, #0]
 26158 001c 5B88     		ldrh	r3, [r3, #2]
 26159 001e DBB2     		uxtb	r3, r3
 26160 0020 03F07F03 		and	r3, r3, #127
 26161 0024 FB73     		strb	r3, [r7, #15]
 502:../inc/STM32_USB_Device_Library/Core/src/usbd_req.c ****     
 503:../inc/STM32_USB_Device_Library/Core/src/usbd_req.c ****     if (pdev->dev.device_status == USB_OTG_CONFIGURED) 
 26162              		.loc 1 503 0
 26163 0026 7B68     		ldr	r3, [r7, #4]
 26164 0028 93F81231 		ldrb	r3, [r3, #274]	@ zero_extendqisi2
 26165 002c 032B     		cmp	r3, #3
 26166 002e 04D1     		bne	.L78
 504:../inc/STM32_USB_Device_Library/Core/src/usbd_req.c ****     {
 505:../inc/STM32_USB_Device_Library/Core/src/usbd_req.c ****       USBD_CtlError(pdev , req);
 26167              		.loc 1 505 0
 26168 0030 7868     		ldr	r0, [r7, #4]
 26169 0032 3968     		ldr	r1, [r7, #0]
 26170 0034 FFF7FEFF 		bl	USBD_CtlError
 503:../inc/STM32_USB_Device_Library/Core/src/usbd_req.c ****     if (pdev->dev.device_status == USB_OTG_CONFIGURED) 
 26171              		.loc 1 503 0
 26172 0038 1EE0     		b	.L76
 26173              	.L78:
 506:../inc/STM32_USB_Device_Library/Core/src/usbd_req.c ****     } 
 507:../inc/STM32_USB_Device_Library/Core/src/usbd_req.c ****     else 
 508:../inc/STM32_USB_Device_Library/Core/src/usbd_req.c ****     {
 509:../inc/STM32_USB_Device_Library/Core/src/usbd_req.c ****       pdev->dev.device_address = dev_addr;
 26174              		.loc 1 509 0
 26175 003a 7B68     		ldr	r3, [r7, #4]
 26176 003c FA7B     		ldrb	r2, [r7, #15]
 26177 003e 83F81321 		strb	r2, [r3, #275]
 510:../inc/STM32_USB_Device_Library/Core/src/usbd_req.c ****       DCD_EP_SetAddress(pdev, dev_addr);               
 26178              		.loc 1 510 0
 26179 0042 FB7B     		ldrb	r3, [r7, #15]	@ zero_extendqisi2
 26180 0044 7868     		ldr	r0, [r7, #4]
 26181 0046 1946     		mov	r1, r3
 26182 0048 FFF7FEFF 		bl	DCD_EP_SetAddress
 511:../inc/STM32_USB_Device_Library/Core/src/usbd_req.c ****       USBD_CtlSendStatus(pdev);                         
 26183              		.loc 1 511 0
 26184 004c 7868     		ldr	r0, [r7, #4]
 26185 004e FFF7FEFF 		bl	USBD_CtlSendStatus
 512:../inc/STM32_USB_Device_Library/Core/src/usbd_req.c ****       
 513:../inc/STM32_USB_Device_Library/Core/src/usbd_req.c ****       if (dev_addr != 0) 
 26186              		.loc 1 513 0
 26187 0052 FB7B     		ldrb	r3, [r7, #15]	@ zero_extendqisi2
 26188 0054 002B     		cmp	r3, #0
 26189 0056 05D0     		beq	.L80
 514:../inc/STM32_USB_Device_Library/Core/src/usbd_req.c ****       {
 515:../inc/STM32_USB_Device_Library/Core/src/usbd_req.c ****         pdev->dev.device_status  = USB_OTG_ADDRESSED;
 26190              		.loc 1 515 0
 26191 0058 7B68     		ldr	r3, [r7, #4]
 26192 005a 4FF00202 		mov	r2, #2
 26193 005e 83F81221 		strb	r2, [r3, #274]
 503:../inc/STM32_USB_Device_Library/Core/src/usbd_req.c ****     if (pdev->dev.device_status == USB_OTG_CONFIGURED) 
 26194              		.loc 1 503 0
 26195 0062 09E0     		b	.L76
 26196              	.L80:
 516:../inc/STM32_USB_Device_Library/Core/src/usbd_req.c ****       } 
 517:../inc/STM32_USB_Device_Library/Core/src/usbd_req.c ****       else 
 518:../inc/STM32_USB_Device_Library/Core/src/usbd_req.c ****       {
 519:../inc/STM32_USB_Device_Library/Core/src/usbd_req.c ****         pdev->dev.device_status  = USB_OTG_DEFAULT; 
 26197              		.loc 1 519 0
 26198 0064 7B68     		ldr	r3, [r7, #4]
 26199 0066 4FF00102 		mov	r2, #1
 26200 006a 83F81221 		strb	r2, [r3, #274]
 503:../inc/STM32_USB_Device_Library/Core/src/usbd_req.c ****     if (pdev->dev.device_status == USB_OTG_CONFIGURED) 
 26201              		.loc 1 503 0
 26202 006e 03E0     		b	.L76
 26203              	.L77:
 520:../inc/STM32_USB_Device_Library/Core/src/usbd_req.c ****       }
 521:../inc/STM32_USB_Device_Library/Core/src/usbd_req.c ****     }
 522:../inc/STM32_USB_Device_Library/Core/src/usbd_req.c ****   } 
 523:../inc/STM32_USB_Device_Library/Core/src/usbd_req.c ****   else 
 524:../inc/STM32_USB_Device_Library/Core/src/usbd_req.c ****   {
 525:../inc/STM32_USB_Device_Library/Core/src/usbd_req.c ****      USBD_CtlError(pdev , req);                        
 26204              		.loc 1 525 0
 26205 0070 7868     		ldr	r0, [r7, #4]
 26206 0072 3968     		ldr	r1, [r7, #0]
 26207 0074 FFF7FEFF 		bl	USBD_CtlError
 26208              	.L76:
 526:../inc/STM32_USB_Device_Library/Core/src/usbd_req.c ****   } 
 527:../inc/STM32_USB_Device_Library/Core/src/usbd_req.c **** }
 26209              		.loc 1 527 0
 26210 0078 07F11007 		add	r7, r7, #16
 26211 007c BD46     		mov	sp, r7
 26212 007e 80BD     		pop	{r7, pc}
 26213              		.cfi_endproc
 26214              	.LFE114:
 26216              		.section	.text.USBD_SetConfig,"ax",%progbits
 26217              		.align	2
 26218              		.thumb
 26219              		.thumb_func
 26221              	USBD_SetConfig:
 26222              	.LFB115:
 528:../inc/STM32_USB_Device_Library/Core/src/usbd_req.c **** 
 529:../inc/STM32_USB_Device_Library/Core/src/usbd_req.c **** /**
 530:../inc/STM32_USB_Device_Library/Core/src/usbd_req.c **** * @brief  USBD_SetConfig
 531:../inc/STM32_USB_Device_Library/Core/src/usbd_req.c **** *         Handle Set device configuration request
 532:../inc/STM32_USB_Device_Library/Core/src/usbd_req.c **** * @param  pdev: device instance
 533:../inc/STM32_USB_Device_Library/Core/src/usbd_req.c **** * @param  req: usb request
 534:../inc/STM32_USB_Device_Library/Core/src/usbd_req.c **** * @retval status
 535:../inc/STM32_USB_Device_Library/Core/src/usbd_req.c **** */
 536:../inc/STM32_USB_Device_Library/Core/src/usbd_req.c **** static void USBD_SetConfig(USB_OTG_CORE_HANDLE  *pdev, 
 537:../inc/STM32_USB_Device_Library/Core/src/usbd_req.c ****                            USB_SETUP_REQ *req)
 538:../inc/STM32_USB_Device_Library/Core/src/usbd_req.c **** {
 26223              		.loc 1 538 0
 26224              		.cfi_startproc
 26225              		@ args = 0, pretend = 0, frame = 8
 26226              		@ frame_needed = 1, uses_anonymous_args = 0
 26227 0000 80B5     		push	{r7, lr}
 26228              	.LCFI15:
 26229              		.cfi_def_cfa_offset 8
 26230 0002 82B0     		sub	sp, sp, #8
 26231              	.LCFI16:
 26232              		.cfi_def_cfa_offset 16
 26233 0004 00AF     		add	r7, sp, #0
 26234              		.cfi_offset 14, -4
 26235              		.cfi_offset 7, -8
 26236              	.LCFI17:
 26237              		.cfi_def_cfa_register 7
 26238 0006 7860     		str	r0, [r7, #4]
 26239 0008 3960     		str	r1, [r7, #0]
 539:../inc/STM32_USB_Device_Library/Core/src/usbd_req.c ****   
 540:../inc/STM32_USB_Device_Library/Core/src/usbd_req.c ****   static uint8_t  cfgidx;
 541:../inc/STM32_USB_Device_Library/Core/src/usbd_req.c ****   
 542:../inc/STM32_USB_Device_Library/Core/src/usbd_req.c ****   cfgidx = (uint8_t)(req->wValue);                 
 26240              		.loc 1 542 0
 26241 000a 3B68     		ldr	r3, [r7, #0]
 26242 000c 5B88     		ldrh	r3, [r3, #2]
 26243 000e DAB2     		uxtb	r2, r3
 26244 0010 384B     		ldr	r3, .L94
 26245 0012 1A70     		strb	r2, [r3, #0]
 543:../inc/STM32_USB_Device_Library/Core/src/usbd_req.c ****   
 544:../inc/STM32_USB_Device_Library/Core/src/usbd_req.c ****   if (cfgidx > USBD_CFG_MAX_NUM ) 
 26246              		.loc 1 544 0
 26247 0014 374B     		ldr	r3, .L94
 26248 0016 1B78     		ldrb	r3, [r3, #0]	@ zero_extendqisi2
 26249 0018 012B     		cmp	r3, #1
 26250 001a 04D9     		bls	.L83
 545:../inc/STM32_USB_Device_Library/Core/src/usbd_req.c ****   {            
 546:../inc/STM32_USB_Device_Library/Core/src/usbd_req.c ****      USBD_CtlError(pdev , req);                              
 26251              		.loc 1 546 0
 26252 001c 7868     		ldr	r0, [r7, #4]
 26253 001e 3968     		ldr	r1, [r7, #0]
 26254 0020 FFF7FEFF 		bl	USBD_CtlError
 26255 0024 61E0     		b	.L82
 26256              	.L83:
 547:../inc/STM32_USB_Device_Library/Core/src/usbd_req.c ****   } 
 548:../inc/STM32_USB_Device_Library/Core/src/usbd_req.c ****   else 
 549:../inc/STM32_USB_Device_Library/Core/src/usbd_req.c ****   {
 550:../inc/STM32_USB_Device_Library/Core/src/usbd_req.c ****     switch (pdev->dev.device_status) 
 26257              		.loc 1 550 0
 26258 0026 7B68     		ldr	r3, [r7, #4]
 26259 0028 93F81231 		ldrb	r3, [r3, #274]	@ zero_extendqisi2
 26260 002c 022B     		cmp	r3, #2
 26261 002e 02D0     		beq	.L86
 26262 0030 032B     		cmp	r3, #3
 26263 0032 1CD0     		beq	.L87
 26264 0034 54E0     		b	.L93
 26265              	.L86:
 551:../inc/STM32_USB_Device_Library/Core/src/usbd_req.c ****     {
 552:../inc/STM32_USB_Device_Library/Core/src/usbd_req.c ****     case USB_OTG_ADDRESSED:
 553:../inc/STM32_USB_Device_Library/Core/src/usbd_req.c ****       if (cfgidx) 
 26266              		.loc 1 553 0
 26267 0036 2F4B     		ldr	r3, .L94
 26268 0038 1B78     		ldrb	r3, [r3, #0]	@ zero_extendqisi2
 26269 003a 002B     		cmp	r3, #0
 26270 003c 13D0     		beq	.L88
 554:../inc/STM32_USB_Device_Library/Core/src/usbd_req.c ****       {                                			   							   							   				
 555:../inc/STM32_USB_Device_Library/Core/src/usbd_req.c ****         pdev->dev.device_config = cfgidx;
 26271              		.loc 1 555 0
 26272 003e 2D4B     		ldr	r3, .L94
 26273 0040 1A78     		ldrb	r2, [r3, #0]	@ zero_extendqisi2
 26274 0042 7B68     		ldr	r3, [r7, #4]
 26275 0044 83F81021 		strb	r2, [r3, #272]
 556:../inc/STM32_USB_Device_Library/Core/src/usbd_req.c ****         pdev->dev.device_status = USB_OTG_CONFIGURED;
 26276              		.loc 1 556 0
 26277 0048 7B68     		ldr	r3, [r7, #4]
 26278 004a 4FF00302 		mov	r2, #3
 26279 004e 83F81221 		strb	r2, [r3, #274]
 557:../inc/STM32_USB_Device_Library/Core/src/usbd_req.c ****         USBD_SetCfg(pdev , cfgidx);
 26280              		.loc 1 557 0
 26281 0052 284B     		ldr	r3, .L94
 26282 0054 1B78     		ldrb	r3, [r3, #0]	@ zero_extendqisi2
 26283 0056 7868     		ldr	r0, [r7, #4]
 26284 0058 1946     		mov	r1, r3
 26285 005a FFF7FEFF 		bl	USBD_SetCfg
 558:../inc/STM32_USB_Device_Library/Core/src/usbd_req.c ****         USBD_CtlSendStatus(pdev);
 26286              		.loc 1 558 0
 26287 005e 7868     		ldr	r0, [r7, #4]
 26288 0060 FFF7FEFF 		bl	USBD_CtlSendStatus
 559:../inc/STM32_USB_Device_Library/Core/src/usbd_req.c ****       }
 560:../inc/STM32_USB_Device_Library/Core/src/usbd_req.c ****       else 
 561:../inc/STM32_USB_Device_Library/Core/src/usbd_req.c ****       {
 562:../inc/STM32_USB_Device_Library/Core/src/usbd_req.c ****          USBD_CtlSendStatus(pdev);
 563:../inc/STM32_USB_Device_Library/Core/src/usbd_req.c ****       }
 564:../inc/STM32_USB_Device_Library/Core/src/usbd_req.c ****       break;
 26289              		.loc 1 564 0
 26290 0064 41E0     		b	.L82
 26291              	.L88:
 562:../inc/STM32_USB_Device_Library/Core/src/usbd_req.c ****          USBD_CtlSendStatus(pdev);
 26292              		.loc 1 562 0
 26293 0066 7868     		ldr	r0, [r7, #4]
 26294 0068 FFF7FEFF 		bl	USBD_CtlSendStatus
 26295              		.loc 1 564 0
 26296 006c 3DE0     		b	.L82
 26297              	.L87:
 565:../inc/STM32_USB_Device_Library/Core/src/usbd_req.c ****       
 566:../inc/STM32_USB_Device_Library/Core/src/usbd_req.c ****     case USB_OTG_CONFIGURED:
 567:../inc/STM32_USB_Device_Library/Core/src/usbd_req.c ****       if (cfgidx == 0) 
 26298              		.loc 1 567 0
 26299 006e 214B     		ldr	r3, .L94
 26300 0070 1B78     		ldrb	r3, [r3, #0]	@ zero_extendqisi2
 26301 0072 002B     		cmp	r3, #0
 26302 0074 13D1     		bne	.L90
 568:../inc/STM32_USB_Device_Library/Core/src/usbd_req.c ****       {                           
 569:../inc/STM32_USB_Device_Library/Core/src/usbd_req.c ****         pdev->dev.device_status = USB_OTG_ADDRESSED;
 26303              		.loc 1 569 0
 26304 0076 7B68     		ldr	r3, [r7, #4]
 26305 0078 4FF00202 		mov	r2, #2
 26306 007c 83F81221 		strb	r2, [r3, #274]
 570:../inc/STM32_USB_Device_Library/Core/src/usbd_req.c ****         pdev->dev.device_config = cfgidx;          
 26307              		.loc 1 570 0
 26308 0080 1C4B     		ldr	r3, .L94
 26309 0082 1A78     		ldrb	r2, [r3, #0]	@ zero_extendqisi2
 26310 0084 7B68     		ldr	r3, [r7, #4]
 26311 0086 83F81021 		strb	r2, [r3, #272]
 571:../inc/STM32_USB_Device_Library/Core/src/usbd_req.c ****         USBD_ClrCfg(pdev , cfgidx);
 26312              		.loc 1 571 0
 26313 008a 1A4B     		ldr	r3, .L94
 26314 008c 1B78     		ldrb	r3, [r3, #0]	@ zero_extendqisi2
 26315 008e 7868     		ldr	r0, [r7, #4]
 26316 0090 1946     		mov	r1, r3
 26317 0092 FFF7FEFF 		bl	USBD_ClrCfg
 572:../inc/STM32_USB_Device_Library/Core/src/usbd_req.c ****         USBD_CtlSendStatus(pdev);
 26318              		.loc 1 572 0
 26319 0096 7868     		ldr	r0, [r7, #4]
 26320 0098 FFF7FEFF 		bl	USBD_CtlSendStatus
 573:../inc/STM32_USB_Device_Library/Core/src/usbd_req.c ****         
 574:../inc/STM32_USB_Device_Library/Core/src/usbd_req.c ****       } 
 575:../inc/STM32_USB_Device_Library/Core/src/usbd_req.c ****       else  if (cfgidx != pdev->dev.device_config) 
 576:../inc/STM32_USB_Device_Library/Core/src/usbd_req.c ****       {
 577:../inc/STM32_USB_Device_Library/Core/src/usbd_req.c ****         /* Clear old configuration */
 578:../inc/STM32_USB_Device_Library/Core/src/usbd_req.c ****         USBD_ClrCfg(pdev , pdev->dev.device_config);
 579:../inc/STM32_USB_Device_Library/Core/src/usbd_req.c ****         
 580:../inc/STM32_USB_Device_Library/Core/src/usbd_req.c ****         /* set new configuration */
 581:../inc/STM32_USB_Device_Library/Core/src/usbd_req.c ****         pdev->dev.device_config = cfgidx;
 582:../inc/STM32_USB_Device_Library/Core/src/usbd_req.c ****         USBD_SetCfg(pdev , cfgidx);
 583:../inc/STM32_USB_Device_Library/Core/src/usbd_req.c ****         USBD_CtlSendStatus(pdev);
 584:../inc/STM32_USB_Device_Library/Core/src/usbd_req.c ****       }
 585:../inc/STM32_USB_Device_Library/Core/src/usbd_req.c ****       else
 586:../inc/STM32_USB_Device_Library/Core/src/usbd_req.c ****       {
 587:../inc/STM32_USB_Device_Library/Core/src/usbd_req.c ****         USBD_CtlSendStatus(pdev);
 588:../inc/STM32_USB_Device_Library/Core/src/usbd_req.c ****       }
 589:../inc/STM32_USB_Device_Library/Core/src/usbd_req.c ****       break;
 26321              		.loc 1 589 0
 26322 009c 25E0     		b	.L82
 26323              	.L90:
 575:../inc/STM32_USB_Device_Library/Core/src/usbd_req.c ****       else  if (cfgidx != pdev->dev.device_config) 
 26324              		.loc 1 575 0
 26325 009e 7B68     		ldr	r3, [r7, #4]
 26326 00a0 93F81021 		ldrb	r2, [r3, #272]	@ zero_extendqisi2
 26327 00a4 134B     		ldr	r3, .L94
 26328 00a6 1B78     		ldrb	r3, [r3, #0]	@ zero_extendqisi2
 26329 00a8 9A42     		cmp	r2, r3
 26330 00aa 15D0     		beq	.L92
 578:../inc/STM32_USB_Device_Library/Core/src/usbd_req.c ****         USBD_ClrCfg(pdev , pdev->dev.device_config);
 26331              		.loc 1 578 0
 26332 00ac 7B68     		ldr	r3, [r7, #4]
 26333 00ae 93F81031 		ldrb	r3, [r3, #272]	@ zero_extendqisi2
 26334 00b2 7868     		ldr	r0, [r7, #4]
 26335 00b4 1946     		mov	r1, r3
 26336 00b6 FFF7FEFF 		bl	USBD_ClrCfg
 581:../inc/STM32_USB_Device_Library/Core/src/usbd_req.c ****         pdev->dev.device_config = cfgidx;
 26337              		.loc 1 581 0
 26338 00ba 0E4B     		ldr	r3, .L94
 26339 00bc 1A78     		ldrb	r2, [r3, #0]	@ zero_extendqisi2
 26340 00be 7B68     		ldr	r3, [r7, #4]
 26341 00c0 83F81021 		strb	r2, [r3, #272]
 582:../inc/STM32_USB_Device_Library/Core/src/usbd_req.c ****         USBD_SetCfg(pdev , cfgidx);
 26342              		.loc 1 582 0
 26343 00c4 0B4B     		ldr	r3, .L94
 26344 00c6 1B78     		ldrb	r3, [r3, #0]	@ zero_extendqisi2
 26345 00c8 7868     		ldr	r0, [r7, #4]
 26346 00ca 1946     		mov	r1, r3
 26347 00cc FFF7FEFF 		bl	USBD_SetCfg
 583:../inc/STM32_USB_Device_Library/Core/src/usbd_req.c ****         USBD_CtlSendStatus(pdev);
 26348              		.loc 1 583 0
 26349 00d0 7868     		ldr	r0, [r7, #4]
 26350 00d2 FFF7FEFF 		bl	USBD_CtlSendStatus
 26351              		.loc 1 589 0
 26352 00d6 08E0     		b	.L82
 26353              	.L92:
 587:../inc/STM32_USB_Device_Library/Core/src/usbd_req.c ****         USBD_CtlSendStatus(pdev);
 26354              		.loc 1 587 0
 26355 00d8 7868     		ldr	r0, [r7, #4]
 26356 00da FFF7FEFF 		bl	USBD_CtlSendStatus
 26357              		.loc 1 589 0
 26358 00de 04E0     		b	.L82
 26359              	.L93:
 590:../inc/STM32_USB_Device_Library/Core/src/usbd_req.c ****       
 591:../inc/STM32_USB_Device_Library/Core/src/usbd_req.c ****     default:					
 592:../inc/STM32_USB_Device_Library/Core/src/usbd_req.c ****        USBD_CtlError(pdev , req);                     
 26360              		.loc 1 592 0
 26361 00e0 7868     		ldr	r0, [r7, #4]
 26362 00e2 3968     		ldr	r1, [r7, #0]
 26363 00e4 FFF7FEFF 		bl	USBD_CtlError
 593:../inc/STM32_USB_Device_Library/Core/src/usbd_req.c ****       break;
 26364              		.loc 1 593 0
 26365 00e8 00BF     		nop
 26366              	.L82:
 594:../inc/STM32_USB_Device_Library/Core/src/usbd_req.c ****     }
 595:../inc/STM32_USB_Device_Library/Core/src/usbd_req.c ****   }
 596:../inc/STM32_USB_Device_Library/Core/src/usbd_req.c **** }
 26367              		.loc 1 596 0
 26368 00ea 07F10807 		add	r7, r7, #8
 26369 00ee BD46     		mov	sp, r7
 26370 00f0 80BD     		pop	{r7, pc}
 26371              	.L95:
 26372 00f2 00BF     		.align	2
 26373              	.L94:
 26374 00f4 00000000 		.word	cfgidx.8207
 26375              		.cfi_endproc
 26376              	.LFE115:
 26378              		.section	.text.USBD_GetConfig,"ax",%progbits
 26379              		.align	2
 26380              		.thumb
 26381              		.thumb_func
 26383              	USBD_GetConfig:
 26384              	.LFB116:
 597:../inc/STM32_USB_Device_Library/Core/src/usbd_req.c **** 
 598:../inc/STM32_USB_Device_Library/Core/src/usbd_req.c **** /**
 599:../inc/STM32_USB_Device_Library/Core/src/usbd_req.c **** * @brief  USBD_GetConfig
 600:../inc/STM32_USB_Device_Library/Core/src/usbd_req.c **** *         Handle Get device configuration request
 601:../inc/STM32_USB_Device_Library/Core/src/usbd_req.c **** * @param  pdev: device instance
 602:../inc/STM32_USB_Device_Library/Core/src/usbd_req.c **** * @param  req: usb request
 603:../inc/STM32_USB_Device_Library/Core/src/usbd_req.c **** * @retval status
 604:../inc/STM32_USB_Device_Library/Core/src/usbd_req.c **** */
 605:../inc/STM32_USB_Device_Library/Core/src/usbd_req.c **** static void USBD_GetConfig(USB_OTG_CORE_HANDLE  *pdev, 
 606:../inc/STM32_USB_Device_Library/Core/src/usbd_req.c ****                            USB_SETUP_REQ *req)
 607:../inc/STM32_USB_Device_Library/Core/src/usbd_req.c **** {
 26385              		.loc 1 607 0
 26386              		.cfi_startproc
 26387              		@ args = 0, pretend = 0, frame = 8
 26388              		@ frame_needed = 1, uses_anonymous_args = 0
 26389 0000 80B5     		push	{r7, lr}
 26390              	.LCFI18:
 26391              		.cfi_def_cfa_offset 8
 26392 0002 82B0     		sub	sp, sp, #8
 26393              	.LCFI19:
 26394              		.cfi_def_cfa_offset 16
 26395 0004 00AF     		add	r7, sp, #0
 26396              		.cfi_offset 14, -4
 26397              		.cfi_offset 7, -8
 26398              	.LCFI20:
 26399              		.cfi_def_cfa_register 7
 26400 0006 7860     		str	r0, [r7, #4]
 26401 0008 3960     		str	r1, [r7, #0]
 608:../inc/STM32_USB_Device_Library/Core/src/usbd_req.c ****  
 609:../inc/STM32_USB_Device_Library/Core/src/usbd_req.c ****   if (req->wLength != 1) 
 26402              		.loc 1 609 0
 26403 000a 3B68     		ldr	r3, [r7, #0]
 26404 000c DB88     		ldrh	r3, [r3, #6]
 26405 000e 012B     		cmp	r3, #1
 26406 0010 04D0     		beq	.L97
 610:../inc/STM32_USB_Device_Library/Core/src/usbd_req.c ****   {                   
 611:../inc/STM32_USB_Device_Library/Core/src/usbd_req.c ****      USBD_CtlError(pdev , req);
 26407              		.loc 1 611 0
 26408 0012 7868     		ldr	r0, [r7, #4]
 26409 0014 3968     		ldr	r1, [r7, #0]
 26410 0016 FFF7FEFF 		bl	USBD_CtlError
 26411 001a 1EE0     		b	.L96
 26412              	.L97:
 612:../inc/STM32_USB_Device_Library/Core/src/usbd_req.c ****   }
 613:../inc/STM32_USB_Device_Library/Core/src/usbd_req.c ****   else 
 614:../inc/STM32_USB_Device_Library/Core/src/usbd_req.c ****   {
 615:../inc/STM32_USB_Device_Library/Core/src/usbd_req.c ****     switch (pdev->dev.device_status )  
 26413              		.loc 1 615 0
 26414 001c 7B68     		ldr	r3, [r7, #4]
 26415 001e 93F81231 		ldrb	r3, [r3, #274]	@ zero_extendqisi2
 26416 0022 022B     		cmp	r3, #2
 26417 0024 02D0     		beq	.L100
 26418 0026 032B     		cmp	r3, #3
 26419 0028 08D0     		beq	.L101
 26420 002a 11E0     		b	.L102
 26421              	.L100:
 616:../inc/STM32_USB_Device_Library/Core/src/usbd_req.c ****     {
 617:../inc/STM32_USB_Device_Library/Core/src/usbd_req.c ****     case USB_OTG_ADDRESSED:                     
 618:../inc/STM32_USB_Device_Library/Core/src/usbd_req.c ****       
 619:../inc/STM32_USB_Device_Library/Core/src/usbd_req.c ****       USBD_CtlSendData (pdev, 
 26422              		.loc 1 619 0
 26423 002c 0D4B     		ldr	r3, .L103
 26424 002e 7868     		ldr	r0, [r7, #4]
 26425 0030 1946     		mov	r1, r3
 26426 0032 4FF00102 		mov	r2, #1
 26427 0036 FFF7FEFF 		bl	USBD_CtlSendData
 620:../inc/STM32_USB_Device_Library/Core/src/usbd_req.c ****                         (uint8_t *)&USBD_default_cfg,
 621:../inc/STM32_USB_Device_Library/Core/src/usbd_req.c ****                         1);
 622:../inc/STM32_USB_Device_Library/Core/src/usbd_req.c ****       break;
 26428              		.loc 1 622 0
 26429 003a 0EE0     		b	.L96
 26430              	.L101:
 623:../inc/STM32_USB_Device_Library/Core/src/usbd_req.c ****       
 624:../inc/STM32_USB_Device_Library/Core/src/usbd_req.c ****     case USB_OTG_CONFIGURED:                   
 625:../inc/STM32_USB_Device_Library/Core/src/usbd_req.c ****       
 626:../inc/STM32_USB_Device_Library/Core/src/usbd_req.c ****       USBD_CtlSendData (pdev, 
 26431              		.loc 1 626 0
 26432 003c 7B68     		ldr	r3, [r7, #4]
 26433 003e 03F58873 		add	r3, r3, #272
 26434 0042 7868     		ldr	r0, [r7, #4]
 26435 0044 1946     		mov	r1, r3
 26436 0046 4FF00102 		mov	r2, #1
 26437 004a FFF7FEFF 		bl	USBD_CtlSendData
 627:../inc/STM32_USB_Device_Library/Core/src/usbd_req.c ****                         &pdev->dev.device_config,
 628:../inc/STM32_USB_Device_Library/Core/src/usbd_req.c ****                         1);
 629:../inc/STM32_USB_Device_Library/Core/src/usbd_req.c ****       break;
 26438              		.loc 1 629 0
 26439 004e 04E0     		b	.L96
 26440              	.L102:
 630:../inc/STM32_USB_Device_Library/Core/src/usbd_req.c ****       
 631:../inc/STM32_USB_Device_Library/Core/src/usbd_req.c ****     default:
 632:../inc/STM32_USB_Device_Library/Core/src/usbd_req.c ****        USBD_CtlError(pdev , req);
 26441              		.loc 1 632 0
 26442 0050 7868     		ldr	r0, [r7, #4]
 26443 0052 3968     		ldr	r1, [r7, #0]
 26444 0054 FFF7FEFF 		bl	USBD_CtlError
 633:../inc/STM32_USB_Device_Library/Core/src/usbd_req.c ****       break;
 26445              		.loc 1 633 0
 26446 0058 00BF     		nop
 26447              	.L96:
 634:../inc/STM32_USB_Device_Library/Core/src/usbd_req.c ****     }
 635:../inc/STM32_USB_Device_Library/Core/src/usbd_req.c ****   }
 636:../inc/STM32_USB_Device_Library/Core/src/usbd_req.c **** }
 26448              		.loc 1 636 0
 26449 005a 07F10807 		add	r7, r7, #8
 26450 005e BD46     		mov	sp, r7
 26451 0060 80BD     		pop	{r7, pc}
 26452              	.L104:
 26453 0062 00BF     		.align	2
 26454              	.L103:
 26455 0064 00000000 		.word	USBD_default_cfg
 26456              		.cfi_endproc
 26457              	.LFE116:
 26459              		.section	.text.USBD_GetStatus,"ax",%progbits
 26460              		.align	2
 26461              		.thumb
 26462              		.thumb_func
 26464              	USBD_GetStatus:
 26465              	.LFB117:
 637:../inc/STM32_USB_Device_Library/Core/src/usbd_req.c **** 
 638:../inc/STM32_USB_Device_Library/Core/src/usbd_req.c **** /**
 639:../inc/STM32_USB_Device_Library/Core/src/usbd_req.c **** * @brief  USBD_GetStatus
 640:../inc/STM32_USB_Device_Library/Core/src/usbd_req.c **** *         Handle Get Status request
 641:../inc/STM32_USB_Device_Library/Core/src/usbd_req.c **** * @param  pdev: device instance
 642:../inc/STM32_USB_Device_Library/Core/src/usbd_req.c **** * @param  req: usb request
 643:../inc/STM32_USB_Device_Library/Core/src/usbd_req.c **** * @retval status
 644:../inc/STM32_USB_Device_Library/Core/src/usbd_req.c **** */
 645:../inc/STM32_USB_Device_Library/Core/src/usbd_req.c **** static void USBD_GetStatus(USB_OTG_CORE_HANDLE  *pdev, 
 646:../inc/STM32_USB_Device_Library/Core/src/usbd_req.c ****                            USB_SETUP_REQ *req)
 647:../inc/STM32_USB_Device_Library/Core/src/usbd_req.c **** {
 26466              		.loc 1 647 0
 26467              		.cfi_startproc
 26468              		@ args = 0, pretend = 0, frame = 8
 26469              		@ frame_needed = 1, uses_anonymous_args = 0
 26470 0000 80B5     		push	{r7, lr}
 26471              	.LCFI21:
 26472              		.cfi_def_cfa_offset 8
 26473 0002 82B0     		sub	sp, sp, #8
 26474              	.LCFI22:
 26475              		.cfi_def_cfa_offset 16
 26476 0004 00AF     		add	r7, sp, #0
 26477              		.cfi_offset 14, -4
 26478              		.cfi_offset 7, -8
 26479              	.LCFI23:
 26480              		.cfi_def_cfa_register 7
 26481 0006 7860     		str	r0, [r7, #4]
 26482 0008 3960     		str	r1, [r7, #0]
 648:../inc/STM32_USB_Device_Library/Core/src/usbd_req.c ****   
 649:../inc/STM32_USB_Device_Library/Core/src/usbd_req.c ****   switch (pdev->dev.device_status) 
 26483              		.loc 1 649 0
 26484 000a 7B68     		ldr	r3, [r7, #4]
 26485 000c 93F81231 		ldrb	r3, [r3, #274]	@ zero_extendqisi2
 26486 0010 A3F10203 		sub	r3, r3, #2
 26487 0014 012B     		cmp	r3, #1
 26488 0016 15D8     		bhi	.L106
 650:../inc/STM32_USB_Device_Library/Core/src/usbd_req.c ****   {
 651:../inc/STM32_USB_Device_Library/Core/src/usbd_req.c ****   case USB_OTG_ADDRESSED:
 652:../inc/STM32_USB_Device_Library/Core/src/usbd_req.c ****   case USB_OTG_CONFIGURED:
 653:../inc/STM32_USB_Device_Library/Core/src/usbd_req.c ****     
 654:../inc/STM32_USB_Device_Library/Core/src/usbd_req.c ****     if (pdev->dev.DevRemoteWakeup) 
 26489              		.loc 1 654 0
 26490 0018 7B68     		ldr	r3, [r7, #4]
 26491 001a D3F81431 		ldr	r3, [r3, #276]
 26492 001e 002B     		cmp	r3, #0
 26493 0020 04D0     		beq	.L108
 655:../inc/STM32_USB_Device_Library/Core/src/usbd_req.c ****     {
 656:../inc/STM32_USB_Device_Library/Core/src/usbd_req.c ****       USBD_cfg_status = USB_CONFIG_SELF_POWERED | USB_CONFIG_REMOTE_WAKEUP;                        
 26494              		.loc 1 656 0
 26495 0022 0D4B     		ldr	r3, .L111
 26496 0024 4FF00302 		mov	r2, #3
 26497 0028 1A60     		str	r2, [r3, #0]
 26498 002a 03E0     		b	.L109
 26499              	.L108:
 657:../inc/STM32_USB_Device_Library/Core/src/usbd_req.c ****     }
 658:../inc/STM32_USB_Device_Library/Core/src/usbd_req.c ****     else
 659:../inc/STM32_USB_Device_Library/Core/src/usbd_req.c ****     {
 660:../inc/STM32_USB_Device_Library/Core/src/usbd_req.c ****       USBD_cfg_status = USB_CONFIG_SELF_POWERED;   
 26500              		.loc 1 660 0
 26501 002c 0A4B     		ldr	r3, .L111
 26502 002e 4FF00102 		mov	r2, #1
 26503 0032 1A60     		str	r2, [r3, #0]
 26504              	.L109:
 661:../inc/STM32_USB_Device_Library/Core/src/usbd_req.c ****     }
 662:../inc/STM32_USB_Device_Library/Core/src/usbd_req.c ****     
 663:../inc/STM32_USB_Device_Library/Core/src/usbd_req.c ****     USBD_CtlSendData (pdev, 
 26505              		.loc 1 663 0
 26506 0034 084B     		ldr	r3, .L111
 26507 0036 7868     		ldr	r0, [r7, #4]
 26508 0038 1946     		mov	r1, r3
 26509 003a 4FF00102 		mov	r2, #1
 26510 003e FFF7FEFF 		bl	USBD_CtlSendData
 664:../inc/STM32_USB_Device_Library/Core/src/usbd_req.c ****                       (uint8_t *)&USBD_cfg_status,
 665:../inc/STM32_USB_Device_Library/Core/src/usbd_req.c ****                       1);
 666:../inc/STM32_USB_Device_Library/Core/src/usbd_req.c ****     break;
 26511              		.loc 1 666 0
 26512 0042 04E0     		b	.L105
 26513              	.L106:
 667:../inc/STM32_USB_Device_Library/Core/src/usbd_req.c ****     
 668:../inc/STM32_USB_Device_Library/Core/src/usbd_req.c ****   default :
 669:../inc/STM32_USB_Device_Library/Core/src/usbd_req.c ****     USBD_CtlError(pdev , req);                        
 26514              		.loc 1 669 0
 26515 0044 7868     		ldr	r0, [r7, #4]
 26516 0046 3968     		ldr	r1, [r7, #0]
 26517 0048 FFF7FEFF 		bl	USBD_CtlError
 670:../inc/STM32_USB_Device_Library/Core/src/usbd_req.c ****     break;
 26518              		.loc 1 670 0
 26519 004c 00BF     		nop
 26520              	.L105:
 671:../inc/STM32_USB_Device_Library/Core/src/usbd_req.c ****   }
 672:../inc/STM32_USB_Device_Library/Core/src/usbd_req.c **** }
 26521              		.loc 1 672 0
 26522 004e 07F10807 		add	r7, r7, #8
 26523 0052 BD46     		mov	sp, r7
 26524 0054 80BD     		pop	{r7, pc}
 26525              	.L112:
 26526 0056 00BF     		.align	2
 26527              	.L111:
 26528 0058 00000000 		.word	USBD_cfg_status
 26529              		.cfi_endproc
 26530              	.LFE117:
 26532              		.section	.text.USBD_SetFeature,"ax",%progbits
 26533              		.align	2
 26534              		.thumb
 26535              		.thumb_func
 26537              	USBD_SetFeature:
 26538              	.LFB118:
 673:../inc/STM32_USB_Device_Library/Core/src/usbd_req.c **** 
 674:../inc/STM32_USB_Device_Library/Core/src/usbd_req.c **** 
 675:../inc/STM32_USB_Device_Library/Core/src/usbd_req.c **** /**
 676:../inc/STM32_USB_Device_Library/Core/src/usbd_req.c **** * @brief  USBD_SetFeature
 677:../inc/STM32_USB_Device_Library/Core/src/usbd_req.c **** *         Handle Set device feature request
 678:../inc/STM32_USB_Device_Library/Core/src/usbd_req.c **** * @param  pdev: device instance
 679:../inc/STM32_USB_Device_Library/Core/src/usbd_req.c **** * @param  req: usb request
 680:../inc/STM32_USB_Device_Library/Core/src/usbd_req.c **** * @retval status
 681:../inc/STM32_USB_Device_Library/Core/src/usbd_req.c **** */
 682:../inc/STM32_USB_Device_Library/Core/src/usbd_req.c **** static void USBD_SetFeature(USB_OTG_CORE_HANDLE  *pdev, 
 683:../inc/STM32_USB_Device_Library/Core/src/usbd_req.c ****                             USB_SETUP_REQ *req)
 684:../inc/STM32_USB_Device_Library/Core/src/usbd_req.c **** {
 26539              		.loc 1 684 0
 26540              		.cfi_startproc
 26541              		@ args = 0, pretend = 0, frame = 16
 26542              		@ frame_needed = 1, uses_anonymous_args = 0
 26543 0000 80B5     		push	{r7, lr}
 26544              	.LCFI24:
 26545              		.cfi_def_cfa_offset 8
 26546 0002 84B0     		sub	sp, sp, #16
 26547              	.LCFI25:
 26548              		.cfi_def_cfa_offset 24
 26549 0004 00AF     		add	r7, sp, #0
 26550              		.cfi_offset 14, -4
 26551              		.cfi_offset 7, -8
 26552              	.LCFI26:
 26553              		.cfi_def_cfa_register 7
 26554 0006 7860     		str	r0, [r7, #4]
 26555 0008 3960     		str	r1, [r7, #0]
 685:../inc/STM32_USB_Device_Library/Core/src/usbd_req.c **** 
 686:../inc/STM32_USB_Device_Library/Core/src/usbd_req.c ****   USB_OTG_DCTL_TypeDef     dctl;
 687:../inc/STM32_USB_Device_Library/Core/src/usbd_req.c ****   uint8_t test_mode = 0;
 26556              		.loc 1 687 0
 26557 000a 4FF00003 		mov	r3, #0
 26558 000e FB73     		strb	r3, [r7, #15]
 688:../inc/STM32_USB_Device_Library/Core/src/usbd_req.c ****  
 689:../inc/STM32_USB_Device_Library/Core/src/usbd_req.c ****   if (req->wValue == USB_FEATURE_REMOTE_WAKEUP)
 26559              		.loc 1 689 0
 26560 0010 3B68     		ldr	r3, [r7, #0]
 26561 0012 5B88     		ldrh	r3, [r3, #2]
 26562 0014 012B     		cmp	r3, #1
 26563 0016 0FD1     		bne	.L114
 690:../inc/STM32_USB_Device_Library/Core/src/usbd_req.c ****   {
 691:../inc/STM32_USB_Device_Library/Core/src/usbd_req.c ****     pdev->dev.DevRemoteWakeup = 1;  
 26564              		.loc 1 691 0
 26565 0018 7B68     		ldr	r3, [r7, #4]
 26566 001a 4FF00102 		mov	r2, #1
 26567 001e C3F81421 		str	r2, [r3, #276]
 692:../inc/STM32_USB_Device_Library/Core/src/usbd_req.c ****     pdev->dev.class_cb->Setup (pdev, req);   
 26568              		.loc 1 692 0
 26569 0022 7B68     		ldr	r3, [r7, #4]
 26570 0024 D3F8E035 		ldr	r3, [r3, #1504]
 26571 0028 9B68     		ldr	r3, [r3, #8]
 26572 002a 7868     		ldr	r0, [r7, #4]
 26573 002c 3968     		ldr	r1, [r7, #0]
 26574 002e 9847     		blx	r3
 693:../inc/STM32_USB_Device_Library/Core/src/usbd_req.c ****     USBD_CtlSendStatus(pdev);
 26575              		.loc 1 693 0
 26576 0030 7868     		ldr	r0, [r7, #4]
 26577 0032 FFF7FEFF 		bl	USBD_CtlSendStatus
 26578 0036 4FE0     		b	.L113
 26579              	.L114:
 694:../inc/STM32_USB_Device_Library/Core/src/usbd_req.c ****   }
 695:../inc/STM32_USB_Device_Library/Core/src/usbd_req.c **** 
 696:../inc/STM32_USB_Device_Library/Core/src/usbd_req.c ****   else if ((req->wValue == USB_FEATURE_TEST_MODE) && 
 26580              		.loc 1 696 0
 26581 0038 3B68     		ldr	r3, [r7, #0]
 26582 003a 5B88     		ldrh	r3, [r3, #2]
 26583 003c 022B     		cmp	r3, #2
 26584 003e 4BD1     		bne	.L113
 697:../inc/STM32_USB_Device_Library/Core/src/usbd_req.c ****            ((req->wIndex & 0xFF) == 0))
 26585              		.loc 1 697 0 discriminator 1
 26586 0040 3B68     		ldr	r3, [r7, #0]
 26587 0042 9B88     		ldrh	r3, [r3, #4]
 26588 0044 03F0FF03 		and	r3, r3, #255
 696:../inc/STM32_USB_Device_Library/Core/src/usbd_req.c ****   else if ((req->wValue == USB_FEATURE_TEST_MODE) && 
 26589              		.loc 1 696 0 discriminator 1
 26590 0048 002B     		cmp	r3, #0
 26591 004a 45D1     		bne	.L113
 698:../inc/STM32_USB_Device_Library/Core/src/usbd_req.c ****   {
 699:../inc/STM32_USB_Device_Library/Core/src/usbd_req.c ****     dctl.d32 = USB_OTG_READ_REG32(&pdev->regs.DREGS->DCTL);
 26592              		.loc 1 699 0
 26593 004c 7B68     		ldr	r3, [r7, #4]
 26594 004e 1B69     		ldr	r3, [r3, #16]
 26595 0050 5B68     		ldr	r3, [r3, #4]
 26596 0052 BB60     		str	r3, [r7, #8]
 700:../inc/STM32_USB_Device_Library/Core/src/usbd_req.c ****     
 701:../inc/STM32_USB_Device_Library/Core/src/usbd_req.c ****     test_mode = req->wIndex >> 8;
 26597              		.loc 1 701 0
 26598 0054 3B68     		ldr	r3, [r7, #0]
 26599 0056 9B88     		ldrh	r3, [r3, #4]
 26600 0058 4FEA1323 		lsr	r3, r3, #8
 26601 005c 9BB2     		uxth	r3, r3
 26602 005e FB73     		strb	r3, [r7, #15]
 702:../inc/STM32_USB_Device_Library/Core/src/usbd_req.c ****     switch (test_mode) 
 26603              		.loc 1 702 0
 26604 0060 FB7B     		ldrb	r3, [r7, #15]	@ zero_extendqisi2
 26605 0062 03F1FF33 		add	r3, r3, #-1
 26606 0066 042B     		cmp	r3, #4
 26607 0068 2FD8     		bhi	.L116
 26608 006a 01A2     		adr	r2, .L122
 26609 006c 52F823F0 		ldr	pc, [r2, r3, lsl #2]
 26610              		.align	2
 26611              	.L122:
 26612 0070 85000000 		.word	.L117+1
 26613 0074 93000000 		.word	.L118+1
 26614 0078 A1000000 		.word	.L119+1
 26615 007c AF000000 		.word	.L120+1
 26616 0080 BD000000 		.word	.L121+1
 26617              	.L117:
 703:../inc/STM32_USB_Device_Library/Core/src/usbd_req.c ****     {
 704:../inc/STM32_USB_Device_Library/Core/src/usbd_req.c ****     case 1: // TEST_J
 705:../inc/STM32_USB_Device_Library/Core/src/usbd_req.c ****       dctl.b.tstctl = 1;
 26618              		.loc 1 705 0
 26619 0084 BB68     		ldr	r3, [r7, #8]
 26620 0086 4FF00102 		mov	r2, #1
 26621 008a 62F30613 		bfi	r3, r2, #4, #3
 26622 008e BB60     		str	r3, [r7, #8]
 706:../inc/STM32_USB_Device_Library/Core/src/usbd_req.c ****       break;
 26623              		.loc 1 706 0
 26624 0090 1BE0     		b	.L116
 26625              	.L118:
 707:../inc/STM32_USB_Device_Library/Core/src/usbd_req.c ****       
 708:../inc/STM32_USB_Device_Library/Core/src/usbd_req.c ****     case 2: // TEST_K	
 709:../inc/STM32_USB_Device_Library/Core/src/usbd_req.c ****       dctl.b.tstctl = 2;
 26626              		.loc 1 709 0
 26627 0092 BB68     		ldr	r3, [r7, #8]
 26628 0094 4FF00202 		mov	r2, #2
 26629 0098 62F30613 		bfi	r3, r2, #4, #3
 26630 009c BB60     		str	r3, [r7, #8]
 710:../inc/STM32_USB_Device_Library/Core/src/usbd_req.c ****       break;
 26631              		.loc 1 710 0
 26632 009e 14E0     		b	.L116
 26633              	.L119:
 711:../inc/STM32_USB_Device_Library/Core/src/usbd_req.c ****       
 712:../inc/STM32_USB_Device_Library/Core/src/usbd_req.c ****     case 3: // TEST_SE0_NAK
 713:../inc/STM32_USB_Device_Library/Core/src/usbd_req.c ****       dctl.b.tstctl = 3;
 26634              		.loc 1 713 0
 26635 00a0 BB68     		ldr	r3, [r7, #8]
 26636 00a2 4FF00302 		mov	r2, #3
 26637 00a6 62F30613 		bfi	r3, r2, #4, #3
 26638 00aa BB60     		str	r3, [r7, #8]
 714:../inc/STM32_USB_Device_Library/Core/src/usbd_req.c ****       break;
 26639              		.loc 1 714 0
 26640 00ac 0DE0     		b	.L116
 26641              	.L120:
 715:../inc/STM32_USB_Device_Library/Core/src/usbd_req.c ****       
 716:../inc/STM32_USB_Device_Library/Core/src/usbd_req.c ****     case 4: // TEST_PACKET
 717:../inc/STM32_USB_Device_Library/Core/src/usbd_req.c ****       dctl.b.tstctl = 4;
 26642              		.loc 1 717 0
 26643 00ae BB68     		ldr	r3, [r7, #8]
 26644 00b0 4FF00402 		mov	r2, #4
 26645 00b4 62F30613 		bfi	r3, r2, #4, #3
 26646 00b8 BB60     		str	r3, [r7, #8]
 718:../inc/STM32_USB_Device_Library/Core/src/usbd_req.c ****       break;
 26647              		.loc 1 718 0
 26648 00ba 06E0     		b	.L116
 26649              	.L121:
 719:../inc/STM32_USB_Device_Library/Core/src/usbd_req.c ****       
 720:../inc/STM32_USB_Device_Library/Core/src/usbd_req.c ****     case 5: // TEST_FORCE_ENABLE
 721:../inc/STM32_USB_Device_Library/Core/src/usbd_req.c ****       dctl.b.tstctl = 5;
 26650              		.loc 1 721 0
 26651 00bc BB68     		ldr	r3, [r7, #8]
 26652 00be 4FF00502 		mov	r2, #5
 26653 00c2 62F30613 		bfi	r3, r2, #4, #3
 26654 00c6 BB60     		str	r3, [r7, #8]
 722:../inc/STM32_USB_Device_Library/Core/src/usbd_req.c ****       break;
 26655              		.loc 1 722 0
 26656 00c8 00BF     		nop
 26657              	.L116:
 723:../inc/STM32_USB_Device_Library/Core/src/usbd_req.c ****     }
 724:../inc/STM32_USB_Device_Library/Core/src/usbd_req.c ****     USB_OTG_WRITE_REG32(&pdev->regs.DREGS->DCTL, dctl.d32);
 26658              		.loc 1 724 0
 26659 00ca 7B68     		ldr	r3, [r7, #4]
 26660 00cc 1B69     		ldr	r3, [r3, #16]
 26661 00ce BA68     		ldr	r2, [r7, #8]
 26662 00d0 5A60     		str	r2, [r3, #4]
 725:../inc/STM32_USB_Device_Library/Core/src/usbd_req.c ****     USBD_CtlSendStatus(pdev);
 26663              		.loc 1 725 0
 26664 00d2 7868     		ldr	r0, [r7, #4]
 26665 00d4 FFF7FEFF 		bl	USBD_CtlSendStatus
 26666              	.L113:
 726:../inc/STM32_USB_Device_Library/Core/src/usbd_req.c ****   }
 727:../inc/STM32_USB_Device_Library/Core/src/usbd_req.c **** 
 728:../inc/STM32_USB_Device_Library/Core/src/usbd_req.c **** }
 26667              		.loc 1 728 0
 26668 00d8 07F11007 		add	r7, r7, #16
 26669 00dc BD46     		mov	sp, r7
 26670 00de 80BD     		pop	{r7, pc}
 26671              		.cfi_endproc
 26672              	.LFE118:
 26674              		.section	.text.USBD_ClrFeature,"ax",%progbits
 26675              		.align	2
 26676              		.thumb
 26677              		.thumb_func
 26679              	USBD_ClrFeature:
 26680              	.LFB119:
 729:../inc/STM32_USB_Device_Library/Core/src/usbd_req.c **** 
 730:../inc/STM32_USB_Device_Library/Core/src/usbd_req.c **** 
 731:../inc/STM32_USB_Device_Library/Core/src/usbd_req.c **** /**
 732:../inc/STM32_USB_Device_Library/Core/src/usbd_req.c **** * @brief  USBD_ClrFeature
 733:../inc/STM32_USB_Device_Library/Core/src/usbd_req.c **** *         Handle clear device feature request
 734:../inc/STM32_USB_Device_Library/Core/src/usbd_req.c **** * @param  pdev: device instance
 735:../inc/STM32_USB_Device_Library/Core/src/usbd_req.c **** * @param  req: usb request
 736:../inc/STM32_USB_Device_Library/Core/src/usbd_req.c **** * @retval status
 737:../inc/STM32_USB_Device_Library/Core/src/usbd_req.c **** */
 738:../inc/STM32_USB_Device_Library/Core/src/usbd_req.c **** static void USBD_ClrFeature(USB_OTG_CORE_HANDLE  *pdev, 
 739:../inc/STM32_USB_Device_Library/Core/src/usbd_req.c ****                             USB_SETUP_REQ *req)
 740:../inc/STM32_USB_Device_Library/Core/src/usbd_req.c **** {
 26681              		.loc 1 740 0
 26682              		.cfi_startproc
 26683              		@ args = 0, pretend = 0, frame = 8
 26684              		@ frame_needed = 1, uses_anonymous_args = 0
 26685 0000 80B5     		push	{r7, lr}
 26686              	.LCFI27:
 26687              		.cfi_def_cfa_offset 8
 26688 0002 82B0     		sub	sp, sp, #8
 26689              	.LCFI28:
 26690              		.cfi_def_cfa_offset 16
 26691 0004 00AF     		add	r7, sp, #0
 26692              		.cfi_offset 14, -4
 26693              		.cfi_offset 7, -8
 26694              	.LCFI29:
 26695              		.cfi_def_cfa_register 7
 26696 0006 7860     		str	r0, [r7, #4]
 26697 0008 3960     		str	r1, [r7, #0]
 741:../inc/STM32_USB_Device_Library/Core/src/usbd_req.c ****   switch (pdev->dev.device_status)
 26698              		.loc 1 741 0
 26699 000a 7B68     		ldr	r3, [r7, #4]
 26700 000c 93F81231 		ldrb	r3, [r3, #274]	@ zero_extendqisi2
 26701 0010 A3F10203 		sub	r3, r3, #2
 26702 0014 012B     		cmp	r3, #1
 26703 0016 13D8     		bhi	.L124
 742:../inc/STM32_USB_Device_Library/Core/src/usbd_req.c ****   {
 743:../inc/STM32_USB_Device_Library/Core/src/usbd_req.c ****   case USB_OTG_ADDRESSED:
 744:../inc/STM32_USB_Device_Library/Core/src/usbd_req.c ****   case USB_OTG_CONFIGURED:
 745:../inc/STM32_USB_Device_Library/Core/src/usbd_req.c ****     if (req->wValue == USB_FEATURE_REMOTE_WAKEUP) 
 26704              		.loc 1 745 0
 26705 0018 3B68     		ldr	r3, [r7, #0]
 26706 001a 5B88     		ldrh	r3, [r3, #2]
 26707 001c 012B     		cmp	r3, #1
 26708 001e 15D1     		bne	.L128
 746:../inc/STM32_USB_Device_Library/Core/src/usbd_req.c ****     {
 747:../inc/STM32_USB_Device_Library/Core/src/usbd_req.c ****       pdev->dev.DevRemoteWakeup = 0; 
 26709              		.loc 1 747 0
 26710 0020 7B68     		ldr	r3, [r7, #4]
 26711 0022 4FF00002 		mov	r2, #0
 26712 0026 C3F81421 		str	r2, [r3, #276]
 748:../inc/STM32_USB_Device_Library/Core/src/usbd_req.c ****       pdev->dev.class_cb->Setup (pdev, req);   
 26713              		.loc 1 748 0
 26714 002a 7B68     		ldr	r3, [r7, #4]
 26715 002c D3F8E035 		ldr	r3, [r3, #1504]
 26716 0030 9B68     		ldr	r3, [r3, #8]
 26717 0032 7868     		ldr	r0, [r7, #4]
 26718 0034 3968     		ldr	r1, [r7, #0]
 26719 0036 9847     		blx	r3
 749:../inc/STM32_USB_Device_Library/Core/src/usbd_req.c ****       USBD_CtlSendStatus(pdev);
 26720              		.loc 1 749 0
 26721 0038 7868     		ldr	r0, [r7, #4]
 26722 003a FFF7FEFF 		bl	USBD_CtlSendStatus
 750:../inc/STM32_USB_Device_Library/Core/src/usbd_req.c ****     }
 751:../inc/STM32_USB_Device_Library/Core/src/usbd_req.c ****     break;
 26723              		.loc 1 751 0
 26724 003e 06E0     		b	.L123
 26725              	.L124:
 752:../inc/STM32_USB_Device_Library/Core/src/usbd_req.c ****     
 753:../inc/STM32_USB_Device_Library/Core/src/usbd_req.c ****   default :
 754:../inc/STM32_USB_Device_Library/Core/src/usbd_req.c ****      USBD_CtlError(pdev , req);
 26726              		.loc 1 754 0
 26727 0040 7868     		ldr	r0, [r7, #4]
 26728 0042 3968     		ldr	r1, [r7, #0]
 26729 0044 FFF7FEFF 		bl	USBD_CtlError
 755:../inc/STM32_USB_Device_Library/Core/src/usbd_req.c ****     break;
 26730              		.loc 1 755 0
 26731 0048 00BF     		nop
 26732 004a 00E0     		b	.L123
 26733              	.L128:
 751:../inc/STM32_USB_Device_Library/Core/src/usbd_req.c ****     break;
 26734              		.loc 1 751 0
 26735 004c 00BF     		nop
 26736              	.L123:
 756:../inc/STM32_USB_Device_Library/Core/src/usbd_req.c ****   }
 757:../inc/STM32_USB_Device_Library/Core/src/usbd_req.c **** }
 26737              		.loc 1 757 0
 26738 004e 07F10807 		add	r7, r7, #8
 26739 0052 BD46     		mov	sp, r7
 26740 0054 80BD     		pop	{r7, pc}
 26741              		.cfi_endproc
 26742              	.LFE119:
 26744 0056 00BF     		.section	.text.USBD_ParseSetupRequest,"ax",%progbits
 26745              		.align	2
 26746              		.global	USBD_ParseSetupRequest
 26747              		.thumb
 26748              		.thumb_func
 26750              	USBD_ParseSetupRequest:
 26751              	.LFB120:
 758:../inc/STM32_USB_Device_Library/Core/src/usbd_req.c **** 
 759:../inc/STM32_USB_Device_Library/Core/src/usbd_req.c **** /**
 760:../inc/STM32_USB_Device_Library/Core/src/usbd_req.c **** * @brief  USBD_ParseSetupRequest 
 761:../inc/STM32_USB_Device_Library/Core/src/usbd_req.c **** *         Copy buffer into setup structure
 762:../inc/STM32_USB_Device_Library/Core/src/usbd_req.c **** * @param  pdev: device instance
 763:../inc/STM32_USB_Device_Library/Core/src/usbd_req.c **** * @param  req: usb request
 764:../inc/STM32_USB_Device_Library/Core/src/usbd_req.c **** * @retval None
 765:../inc/STM32_USB_Device_Library/Core/src/usbd_req.c **** */
 766:../inc/STM32_USB_Device_Library/Core/src/usbd_req.c **** 
 767:../inc/STM32_USB_Device_Library/Core/src/usbd_req.c **** void USBD_ParseSetupRequest( USB_OTG_CORE_HANDLE  *pdev,
 768:../inc/STM32_USB_Device_Library/Core/src/usbd_req.c ****                             USB_SETUP_REQ *req)
 769:../inc/STM32_USB_Device_Library/Core/src/usbd_req.c **** {
 26752              		.loc 1 769 0
 26753              		.cfi_startproc
 26754              		@ args = 0, pretend = 0, frame = 8
 26755              		@ frame_needed = 1, uses_anonymous_args = 0
 26756              		@ link register save eliminated.
 26757 0000 80B4     		push	{r7}
 26758              	.LCFI30:
 26759              		.cfi_def_cfa_offset 4
 26760 0002 83B0     		sub	sp, sp, #12
 26761              	.LCFI31:
 26762              		.cfi_def_cfa_offset 16
 26763 0004 00AF     		add	r7, sp, #0
 26764              		.cfi_offset 7, -4
 26765              	.LCFI32:
 26766              		.cfi_def_cfa_register 7
 26767 0006 7860     		str	r0, [r7, #4]
 26768 0008 3960     		str	r1, [r7, #0]
 770:../inc/STM32_USB_Device_Library/Core/src/usbd_req.c ****   req->bmRequest     = *(uint8_t *)  (pdev->dev.setup_packet);
 26769              		.loc 1 770 0
 26770 000a 7B68     		ldr	r3, [r7, #4]
 26771 000c 93F8C825 		ldrb	r2, [r3, #1480]	@ zero_extendqisi2
 26772 0010 3B68     		ldr	r3, [r7, #0]
 26773 0012 1A70     		strb	r2, [r3, #0]
 771:../inc/STM32_USB_Device_Library/Core/src/usbd_req.c ****   req->bRequest      = *(uint8_t *)  (pdev->dev.setup_packet +  1);
 26774              		.loc 1 771 0
 26775 0014 7B68     		ldr	r3, [r7, #4]
 26776 0016 03F5B863 		add	r3, r3, #1472
 26777 001a 03F10903 		add	r3, r3, #9
 26778 001e 1A78     		ldrb	r2, [r3, #0]	@ zero_extendqisi2
 26779 0020 3B68     		ldr	r3, [r7, #0]
 26780 0022 5A70     		strb	r2, [r3, #1]
 772:../inc/STM32_USB_Device_Library/Core/src/usbd_req.c ****   req->wValue        = SWAPBYTE      (pdev->dev.setup_packet +  2);
 26781              		.loc 1 772 0
 26782 0024 7B68     		ldr	r3, [r7, #4]
 26783 0026 03F5B863 		add	r3, r3, #1472
 26784 002a 03F10A03 		add	r3, r3, #10
 26785 002e 1B78     		ldrb	r3, [r3, #0]	@ zero_extendqisi2
 26786 0030 1A46     		mov	r2, r3
 26787 0032 7B68     		ldr	r3, [r7, #4]
 26788 0034 03F5B863 		add	r3, r3, #1472
 26789 0038 03F10B03 		add	r3, r3, #11
 26790 003c 1B78     		ldrb	r3, [r3, #0]	@ zero_extendqisi2
 26791 003e 4FEA0323 		lsl	r3, r3, #8
 26792 0042 9BB2     		uxth	r3, r3
 26793 0044 D318     		adds	r3, r2, r3
 26794 0046 9AB2     		uxth	r2, r3
 26795 0048 3B68     		ldr	r3, [r7, #0]
 26796 004a 5A80     		strh	r2, [r3, #2]	@ movhi
 773:../inc/STM32_USB_Device_Library/Core/src/usbd_req.c ****   req->wIndex        = SWAPBYTE      (pdev->dev.setup_packet +  4);
 26797              		.loc 1 773 0
 26798 004c 7B68     		ldr	r3, [r7, #4]
 26799 004e 03F5B863 		add	r3, r3, #1472
 26800 0052 03F10C03 		add	r3, r3, #12
 26801 0056 1B78     		ldrb	r3, [r3, #0]	@ zero_extendqisi2
 26802 0058 1A46     		mov	r2, r3
 26803 005a 7B68     		ldr	r3, [r7, #4]
 26804 005c 03F5B863 		add	r3, r3, #1472
 26805 0060 03F10D03 		add	r3, r3, #13
 26806 0064 1B78     		ldrb	r3, [r3, #0]	@ zero_extendqisi2
 26807 0066 4FEA0323 		lsl	r3, r3, #8
 26808 006a 9BB2     		uxth	r3, r3
 26809 006c D318     		adds	r3, r2, r3
 26810 006e 9AB2     		uxth	r2, r3
 26811 0070 3B68     		ldr	r3, [r7, #0]
 26812 0072 9A80     		strh	r2, [r3, #4]	@ movhi
 774:../inc/STM32_USB_Device_Library/Core/src/usbd_req.c ****   req->wLength       = SWAPBYTE      (pdev->dev.setup_packet +  6);
 26813              		.loc 1 774 0
 26814 0074 7B68     		ldr	r3, [r7, #4]
 26815 0076 03F5B863 		add	r3, r3, #1472
 26816 007a 03F10E03 		add	r3, r3, #14
 26817 007e 1B78     		ldrb	r3, [r3, #0]	@ zero_extendqisi2
 26818 0080 1A46     		mov	r2, r3
 26819 0082 7B68     		ldr	r3, [r7, #4]
 26820 0084 03F5B863 		add	r3, r3, #1472
 26821 0088 03F10F03 		add	r3, r3, #15
 26822 008c 1B78     		ldrb	r3, [r3, #0]	@ zero_extendqisi2
 26823 008e 4FEA0323 		lsl	r3, r3, #8
 26824 0092 9BB2     		uxth	r3, r3
 26825 0094 D318     		adds	r3, r2, r3
 26826 0096 9AB2     		uxth	r2, r3
 26827 0098 3B68     		ldr	r3, [r7, #0]
 26828 009a DA80     		strh	r2, [r3, #6]	@ movhi
 775:../inc/STM32_USB_Device_Library/Core/src/usbd_req.c ****   
 776:../inc/STM32_USB_Device_Library/Core/src/usbd_req.c ****   pdev->dev.in_ep[0].ctl_data_len = req->wLength  ;
 26829              		.loc 1 776 0
 26830 009c 3B68     		ldr	r3, [r7, #0]
 26831 009e DB88     		ldrh	r3, [r3, #6]
 26832 00a0 1A46     		mov	r2, r3
 26833 00a2 7B68     		ldr	r3, [r7, #4]
 26834 00a4 C3F83C21 		str	r2, [r3, #316]
 777:../inc/STM32_USB_Device_Library/Core/src/usbd_req.c ****   pdev->dev.device_state = USB_OTG_EP0_SETUP;
 26835              		.loc 1 777 0
 26836 00a8 7B68     		ldr	r3, [r7, #4]
 26837 00aa 4FF00102 		mov	r2, #1
 26838 00ae 83F81121 		strb	r2, [r3, #273]
 778:../inc/STM32_USB_Device_Library/Core/src/usbd_req.c **** }
 26839              		.loc 1 778 0
 26840 00b2 07F10C07 		add	r7, r7, #12
 26841 00b6 BD46     		mov	sp, r7
 26842 00b8 80BC     		pop	{r7}
 26843 00ba 7047     		bx	lr
 26844              		.cfi_endproc
 26845              	.LFE120:
 26847              		.section	.text.USBD_CtlError,"ax",%progbits
 26848              		.align	2
 26849              		.global	USBD_CtlError
 26850              		.thumb
 26851              		.thumb_func
 26853              	USBD_CtlError:
 26854              	.LFB121:
 779:../inc/STM32_USB_Device_Library/Core/src/usbd_req.c **** 
 780:../inc/STM32_USB_Device_Library/Core/src/usbd_req.c **** /**
 781:../inc/STM32_USB_Device_Library/Core/src/usbd_req.c **** * @brief  USBD_CtlError 
 782:../inc/STM32_USB_Device_Library/Core/src/usbd_req.c **** *         Handle USB low level Error
 783:../inc/STM32_USB_Device_Library/Core/src/usbd_req.c **** * @param  pdev: device instance
 784:../inc/STM32_USB_Device_Library/Core/src/usbd_req.c **** * @param  req: usb request
 785:../inc/STM32_USB_Device_Library/Core/src/usbd_req.c **** * @retval None
 786:../inc/STM32_USB_Device_Library/Core/src/usbd_req.c **** */
 787:../inc/STM32_USB_Device_Library/Core/src/usbd_req.c **** 
 788:../inc/STM32_USB_Device_Library/Core/src/usbd_req.c **** void USBD_CtlError( USB_OTG_CORE_HANDLE  *pdev,
 789:../inc/STM32_USB_Device_Library/Core/src/usbd_req.c ****                             USB_SETUP_REQ *req)
 790:../inc/STM32_USB_Device_Library/Core/src/usbd_req.c **** {
 26855              		.loc 1 790 0
 26856              		.cfi_startproc
 26857              		@ args = 0, pretend = 0, frame = 8
 26858              		@ frame_needed = 1, uses_anonymous_args = 0
 26859 0000 80B5     		push	{r7, lr}
 26860              	.LCFI33:
 26861              		.cfi_def_cfa_offset 8
 26862 0002 82B0     		sub	sp, sp, #8
 26863              	.LCFI34:
 26864              		.cfi_def_cfa_offset 16
 26865 0004 00AF     		add	r7, sp, #0
 26866              		.cfi_offset 14, -4
 26867              		.cfi_offset 7, -8
 26868              	.LCFI35:
 26869              		.cfi_def_cfa_register 7
 26870 0006 7860     		str	r0, [r7, #4]
 26871 0008 3960     		str	r1, [r7, #0]
 791:../inc/STM32_USB_Device_Library/Core/src/usbd_req.c ****   if((req->bmRequest & 0x80) == 0x80)
 26872              		.loc 1 791 0
 26873 000a 3B68     		ldr	r3, [r7, #0]
 26874 000c 1B78     		ldrb	r3, [r3, #0]	@ zero_extendqisi2
 26875 000e DBB2     		uxtb	r3, r3
 26876 0010 5BB2     		sxtb	r3, r3
 26877 0012 002B     		cmp	r3, #0
 26878 0014 05DA     		bge	.L131
 792:../inc/STM32_USB_Device_Library/Core/src/usbd_req.c ****   {
 793:../inc/STM32_USB_Device_Library/Core/src/usbd_req.c ****     DCD_EP_Stall(pdev , 0x80);
 26879              		.loc 1 793 0
 26880 0016 7868     		ldr	r0, [r7, #4]
 26881 0018 4FF08001 		mov	r1, #128
 26882 001c FFF7FEFF 		bl	DCD_EP_Stall
 26883 0020 0EE0     		b	.L132
 26884              	.L131:
 794:../inc/STM32_USB_Device_Library/Core/src/usbd_req.c ****   }
 795:../inc/STM32_USB_Device_Library/Core/src/usbd_req.c ****   else 
 796:../inc/STM32_USB_Device_Library/Core/src/usbd_req.c ****   {
 797:../inc/STM32_USB_Device_Library/Core/src/usbd_req.c ****     if(req->wLength == 0)
 26885              		.loc 1 797 0
 26886 0022 3B68     		ldr	r3, [r7, #0]
 26887 0024 DB88     		ldrh	r3, [r3, #6]
 26888 0026 002B     		cmp	r3, #0
 26889 0028 05D1     		bne	.L133
 798:../inc/STM32_USB_Device_Library/Core/src/usbd_req.c ****     {
 799:../inc/STM32_USB_Device_Library/Core/src/usbd_req.c ****        DCD_EP_Stall(pdev , 0x80);
 26890              		.loc 1 799 0
 26891 002a 7868     		ldr	r0, [r7, #4]
 26892 002c 4FF08001 		mov	r1, #128
 26893 0030 FFF7FEFF 		bl	DCD_EP_Stall
 26894 0034 04E0     		b	.L132
 26895              	.L133:
 800:../inc/STM32_USB_Device_Library/Core/src/usbd_req.c ****     }
 801:../inc/STM32_USB_Device_Library/Core/src/usbd_req.c ****     else
 802:../inc/STM32_USB_Device_Library/Core/src/usbd_req.c ****     {
 803:../inc/STM32_USB_Device_Library/Core/src/usbd_req.c ****       DCD_EP_Stall(pdev , 0);
 26896              		.loc 1 803 0
 26897 0036 7868     		ldr	r0, [r7, #4]
 26898 0038 4FF00001 		mov	r1, #0
 26899 003c FFF7FEFF 		bl	DCD_EP_Stall
 26900              	.L132:
 804:../inc/STM32_USB_Device_Library/Core/src/usbd_req.c ****     }
 805:../inc/STM32_USB_Device_Library/Core/src/usbd_req.c ****   }
 806:../inc/STM32_USB_Device_Library/Core/src/usbd_req.c ****   USB_OTG_EP0_OutStart(pdev);  
 26901              		.loc 1 806 0
 26902 0040 7868     		ldr	r0, [r7, #4]
 26903 0042 FFF7FEFF 		bl	USB_OTG_EP0_OutStart
 807:../inc/STM32_USB_Device_Library/Core/src/usbd_req.c **** }
 26904              		.loc 1 807 0
 26905 0046 07F10807 		add	r7, r7, #8
 26906 004a BD46     		mov	sp, r7
 26907 004c 80BD     		pop	{r7, pc}
 26908              		.cfi_endproc
 26909              	.LFE121:
 26911 004e 00BF     		.section	.text.USBD_GetString,"ax",%progbits
 26912              		.align	2
 26913              		.global	USBD_GetString
 26914              		.thumb
 26915              		.thumb_func
 26917              	USBD_GetString:
 26918              	.LFB122:
 808:../inc/STM32_USB_Device_Library/Core/src/usbd_req.c **** 
 809:../inc/STM32_USB_Device_Library/Core/src/usbd_req.c **** 
 810:../inc/STM32_USB_Device_Library/Core/src/usbd_req.c **** /**
 811:../inc/STM32_USB_Device_Library/Core/src/usbd_req.c ****   * @brief  USBD_GetString
 812:../inc/STM32_USB_Device_Library/Core/src/usbd_req.c ****   *         Convert Ascii string into unicode one
 813:../inc/STM32_USB_Device_Library/Core/src/usbd_req.c ****   * @param  desc : descriptor buffer
 814:../inc/STM32_USB_Device_Library/Core/src/usbd_req.c ****   * @param  unicode : Formatted string buffer (unicode)
 815:../inc/STM32_USB_Device_Library/Core/src/usbd_req.c ****   * @param  len : descriptor length
 816:../inc/STM32_USB_Device_Library/Core/src/usbd_req.c ****   * @retval None
 817:../inc/STM32_USB_Device_Library/Core/src/usbd_req.c ****   */
 818:../inc/STM32_USB_Device_Library/Core/src/usbd_req.c **** void USBD_GetString(uint8_t *desc, uint8_t *unicode, uint16_t *len)
 819:../inc/STM32_USB_Device_Library/Core/src/usbd_req.c **** {
 26919              		.loc 1 819 0
 26920              		.cfi_startproc
 26921              		@ args = 0, pretend = 0, frame = 24
 26922              		@ frame_needed = 1, uses_anonymous_args = 0
 26923 0000 80B5     		push	{r7, lr}
 26924              	.LCFI36:
 26925              		.cfi_def_cfa_offset 8
 26926 0002 86B0     		sub	sp, sp, #24
 26927              	.LCFI37:
 26928              		.cfi_def_cfa_offset 32
 26929 0004 00AF     		add	r7, sp, #0
 26930              		.cfi_offset 14, -4
 26931              		.cfi_offset 7, -8
 26932              	.LCFI38:
 26933              		.cfi_def_cfa_register 7
 26934 0006 F860     		str	r0, [r7, #12]
 26935 0008 B960     		str	r1, [r7, #8]
 26936 000a 7A60     		str	r2, [r7, #4]
 820:../inc/STM32_USB_Device_Library/Core/src/usbd_req.c ****   uint8_t idx = 0;
 26937              		.loc 1 820 0
 26938 000c 4FF00003 		mov	r3, #0
 26939 0010 FB75     		strb	r3, [r7, #23]
 821:../inc/STM32_USB_Device_Library/Core/src/usbd_req.c ****   
 822:../inc/STM32_USB_Device_Library/Core/src/usbd_req.c ****   if (desc != NULL) 
 26940              		.loc 1 822 0
 26941 0012 FB68     		ldr	r3, [r7, #12]
 26942 0014 002B     		cmp	r3, #0
 26943 0016 3DD0     		beq	.L134
 823:../inc/STM32_USB_Device_Library/Core/src/usbd_req.c ****   {
 824:../inc/STM32_USB_Device_Library/Core/src/usbd_req.c ****     *len =  USBD_GetLen(desc) * 2 + 2;    
 26944              		.loc 1 824 0
 26945 0018 F868     		ldr	r0, [r7, #12]
 26946 001a FFF7FEFF 		bl	USBD_GetLen
 26947 001e 0346     		mov	r3, r0
 26948 0020 03F10103 		add	r3, r3, #1
 26949 0024 9BB2     		uxth	r3, r3
 26950 0026 4FEA4303 		lsl	r3, r3, #1
 26951 002a 9AB2     		uxth	r2, r3
 26952 002c 7B68     		ldr	r3, [r7, #4]
 26953 002e 1A80     		strh	r2, [r3, #0]	@ movhi
 825:../inc/STM32_USB_Device_Library/Core/src/usbd_req.c ****     unicode[idx++] = *len;
 26954              		.loc 1 825 0
 26955 0030 FB7D     		ldrb	r3, [r7, #23]	@ zero_extendqisi2
 26956 0032 BA68     		ldr	r2, [r7, #8]
 26957 0034 D318     		adds	r3, r2, r3
 26958 0036 7A68     		ldr	r2, [r7, #4]
 26959 0038 1288     		ldrh	r2, [r2, #0]
 26960 003a D2B2     		uxtb	r2, r2
 26961 003c 1A70     		strb	r2, [r3, #0]
 26962 003e FB7D     		ldrb	r3, [r7, #23]
 26963 0040 03F10103 		add	r3, r3, #1
 26964 0044 FB75     		strb	r3, [r7, #23]
 826:../inc/STM32_USB_Device_Library/Core/src/usbd_req.c ****     unicode[idx++] =  USB_DESC_TYPE_STRING;
 26965              		.loc 1 826 0
 26966 0046 FB7D     		ldrb	r3, [r7, #23]	@ zero_extendqisi2
 26967 0048 BA68     		ldr	r2, [r7, #8]
 26968 004a D318     		adds	r3, r2, r3
 26969 004c 4FF00302 		mov	r2, #3
 26970 0050 1A70     		strb	r2, [r3, #0]
 26971 0052 FB7D     		ldrb	r3, [r7, #23]
 26972 0054 03F10103 		add	r3, r3, #1
 26973 0058 FB75     		strb	r3, [r7, #23]
 827:../inc/STM32_USB_Device_Library/Core/src/usbd_req.c ****     
 828:../inc/STM32_USB_Device_Library/Core/src/usbd_req.c ****     while (*desc != NULL) 
 26974              		.loc 1 828 0
 26975 005a 17E0     		b	.L136
 26976              	.L137:
 829:../inc/STM32_USB_Device_Library/Core/src/usbd_req.c ****     {
 830:../inc/STM32_USB_Device_Library/Core/src/usbd_req.c ****       unicode[idx++] = *desc++;
 26977              		.loc 1 830 0
 26978 005c FB7D     		ldrb	r3, [r7, #23]	@ zero_extendqisi2
 26979 005e BA68     		ldr	r2, [r7, #8]
 26980 0060 D318     		adds	r3, r2, r3
 26981 0062 FA68     		ldr	r2, [r7, #12]
 26982 0064 1278     		ldrb	r2, [r2, #0]	@ zero_extendqisi2
 26983 0066 1A70     		strb	r2, [r3, #0]
 26984 0068 FB7D     		ldrb	r3, [r7, #23]
 26985 006a 03F10103 		add	r3, r3, #1
 26986 006e FB75     		strb	r3, [r7, #23]
 26987 0070 FB68     		ldr	r3, [r7, #12]
 26988 0072 03F10103 		add	r3, r3, #1
 26989 0076 FB60     		str	r3, [r7, #12]
 831:../inc/STM32_USB_Device_Library/Core/src/usbd_req.c ****       unicode[idx++] =  0x00;
 26990              		.loc 1 831 0
 26991 0078 FB7D     		ldrb	r3, [r7, #23]	@ zero_extendqisi2
 26992 007a BA68     		ldr	r2, [r7, #8]
 26993 007c D318     		adds	r3, r2, r3
 26994 007e 4FF00002 		mov	r2, #0
 26995 0082 1A70     		strb	r2, [r3, #0]
 26996 0084 FB7D     		ldrb	r3, [r7, #23]
 26997 0086 03F10103 		add	r3, r3, #1
 26998 008a FB75     		strb	r3, [r7, #23]
 26999              	.L136:
 828:../inc/STM32_USB_Device_Library/Core/src/usbd_req.c ****     while (*desc != NULL) 
 27000              		.loc 1 828 0 discriminator 1
 27001 008c FB68     		ldr	r3, [r7, #12]
 27002 008e 1B78     		ldrb	r3, [r3, #0]	@ zero_extendqisi2
 27003 0090 002B     		cmp	r3, #0
 27004 0092 E3D1     		bne	.L137
 27005              	.L134:
 832:../inc/STM32_USB_Device_Library/Core/src/usbd_req.c ****     }
 833:../inc/STM32_USB_Device_Library/Core/src/usbd_req.c ****   } 
 834:../inc/STM32_USB_Device_Library/Core/src/usbd_req.c **** }
 27006              		.loc 1 834 0
 27007 0094 07F11807 		add	r7, r7, #24
 27008 0098 BD46     		mov	sp, r7
 27009 009a 80BD     		pop	{r7, pc}
 27010              		.cfi_endproc
 27011              	.LFE122:
 27013              		.section	.text.USBD_GetLen,"ax",%progbits
 27014              		.align	2
 27015              		.thumb
 27016              		.thumb_func
 27018              	USBD_GetLen:
 27019              	.LFB123:
 835:../inc/STM32_USB_Device_Library/Core/src/usbd_req.c **** 
 836:../inc/STM32_USB_Device_Library/Core/src/usbd_req.c **** /**
 837:../inc/STM32_USB_Device_Library/Core/src/usbd_req.c ****   * @brief  USBD_GetLen
 838:../inc/STM32_USB_Device_Library/Core/src/usbd_req.c ****   *         return the string length
 839:../inc/STM32_USB_Device_Library/Core/src/usbd_req.c ****    * @param  buf : pointer to the ascii string buffer
 840:../inc/STM32_USB_Device_Library/Core/src/usbd_req.c ****   * @retval string length
 841:../inc/STM32_USB_Device_Library/Core/src/usbd_req.c ****   */
 842:../inc/STM32_USB_Device_Library/Core/src/usbd_req.c **** static uint8_t USBD_GetLen(uint8_t *buf)
 843:../inc/STM32_USB_Device_Library/Core/src/usbd_req.c **** {
 27020              		.loc 1 843 0
 27021              		.cfi_startproc
 27022              		@ args = 0, pretend = 0, frame = 16
 27023              		@ frame_needed = 1, uses_anonymous_args = 0
 27024              		@ link register save eliminated.
 27025 0000 80B4     		push	{r7}
 27026              	.LCFI39:
 27027              		.cfi_def_cfa_offset 4
 27028 0002 85B0     		sub	sp, sp, #20
 27029              	.LCFI40:
 27030              		.cfi_def_cfa_offset 24
 27031 0004 00AF     		add	r7, sp, #0
 27032              		.cfi_offset 7, -4
 27033              	.LCFI41:
 27034              		.cfi_def_cfa_register 7
 27035 0006 7860     		str	r0, [r7, #4]
 844:../inc/STM32_USB_Device_Library/Core/src/usbd_req.c ****     uint8_t  len = 0;
 27036              		.loc 1 844 0
 27037 0008 4FF00003 		mov	r3, #0
 27038 000c FB73     		strb	r3, [r7, #15]
 845:../inc/STM32_USB_Device_Library/Core/src/usbd_req.c **** 
 846:../inc/STM32_USB_Device_Library/Core/src/usbd_req.c ****     while (*buf != NULL) 
 27039              		.loc 1 846 0
 27040 000e 07E0     		b	.L139
 27041              	.L140:
 847:../inc/STM32_USB_Device_Library/Core/src/usbd_req.c ****     {
 848:../inc/STM32_USB_Device_Library/Core/src/usbd_req.c ****         len++;
 27042              		.loc 1 848 0
 27043 0010 FB7B     		ldrb	r3, [r7, #15]
 27044 0012 03F10103 		add	r3, r3, #1
 27045 0016 FB73     		strb	r3, [r7, #15]
 849:../inc/STM32_USB_Device_Library/Core/src/usbd_req.c ****         buf++;
 27046              		.loc 1 849 0
 27047 0018 7B68     		ldr	r3, [r7, #4]
 27048 001a 03F10103 		add	r3, r3, #1
 27049 001e 7B60     		str	r3, [r7, #4]
 27050              	.L139:
 846:../inc/STM32_USB_Device_Library/Core/src/usbd_req.c ****     while (*buf != NULL) 
 27051              		.loc 1 846 0 discriminator 1
 27052 0020 7B68     		ldr	r3, [r7, #4]
 27053 0022 1B78     		ldrb	r3, [r3, #0]	@ zero_extendqisi2
 27054 0024 002B     		cmp	r3, #0
 27055 0026 F3D1     		bne	.L140
 850:../inc/STM32_USB_Device_Library/Core/src/usbd_req.c ****     }
 851:../inc/STM32_USB_Device_Library/Core/src/usbd_req.c **** 
 852:../inc/STM32_USB_Device_Library/Core/src/usbd_req.c ****     return len;
 27056              		.loc 1 852 0
 27057 0028 FB7B     		ldrb	r3, [r7, #15]	@ zero_extendqisi2
 853:../inc/STM32_USB_Device_Library/Core/src/usbd_req.c **** }
 27058              		.loc 1 853 0
 27059 002a 1846     		mov	r0, r3
 27060 002c 07F11407 		add	r7, r7, #20
 27061 0030 BD46     		mov	sp, r7
 27062 0032 80BC     		pop	{r7}
 27063 0034 7047     		bx	lr
 27064              		.cfi_endproc
 27065              	.LFE123:
 27067 0036 00BF     		.section	.bss.cfgidx.8207,"aw",%nobits
 27070              	cfgidx.8207:
 27071 0000 00       		.space	1
 27072              		.text
 27073              	.Letext0: