   1              		.syntax unified
   2              		.cpu cortex-m4
   3              		.fpu softvfp
   4              		.eabi_attribute 20, 1
   5              		.eabi_attribute 21, 1
   6              		.eabi_attribute 23, 3
   7              		.eabi_attribute 24, 1
   8              		.eabi_attribute 25, 1
   9              		.eabi_attribute 26, 1
  10              		.eabi_attribute 30, 6
  11              		.eabi_attribute 18, 4
  12              		.thumb
  13              		.file	"stm32f4xx_cryp_tdes.c"
  23              	.Ltext0:
  24              		.file 1 "../inc/STM32F4xx_StdPeriph_Driver/src/stm32f4xx_cryp_tdes.c"
 24578              		.align	2
 24579              		.global	CRYP_TDES_ECB
 24580              		.thumb
 24581              		.thumb_func
 24583              	CRYP_TDES_ECB:
 24584              	.LFB110:
   1:../inc/STM32F4xx_StdPeriph_Driver/src/stm32f4xx_cryp_tdes.c **** /**
   2:../inc/STM32F4xx_StdPeriph_Driver/src/stm32f4xx_cryp_tdes.c ****   ******************************************************************************
   3:../inc/STM32F4xx_StdPeriph_Driver/src/stm32f4xx_cryp_tdes.c ****   * @file    stm32f4xx_cryp_tdes.c
   4:../inc/STM32F4xx_StdPeriph_Driver/src/stm32f4xx_cryp_tdes.c ****   * @author  MCD Application Team
   5:../inc/STM32F4xx_StdPeriph_Driver/src/stm32f4xx_cryp_tdes.c ****   * @version V1.0.0
   6:../inc/STM32F4xx_StdPeriph_Driver/src/stm32f4xx_cryp_tdes.c ****   * @date    30-September-2011
   7:../inc/STM32F4xx_StdPeriph_Driver/src/stm32f4xx_cryp_tdes.c ****   * @brief   This file provides high level functions to encrypt and decrypt an 
   8:../inc/STM32F4xx_StdPeriph_Driver/src/stm32f4xx_cryp_tdes.c ****   *          input message using TDES in ECB/CBC modes .
   9:../inc/STM32F4xx_StdPeriph_Driver/src/stm32f4xx_cryp_tdes.c ****   *          It uses the stm32f4xx_cryp.c/.h drivers to access the STM32F4xx CRYP
  10:../inc/STM32F4xx_StdPeriph_Driver/src/stm32f4xx_cryp_tdes.c ****   *          peripheral.
  11:../inc/STM32F4xx_StdPeriph_Driver/src/stm32f4xx_cryp_tdes.c ****   *
  12:../inc/STM32F4xx_StdPeriph_Driver/src/stm32f4xx_cryp_tdes.c ****   *  @verbatim
  13:../inc/STM32F4xx_StdPeriph_Driver/src/stm32f4xx_cryp_tdes.c ****   *
  14:../inc/STM32F4xx_StdPeriph_Driver/src/stm32f4xx_cryp_tdes.c ****   *          ===================================================================
  15:../inc/STM32F4xx_StdPeriph_Driver/src/stm32f4xx_cryp_tdes.c ****   *                                   How to use this driver
  16:../inc/STM32F4xx_StdPeriph_Driver/src/stm32f4xx_cryp_tdes.c ****   *          ===================================================================
  17:../inc/STM32F4xx_StdPeriph_Driver/src/stm32f4xx_cryp_tdes.c ****   *          1. Enable The CRYP controller clock using 
  18:../inc/STM32F4xx_StdPeriph_Driver/src/stm32f4xx_cryp_tdes.c ****   *            RCC_AHB2PeriphClockCmd(RCC_AHB2Periph_CRYP, ENABLE); function.
  19:../inc/STM32F4xx_StdPeriph_Driver/src/stm32f4xx_cryp_tdes.c ****   *
  20:../inc/STM32F4xx_StdPeriph_Driver/src/stm32f4xx_cryp_tdes.c ****   *          2. Encrypt and decrypt using TDES in ECB Mode using CRYP_TDES_ECB()
  21:../inc/STM32F4xx_StdPeriph_Driver/src/stm32f4xx_cryp_tdes.c ****   *             function.
  22:../inc/STM32F4xx_StdPeriph_Driver/src/stm32f4xx_cryp_tdes.c ****   *
  23:../inc/STM32F4xx_StdPeriph_Driver/src/stm32f4xx_cryp_tdes.c ****   *          3. Encrypt and decrypt using TDES in CBC Mode using CRYP_TDES_CBC()
  24:../inc/STM32F4xx_StdPeriph_Driver/src/stm32f4xx_cryp_tdes.c ****   *             function.
  25:../inc/STM32F4xx_StdPeriph_Driver/src/stm32f4xx_cryp_tdes.c ****   *
  26:../inc/STM32F4xx_StdPeriph_Driver/src/stm32f4xx_cryp_tdes.c ****   *  @endverbatim
  27:../inc/STM32F4xx_StdPeriph_Driver/src/stm32f4xx_cryp_tdes.c ****   *
  28:../inc/STM32F4xx_StdPeriph_Driver/src/stm32f4xx_cryp_tdes.c ****   ******************************************************************************
  29:../inc/STM32F4xx_StdPeriph_Driver/src/stm32f4xx_cryp_tdes.c ****   * @attention
  30:../inc/STM32F4xx_StdPeriph_Driver/src/stm32f4xx_cryp_tdes.c ****   *
  31:../inc/STM32F4xx_StdPeriph_Driver/src/stm32f4xx_cryp_tdes.c ****   * THE PRESENT FIRMWARE WHICH IS FOR GUIDANCE ONLY AIMS AT PROVIDING CUSTOMERS
  32:../inc/STM32F4xx_StdPeriph_Driver/src/stm32f4xx_cryp_tdes.c ****   * WITH CODING INFORMATION REGARDING THEIR PRODUCTS IN ORDER FOR THEM TO SAVE
  33:../inc/STM32F4xx_StdPeriph_Driver/src/stm32f4xx_cryp_tdes.c ****   * TIME. AS A RESULT, STMICROELECTRONICS SHALL NOT BE HELD LIABLE FOR ANY
  34:../inc/STM32F4xx_StdPeriph_Driver/src/stm32f4xx_cryp_tdes.c ****   * DIRECT, INDIRECT OR CONSEQUENTIAL DAMAGES WITH RESPECT TO ANY CLAIMS ARISING
  35:../inc/STM32F4xx_StdPeriph_Driver/src/stm32f4xx_cryp_tdes.c ****   * FROM THE CONTENT OF SUCH FIRMWARE AND/OR THE USE MADE BY CUSTOMERS OF THE
  36:../inc/STM32F4xx_StdPeriph_Driver/src/stm32f4xx_cryp_tdes.c ****   * CODING INFORMATION CONTAINED HEREIN IN CONNECTION WITH THEIR PRODUCTS.
  37:../inc/STM32F4xx_StdPeriph_Driver/src/stm32f4xx_cryp_tdes.c ****   *
  38:../inc/STM32F4xx_StdPeriph_Driver/src/stm32f4xx_cryp_tdes.c ****   * <h2><center>&copy; COPYRIGHT 2011 STMicroelectronics</center></h2>
  39:../inc/STM32F4xx_StdPeriph_Driver/src/stm32f4xx_cryp_tdes.c ****   ******************************************************************************
  40:../inc/STM32F4xx_StdPeriph_Driver/src/stm32f4xx_cryp_tdes.c ****   */ 
  41:../inc/STM32F4xx_StdPeriph_Driver/src/stm32f4xx_cryp_tdes.c **** 
  42:../inc/STM32F4xx_StdPeriph_Driver/src/stm32f4xx_cryp_tdes.c **** /* Includes ------------------------------------------------------------------*/
  43:../inc/STM32F4xx_StdPeriph_Driver/src/stm32f4xx_cryp_tdes.c **** #include "stm32f4xx_cryp.h"
  44:../inc/STM32F4xx_StdPeriph_Driver/src/stm32f4xx_cryp_tdes.c **** 
  45:../inc/STM32F4xx_StdPeriph_Driver/src/stm32f4xx_cryp_tdes.c **** 
  46:../inc/STM32F4xx_StdPeriph_Driver/src/stm32f4xx_cryp_tdes.c **** /** @addtogroup STM32F4xx_StdPeriph_Driver
  47:../inc/STM32F4xx_StdPeriph_Driver/src/stm32f4xx_cryp_tdes.c ****   * @{
  48:../inc/STM32F4xx_StdPeriph_Driver/src/stm32f4xx_cryp_tdes.c ****   */
  49:../inc/STM32F4xx_StdPeriph_Driver/src/stm32f4xx_cryp_tdes.c **** 
  50:../inc/STM32F4xx_StdPeriph_Driver/src/stm32f4xx_cryp_tdes.c **** /** @defgroup CRYP 
  51:../inc/STM32F4xx_StdPeriph_Driver/src/stm32f4xx_cryp_tdes.c ****   * @brief CRYP driver modules
  52:../inc/STM32F4xx_StdPeriph_Driver/src/stm32f4xx_cryp_tdes.c ****   * @{
  53:../inc/STM32F4xx_StdPeriph_Driver/src/stm32f4xx_cryp_tdes.c ****   */
  54:../inc/STM32F4xx_StdPeriph_Driver/src/stm32f4xx_cryp_tdes.c **** 
  55:../inc/STM32F4xx_StdPeriph_Driver/src/stm32f4xx_cryp_tdes.c **** /* Private typedef -----------------------------------------------------------*/
  56:../inc/STM32F4xx_StdPeriph_Driver/src/stm32f4xx_cryp_tdes.c **** /* Private define ------------------------------------------------------------*/
  57:../inc/STM32F4xx_StdPeriph_Driver/src/stm32f4xx_cryp_tdes.c **** #define TDESBUSY_TIMEOUT    ((uint32_t) 0x00010000)
  58:../inc/STM32F4xx_StdPeriph_Driver/src/stm32f4xx_cryp_tdes.c **** 
  59:../inc/STM32F4xx_StdPeriph_Driver/src/stm32f4xx_cryp_tdes.c **** /* Private macro -------------------------------------------------------------*/
  60:../inc/STM32F4xx_StdPeriph_Driver/src/stm32f4xx_cryp_tdes.c **** /* Private variables ---------------------------------------------------------*/
  61:../inc/STM32F4xx_StdPeriph_Driver/src/stm32f4xx_cryp_tdes.c **** /* Private function prototypes -----------------------------------------------*/
  62:../inc/STM32F4xx_StdPeriph_Driver/src/stm32f4xx_cryp_tdes.c **** /* Private functions ---------------------------------------------------------*/
  63:../inc/STM32F4xx_StdPeriph_Driver/src/stm32f4xx_cryp_tdes.c **** 
  64:../inc/STM32F4xx_StdPeriph_Driver/src/stm32f4xx_cryp_tdes.c **** 
  65:../inc/STM32F4xx_StdPeriph_Driver/src/stm32f4xx_cryp_tdes.c **** /** @defgroup CRYP_Private_Functions
  66:../inc/STM32F4xx_StdPeriph_Driver/src/stm32f4xx_cryp_tdes.c ****   * @{
  67:../inc/STM32F4xx_StdPeriph_Driver/src/stm32f4xx_cryp_tdes.c ****   */ 
  68:../inc/STM32F4xx_StdPeriph_Driver/src/stm32f4xx_cryp_tdes.c **** 
  69:../inc/STM32F4xx_StdPeriph_Driver/src/stm32f4xx_cryp_tdes.c **** /** @defgroup CRYP_Group7 High Level TDES functions
  70:../inc/STM32F4xx_StdPeriph_Driver/src/stm32f4xx_cryp_tdes.c ****  *  @brief   High Level TDES functions 
  71:../inc/STM32F4xx_StdPeriph_Driver/src/stm32f4xx_cryp_tdes.c ****  *
  72:../inc/STM32F4xx_StdPeriph_Driver/src/stm32f4xx_cryp_tdes.c **** @verbatim   
  73:../inc/STM32F4xx_StdPeriph_Driver/src/stm32f4xx_cryp_tdes.c ****  ===============================================================================
  74:../inc/STM32F4xx_StdPeriph_Driver/src/stm32f4xx_cryp_tdes.c ****                           High Level TDES functions
  75:../inc/STM32F4xx_StdPeriph_Driver/src/stm32f4xx_cryp_tdes.c ****  ===============================================================================
  76:../inc/STM32F4xx_StdPeriph_Driver/src/stm32f4xx_cryp_tdes.c **** 
  77:../inc/STM32F4xx_StdPeriph_Driver/src/stm32f4xx_cryp_tdes.c **** 
  78:../inc/STM32F4xx_StdPeriph_Driver/src/stm32f4xx_cryp_tdes.c **** @endverbatim
  79:../inc/STM32F4xx_StdPeriph_Driver/src/stm32f4xx_cryp_tdes.c ****   * @{
  80:../inc/STM32F4xx_StdPeriph_Driver/src/stm32f4xx_cryp_tdes.c ****   */
  81:../inc/STM32F4xx_StdPeriph_Driver/src/stm32f4xx_cryp_tdes.c **** 
  82:../inc/STM32F4xx_StdPeriph_Driver/src/stm32f4xx_cryp_tdes.c **** /**
  83:../inc/STM32F4xx_StdPeriph_Driver/src/stm32f4xx_cryp_tdes.c ****   * @brief  Encrypt and decrypt using TDES in ECB Mode
  84:../inc/STM32F4xx_StdPeriph_Driver/src/stm32f4xx_cryp_tdes.c ****   * @param  Mode: encryption or decryption Mode.
  85:../inc/STM32F4xx_StdPeriph_Driver/src/stm32f4xx_cryp_tdes.c ****   *           This parameter can be one of the following values:
  86:../inc/STM32F4xx_StdPeriph_Driver/src/stm32f4xx_cryp_tdes.c ****   *            @arg MODE_ENCRYPT: Encryption
  87:../inc/STM32F4xx_StdPeriph_Driver/src/stm32f4xx_cryp_tdes.c ****   *            @arg MODE_DECRYPT: Decryption
  88:../inc/STM32F4xx_StdPeriph_Driver/src/stm32f4xx_cryp_tdes.c ****   * @param  Key: Key used for TDES algorithm.
  89:../inc/STM32F4xx_StdPeriph_Driver/src/stm32f4xx_cryp_tdes.c ****   * @param  Ilength: length of the Input buffer, must be a multiple of 8.
  90:../inc/STM32F4xx_StdPeriph_Driver/src/stm32f4xx_cryp_tdes.c ****   * @param  Input: pointer to the Input buffer.
  91:../inc/STM32F4xx_StdPeriph_Driver/src/stm32f4xx_cryp_tdes.c ****   * @param  Output: pointer to the returned buffer.
  92:../inc/STM32F4xx_StdPeriph_Driver/src/stm32f4xx_cryp_tdes.c ****   * @retval An ErrorStatus enumeration value:
  93:../inc/STM32F4xx_StdPeriph_Driver/src/stm32f4xx_cryp_tdes.c ****   *          - SUCCESS: Operation done
  94:../inc/STM32F4xx_StdPeriph_Driver/src/stm32f4xx_cryp_tdes.c ****   *          - ERROR: Operation failed
  95:../inc/STM32F4xx_StdPeriph_Driver/src/stm32f4xx_cryp_tdes.c ****   */
  96:../inc/STM32F4xx_StdPeriph_Driver/src/stm32f4xx_cryp_tdes.c **** ErrorStatus CRYP_TDES_ECB(uint8_t Mode, uint8_t Key[24], uint8_t *Input, 
  97:../inc/STM32F4xx_StdPeriph_Driver/src/stm32f4xx_cryp_tdes.c ****                           uint32_t Ilength, uint8_t *Output)
  98:../inc/STM32F4xx_StdPeriph_Driver/src/stm32f4xx_cryp_tdes.c **** {
 24585              		.loc 1 98 0
 24586              		.cfi_startproc
 24587              		@ args = 4, pretend = 0, frame = 136
 24588              		@ frame_needed = 1, uses_anonymous_args = 0
 24589 0000 90B5     		push	{r4, r7, lr}
 24590              	.LCFI0:
 24591              		.cfi_def_cfa_offset 12
 24592 0002 A3B0     		sub	sp, sp, #140
 24593              	.LCFI1:
 24594              		.cfi_def_cfa_offset 152
 24595 0004 00AF     		add	r7, sp, #0
 24596              		.cfi_offset 14, -4
 24597              		.cfi_offset 7, -8
 24598              		.cfi_offset 4, -12
 24599              	.LCFI2:
 24600              		.cfi_def_cfa_register 7
 24601 0006 B960     		str	r1, [r7, #8]
 24602 0008 7A60     		str	r2, [r7, #4]
 24603 000a 3B60     		str	r3, [r7, #0]
 24604 000c 0346     		mov	r3, r0
 24605 000e FB73     		strb	r3, [r7, #15]
  99:../inc/STM32F4xx_StdPeriph_Driver/src/stm32f4xx_cryp_tdes.c ****   CRYP_InitTypeDef TDES_CRYP_InitStructure;
 100:../inc/STM32F4xx_StdPeriph_Driver/src/stm32f4xx_cryp_tdes.c ****   CRYP_KeyInitTypeDef TDES_CRYP_KeyInitStructure;
 101:../inc/STM32F4xx_StdPeriph_Driver/src/stm32f4xx_cryp_tdes.c ****   __IO uint32_t counter = 0;
 24606              		.loc 1 101 0
 24607 0010 4FF00003 		mov	r3, #0
 24608 0014 7B61     		str	r3, [r7, #20]
 102:../inc/STM32F4xx_StdPeriph_Driver/src/stm32f4xx_cryp_tdes.c ****   uint32_t busystatus = 0;
 24609              		.loc 1 102 0
 24610 0016 4FF00003 		mov	r3, #0
 24611 001a 7B67     		str	r3, [r7, #116]
 103:../inc/STM32F4xx_StdPeriph_Driver/src/stm32f4xx_cryp_tdes.c ****   ErrorStatus status = SUCCESS;
 24612              		.loc 1 103 0
 24613 001c 4FF00103 		mov	r3, #1
 24614 0020 87F88730 		strb	r3, [r7, #135]
 104:../inc/STM32F4xx_StdPeriph_Driver/src/stm32f4xx_cryp_tdes.c ****   uint32_t keyaddr    = (uint32_t)Key;
 24615              		.loc 1 104 0
 24616 0024 BB68     		ldr	r3, [r7, #8]
 24617 0026 3B67     		str	r3, [r7, #112]
 105:../inc/STM32F4xx_StdPeriph_Driver/src/stm32f4xx_cryp_tdes.c ****   uint32_t inputaddr  = (uint32_t)Input;
 24618              		.loc 1 105 0
 24619 0028 7B68     		ldr	r3, [r7, #4]
 24620 002a C7F88030 		str	r3, [r7, #128]
 106:../inc/STM32F4xx_StdPeriph_Driver/src/stm32f4xx_cryp_tdes.c ****   uint32_t outputaddr = (uint32_t)Output;
 24621              		.loc 1 106 0
 24622 002e D7F89830 		ldr	r3, [r7, #152]
 24623 0032 FB67     		str	r3, [r7, #124]
 107:../inc/STM32F4xx_StdPeriph_Driver/src/stm32f4xx_cryp_tdes.c ****   uint32_t i = 0;
 24624              		.loc 1 107 0
 24625 0034 4FF00003 		mov	r3, #0
 24626 0038 BB67     		str	r3, [r7, #120]
 108:../inc/STM32F4xx_StdPeriph_Driver/src/stm32f4xx_cryp_tdes.c **** 
 109:../inc/STM32F4xx_StdPeriph_Driver/src/stm32f4xx_cryp_tdes.c ****   /* Crypto structures initialisation*/
 110:../inc/STM32F4xx_StdPeriph_Driver/src/stm32f4xx_cryp_tdes.c ****   CRYP_KeyStructInit(&TDES_CRYP_KeyInitStructure);
 24627              		.loc 1 110 0
 24628 003a 07F11803 		add	r3, r7, #24
 24629 003e 1846     		mov	r0, r3
 24630 0040 FFF7FEFF 		bl	CRYP_KeyStructInit
 111:../inc/STM32F4xx_StdPeriph_Driver/src/stm32f4xx_cryp_tdes.c **** 
 112:../inc/STM32F4xx_StdPeriph_Driver/src/stm32f4xx_cryp_tdes.c ****   /* Crypto Init for Encryption process */
 113:../inc/STM32F4xx_StdPeriph_Driver/src/stm32f4xx_cryp_tdes.c ****   if(Mode == MODE_ENCRYPT) /* TDES encryption */
 24631              		.loc 1 113 0
 24632 0044 FB7B     		ldrb	r3, [r7, #15]	@ zero_extendqisi2
 24633 0046 012B     		cmp	r3, #1
 24634 0048 03D1     		bne	.L2
 114:../inc/STM32F4xx_StdPeriph_Driver/src/stm32f4xx_cryp_tdes.c ****   {
 115:../inc/STM32F4xx_StdPeriph_Driver/src/stm32f4xx_cryp_tdes.c ****      TDES_CRYP_InitStructure.CRYP_AlgoDir = CRYP_AlgoDir_Encrypt;
 24635              		.loc 1 115 0
 24636 004a 4FF00003 		mov	r3, #0
 24637 004e 3B87     		strh	r3, [r7, #56]	@ movhi
 24638 0050 02E0     		b	.L3
 24639              	.L2:
 116:../inc/STM32F4xx_StdPeriph_Driver/src/stm32f4xx_cryp_tdes.c ****   }
 117:../inc/STM32F4xx_StdPeriph_Driver/src/stm32f4xx_cryp_tdes.c ****   else /*if(Mode == MODE_DECRYPT)*/ /* TDES decryption */
 118:../inc/STM32F4xx_StdPeriph_Driver/src/stm32f4xx_cryp_tdes.c ****   {
 119:../inc/STM32F4xx_StdPeriph_Driver/src/stm32f4xx_cryp_tdes.c ****      TDES_CRYP_InitStructure.CRYP_AlgoDir = CRYP_AlgoDir_Decrypt;
 24640              		.loc 1 119 0
 24641 0052 4FF00403 		mov	r3, #4
 24642 0056 3B87     		strh	r3, [r7, #56]	@ movhi
 24643              	.L3:
 120:../inc/STM32F4xx_StdPeriph_Driver/src/stm32f4xx_cryp_tdes.c ****   }
 121:../inc/STM32F4xx_StdPeriph_Driver/src/stm32f4xx_cryp_tdes.c **** 
 122:../inc/STM32F4xx_StdPeriph_Driver/src/stm32f4xx_cryp_tdes.c ****   TDES_CRYP_InitStructure.CRYP_AlgoMode = CRYP_AlgoMode_TDES_ECB;
 24644              		.loc 1 122 0
 24645 0058 4FF00003 		mov	r3, #0
 24646 005c 7B87     		strh	r3, [r7, #58]	@ movhi
 123:../inc/STM32F4xx_StdPeriph_Driver/src/stm32f4xx_cryp_tdes.c ****   TDES_CRYP_InitStructure.CRYP_DataType = CRYP_DataType_8b;
 24647              		.loc 1 123 0
 24648 005e 4FF08003 		mov	r3, #128
 24649 0062 BB87     		strh	r3, [r7, #60]	@ movhi
 124:../inc/STM32F4xx_StdPeriph_Driver/src/stm32f4xx_cryp_tdes.c ****   CRYP_Init(&TDES_CRYP_InitStructure);
 24650              		.loc 1 124 0
 24651 0064 07F13803 		add	r3, r7, #56
 24652 0068 1846     		mov	r0, r3
 24653 006a FFF7FEFF 		bl	CRYP_Init
 125:../inc/STM32F4xx_StdPeriph_Driver/src/stm32f4xx_cryp_tdes.c **** 
 126:../inc/STM32F4xx_StdPeriph_Driver/src/stm32f4xx_cryp_tdes.c ****   /* Key Initialisation */
 127:../inc/STM32F4xx_StdPeriph_Driver/src/stm32f4xx_cryp_tdes.c ****   TDES_CRYP_KeyInitStructure.CRYP_Key1Left = __REV(*(uint32_t*)(keyaddr));
 24654              		.loc 1 127 0
 24655 006e 3B6F     		ldr	r3, [r7, #112]
 24656 0070 1B68     		ldr	r3, [r3, #0]
 24657 0072 FB66     		str	r3, [r7, #108]
 24658              	.LBB30:
 24659              	.LBB31:
   1:/home/kvv/workspace/k-car/autopilot/inc/CMSIS/core_cmInstr.h **** /**************************************************************************//**
   2:/home/kvv/workspace/k-car/autopilot/inc/CMSIS/core_cmInstr.h ****  * @file     core_cmInstr.h
   3:/home/kvv/workspace/k-car/autopilot/inc/CMSIS/core_cmInstr.h ****  * @brief    CMSIS Cortex-M Core Instruction Access Header File
   4:/home/kvv/workspace/k-car/autopilot/inc/CMSIS/core_cmInstr.h ****  * @version  V2.10
   5:/home/kvv/workspace/k-car/autopilot/inc/CMSIS/core_cmInstr.h ****  * @date     19. July 2011
   6:/home/kvv/workspace/k-car/autopilot/inc/CMSIS/core_cmInstr.h ****  *
   7:/home/kvv/workspace/k-car/autopilot/inc/CMSIS/core_cmInstr.h ****  * @note
   8:/home/kvv/workspace/k-car/autopilot/inc/CMSIS/core_cmInstr.h ****  * Copyright (C) 2009-2011 ARM Limited. All rights reserved.
   9:/home/kvv/workspace/k-car/autopilot/inc/CMSIS/core_cmInstr.h ****  *
  10:/home/kvv/workspace/k-car/autopilot/inc/CMSIS/core_cmInstr.h ****  * @par
  11:/home/kvv/workspace/k-car/autopilot/inc/CMSIS/core_cmInstr.h ****  * ARM Limited (ARM) is supplying this software for use with Cortex-M 
  12:/home/kvv/workspace/k-car/autopilot/inc/CMSIS/core_cmInstr.h ****  * processor based microcontrollers.  This file can be freely distributed 
  13:/home/kvv/workspace/k-car/autopilot/inc/CMSIS/core_cmInstr.h ****  * within development tools that are supporting such ARM based processors. 
  14:/home/kvv/workspace/k-car/autopilot/inc/CMSIS/core_cmInstr.h ****  *
  15:/home/kvv/workspace/k-car/autopilot/inc/CMSIS/core_cmInstr.h ****  * @par
  16:/home/kvv/workspace/k-car/autopilot/inc/CMSIS/core_cmInstr.h ****  * THIS SOFTWARE IS PROVIDED "AS IS".  NO WARRANTIES, WHETHER EXPRESS, IMPLIED
  17:/home/kvv/workspace/k-car/autopilot/inc/CMSIS/core_cmInstr.h ****  * OR STATUTORY, INCLUDING, BUT NOT LIMITED TO, IMPLIED WARRANTIES OF
  18:/home/kvv/workspace/k-car/autopilot/inc/CMSIS/core_cmInstr.h ****  * MERCHANTABILITY AND FITNESS FOR A PARTICULAR PURPOSE APPLY TO THIS SOFTWARE.
  19:/home/kvv/workspace/k-car/autopilot/inc/CMSIS/core_cmInstr.h ****  * ARM SHALL NOT, IN ANY CIRCUMSTANCES, BE LIABLE FOR SPECIAL, INCIDENTAL, OR
  20:/home/kvv/workspace/k-car/autopilot/inc/CMSIS/core_cmInstr.h ****  * CONSEQUENTIAL DAMAGES, FOR ANY REASON WHATSOEVER.
  21:/home/kvv/workspace/k-car/autopilot/inc/CMSIS/core_cmInstr.h ****  *
  22:/home/kvv/workspace/k-car/autopilot/inc/CMSIS/core_cmInstr.h ****  ******************************************************************************/
  23:/home/kvv/workspace/k-car/autopilot/inc/CMSIS/core_cmInstr.h **** 
  24:/home/kvv/workspace/k-car/autopilot/inc/CMSIS/core_cmInstr.h **** #ifndef __CORE_CMINSTR_H
  25:/home/kvv/workspace/k-car/autopilot/inc/CMSIS/core_cmInstr.h **** #define __CORE_CMINSTR_H
  26:/home/kvv/workspace/k-car/autopilot/inc/CMSIS/core_cmInstr.h **** 
  27:/home/kvv/workspace/k-car/autopilot/inc/CMSIS/core_cmInstr.h **** 
  28:/home/kvv/workspace/k-car/autopilot/inc/CMSIS/core_cmInstr.h **** /* ##########################  Core Instruction Access  ######################### */
  29:/home/kvv/workspace/k-car/autopilot/inc/CMSIS/core_cmInstr.h **** /** \defgroup CMSIS_Core_InstructionInterface CMSIS Core Instruction Interface
  30:/home/kvv/workspace/k-car/autopilot/inc/CMSIS/core_cmInstr.h ****   Access to dedicated instructions
  31:/home/kvv/workspace/k-car/autopilot/inc/CMSIS/core_cmInstr.h ****   @{
  32:/home/kvv/workspace/k-car/autopilot/inc/CMSIS/core_cmInstr.h **** */
  33:/home/kvv/workspace/k-car/autopilot/inc/CMSIS/core_cmInstr.h **** 
  34:/home/kvv/workspace/k-car/autopilot/inc/CMSIS/core_cmInstr.h **** #if   defined ( __CC_ARM ) /*------------------RealView Compiler -----------------*/
  35:/home/kvv/workspace/k-car/autopilot/inc/CMSIS/core_cmInstr.h **** /* ARM armcc specific functions */
  36:/home/kvv/workspace/k-car/autopilot/inc/CMSIS/core_cmInstr.h **** 
  37:/home/kvv/workspace/k-car/autopilot/inc/CMSIS/core_cmInstr.h **** #if (__ARMCC_VERSION < 400677)
  38:/home/kvv/workspace/k-car/autopilot/inc/CMSIS/core_cmInstr.h ****   #error "Please use ARM Compiler Toolchain V4.0.677 or later!"
  39:/home/kvv/workspace/k-car/autopilot/inc/CMSIS/core_cmInstr.h **** #endif
  40:/home/kvv/workspace/k-car/autopilot/inc/CMSIS/core_cmInstr.h **** 
  41:/home/kvv/workspace/k-car/autopilot/inc/CMSIS/core_cmInstr.h **** 
  42:/home/kvv/workspace/k-car/autopilot/inc/CMSIS/core_cmInstr.h **** /** \brief  No Operation
  43:/home/kvv/workspace/k-car/autopilot/inc/CMSIS/core_cmInstr.h **** 
  44:/home/kvv/workspace/k-car/autopilot/inc/CMSIS/core_cmInstr.h ****     No Operation does nothing. This instruction can be used for code alignment purposes.
  45:/home/kvv/workspace/k-car/autopilot/inc/CMSIS/core_cmInstr.h ****  */
  46:/home/kvv/workspace/k-car/autopilot/inc/CMSIS/core_cmInstr.h **** #define __NOP                             __nop
  47:/home/kvv/workspace/k-car/autopilot/inc/CMSIS/core_cmInstr.h **** 
  48:/home/kvv/workspace/k-car/autopilot/inc/CMSIS/core_cmInstr.h **** 
  49:/home/kvv/workspace/k-car/autopilot/inc/CMSIS/core_cmInstr.h **** /** \brief  Wait For Interrupt
  50:/home/kvv/workspace/k-car/autopilot/inc/CMSIS/core_cmInstr.h **** 
  51:/home/kvv/workspace/k-car/autopilot/inc/CMSIS/core_cmInstr.h ****     Wait For Interrupt is a hint instruction that suspends execution
  52:/home/kvv/workspace/k-car/autopilot/inc/CMSIS/core_cmInstr.h ****     until one of a number of events occurs.
  53:/home/kvv/workspace/k-car/autopilot/inc/CMSIS/core_cmInstr.h ****  */
  54:/home/kvv/workspace/k-car/autopilot/inc/CMSIS/core_cmInstr.h **** #define __WFI                             __wfi
  55:/home/kvv/workspace/k-car/autopilot/inc/CMSIS/core_cmInstr.h **** 
  56:/home/kvv/workspace/k-car/autopilot/inc/CMSIS/core_cmInstr.h **** 
  57:/home/kvv/workspace/k-car/autopilot/inc/CMSIS/core_cmInstr.h **** /** \brief  Wait For Event
  58:/home/kvv/workspace/k-car/autopilot/inc/CMSIS/core_cmInstr.h **** 
  59:/home/kvv/workspace/k-car/autopilot/inc/CMSIS/core_cmInstr.h ****     Wait For Event is a hint instruction that permits the processor to enter
  60:/home/kvv/workspace/k-car/autopilot/inc/CMSIS/core_cmInstr.h ****     a low-power state until one of a number of events occurs.
  61:/home/kvv/workspace/k-car/autopilot/inc/CMSIS/core_cmInstr.h ****  */
  62:/home/kvv/workspace/k-car/autopilot/inc/CMSIS/core_cmInstr.h **** #define __WFE                             __wfe
  63:/home/kvv/workspace/k-car/autopilot/inc/CMSIS/core_cmInstr.h **** 
  64:/home/kvv/workspace/k-car/autopilot/inc/CMSIS/core_cmInstr.h **** 
  65:/home/kvv/workspace/k-car/autopilot/inc/CMSIS/core_cmInstr.h **** /** \brief  Send Event
  66:/home/kvv/workspace/k-car/autopilot/inc/CMSIS/core_cmInstr.h **** 
  67:/home/kvv/workspace/k-car/autopilot/inc/CMSIS/core_cmInstr.h ****     Send Event is a hint instruction. It causes an event to be signaled to the CPU.
  68:/home/kvv/workspace/k-car/autopilot/inc/CMSIS/core_cmInstr.h ****  */
  69:/home/kvv/workspace/k-car/autopilot/inc/CMSIS/core_cmInstr.h **** #define __SEV                             __sev
  70:/home/kvv/workspace/k-car/autopilot/inc/CMSIS/core_cmInstr.h **** 
  71:/home/kvv/workspace/k-car/autopilot/inc/CMSIS/core_cmInstr.h **** 
  72:/home/kvv/workspace/k-car/autopilot/inc/CMSIS/core_cmInstr.h **** /** \brief  Instruction Synchronization Barrier
  73:/home/kvv/workspace/k-car/autopilot/inc/CMSIS/core_cmInstr.h **** 
  74:/home/kvv/workspace/k-car/autopilot/inc/CMSIS/core_cmInstr.h ****     Instruction Synchronization Barrier flushes the pipeline in the processor, 
  75:/home/kvv/workspace/k-car/autopilot/inc/CMSIS/core_cmInstr.h ****     so that all instructions following the ISB are fetched from cache or 
  76:/home/kvv/workspace/k-car/autopilot/inc/CMSIS/core_cmInstr.h ****     memory, after the instruction has been completed.
  77:/home/kvv/workspace/k-car/autopilot/inc/CMSIS/core_cmInstr.h ****  */
  78:/home/kvv/workspace/k-car/autopilot/inc/CMSIS/core_cmInstr.h **** #define __ISB()                           __isb(0xF)
  79:/home/kvv/workspace/k-car/autopilot/inc/CMSIS/core_cmInstr.h **** 
  80:/home/kvv/workspace/k-car/autopilot/inc/CMSIS/core_cmInstr.h **** 
  81:/home/kvv/workspace/k-car/autopilot/inc/CMSIS/core_cmInstr.h **** /** \brief  Data Synchronization Barrier
  82:/home/kvv/workspace/k-car/autopilot/inc/CMSIS/core_cmInstr.h **** 
  83:/home/kvv/workspace/k-car/autopilot/inc/CMSIS/core_cmInstr.h ****     This function acts as a special kind of Data Memory Barrier. 
  84:/home/kvv/workspace/k-car/autopilot/inc/CMSIS/core_cmInstr.h ****     It completes when all explicit memory accesses before this instruction complete.
  85:/home/kvv/workspace/k-car/autopilot/inc/CMSIS/core_cmInstr.h ****  */
  86:/home/kvv/workspace/k-car/autopilot/inc/CMSIS/core_cmInstr.h **** #define __DSB()                           __dsb(0xF)
  87:/home/kvv/workspace/k-car/autopilot/inc/CMSIS/core_cmInstr.h **** 
  88:/home/kvv/workspace/k-car/autopilot/inc/CMSIS/core_cmInstr.h **** 
  89:/home/kvv/workspace/k-car/autopilot/inc/CMSIS/core_cmInstr.h **** /** \brief  Data Memory Barrier
  90:/home/kvv/workspace/k-car/autopilot/inc/CMSIS/core_cmInstr.h **** 
  91:/home/kvv/workspace/k-car/autopilot/inc/CMSIS/core_cmInstr.h ****     This function ensures the apparent order of the explicit memory operations before 
  92:/home/kvv/workspace/k-car/autopilot/inc/CMSIS/core_cmInstr.h ****     and after the instruction, without ensuring their completion.
  93:/home/kvv/workspace/k-car/autopilot/inc/CMSIS/core_cmInstr.h ****  */
  94:/home/kvv/workspace/k-car/autopilot/inc/CMSIS/core_cmInstr.h **** #define __DMB()                           __dmb(0xF)
  95:/home/kvv/workspace/k-car/autopilot/inc/CMSIS/core_cmInstr.h **** 
  96:/home/kvv/workspace/k-car/autopilot/inc/CMSIS/core_cmInstr.h **** 
  97:/home/kvv/workspace/k-car/autopilot/inc/CMSIS/core_cmInstr.h **** /** \brief  Reverse byte order (32 bit)
  98:/home/kvv/workspace/k-car/autopilot/inc/CMSIS/core_cmInstr.h **** 
  99:/home/kvv/workspace/k-car/autopilot/inc/CMSIS/core_cmInstr.h ****     This function reverses the byte order in integer value.
 100:/home/kvv/workspace/k-car/autopilot/inc/CMSIS/core_cmInstr.h **** 
 101:/home/kvv/workspace/k-car/autopilot/inc/CMSIS/core_cmInstr.h ****     \param [in]    value  Value to reverse
 102:/home/kvv/workspace/k-car/autopilot/inc/CMSIS/core_cmInstr.h ****     \return               Reversed value
 103:/home/kvv/workspace/k-car/autopilot/inc/CMSIS/core_cmInstr.h ****  */
 104:/home/kvv/workspace/k-car/autopilot/inc/CMSIS/core_cmInstr.h **** #define __REV                             __rev
 105:/home/kvv/workspace/k-car/autopilot/inc/CMSIS/core_cmInstr.h **** 
 106:/home/kvv/workspace/k-car/autopilot/inc/CMSIS/core_cmInstr.h **** 
 107:/home/kvv/workspace/k-car/autopilot/inc/CMSIS/core_cmInstr.h **** /** \brief  Reverse byte order (16 bit)
 108:/home/kvv/workspace/k-car/autopilot/inc/CMSIS/core_cmInstr.h **** 
 109:/home/kvv/workspace/k-car/autopilot/inc/CMSIS/core_cmInstr.h ****     This function reverses the byte order in two unsigned short values.
 110:/home/kvv/workspace/k-car/autopilot/inc/CMSIS/core_cmInstr.h **** 
 111:/home/kvv/workspace/k-car/autopilot/inc/CMSIS/core_cmInstr.h ****     \param [in]    value  Value to reverse
 112:/home/kvv/workspace/k-car/autopilot/inc/CMSIS/core_cmInstr.h ****     \return               Reversed value
 113:/home/kvv/workspace/k-car/autopilot/inc/CMSIS/core_cmInstr.h ****  */
 114:/home/kvv/workspace/k-car/autopilot/inc/CMSIS/core_cmInstr.h **** static __INLINE __ASM uint32_t __REV16(uint32_t value)
 115:/home/kvv/workspace/k-car/autopilot/inc/CMSIS/core_cmInstr.h **** {
 116:/home/kvv/workspace/k-car/autopilot/inc/CMSIS/core_cmInstr.h ****   rev16 r0, r0
 117:/home/kvv/workspace/k-car/autopilot/inc/CMSIS/core_cmInstr.h ****   bx lr
 118:/home/kvv/workspace/k-car/autopilot/inc/CMSIS/core_cmInstr.h **** }
 119:/home/kvv/workspace/k-car/autopilot/inc/CMSIS/core_cmInstr.h **** 
 120:/home/kvv/workspace/k-car/autopilot/inc/CMSIS/core_cmInstr.h **** 
 121:/home/kvv/workspace/k-car/autopilot/inc/CMSIS/core_cmInstr.h **** /** \brief  Reverse byte order in signed short value
 122:/home/kvv/workspace/k-car/autopilot/inc/CMSIS/core_cmInstr.h **** 
 123:/home/kvv/workspace/k-car/autopilot/inc/CMSIS/core_cmInstr.h ****     This function reverses the byte order in a signed short value with sign extension to integer.
 124:/home/kvv/workspace/k-car/autopilot/inc/CMSIS/core_cmInstr.h **** 
 125:/home/kvv/workspace/k-car/autopilot/inc/CMSIS/core_cmInstr.h ****     \param [in]    value  Value to reverse
 126:/home/kvv/workspace/k-car/autopilot/inc/CMSIS/core_cmInstr.h ****     \return               Reversed value
 127:/home/kvv/workspace/k-car/autopilot/inc/CMSIS/core_cmInstr.h ****  */
 128:/home/kvv/workspace/k-car/autopilot/inc/CMSIS/core_cmInstr.h **** static __INLINE __ASM int32_t __REVSH(int32_t value)
 129:/home/kvv/workspace/k-car/autopilot/inc/CMSIS/core_cmInstr.h **** {
 130:/home/kvv/workspace/k-car/autopilot/inc/CMSIS/core_cmInstr.h ****   revsh r0, r0
 131:/home/kvv/workspace/k-car/autopilot/inc/CMSIS/core_cmInstr.h ****   bx lr
 132:/home/kvv/workspace/k-car/autopilot/inc/CMSIS/core_cmInstr.h **** }
 133:/home/kvv/workspace/k-car/autopilot/inc/CMSIS/core_cmInstr.h **** 
 134:/home/kvv/workspace/k-car/autopilot/inc/CMSIS/core_cmInstr.h **** 
 135:/home/kvv/workspace/k-car/autopilot/inc/CMSIS/core_cmInstr.h **** #if       (__CORTEX_M >= 0x03)
 136:/home/kvv/workspace/k-car/autopilot/inc/CMSIS/core_cmInstr.h **** 
 137:/home/kvv/workspace/k-car/autopilot/inc/CMSIS/core_cmInstr.h **** /** \brief  Reverse bit order of value
 138:/home/kvv/workspace/k-car/autopilot/inc/CMSIS/core_cmInstr.h **** 
 139:/home/kvv/workspace/k-car/autopilot/inc/CMSIS/core_cmInstr.h ****     This function reverses the bit order of the given value.
 140:/home/kvv/workspace/k-car/autopilot/inc/CMSIS/core_cmInstr.h **** 
 141:/home/kvv/workspace/k-car/autopilot/inc/CMSIS/core_cmInstr.h ****     \param [in]    value  Value to reverse
 142:/home/kvv/workspace/k-car/autopilot/inc/CMSIS/core_cmInstr.h ****     \return               Reversed value
 143:/home/kvv/workspace/k-car/autopilot/inc/CMSIS/core_cmInstr.h ****  */
 144:/home/kvv/workspace/k-car/autopilot/inc/CMSIS/core_cmInstr.h **** #define __RBIT                            __rbit
 145:/home/kvv/workspace/k-car/autopilot/inc/CMSIS/core_cmInstr.h **** 
 146:/home/kvv/workspace/k-car/autopilot/inc/CMSIS/core_cmInstr.h **** 
 147:/home/kvv/workspace/k-car/autopilot/inc/CMSIS/core_cmInstr.h **** /** \brief  LDR Exclusive (8 bit)
 148:/home/kvv/workspace/k-car/autopilot/inc/CMSIS/core_cmInstr.h **** 
 149:/home/kvv/workspace/k-car/autopilot/inc/CMSIS/core_cmInstr.h ****     This function performs a exclusive LDR command for 8 bit value.
 150:/home/kvv/workspace/k-car/autopilot/inc/CMSIS/core_cmInstr.h **** 
 151:/home/kvv/workspace/k-car/autopilot/inc/CMSIS/core_cmInstr.h ****     \param [in]    ptr  Pointer to data
 152:/home/kvv/workspace/k-car/autopilot/inc/CMSIS/core_cmInstr.h ****     \return             value of type uint8_t at (*ptr)
 153:/home/kvv/workspace/k-car/autopilot/inc/CMSIS/core_cmInstr.h ****  */
 154:/home/kvv/workspace/k-car/autopilot/inc/CMSIS/core_cmInstr.h **** #define __LDREXB(ptr)                     ((uint8_t ) __ldrex(ptr))
 155:/home/kvv/workspace/k-car/autopilot/inc/CMSIS/core_cmInstr.h **** 
 156:/home/kvv/workspace/k-car/autopilot/inc/CMSIS/core_cmInstr.h **** 
 157:/home/kvv/workspace/k-car/autopilot/inc/CMSIS/core_cmInstr.h **** /** \brief  LDR Exclusive (16 bit)
 158:/home/kvv/workspace/k-car/autopilot/inc/CMSIS/core_cmInstr.h **** 
 159:/home/kvv/workspace/k-car/autopilot/inc/CMSIS/core_cmInstr.h ****     This function performs a exclusive LDR command for 16 bit values.
 160:/home/kvv/workspace/k-car/autopilot/inc/CMSIS/core_cmInstr.h **** 
 161:/home/kvv/workspace/k-car/autopilot/inc/CMSIS/core_cmInstr.h ****     \param [in]    ptr  Pointer to data
 162:/home/kvv/workspace/k-car/autopilot/inc/CMSIS/core_cmInstr.h ****     \return        value of type uint16_t at (*ptr)
 163:/home/kvv/workspace/k-car/autopilot/inc/CMSIS/core_cmInstr.h ****  */
 164:/home/kvv/workspace/k-car/autopilot/inc/CMSIS/core_cmInstr.h **** #define __LDREXH(ptr)                     ((uint16_t) __ldrex(ptr))
 165:/home/kvv/workspace/k-car/autopilot/inc/CMSIS/core_cmInstr.h **** 
 166:/home/kvv/workspace/k-car/autopilot/inc/CMSIS/core_cmInstr.h **** 
 167:/home/kvv/workspace/k-car/autopilot/inc/CMSIS/core_cmInstr.h **** /** \brief  LDR Exclusive (32 bit)
 168:/home/kvv/workspace/k-car/autopilot/inc/CMSIS/core_cmInstr.h **** 
 169:/home/kvv/workspace/k-car/autopilot/inc/CMSIS/core_cmInstr.h ****     This function performs a exclusive LDR command for 32 bit values.
 170:/home/kvv/workspace/k-car/autopilot/inc/CMSIS/core_cmInstr.h **** 
 171:/home/kvv/workspace/k-car/autopilot/inc/CMSIS/core_cmInstr.h ****     \param [in]    ptr  Pointer to data
 172:/home/kvv/workspace/k-car/autopilot/inc/CMSIS/core_cmInstr.h ****     \return        value of type uint32_t at (*ptr)
 173:/home/kvv/workspace/k-car/autopilot/inc/CMSIS/core_cmInstr.h ****  */
 174:/home/kvv/workspace/k-car/autopilot/inc/CMSIS/core_cmInstr.h **** #define __LDREXW(ptr)                     ((uint32_t ) __ldrex(ptr))
 175:/home/kvv/workspace/k-car/autopilot/inc/CMSIS/core_cmInstr.h **** 
 176:/home/kvv/workspace/k-car/autopilot/inc/CMSIS/core_cmInstr.h **** 
 177:/home/kvv/workspace/k-car/autopilot/inc/CMSIS/core_cmInstr.h **** /** \brief  STR Exclusive (8 bit)
 178:/home/kvv/workspace/k-car/autopilot/inc/CMSIS/core_cmInstr.h **** 
 179:/home/kvv/workspace/k-car/autopilot/inc/CMSIS/core_cmInstr.h ****     This function performs a exclusive STR command for 8 bit values.
 180:/home/kvv/workspace/k-car/autopilot/inc/CMSIS/core_cmInstr.h **** 
 181:/home/kvv/workspace/k-car/autopilot/inc/CMSIS/core_cmInstr.h ****     \param [in]  value  Value to store
 182:/home/kvv/workspace/k-car/autopilot/inc/CMSIS/core_cmInstr.h ****     \param [in]    ptr  Pointer to location
 183:/home/kvv/workspace/k-car/autopilot/inc/CMSIS/core_cmInstr.h ****     \return          0  Function succeeded
 184:/home/kvv/workspace/k-car/autopilot/inc/CMSIS/core_cmInstr.h ****     \return          1  Function failed
 185:/home/kvv/workspace/k-car/autopilot/inc/CMSIS/core_cmInstr.h ****  */
 186:/home/kvv/workspace/k-car/autopilot/inc/CMSIS/core_cmInstr.h **** #define __STREXB(value, ptr)              __strex(value, ptr)
 187:/home/kvv/workspace/k-car/autopilot/inc/CMSIS/core_cmInstr.h **** 
 188:/home/kvv/workspace/k-car/autopilot/inc/CMSIS/core_cmInstr.h **** 
 189:/home/kvv/workspace/k-car/autopilot/inc/CMSIS/core_cmInstr.h **** /** \brief  STR Exclusive (16 bit)
 190:/home/kvv/workspace/k-car/autopilot/inc/CMSIS/core_cmInstr.h **** 
 191:/home/kvv/workspace/k-car/autopilot/inc/CMSIS/core_cmInstr.h ****     This function performs a exclusive STR command for 16 bit values.
 192:/home/kvv/workspace/k-car/autopilot/inc/CMSIS/core_cmInstr.h **** 
 193:/home/kvv/workspace/k-car/autopilot/inc/CMSIS/core_cmInstr.h ****     \param [in]  value  Value to store
 194:/home/kvv/workspace/k-car/autopilot/inc/CMSIS/core_cmInstr.h ****     \param [in]    ptr  Pointer to location
 195:/home/kvv/workspace/k-car/autopilot/inc/CMSIS/core_cmInstr.h ****     \return          0  Function succeeded
 196:/home/kvv/workspace/k-car/autopilot/inc/CMSIS/core_cmInstr.h ****     \return          1  Function failed
 197:/home/kvv/workspace/k-car/autopilot/inc/CMSIS/core_cmInstr.h ****  */
 198:/home/kvv/workspace/k-car/autopilot/inc/CMSIS/core_cmInstr.h **** #define __STREXH(value, ptr)              __strex(value, ptr)
 199:/home/kvv/workspace/k-car/autopilot/inc/CMSIS/core_cmInstr.h **** 
 200:/home/kvv/workspace/k-car/autopilot/inc/CMSIS/core_cmInstr.h **** 
 201:/home/kvv/workspace/k-car/autopilot/inc/CMSIS/core_cmInstr.h **** /** \brief  STR Exclusive (32 bit)
 202:/home/kvv/workspace/k-car/autopilot/inc/CMSIS/core_cmInstr.h **** 
 203:/home/kvv/workspace/k-car/autopilot/inc/CMSIS/core_cmInstr.h ****     This function performs a exclusive STR command for 32 bit values.
 204:/home/kvv/workspace/k-car/autopilot/inc/CMSIS/core_cmInstr.h **** 
 205:/home/kvv/workspace/k-car/autopilot/inc/CMSIS/core_cmInstr.h ****     \param [in]  value  Value to store
 206:/home/kvv/workspace/k-car/autopilot/inc/CMSIS/core_cmInstr.h ****     \param [in]    ptr  Pointer to location
 207:/home/kvv/workspace/k-car/autopilot/inc/CMSIS/core_cmInstr.h ****     \return          0  Function succeeded
 208:/home/kvv/workspace/k-car/autopilot/inc/CMSIS/core_cmInstr.h ****     \return          1  Function failed
 209:/home/kvv/workspace/k-car/autopilot/inc/CMSIS/core_cmInstr.h ****  */
 210:/home/kvv/workspace/k-car/autopilot/inc/CMSIS/core_cmInstr.h **** #define __STREXW(value, ptr)              __strex(value, ptr)
 211:/home/kvv/workspace/k-car/autopilot/inc/CMSIS/core_cmInstr.h **** 
 212:/home/kvv/workspace/k-car/autopilot/inc/CMSIS/core_cmInstr.h **** 
 213:/home/kvv/workspace/k-car/autopilot/inc/CMSIS/core_cmInstr.h **** /** \brief  Remove the exclusive lock
 214:/home/kvv/workspace/k-car/autopilot/inc/CMSIS/core_cmInstr.h **** 
 215:/home/kvv/workspace/k-car/autopilot/inc/CMSIS/core_cmInstr.h ****     This function removes the exclusive lock which is created by LDREX.
 216:/home/kvv/workspace/k-car/autopilot/inc/CMSIS/core_cmInstr.h **** 
 217:/home/kvv/workspace/k-car/autopilot/inc/CMSIS/core_cmInstr.h ****  */
 218:/home/kvv/workspace/k-car/autopilot/inc/CMSIS/core_cmInstr.h **** #define __CLREX                           __clrex
 219:/home/kvv/workspace/k-car/autopilot/inc/CMSIS/core_cmInstr.h **** 
 220:/home/kvv/workspace/k-car/autopilot/inc/CMSIS/core_cmInstr.h **** 
 221:/home/kvv/workspace/k-car/autopilot/inc/CMSIS/core_cmInstr.h **** /** \brief  Signed Saturate
 222:/home/kvv/workspace/k-car/autopilot/inc/CMSIS/core_cmInstr.h **** 
 223:/home/kvv/workspace/k-car/autopilot/inc/CMSIS/core_cmInstr.h ****     This function saturates a signed value.
 224:/home/kvv/workspace/k-car/autopilot/inc/CMSIS/core_cmInstr.h **** 
 225:/home/kvv/workspace/k-car/autopilot/inc/CMSIS/core_cmInstr.h ****     \param [in]  value  Value to be saturated
 226:/home/kvv/workspace/k-car/autopilot/inc/CMSIS/core_cmInstr.h ****     \param [in]    sat  Bit position to saturate to (1..32)
 227:/home/kvv/workspace/k-car/autopilot/inc/CMSIS/core_cmInstr.h ****     \return             Saturated value
 228:/home/kvv/workspace/k-car/autopilot/inc/CMSIS/core_cmInstr.h ****  */
 229:/home/kvv/workspace/k-car/autopilot/inc/CMSIS/core_cmInstr.h **** #define __SSAT                            __ssat
 230:/home/kvv/workspace/k-car/autopilot/inc/CMSIS/core_cmInstr.h **** 
 231:/home/kvv/workspace/k-car/autopilot/inc/CMSIS/core_cmInstr.h **** 
 232:/home/kvv/workspace/k-car/autopilot/inc/CMSIS/core_cmInstr.h **** /** \brief  Unsigned Saturate
 233:/home/kvv/workspace/k-car/autopilot/inc/CMSIS/core_cmInstr.h **** 
 234:/home/kvv/workspace/k-car/autopilot/inc/CMSIS/core_cmInstr.h ****     This function saturates an unsigned value.
 235:/home/kvv/workspace/k-car/autopilot/inc/CMSIS/core_cmInstr.h **** 
 236:/home/kvv/workspace/k-car/autopilot/inc/CMSIS/core_cmInstr.h ****     \param [in]  value  Value to be saturated
 237:/home/kvv/workspace/k-car/autopilot/inc/CMSIS/core_cmInstr.h ****     \param [in]    sat  Bit position to saturate to (0..31)
 238:/home/kvv/workspace/k-car/autopilot/inc/CMSIS/core_cmInstr.h ****     \return             Saturated value
 239:/home/kvv/workspace/k-car/autopilot/inc/CMSIS/core_cmInstr.h ****  */
 240:/home/kvv/workspace/k-car/autopilot/inc/CMSIS/core_cmInstr.h **** #define __USAT                            __usat
 241:/home/kvv/workspace/k-car/autopilot/inc/CMSIS/core_cmInstr.h **** 
 242:/home/kvv/workspace/k-car/autopilot/inc/CMSIS/core_cmInstr.h **** 
 243:/home/kvv/workspace/k-car/autopilot/inc/CMSIS/core_cmInstr.h **** /** \brief  Count leading zeros
 244:/home/kvv/workspace/k-car/autopilot/inc/CMSIS/core_cmInstr.h **** 
 245:/home/kvv/workspace/k-car/autopilot/inc/CMSIS/core_cmInstr.h ****     This function counts the number of leading zeros of a data value.
 246:/home/kvv/workspace/k-car/autopilot/inc/CMSIS/core_cmInstr.h **** 
 247:/home/kvv/workspace/k-car/autopilot/inc/CMSIS/core_cmInstr.h ****     \param [in]  value  Value to count the leading zeros
 248:/home/kvv/workspace/k-car/autopilot/inc/CMSIS/core_cmInstr.h ****     \return             number of leading zeros in value
 249:/home/kvv/workspace/k-car/autopilot/inc/CMSIS/core_cmInstr.h ****  */
 250:/home/kvv/workspace/k-car/autopilot/inc/CMSIS/core_cmInstr.h **** #define __CLZ                             __clz 
 251:/home/kvv/workspace/k-car/autopilot/inc/CMSIS/core_cmInstr.h **** 
 252:/home/kvv/workspace/k-car/autopilot/inc/CMSIS/core_cmInstr.h **** #endif /* (__CORTEX_M >= 0x03) */
 253:/home/kvv/workspace/k-car/autopilot/inc/CMSIS/core_cmInstr.h **** 
 254:/home/kvv/workspace/k-car/autopilot/inc/CMSIS/core_cmInstr.h **** 
 255:/home/kvv/workspace/k-car/autopilot/inc/CMSIS/core_cmInstr.h **** 
 256:/home/kvv/workspace/k-car/autopilot/inc/CMSIS/core_cmInstr.h **** #elif defined ( __ICCARM__ ) /*------------------ ICC Compiler -------------------*/
 257:/home/kvv/workspace/k-car/autopilot/inc/CMSIS/core_cmInstr.h **** /* IAR iccarm specific functions */
 258:/home/kvv/workspace/k-car/autopilot/inc/CMSIS/core_cmInstr.h **** 
 259:/home/kvv/workspace/k-car/autopilot/inc/CMSIS/core_cmInstr.h **** #include <cmsis_iar.h>
 260:/home/kvv/workspace/k-car/autopilot/inc/CMSIS/core_cmInstr.h **** 
 261:/home/kvv/workspace/k-car/autopilot/inc/CMSIS/core_cmInstr.h **** 
 262:/home/kvv/workspace/k-car/autopilot/inc/CMSIS/core_cmInstr.h **** #elif defined ( __GNUC__ ) /*------------------ GNU Compiler ---------------------*/
 263:/home/kvv/workspace/k-car/autopilot/inc/CMSIS/core_cmInstr.h **** /* GNU gcc specific functions */
 264:/home/kvv/workspace/k-car/autopilot/inc/CMSIS/core_cmInstr.h **** 
 265:/home/kvv/workspace/k-car/autopilot/inc/CMSIS/core_cmInstr.h **** /** \brief  No Operation
 266:/home/kvv/workspace/k-car/autopilot/inc/CMSIS/core_cmInstr.h **** 
 267:/home/kvv/workspace/k-car/autopilot/inc/CMSIS/core_cmInstr.h ****     No Operation does nothing. This instruction can be used for code alignment purposes.
 268:/home/kvv/workspace/k-car/autopilot/inc/CMSIS/core_cmInstr.h ****  */
 269:/home/kvv/workspace/k-car/autopilot/inc/CMSIS/core_cmInstr.h **** __attribute__( ( always_inline ) ) static __INLINE void __NOP(void)
 270:/home/kvv/workspace/k-car/autopilot/inc/CMSIS/core_cmInstr.h **** {
 271:/home/kvv/workspace/k-car/autopilot/inc/CMSIS/core_cmInstr.h ****   __ASM volatile ("nop");
 272:/home/kvv/workspace/k-car/autopilot/inc/CMSIS/core_cmInstr.h **** }
 273:/home/kvv/workspace/k-car/autopilot/inc/CMSIS/core_cmInstr.h **** 
 274:/home/kvv/workspace/k-car/autopilot/inc/CMSIS/core_cmInstr.h **** 
 275:/home/kvv/workspace/k-car/autopilot/inc/CMSIS/core_cmInstr.h **** /** \brief  Wait For Interrupt
 276:/home/kvv/workspace/k-car/autopilot/inc/CMSIS/core_cmInstr.h **** 
 277:/home/kvv/workspace/k-car/autopilot/inc/CMSIS/core_cmInstr.h ****     Wait For Interrupt is a hint instruction that suspends execution
 278:/home/kvv/workspace/k-car/autopilot/inc/CMSIS/core_cmInstr.h ****     until one of a number of events occurs.
 279:/home/kvv/workspace/k-car/autopilot/inc/CMSIS/core_cmInstr.h ****  */
 280:/home/kvv/workspace/k-car/autopilot/inc/CMSIS/core_cmInstr.h **** __attribute__( ( always_inline ) ) static __INLINE void __WFI(void)
 281:/home/kvv/workspace/k-car/autopilot/inc/CMSIS/core_cmInstr.h **** {
 282:/home/kvv/workspace/k-car/autopilot/inc/CMSIS/core_cmInstr.h ****   __ASM volatile ("wfi");
 283:/home/kvv/workspace/k-car/autopilot/inc/CMSIS/core_cmInstr.h **** }
 284:/home/kvv/workspace/k-car/autopilot/inc/CMSIS/core_cmInstr.h **** 
 285:/home/kvv/workspace/k-car/autopilot/inc/CMSIS/core_cmInstr.h **** 
 286:/home/kvv/workspace/k-car/autopilot/inc/CMSIS/core_cmInstr.h **** /** \brief  Wait For Event
 287:/home/kvv/workspace/k-car/autopilot/inc/CMSIS/core_cmInstr.h **** 
 288:/home/kvv/workspace/k-car/autopilot/inc/CMSIS/core_cmInstr.h ****     Wait For Event is a hint instruction that permits the processor to enter
 289:/home/kvv/workspace/k-car/autopilot/inc/CMSIS/core_cmInstr.h ****     a low-power state until one of a number of events occurs.
 290:/home/kvv/workspace/k-car/autopilot/inc/CMSIS/core_cmInstr.h ****  */
 291:/home/kvv/workspace/k-car/autopilot/inc/CMSIS/core_cmInstr.h **** __attribute__( ( always_inline ) ) static __INLINE void __WFE(void)
 292:/home/kvv/workspace/k-car/autopilot/inc/CMSIS/core_cmInstr.h **** {
 293:/home/kvv/workspace/k-car/autopilot/inc/CMSIS/core_cmInstr.h ****   __ASM volatile ("wfe");
 294:/home/kvv/workspace/k-car/autopilot/inc/CMSIS/core_cmInstr.h **** }
 295:/home/kvv/workspace/k-car/autopilot/inc/CMSIS/core_cmInstr.h **** 
 296:/home/kvv/workspace/k-car/autopilot/inc/CMSIS/core_cmInstr.h **** 
 297:/home/kvv/workspace/k-car/autopilot/inc/CMSIS/core_cmInstr.h **** /** \brief  Send Event
 298:/home/kvv/workspace/k-car/autopilot/inc/CMSIS/core_cmInstr.h **** 
 299:/home/kvv/workspace/k-car/autopilot/inc/CMSIS/core_cmInstr.h ****     Send Event is a hint instruction. It causes an event to be signaled to the CPU.
 300:/home/kvv/workspace/k-car/autopilot/inc/CMSIS/core_cmInstr.h ****  */
 301:/home/kvv/workspace/k-car/autopilot/inc/CMSIS/core_cmInstr.h **** __attribute__( ( always_inline ) ) static __INLINE void __SEV(void)
 302:/home/kvv/workspace/k-car/autopilot/inc/CMSIS/core_cmInstr.h **** {
 303:/home/kvv/workspace/k-car/autopilot/inc/CMSIS/core_cmInstr.h ****   __ASM volatile ("sev");
 304:/home/kvv/workspace/k-car/autopilot/inc/CMSIS/core_cmInstr.h **** }
 305:/home/kvv/workspace/k-car/autopilot/inc/CMSIS/core_cmInstr.h **** 
 306:/home/kvv/workspace/k-car/autopilot/inc/CMSIS/core_cmInstr.h **** 
 307:/home/kvv/workspace/k-car/autopilot/inc/CMSIS/core_cmInstr.h **** /** \brief  Instruction Synchronization Barrier
 308:/home/kvv/workspace/k-car/autopilot/inc/CMSIS/core_cmInstr.h **** 
 309:/home/kvv/workspace/k-car/autopilot/inc/CMSIS/core_cmInstr.h ****     Instruction Synchronization Barrier flushes the pipeline in the processor, 
 310:/home/kvv/workspace/k-car/autopilot/inc/CMSIS/core_cmInstr.h ****     so that all instructions following the ISB are fetched from cache or 
 311:/home/kvv/workspace/k-car/autopilot/inc/CMSIS/core_cmInstr.h ****     memory, after the instruction has been completed.
 312:/home/kvv/workspace/k-car/autopilot/inc/CMSIS/core_cmInstr.h ****  */
 313:/home/kvv/workspace/k-car/autopilot/inc/CMSIS/core_cmInstr.h **** __attribute__( ( always_inline ) ) static __INLINE void __ISB(void)
 314:/home/kvv/workspace/k-car/autopilot/inc/CMSIS/core_cmInstr.h **** {
 315:/home/kvv/workspace/k-car/autopilot/inc/CMSIS/core_cmInstr.h ****   __ASM volatile ("isb");
 316:/home/kvv/workspace/k-car/autopilot/inc/CMSIS/core_cmInstr.h **** }
 317:/home/kvv/workspace/k-car/autopilot/inc/CMSIS/core_cmInstr.h **** 
 318:/home/kvv/workspace/k-car/autopilot/inc/CMSIS/core_cmInstr.h **** 
 319:/home/kvv/workspace/k-car/autopilot/inc/CMSIS/core_cmInstr.h **** /** \brief  Data Synchronization Barrier
 320:/home/kvv/workspace/k-car/autopilot/inc/CMSIS/core_cmInstr.h **** 
 321:/home/kvv/workspace/k-car/autopilot/inc/CMSIS/core_cmInstr.h ****     This function acts as a special kind of Data Memory Barrier. 
 322:/home/kvv/workspace/k-car/autopilot/inc/CMSIS/core_cmInstr.h ****     It completes when all explicit memory accesses before this instruction complete.
 323:/home/kvv/workspace/k-car/autopilot/inc/CMSIS/core_cmInstr.h ****  */
 324:/home/kvv/workspace/k-car/autopilot/inc/CMSIS/core_cmInstr.h **** __attribute__( ( always_inline ) ) static __INLINE void __DSB(void)
 325:/home/kvv/workspace/k-car/autopilot/inc/CMSIS/core_cmInstr.h **** {
 326:/home/kvv/workspace/k-car/autopilot/inc/CMSIS/core_cmInstr.h ****   __ASM volatile ("dsb");
 327:/home/kvv/workspace/k-car/autopilot/inc/CMSIS/core_cmInstr.h **** }
 328:/home/kvv/workspace/k-car/autopilot/inc/CMSIS/core_cmInstr.h **** 
 329:/home/kvv/workspace/k-car/autopilot/inc/CMSIS/core_cmInstr.h **** 
 330:/home/kvv/workspace/k-car/autopilot/inc/CMSIS/core_cmInstr.h **** /** \brief  Data Memory Barrier
 331:/home/kvv/workspace/k-car/autopilot/inc/CMSIS/core_cmInstr.h **** 
 332:/home/kvv/workspace/k-car/autopilot/inc/CMSIS/core_cmInstr.h ****     This function ensures the apparent order of the explicit memory operations before 
 333:/home/kvv/workspace/k-car/autopilot/inc/CMSIS/core_cmInstr.h ****     and after the instruction, without ensuring their completion.
 334:/home/kvv/workspace/k-car/autopilot/inc/CMSIS/core_cmInstr.h ****  */
 335:/home/kvv/workspace/k-car/autopilot/inc/CMSIS/core_cmInstr.h **** __attribute__( ( always_inline ) ) static __INLINE void __DMB(void)
 336:/home/kvv/workspace/k-car/autopilot/inc/CMSIS/core_cmInstr.h **** {
 337:/home/kvv/workspace/k-car/autopilot/inc/CMSIS/core_cmInstr.h ****   __ASM volatile ("dmb");
 338:/home/kvv/workspace/k-car/autopilot/inc/CMSIS/core_cmInstr.h **** }
 339:/home/kvv/workspace/k-car/autopilot/inc/CMSIS/core_cmInstr.h **** 
 340:/home/kvv/workspace/k-car/autopilot/inc/CMSIS/core_cmInstr.h **** 
 341:/home/kvv/workspace/k-car/autopilot/inc/CMSIS/core_cmInstr.h **** /** \brief  Reverse byte order (32 bit)
 342:/home/kvv/workspace/k-car/autopilot/inc/CMSIS/core_cmInstr.h **** 
 343:/home/kvv/workspace/k-car/autopilot/inc/CMSIS/core_cmInstr.h ****     This function reverses the byte order in integer value.
 344:/home/kvv/workspace/k-car/autopilot/inc/CMSIS/core_cmInstr.h **** 
 345:/home/kvv/workspace/k-car/autopilot/inc/CMSIS/core_cmInstr.h ****     \param [in]    value  Value to reverse
 346:/home/kvv/workspace/k-car/autopilot/inc/CMSIS/core_cmInstr.h ****     \return               Reversed value
 347:/home/kvv/workspace/k-car/autopilot/inc/CMSIS/core_cmInstr.h ****  */
 348:/home/kvv/workspace/k-car/autopilot/inc/CMSIS/core_cmInstr.h **** __attribute__( ( always_inline ) ) static __INLINE uint32_t __REV(uint32_t value)
 349:/home/kvv/workspace/k-car/autopilot/inc/CMSIS/core_cmInstr.h **** {
 350:/home/kvv/workspace/k-car/autopilot/inc/CMSIS/core_cmInstr.h ****   uint32_t result;
 351:/home/kvv/workspace/k-car/autopilot/inc/CMSIS/core_cmInstr.h ****   
 352:/home/kvv/workspace/k-car/autopilot/inc/CMSIS/core_cmInstr.h ****   __ASM volatile ("rev %0, %1" : "=r" (result) : "r" (value) );
 24660              		.loc 7 352 0
 24661 0074 FB6E     		ldr	r3, [r7, #108]
 24662              	@ 352 "/home/kvv/workspace/k-car/autopilot/inc/CMSIS/core_cmInstr.h" 1
 24663 0076 1CBA     		rev r4, r3
 24664              	@ 0 "" 2
 24665              		.thumb
 24666 0078 BC66     		str	r4, [r7, #104]
 353:/home/kvv/workspace/k-car/autopilot/inc/CMSIS/core_cmInstr.h ****   return(result);
 24667              		.loc 7 353 0
 24668 007a BB6E     		ldr	r3, [r7, #104]
 24669              	.LBE31:
 24670              	.LBE30:
 24671              		.loc 1 127 0
 24672 007c 3B62     		str	r3, [r7, #32]
 128:../inc/STM32F4xx_StdPeriph_Driver/src/stm32f4xx_cryp_tdes.c ****   keyaddr+=4;
 24673              		.loc 1 128 0
 24674 007e 3B6F     		ldr	r3, [r7, #112]
 24675 0080 03F10403 		add	r3, r3, #4
 24676 0084 3B67     		str	r3, [r7, #112]
 129:../inc/STM32F4xx_StdPeriph_Driver/src/stm32f4xx_cryp_tdes.c ****   TDES_CRYP_KeyInitStructure.CRYP_Key1Right= __REV(*(uint32_t*)(keyaddr));
 24677              		.loc 1 129 0
 24678 0086 3B6F     		ldr	r3, [r7, #112]
 24679 0088 1B68     		ldr	r3, [r3, #0]
 24680 008a 7B66     		str	r3, [r7, #100]
 24681              	.LBB32:
 24682              	.LBB33:
 352:/home/kvv/workspace/k-car/autopilot/inc/CMSIS/core_cmInstr.h ****   __ASM volatile ("rev %0, %1" : "=r" (result) : "r" (value) );
 24683              		.loc 7 352 0
 24684 008c 7B6E     		ldr	r3, [r7, #100]
 24685              	@ 352 "/home/kvv/workspace/k-car/autopilot/inc/CMSIS/core_cmInstr.h" 1
 24686 008e 1CBA     		rev r4, r3
 24687              	@ 0 "" 2
 24688              		.thumb
 24689 0090 3C66     		str	r4, [r7, #96]
 24690              		.loc 7 353 0
 24691 0092 3B6E     		ldr	r3, [r7, #96]
 24692              	.LBE33:
 24693              	.LBE32:
 24694              		.loc 1 129 0
 24695 0094 7B62     		str	r3, [r7, #36]
 130:../inc/STM32F4xx_StdPeriph_Driver/src/stm32f4xx_cryp_tdes.c ****   keyaddr+=4;
 24696              		.loc 1 130 0
 24697 0096 3B6F     		ldr	r3, [r7, #112]
 24698 0098 03F10403 		add	r3, r3, #4
 24699 009c 3B67     		str	r3, [r7, #112]
 131:../inc/STM32F4xx_StdPeriph_Driver/src/stm32f4xx_cryp_tdes.c ****   TDES_CRYP_KeyInitStructure.CRYP_Key2Left = __REV(*(uint32_t*)(keyaddr));
 24700              		.loc 1 131 0
 24701 009e 3B6F     		ldr	r3, [r7, #112]
 24702 00a0 1B68     		ldr	r3, [r3, #0]
 24703 00a2 FB65     		str	r3, [r7, #92]
 24704              	.LBB34:
 24705              	.LBB35:
 352:/home/kvv/workspace/k-car/autopilot/inc/CMSIS/core_cmInstr.h ****   __ASM volatile ("rev %0, %1" : "=r" (result) : "r" (value) );
 24706              		.loc 7 352 0
 24707 00a4 FB6D     		ldr	r3, [r7, #92]
 24708              	@ 352 "/home/kvv/workspace/k-car/autopilot/inc/CMSIS/core_cmInstr.h" 1
 24709 00a6 1CBA     		rev r4, r3
 24710              	@ 0 "" 2
 24711              		.thumb
 24712 00a8 BC65     		str	r4, [r7, #88]
 24713              		.loc 7 353 0
 24714 00aa BB6D     		ldr	r3, [r7, #88]
 24715              	.LBE35:
 24716              	.LBE34:
 24717              		.loc 1 131 0
 24718 00ac BB62     		str	r3, [r7, #40]
 132:../inc/STM32F4xx_StdPeriph_Driver/src/stm32f4xx_cryp_tdes.c ****   keyaddr+=4;
 24719              		.loc 1 132 0
 24720 00ae 3B6F     		ldr	r3, [r7, #112]
 24721 00b0 03F10403 		add	r3, r3, #4
 24722 00b4 3B67     		str	r3, [r7, #112]
 133:../inc/STM32F4xx_StdPeriph_Driver/src/stm32f4xx_cryp_tdes.c ****   TDES_CRYP_KeyInitStructure.CRYP_Key2Right= __REV(*(uint32_t*)(keyaddr));
 24723              		.loc 1 133 0
 24724 00b6 3B6F     		ldr	r3, [r7, #112]
 24725 00b8 1B68     		ldr	r3, [r3, #0]
 24726 00ba 7B65     		str	r3, [r7, #84]
 24727              	.LBB36:
 24728              	.LBB37:
 352:/home/kvv/workspace/k-car/autopilot/inc/CMSIS/core_cmInstr.h ****   __ASM volatile ("rev %0, %1" : "=r" (result) : "r" (value) );
 24729              		.loc 7 352 0
 24730 00bc 7B6D     		ldr	r3, [r7, #84]
 24731              	@ 352 "/home/kvv/workspace/k-car/autopilot/inc/CMSIS/core_cmInstr.h" 1
 24732 00be 1CBA     		rev r4, r3
 24733              	@ 0 "" 2
 24734              		.thumb
 24735 00c0 3C65     		str	r4, [r7, #80]
 24736              		.loc 7 353 0
 24737 00c2 3B6D     		ldr	r3, [r7, #80]
 24738              	.LBE37:
 24739              	.LBE36:
 24740              		.loc 1 133 0
 24741 00c4 FB62     		str	r3, [r7, #44]
 134:../inc/STM32F4xx_StdPeriph_Driver/src/stm32f4xx_cryp_tdes.c ****   keyaddr+=4;
 24742              		.loc 1 134 0
 24743 00c6 3B6F     		ldr	r3, [r7, #112]
 24744 00c8 03F10403 		add	r3, r3, #4
 24745 00cc 3B67     		str	r3, [r7, #112]
 135:../inc/STM32F4xx_StdPeriph_Driver/src/stm32f4xx_cryp_tdes.c ****   TDES_CRYP_KeyInitStructure.CRYP_Key3Left = __REV(*(uint32_t*)(keyaddr));
 24746              		.loc 1 135 0
 24747 00ce 3B6F     		ldr	r3, [r7, #112]
 24748 00d0 1B68     		ldr	r3, [r3, #0]
 24749 00d2 FB64     		str	r3, [r7, #76]
 24750              	.LBB38:
 24751              	.LBB39:
 352:/home/kvv/workspace/k-car/autopilot/inc/CMSIS/core_cmInstr.h ****   __ASM volatile ("rev %0, %1" : "=r" (result) : "r" (value) );
 24752              		.loc 7 352 0
 24753 00d4 FB6C     		ldr	r3, [r7, #76]
 24754              	@ 352 "/home/kvv/workspace/k-car/autopilot/inc/CMSIS/core_cmInstr.h" 1
 24755 00d6 1CBA     		rev r4, r3
 24756              	@ 0 "" 2
 24757              		.thumb
 24758 00d8 BC64     		str	r4, [r7, #72]
 24759              		.loc 7 353 0
 24760 00da BB6C     		ldr	r3, [r7, #72]
 24761              	.LBE39:
 24762              	.LBE38:
 24763              		.loc 1 135 0
 24764 00dc 3B63     		str	r3, [r7, #48]
 136:../inc/STM32F4xx_StdPeriph_Driver/src/stm32f4xx_cryp_tdes.c ****   keyaddr+=4;
 24765              		.loc 1 136 0
 24766 00de 3B6F     		ldr	r3, [r7, #112]
 24767 00e0 03F10403 		add	r3, r3, #4
 24768 00e4 3B67     		str	r3, [r7, #112]
 137:../inc/STM32F4xx_StdPeriph_Driver/src/stm32f4xx_cryp_tdes.c ****   TDES_CRYP_KeyInitStructure.CRYP_Key3Right= __REV(*(uint32_t*)(keyaddr));
 24769              		.loc 1 137 0
 24770 00e6 3B6F     		ldr	r3, [r7, #112]
 24771 00e8 1B68     		ldr	r3, [r3, #0]
 24772 00ea 7B64     		str	r3, [r7, #68]
 24773              	.LBB40:
 24774              	.LBB41:
 352:/home/kvv/workspace/k-car/autopilot/inc/CMSIS/core_cmInstr.h ****   __ASM volatile ("rev %0, %1" : "=r" (result) : "r" (value) );
 24775              		.loc 7 352 0
 24776 00ec 7B6C     		ldr	r3, [r7, #68]
 24777              	@ 352 "/home/kvv/workspace/k-car/autopilot/inc/CMSIS/core_cmInstr.h" 1
 24778 00ee 1CBA     		rev r4, r3
 24779              	@ 0 "" 2
 24780              		.thumb
 24781 00f0 3C64     		str	r4, [r7, #64]
 24782              		.loc 7 353 0
 24783 00f2 3B6C     		ldr	r3, [r7, #64]
 24784              	.LBE41:
 24785              	.LBE40:
 24786              		.loc 1 137 0
 24787 00f4 7B63     		str	r3, [r7, #52]
 138:../inc/STM32F4xx_StdPeriph_Driver/src/stm32f4xx_cryp_tdes.c ****   CRYP_KeyInit(& TDES_CRYP_KeyInitStructure);
 24788              		.loc 1 138 0
 24789 00f6 07F11803 		add	r3, r7, #24
 24790 00fa 1846     		mov	r0, r3
 24791 00fc FFF7FEFF 		bl	CRYP_KeyInit
 139:../inc/STM32F4xx_StdPeriph_Driver/src/stm32f4xx_cryp_tdes.c **** 
 140:../inc/STM32F4xx_StdPeriph_Driver/src/stm32f4xx_cryp_tdes.c ****   /* Flush IN/OUT FIFO */
 141:../inc/STM32F4xx_StdPeriph_Driver/src/stm32f4xx_cryp_tdes.c ****   CRYP_FIFOFlush();
 24792              		.loc 1 141 0
 24793 0100 FFF7FEFF 		bl	CRYP_FIFOFlush
 142:../inc/STM32F4xx_StdPeriph_Driver/src/stm32f4xx_cryp_tdes.c **** 
 143:../inc/STM32F4xx_StdPeriph_Driver/src/stm32f4xx_cryp_tdes.c ****   /* Enable Crypto processor */
 144:../inc/STM32F4xx_StdPeriph_Driver/src/stm32f4xx_cryp_tdes.c ****   CRYP_Cmd(ENABLE);
 24794              		.loc 1 144 0
 24795 0104 4FF00100 		mov	r0, #1
 24796 0108 FFF7FEFF 		bl	CRYP_Cmd
 145:../inc/STM32F4xx_StdPeriph_Driver/src/stm32f4xx_cryp_tdes.c **** 
 146:../inc/STM32F4xx_StdPeriph_Driver/src/stm32f4xx_cryp_tdes.c ****   for(i=0; ((i<Ilength) && (status != ERROR)); i+=8)
 24797              		.loc 1 146 0
 24798 010c 4FF00003 		mov	r3, #0
 24799 0110 BB67     		str	r3, [r7, #120]
 24800 0112 49E0     		b	.L4
 24801              	.L10:
 147:../inc/STM32F4xx_StdPeriph_Driver/src/stm32f4xx_cryp_tdes.c ****   {
 148:../inc/STM32F4xx_StdPeriph_Driver/src/stm32f4xx_cryp_tdes.c ****     /* Write the Input block in the Input FIFO */
 149:../inc/STM32F4xx_StdPeriph_Driver/src/stm32f4xx_cryp_tdes.c ****     CRYP_DataIn(*(uint32_t*)(inputaddr));
 24802              		.loc 1 149 0
 24803 0114 D7F88030 		ldr	r3, [r7, #128]
 24804 0118 1B68     		ldr	r3, [r3, #0]
 24805 011a 1846     		mov	r0, r3
 24806 011c FFF7FEFF 		bl	CRYP_DataIn
 150:../inc/STM32F4xx_StdPeriph_Driver/src/stm32f4xx_cryp_tdes.c ****     inputaddr+=4;
 24807              		.loc 1 150 0
 24808 0120 D7F88030 		ldr	r3, [r7, #128]
 24809 0124 03F10403 		add	r3, r3, #4
 24810 0128 C7F88030 		str	r3, [r7, #128]
 151:../inc/STM32F4xx_StdPeriph_Driver/src/stm32f4xx_cryp_tdes.c ****     CRYP_DataIn(*(uint32_t*)(inputaddr));
 24811              		.loc 1 151 0
 24812 012c D7F88030 		ldr	r3, [r7, #128]
 24813 0130 1B68     		ldr	r3, [r3, #0]
 24814 0132 1846     		mov	r0, r3
 24815 0134 FFF7FEFF 		bl	CRYP_DataIn
 152:../inc/STM32F4xx_StdPeriph_Driver/src/stm32f4xx_cryp_tdes.c ****     inputaddr+=4;
 24816              		.loc 1 152 0
 24817 0138 D7F88030 		ldr	r3, [r7, #128]
 24818 013c 03F10403 		add	r3, r3, #4
 24819 0140 C7F88030 		str	r3, [r7, #128]
 153:../inc/STM32F4xx_StdPeriph_Driver/src/stm32f4xx_cryp_tdes.c **** 
 154:../inc/STM32F4xx_StdPeriph_Driver/src/stm32f4xx_cryp_tdes.c ****     /* Wait until the complete message has been processed */
 155:../inc/STM32F4xx_StdPeriph_Driver/src/stm32f4xx_cryp_tdes.c ****     counter = 0;
 24820              		.loc 1 155 0
 24821 0144 4FF00003 		mov	r3, #0
 24822 0148 7B61     		str	r3, [r7, #20]
 24823              	.L6:
 156:../inc/STM32F4xx_StdPeriph_Driver/src/stm32f4xx_cryp_tdes.c ****     do
 157:../inc/STM32F4xx_StdPeriph_Driver/src/stm32f4xx_cryp_tdes.c ****     {
 158:../inc/STM32F4xx_StdPeriph_Driver/src/stm32f4xx_cryp_tdes.c ****       busystatus = CRYP_GetFlagStatus(CRYP_FLAG_BUSY);
 24824              		.loc 1 158 0 discriminator 1
 24825 014a 4FF01000 		mov	r0, #16
 24826 014e FFF7FEFF 		bl	CRYP_GetFlagStatus
 24827 0152 0346     		mov	r3, r0
 24828 0154 7B67     		str	r3, [r7, #116]
 159:../inc/STM32F4xx_StdPeriph_Driver/src/stm32f4xx_cryp_tdes.c ****       counter++;
 24829              		.loc 1 159 0 discriminator 1
 24830 0156 7B69     		ldr	r3, [r7, #20]
 24831 0158 03F10103 		add	r3, r3, #1
 24832 015c 7B61     		str	r3, [r7, #20]
 160:../inc/STM32F4xx_StdPeriph_Driver/src/stm32f4xx_cryp_tdes.c ****     }while ((counter != TDESBUSY_TIMEOUT) && (busystatus != RESET));
 24833              		.loc 1 160 0 discriminator 1
 24834 015e 7B69     		ldr	r3, [r7, #20]
 24835 0160 B3F5803F 		cmp	r3, #65536
 24836 0164 02D0     		beq	.L5
 24837 0166 7B6F     		ldr	r3, [r7, #116]
 24838 0168 002B     		cmp	r3, #0
 24839 016a EED1     		bne	.L6
 24840              	.L5:
 161:../inc/STM32F4xx_StdPeriph_Driver/src/stm32f4xx_cryp_tdes.c **** 
 162:../inc/STM32F4xx_StdPeriph_Driver/src/stm32f4xx_cryp_tdes.c ****     if (busystatus != RESET)
 24841              		.loc 1 162 0
 24842 016c 7B6F     		ldr	r3, [r7, #116]
 24843 016e 002B     		cmp	r3, #0
 24844 0170 04D0     		beq	.L7
 163:../inc/STM32F4xx_StdPeriph_Driver/src/stm32f4xx_cryp_tdes.c ****     {
 164:../inc/STM32F4xx_StdPeriph_Driver/src/stm32f4xx_cryp_tdes.c ****        status = ERROR;
 24845              		.loc 1 164 0
 24846 0172 4FF00003 		mov	r3, #0
 24847 0176 87F88730 		strb	r3, [r7, #135]
 24848 017a 11E0     		b	.L8
 24849              	.L7:
 165:../inc/STM32F4xx_StdPeriph_Driver/src/stm32f4xx_cryp_tdes.c ****     }
 166:../inc/STM32F4xx_StdPeriph_Driver/src/stm32f4xx_cryp_tdes.c ****     else
 167:../inc/STM32F4xx_StdPeriph_Driver/src/stm32f4xx_cryp_tdes.c ****     {
 168:../inc/STM32F4xx_StdPeriph_Driver/src/stm32f4xx_cryp_tdes.c **** 
 169:../inc/STM32F4xx_StdPeriph_Driver/src/stm32f4xx_cryp_tdes.c ****       /* Read the Output block from the Output FIFO */
 170:../inc/STM32F4xx_StdPeriph_Driver/src/stm32f4xx_cryp_tdes.c ****       *(uint32_t*)(outputaddr) = CRYP_DataOut();
 24850              		.loc 1 170 0
 24851 017c FC6F     		ldr	r4, [r7, #124]
 24852 017e FFF7FEFF 		bl	CRYP_DataOut
 24853 0182 0346     		mov	r3, r0
 24854 0184 2360     		str	r3, [r4, #0]
 171:../inc/STM32F4xx_StdPeriph_Driver/src/stm32f4xx_cryp_tdes.c ****       outputaddr+=4;
 24855              		.loc 1 171 0
 24856 0186 FB6F     		ldr	r3, [r7, #124]
 24857 0188 03F10403 		add	r3, r3, #4
 24858 018c FB67     		str	r3, [r7, #124]
 172:../inc/STM32F4xx_StdPeriph_Driver/src/stm32f4xx_cryp_tdes.c ****       *(uint32_t*)(outputaddr) = CRYP_DataOut();
 24859              		.loc 1 172 0
 24860 018e FC6F     		ldr	r4, [r7, #124]
 24861 0190 FFF7FEFF 		bl	CRYP_DataOut
 24862 0194 0346     		mov	r3, r0
 24863 0196 2360     		str	r3, [r4, #0]
 173:../inc/STM32F4xx_StdPeriph_Driver/src/stm32f4xx_cryp_tdes.c ****       outputaddr+=4;
 24864              		.loc 1 173 0
 24865 0198 FB6F     		ldr	r3, [r7, #124]
 24866 019a 03F10403 		add	r3, r3, #4
 24867 019e FB67     		str	r3, [r7, #124]
 24868              	.L8:
 146:../inc/STM32F4xx_StdPeriph_Driver/src/stm32f4xx_cryp_tdes.c ****   for(i=0; ((i<Ilength) && (status != ERROR)); i+=8)
 24869              		.loc 1 146 0
 24870 01a0 BB6F     		ldr	r3, [r7, #120]
 24871 01a2 03F10803 		add	r3, r3, #8
 24872 01a6 BB67     		str	r3, [r7, #120]
 24873              	.L4:
 146:../inc/STM32F4xx_StdPeriph_Driver/src/stm32f4xx_cryp_tdes.c ****   for(i=0; ((i<Ilength) && (status != ERROR)); i+=8)
 24874              		.loc 1 146 0 is_stmt 0 discriminator 1
 24875 01a8 BA6F     		ldr	r2, [r7, #120]
 24876 01aa 3B68     		ldr	r3, [r7, #0]
 24877 01ac 9A42     		cmp	r2, r3
 24878 01ae 03D2     		bcs	.L9
 146:../inc/STM32F4xx_StdPeriph_Driver/src/stm32f4xx_cryp_tdes.c ****   for(i=0; ((i<Ilength) && (status != ERROR)); i+=8)
 24879              		.loc 1 146 0 discriminator 2
 24880 01b0 97F88730 		ldrb	r3, [r7, #135]	@ zero_extendqisi2
 24881 01b4 002B     		cmp	r3, #0
 24882 01b6 ADD1     		bne	.L10
 24883              	.L9:
 174:../inc/STM32F4xx_StdPeriph_Driver/src/stm32f4xx_cryp_tdes.c ****     }
 175:../inc/STM32F4xx_StdPeriph_Driver/src/stm32f4xx_cryp_tdes.c ****   }
 176:../inc/STM32F4xx_StdPeriph_Driver/src/stm32f4xx_cryp_tdes.c **** 
 177:../inc/STM32F4xx_StdPeriph_Driver/src/stm32f4xx_cryp_tdes.c ****   /* Disable Crypto */
 178:../inc/STM32F4xx_StdPeriph_Driver/src/stm32f4xx_cryp_tdes.c ****   CRYP_Cmd(DISABLE);
 24884              		.loc 1 178 0 is_stmt 1
 24885 01b8 4FF00000 		mov	r0, #0
 24886 01bc FFF7FEFF 		bl	CRYP_Cmd
 179:../inc/STM32F4xx_StdPeriph_Driver/src/stm32f4xx_cryp_tdes.c **** 
 180:../inc/STM32F4xx_StdPeriph_Driver/src/stm32f4xx_cryp_tdes.c ****   return status; 
 24887              		.loc 1 180 0
 24888 01c0 97F88730 		ldrb	r3, [r7, #135]	@ zero_extendqisi2
 181:../inc/STM32F4xx_StdPeriph_Driver/src/stm32f4xx_cryp_tdes.c **** }
 24889              		.loc 1 181 0
 24890 01c4 1846     		mov	r0, r3
 24891 01c6 07F18C07 		add	r7, r7, #140
 24892 01ca BD46     		mov	sp, r7
 24893 01cc 90BD     		pop	{r4, r7, pc}
 24894              		.cfi_endproc
 24895              	.LFE110:
 24897 01ce 00BF     		.section	.text.CRYP_TDES_CBC,"ax",%progbits
 24898              		.align	2
 24899              		.global	CRYP_TDES_CBC
 24900              		.thumb
 24901              		.thumb_func
 24903              	CRYP_TDES_CBC:
 24904              	.LFB111:
 182:../inc/STM32F4xx_StdPeriph_Driver/src/stm32f4xx_cryp_tdes.c **** 
 183:../inc/STM32F4xx_StdPeriph_Driver/src/stm32f4xx_cryp_tdes.c **** /**
 184:../inc/STM32F4xx_StdPeriph_Driver/src/stm32f4xx_cryp_tdes.c ****   * @brief  Encrypt and decrypt using TDES in CBC Mode
 185:../inc/STM32F4xx_StdPeriph_Driver/src/stm32f4xx_cryp_tdes.c ****   * @param  Mode: encryption or decryption Mode.
 186:../inc/STM32F4xx_StdPeriph_Driver/src/stm32f4xx_cryp_tdes.c ****   *           This parameter can be one of the following values:
 187:../inc/STM32F4xx_StdPeriph_Driver/src/stm32f4xx_cryp_tdes.c ****   *            @arg MODE_ENCRYPT: Encryption
 188:../inc/STM32F4xx_StdPeriph_Driver/src/stm32f4xx_cryp_tdes.c ****   *            @arg MODE_DECRYPT: Decryption
 189:../inc/STM32F4xx_StdPeriph_Driver/src/stm32f4xx_cryp_tdes.c ****   * @param  Key: Key used for TDES algorithm.
 190:../inc/STM32F4xx_StdPeriph_Driver/src/stm32f4xx_cryp_tdes.c ****   * @param  InitVectors: Initialisation Vectors used for TDES algorithm.
 191:../inc/STM32F4xx_StdPeriph_Driver/src/stm32f4xx_cryp_tdes.c ****   * @param  Input: pointer to the Input buffer.
 192:../inc/STM32F4xx_StdPeriph_Driver/src/stm32f4xx_cryp_tdes.c ****   * @param  Ilength: length of the Input buffer, must be a multiple of 8.
 193:../inc/STM32F4xx_StdPeriph_Driver/src/stm32f4xx_cryp_tdes.c ****   * @param  Output: pointer to the returned buffer.
 194:../inc/STM32F4xx_StdPeriph_Driver/src/stm32f4xx_cryp_tdes.c ****   * @retval An ErrorStatus enumeration value:
 195:../inc/STM32F4xx_StdPeriph_Driver/src/stm32f4xx_cryp_tdes.c ****   *          - SUCCESS: Operation done
 196:../inc/STM32F4xx_StdPeriph_Driver/src/stm32f4xx_cryp_tdes.c ****   *          - ERROR: Operation failed
 197:../inc/STM32F4xx_StdPeriph_Driver/src/stm32f4xx_cryp_tdes.c ****   */
 198:../inc/STM32F4xx_StdPeriph_Driver/src/stm32f4xx_cryp_tdes.c **** ErrorStatus CRYP_TDES_CBC(uint8_t Mode, uint8_t Key[24], uint8_t InitVectors[8],
 199:../inc/STM32F4xx_StdPeriph_Driver/src/stm32f4xx_cryp_tdes.c ****                           uint8_t *Input, uint32_t Ilength, uint8_t *Output)
 200:../inc/STM32F4xx_StdPeriph_Driver/src/stm32f4xx_cryp_tdes.c **** {
 24905              		.loc 1 200 0
 24906              		.cfi_startproc
 24907              		@ args = 8, pretend = 0, frame = 168
 24908              		@ frame_needed = 1, uses_anonymous_args = 0
 24909 0000 90B5     		push	{r4, r7, lr}
 24910              	.LCFI3:
 24911              		.cfi_def_cfa_offset 12
 24912 0002 ABB0     		sub	sp, sp, #172
 24913              	.LCFI4:
 24914              		.cfi_def_cfa_offset 184
 24915 0004 00AF     		add	r7, sp, #0
 24916              		.cfi_offset 14, -4
 24917              		.cfi_offset 7, -8
 24918              		.cfi_offset 4, -12
 24919              	.LCFI5:
 24920              		.cfi_def_cfa_register 7
 24921 0006 B960     		str	r1, [r7, #8]
 24922 0008 7A60     		str	r2, [r7, #4]
 24923 000a 3B60     		str	r3, [r7, #0]
 24924 000c 0346     		mov	r3, r0
 24925 000e FB73     		strb	r3, [r7, #15]
 201:../inc/STM32F4xx_StdPeriph_Driver/src/stm32f4xx_cryp_tdes.c ****   CRYP_InitTypeDef TDES_CRYP_InitStructure;
 202:../inc/STM32F4xx_StdPeriph_Driver/src/stm32f4xx_cryp_tdes.c ****   CRYP_KeyInitTypeDef TDES_CRYP_KeyInitStructure;
 203:../inc/STM32F4xx_StdPeriph_Driver/src/stm32f4xx_cryp_tdes.c ****   CRYP_IVInitTypeDef TDES_CRYP_IVInitStructure;
 204:../inc/STM32F4xx_StdPeriph_Driver/src/stm32f4xx_cryp_tdes.c ****   __IO uint32_t counter = 0;
 24926              		.loc 1 204 0
 24927 0010 4FF00003 		mov	r3, #0
 24928 0014 3B61     		str	r3, [r7, #16]
 205:../inc/STM32F4xx_StdPeriph_Driver/src/stm32f4xx_cryp_tdes.c ****   uint32_t busystatus = 0;
 24929              		.loc 1 205 0
 24930 0016 4FF00003 		mov	r3, #0
 24931 001a C7F89430 		str	r3, [r7, #148]
 206:../inc/STM32F4xx_StdPeriph_Driver/src/stm32f4xx_cryp_tdes.c ****   ErrorStatus status = SUCCESS;
 24932              		.loc 1 206 0
 24933 001e 4FF00103 		mov	r3, #1
 24934 0022 87F8A730 		strb	r3, [r7, #167]
 207:../inc/STM32F4xx_StdPeriph_Driver/src/stm32f4xx_cryp_tdes.c ****   uint32_t keyaddr    = (uint32_t)Key;
 24935              		.loc 1 207 0
 24936 0026 BB68     		ldr	r3, [r7, #8]
 24937 0028 C7F89030 		str	r3, [r7, #144]
 208:../inc/STM32F4xx_StdPeriph_Driver/src/stm32f4xx_cryp_tdes.c ****   uint32_t inputaddr  = (uint32_t)Input;
 24938              		.loc 1 208 0
 24939 002c 3B68     		ldr	r3, [r7, #0]
 24940 002e C7F8A030 		str	r3, [r7, #160]
 209:../inc/STM32F4xx_StdPeriph_Driver/src/stm32f4xx_cryp_tdes.c ****   uint32_t outputaddr = (uint32_t)Output;
 24941              		.loc 1 209 0
 24942 0032 D7F8BC30 		ldr	r3, [r7, #188]
 24943 0036 C7F89C30 		str	r3, [r7, #156]
 210:../inc/STM32F4xx_StdPeriph_Driver/src/stm32f4xx_cryp_tdes.c ****   uint32_t ivaddr     = (uint32_t)InitVectors;
 24944              		.loc 1 210 0
 24945 003a 7B68     		ldr	r3, [r7, #4]
 24946 003c C7F88C30 		str	r3, [r7, #140]
 211:../inc/STM32F4xx_StdPeriph_Driver/src/stm32f4xx_cryp_tdes.c ****   uint32_t i = 0;
 24947              		.loc 1 211 0
 24948 0040 4FF00003 		mov	r3, #0
 24949 0044 C7F89830 		str	r3, [r7, #152]
 212:../inc/STM32F4xx_StdPeriph_Driver/src/stm32f4xx_cryp_tdes.c **** 
 213:../inc/STM32F4xx_StdPeriph_Driver/src/stm32f4xx_cryp_tdes.c ****   /* Crypto structures initialisation*/
 214:../inc/STM32F4xx_StdPeriph_Driver/src/stm32f4xx_cryp_tdes.c ****   CRYP_KeyStructInit(&TDES_CRYP_KeyInitStructure);
 24950              		.loc 1 214 0
 24951 0048 07F12403 		add	r3, r7, #36
 24952 004c 1846     		mov	r0, r3
 24953 004e FFF7FEFF 		bl	CRYP_KeyStructInit
 215:../inc/STM32F4xx_StdPeriph_Driver/src/stm32f4xx_cryp_tdes.c **** 
 216:../inc/STM32F4xx_StdPeriph_Driver/src/stm32f4xx_cryp_tdes.c ****   /* Crypto Init for Encryption process */
 217:../inc/STM32F4xx_StdPeriph_Driver/src/stm32f4xx_cryp_tdes.c ****   if(Mode == MODE_ENCRYPT) /* TDES encryption */
 24954              		.loc 1 217 0
 24955 0052 FB7B     		ldrb	r3, [r7, #15]	@ zero_extendqisi2
 24956 0054 012B     		cmp	r3, #1
 24957 0056 04D1     		bne	.L12
 218:../inc/STM32F4xx_StdPeriph_Driver/src/stm32f4xx_cryp_tdes.c ****   {
 219:../inc/STM32F4xx_StdPeriph_Driver/src/stm32f4xx_cryp_tdes.c ****     TDES_CRYP_InitStructure.CRYP_AlgoDir = CRYP_AlgoDir_Encrypt;
 24958              		.loc 1 219 0
 24959 0058 4FF00003 		mov	r3, #0
 24960 005c A7F84430 		strh	r3, [r7, #68]	@ movhi
 24961 0060 03E0     		b	.L13
 24962              	.L12:
 220:../inc/STM32F4xx_StdPeriph_Driver/src/stm32f4xx_cryp_tdes.c ****   }
 221:../inc/STM32F4xx_StdPeriph_Driver/src/stm32f4xx_cryp_tdes.c ****   else
 222:../inc/STM32F4xx_StdPeriph_Driver/src/stm32f4xx_cryp_tdes.c ****   {
 223:../inc/STM32F4xx_StdPeriph_Driver/src/stm32f4xx_cryp_tdes.c ****     TDES_CRYP_InitStructure.CRYP_AlgoDir = CRYP_AlgoDir_Decrypt;
 24963              		.loc 1 223 0
 24964 0062 4FF00403 		mov	r3, #4
 24965 0066 A7F84430 		strh	r3, [r7, #68]	@ movhi
 24966              	.L13:
 224:../inc/STM32F4xx_StdPeriph_Driver/src/stm32f4xx_cryp_tdes.c ****   }
 225:../inc/STM32F4xx_StdPeriph_Driver/src/stm32f4xx_cryp_tdes.c ****   TDES_CRYP_InitStructure.CRYP_AlgoMode = CRYP_AlgoMode_TDES_CBC;
 24967              		.loc 1 225 0
 24968 006a 4FF00803 		mov	r3, #8
 24969 006e A7F84630 		strh	r3, [r7, #70]	@ movhi
 226:../inc/STM32F4xx_StdPeriph_Driver/src/stm32f4xx_cryp_tdes.c ****   TDES_CRYP_InitStructure.CRYP_DataType = CRYP_DataType_8b;
 24970              		.loc 1 226 0
 24971 0072 4FF08003 		mov	r3, #128
 24972 0076 A7F84830 		strh	r3, [r7, #72]	@ movhi
 227:../inc/STM32F4xx_StdPeriph_Driver/src/stm32f4xx_cryp_tdes.c **** 
 228:../inc/STM32F4xx_StdPeriph_Driver/src/stm32f4xx_cryp_tdes.c ****   CRYP_Init(&TDES_CRYP_InitStructure);
 24973              		.loc 1 228 0
 24974 007a 07F14403 		add	r3, r7, #68
 24975 007e 1846     		mov	r0, r3
 24976 0080 FFF7FEFF 		bl	CRYP_Init
 229:../inc/STM32F4xx_StdPeriph_Driver/src/stm32f4xx_cryp_tdes.c **** 
 230:../inc/STM32F4xx_StdPeriph_Driver/src/stm32f4xx_cryp_tdes.c ****   /* Key Initialisation */
 231:../inc/STM32F4xx_StdPeriph_Driver/src/stm32f4xx_cryp_tdes.c ****   TDES_CRYP_KeyInitStructure.CRYP_Key1Left = __REV(*(uint32_t*)(keyaddr));
 24977              		.loc 1 231 0
 24978 0084 D7F89030 		ldr	r3, [r7, #144]
 24979 0088 1B68     		ldr	r3, [r3, #0]
 24980 008a C7F88830 		str	r3, [r7, #136]
 24981              	.LBB42:
 24982              	.LBB43:
 352:/home/kvv/workspace/k-car/autopilot/inc/CMSIS/core_cmInstr.h ****   __ASM volatile ("rev %0, %1" : "=r" (result) : "r" (value) );
 24983              		.loc 7 352 0
 24984 008e D7F88830 		ldr	r3, [r7, #136]
 24985              	@ 352 "/home/kvv/workspace/k-car/autopilot/inc/CMSIS/core_cmInstr.h" 1
 24986 0092 1CBA     		rev r4, r3
 24987              	@ 0 "" 2
 24988              		.thumb
 24989 0094 C7F88440 		str	r4, [r7, #132]
 24990              		.loc 7 353 0
 24991 0098 D7F88430 		ldr	r3, [r7, #132]
 24992              	.LBE43:
 24993              	.LBE42:
 24994              		.loc 1 231 0
 24995 009c FB62     		str	r3, [r7, #44]
 232:../inc/STM32F4xx_StdPeriph_Driver/src/stm32f4xx_cryp_tdes.c ****   keyaddr+=4;
 24996              		.loc 1 232 0
 24997 009e D7F89030 		ldr	r3, [r7, #144]
 24998 00a2 03F10403 		add	r3, r3, #4
 24999 00a6 C7F89030 		str	r3, [r7, #144]
 233:../inc/STM32F4xx_StdPeriph_Driver/src/stm32f4xx_cryp_tdes.c ****   TDES_CRYP_KeyInitStructure.CRYP_Key1Right= __REV(*(uint32_t*)(keyaddr));
 25000              		.loc 1 233 0
 25001 00aa D7F89030 		ldr	r3, [r7, #144]
 25002 00ae 1B68     		ldr	r3, [r3, #0]
 25003 00b0 C7F88030 		str	r3, [r7, #128]
 25004              	.LBB44:
 25005              	.LBB45:
 352:/home/kvv/workspace/k-car/autopilot/inc/CMSIS/core_cmInstr.h ****   __ASM volatile ("rev %0, %1" : "=r" (result) : "r" (value) );
 25006              		.loc 7 352 0
 25007 00b4 D7F88030 		ldr	r3, [r7, #128]
 25008              	@ 352 "/home/kvv/workspace/k-car/autopilot/inc/CMSIS/core_cmInstr.h" 1
 25009 00b8 1CBA     		rev r4, r3
 25010              	@ 0 "" 2
 25011              		.thumb
 25012 00ba FC67     		str	r4, [r7, #124]
 25013              		.loc 7 353 0
 25014 00bc FB6F     		ldr	r3, [r7, #124]
 25015              	.LBE45:
 25016              	.LBE44:
 25017              		.loc 1 233 0
 25018 00be 3B63     		str	r3, [r7, #48]
 234:../inc/STM32F4xx_StdPeriph_Driver/src/stm32f4xx_cryp_tdes.c ****   keyaddr+=4;
 25019              		.loc 1 234 0
 25020 00c0 D7F89030 		ldr	r3, [r7, #144]
 25021 00c4 03F10403 		add	r3, r3, #4
 25022 00c8 C7F89030 		str	r3, [r7, #144]
 235:../inc/STM32F4xx_StdPeriph_Driver/src/stm32f4xx_cryp_tdes.c ****   TDES_CRYP_KeyInitStructure.CRYP_Key2Left = __REV(*(uint32_t*)(keyaddr));
 25023              		.loc 1 235 0
 25024 00cc D7F89030 		ldr	r3, [r7, #144]
 25025 00d0 1B68     		ldr	r3, [r3, #0]
 25026 00d2 BB67     		str	r3, [r7, #120]
 25027              	.LBB46:
 25028              	.LBB47:
 352:/home/kvv/workspace/k-car/autopilot/inc/CMSIS/core_cmInstr.h ****   __ASM volatile ("rev %0, %1" : "=r" (result) : "r" (value) );
 25029              		.loc 7 352 0
 25030 00d4 BB6F     		ldr	r3, [r7, #120]
 25031              	@ 352 "/home/kvv/workspace/k-car/autopilot/inc/CMSIS/core_cmInstr.h" 1
 25032 00d6 1CBA     		rev r4, r3
 25033              	@ 0 "" 2
 25034              		.thumb
 25035 00d8 7C67     		str	r4, [r7, #116]
 25036              		.loc 7 353 0
 25037 00da 7B6F     		ldr	r3, [r7, #116]
 25038              	.LBE47:
 25039              	.LBE46:
 25040              		.loc 1 235 0
 25041 00dc 7B63     		str	r3, [r7, #52]
 236:../inc/STM32F4xx_StdPeriph_Driver/src/stm32f4xx_cryp_tdes.c ****   keyaddr+=4;
 25042              		.loc 1 236 0
 25043 00de D7F89030 		ldr	r3, [r7, #144]
 25044 00e2 03F10403 		add	r3, r3, #4
 25045 00e6 C7F89030 		str	r3, [r7, #144]
 237:../inc/STM32F4xx_StdPeriph_Driver/src/stm32f4xx_cryp_tdes.c ****   TDES_CRYP_KeyInitStructure.CRYP_Key2Right= __REV(*(uint32_t*)(keyaddr));
 25046              		.loc 1 237 0
 25047 00ea D7F89030 		ldr	r3, [r7, #144]
 25048 00ee 1B68     		ldr	r3, [r3, #0]
 25049 00f0 3B67     		str	r3, [r7, #112]
 25050              	.LBB48:
 25051              	.LBB49:
 352:/home/kvv/workspace/k-car/autopilot/inc/CMSIS/core_cmInstr.h ****   __ASM volatile ("rev %0, %1" : "=r" (result) : "r" (value) );
 25052              		.loc 7 352 0
 25053 00f2 3B6F     		ldr	r3, [r7, #112]
 25054              	@ 352 "/home/kvv/workspace/k-car/autopilot/inc/CMSIS/core_cmInstr.h" 1
 25055 00f4 1CBA     		rev r4, r3
 25056              	@ 0 "" 2
 25057              		.thumb
 25058 00f6 FC66     		str	r4, [r7, #108]
 25059              		.loc 7 353 0
 25060 00f8 FB6E     		ldr	r3, [r7, #108]
 25061              	.LBE49:
 25062              	.LBE48:
 25063              		.loc 1 237 0
 25064 00fa BB63     		str	r3, [r7, #56]
 238:../inc/STM32F4xx_StdPeriph_Driver/src/stm32f4xx_cryp_tdes.c ****   keyaddr+=4;
 25065              		.loc 1 238 0
 25066 00fc D7F89030 		ldr	r3, [r7, #144]
 25067 0100 03F10403 		add	r3, r3, #4
 25068 0104 C7F89030 		str	r3, [r7, #144]
 239:../inc/STM32F4xx_StdPeriph_Driver/src/stm32f4xx_cryp_tdes.c ****   TDES_CRYP_KeyInitStructure.CRYP_Key3Left = __REV(*(uint32_t*)(keyaddr));
 25069              		.loc 1 239 0
 25070 0108 D7F89030 		ldr	r3, [r7, #144]
 25071 010c 1B68     		ldr	r3, [r3, #0]
 25072 010e BB66     		str	r3, [r7, #104]
 25073              	.LBB50:
 25074              	.LBB51:
 352:/home/kvv/workspace/k-car/autopilot/inc/CMSIS/core_cmInstr.h ****   __ASM volatile ("rev %0, %1" : "=r" (result) : "r" (value) );
 25075              		.loc 7 352 0
 25076 0110 BB6E     		ldr	r3, [r7, #104]
 25077              	@ 352 "/home/kvv/workspace/k-car/autopilot/inc/CMSIS/core_cmInstr.h" 1
 25078 0112 1CBA     		rev r4, r3
 25079              	@ 0 "" 2
 25080              		.thumb
 25081 0114 7C66     		str	r4, [r7, #100]
 25082              		.loc 7 353 0
 25083 0116 7B6E     		ldr	r3, [r7, #100]
 25084              	.LBE51:
 25085              	.LBE50:
 25086              		.loc 1 239 0
 25087 0118 FB63     		str	r3, [r7, #60]
 240:../inc/STM32F4xx_StdPeriph_Driver/src/stm32f4xx_cryp_tdes.c ****   keyaddr+=4;
 25088              		.loc 1 240 0
 25089 011a D7F89030 		ldr	r3, [r7, #144]
 25090 011e 03F10403 		add	r3, r3, #4
 25091 0122 C7F89030 		str	r3, [r7, #144]
 241:../inc/STM32F4xx_StdPeriph_Driver/src/stm32f4xx_cryp_tdes.c ****   TDES_CRYP_KeyInitStructure.CRYP_Key3Right= __REV(*(uint32_t*)(keyaddr));
 25092              		.loc 1 241 0
 25093 0126 D7F89030 		ldr	r3, [r7, #144]
 25094 012a 1B68     		ldr	r3, [r3, #0]
 25095 012c 3B66     		str	r3, [r7, #96]
 25096              	.LBB52:
 25097              	.LBB53:
 352:/home/kvv/workspace/k-car/autopilot/inc/CMSIS/core_cmInstr.h ****   __ASM volatile ("rev %0, %1" : "=r" (result) : "r" (value) );
 25098              		.loc 7 352 0
 25099 012e 3B6E     		ldr	r3, [r7, #96]
 25100              	@ 352 "/home/kvv/workspace/k-car/autopilot/inc/CMSIS/core_cmInstr.h" 1
 25101 0130 1CBA     		rev r4, r3
 25102              	@ 0 "" 2
 25103              		.thumb
 25104 0132 FC65     		str	r4, [r7, #92]
 25105              		.loc 7 353 0
 25106 0134 FB6D     		ldr	r3, [r7, #92]
 25107              	.LBE53:
 25108              	.LBE52:
 25109              		.loc 1 241 0
 25110 0136 3B64     		str	r3, [r7, #64]
 242:../inc/STM32F4xx_StdPeriph_Driver/src/stm32f4xx_cryp_tdes.c ****   CRYP_KeyInit(& TDES_CRYP_KeyInitStructure);
 25111              		.loc 1 242 0
 25112 0138 07F12403 		add	r3, r7, #36
 25113 013c 1846     		mov	r0, r3
 25114 013e FFF7FEFF 		bl	CRYP_KeyInit
 243:../inc/STM32F4xx_StdPeriph_Driver/src/stm32f4xx_cryp_tdes.c **** 
 244:../inc/STM32F4xx_StdPeriph_Driver/src/stm32f4xx_cryp_tdes.c ****   /* Initialization Vectors */
 245:../inc/STM32F4xx_StdPeriph_Driver/src/stm32f4xx_cryp_tdes.c ****   TDES_CRYP_IVInitStructure.CRYP_IV0Left = __REV(*(uint32_t*)(ivaddr));
 25115              		.loc 1 245 0
 25116 0142 D7F88C30 		ldr	r3, [r7, #140]
 25117 0146 1B68     		ldr	r3, [r3, #0]
 25118 0148 BB65     		str	r3, [r7, #88]
 25119              	.LBB54:
 25120              	.LBB55:
 352:/home/kvv/workspace/k-car/autopilot/inc/CMSIS/core_cmInstr.h ****   __ASM volatile ("rev %0, %1" : "=r" (result) : "r" (value) );
 25121              		.loc 7 352 0
 25122 014a BB6D     		ldr	r3, [r7, #88]
 25123              	@ 352 "/home/kvv/workspace/k-car/autopilot/inc/CMSIS/core_cmInstr.h" 1
 25124 014c 1CBA     		rev r4, r3
 25125              	@ 0 "" 2
 25126              		.thumb
 25127 014e 7C65     		str	r4, [r7, #84]
 25128              		.loc 7 353 0
 25129 0150 7B6D     		ldr	r3, [r7, #84]
 25130              	.LBE55:
 25131              	.LBE54:
 25132              		.loc 1 245 0
 25133 0152 7B61     		str	r3, [r7, #20]
 246:../inc/STM32F4xx_StdPeriph_Driver/src/stm32f4xx_cryp_tdes.c ****   ivaddr+=4;
 25134              		.loc 1 246 0
 25135 0154 D7F88C30 		ldr	r3, [r7, #140]
 25136 0158 03F10403 		add	r3, r3, #4
 25137 015c C7F88C30 		str	r3, [r7, #140]
 247:../inc/STM32F4xx_StdPeriph_Driver/src/stm32f4xx_cryp_tdes.c ****   TDES_CRYP_IVInitStructure.CRYP_IV0Right= __REV(*(uint32_t*)(ivaddr));
 25138              		.loc 1 247 0
 25139 0160 D7F88C30 		ldr	r3, [r7, #140]
 25140 0164 1B68     		ldr	r3, [r3, #0]
 25141 0166 3B65     		str	r3, [r7, #80]
 25142              	.LBB56:
 25143              	.LBB57:
 352:/home/kvv/workspace/k-car/autopilot/inc/CMSIS/core_cmInstr.h ****   __ASM volatile ("rev %0, %1" : "=r" (result) : "r" (value) );
 25144              		.loc 7 352 0
 25145 0168 3B6D     		ldr	r3, [r7, #80]
 25146              	@ 352 "/home/kvv/workspace/k-car/autopilot/inc/CMSIS/core_cmInstr.h" 1
 25147 016a 1CBA     		rev r4, r3
 25148              	@ 0 "" 2
 25149              		.thumb
 25150 016c FC64     		str	r4, [r7, #76]
 25151              		.loc 7 353 0
 25152 016e FB6C     		ldr	r3, [r7, #76]
 25153              	.LBE57:
 25154              	.LBE56:
 25155              		.loc 1 247 0
 25156 0170 BB61     		str	r3, [r7, #24]
 248:../inc/STM32F4xx_StdPeriph_Driver/src/stm32f4xx_cryp_tdes.c ****   CRYP_IVInit(&TDES_CRYP_IVInitStructure);
 25157              		.loc 1 248 0
 25158 0172 07F11403 		add	r3, r7, #20
 25159 0176 1846     		mov	r0, r3
 25160 0178 FFF7FEFF 		bl	CRYP_IVInit
 249:../inc/STM32F4xx_StdPeriph_Driver/src/stm32f4xx_cryp_tdes.c **** 
 250:../inc/STM32F4xx_StdPeriph_Driver/src/stm32f4xx_cryp_tdes.c ****   /* Flush IN/OUT FIFO */
 251:../inc/STM32F4xx_StdPeriph_Driver/src/stm32f4xx_cryp_tdes.c ****   CRYP_FIFOFlush();
 25161              		.loc 1 251 0
 25162 017c FFF7FEFF 		bl	CRYP_FIFOFlush
 252:../inc/STM32F4xx_StdPeriph_Driver/src/stm32f4xx_cryp_tdes.c **** 
 253:../inc/STM32F4xx_StdPeriph_Driver/src/stm32f4xx_cryp_tdes.c ****   /* Enable Crypto processor */
 254:../inc/STM32F4xx_StdPeriph_Driver/src/stm32f4xx_cryp_tdes.c ****   CRYP_Cmd(ENABLE);
 25163              		.loc 1 254 0
 25164 0180 4FF00100 		mov	r0, #1
 25165 0184 FFF7FEFF 		bl	CRYP_Cmd
 255:../inc/STM32F4xx_StdPeriph_Driver/src/stm32f4xx_cryp_tdes.c **** 
 256:../inc/STM32F4xx_StdPeriph_Driver/src/stm32f4xx_cryp_tdes.c ****   for(i=0; ((i<Ilength) && (status != ERROR)); i+=8)
 25166              		.loc 1 256 0
 25167 0188 4FF00003 		mov	r3, #0
 25168 018c C7F89830 		str	r3, [r7, #152]
 25169 0190 54E0     		b	.L14
 25170              	.L20:
 257:../inc/STM32F4xx_StdPeriph_Driver/src/stm32f4xx_cryp_tdes.c ****   {
 258:../inc/STM32F4xx_StdPeriph_Driver/src/stm32f4xx_cryp_tdes.c ****     /* Write the Input block in the Input FIFO */
 259:../inc/STM32F4xx_StdPeriph_Driver/src/stm32f4xx_cryp_tdes.c ****     CRYP_DataIn(*(uint32_t*)(inputaddr));
 25171              		.loc 1 259 0
 25172 0192 D7F8A030 		ldr	r3, [r7, #160]
 25173 0196 1B68     		ldr	r3, [r3, #0]
 25174 0198 1846     		mov	r0, r3
 25175 019a FFF7FEFF 		bl	CRYP_DataIn
 260:../inc/STM32F4xx_StdPeriph_Driver/src/stm32f4xx_cryp_tdes.c ****     inputaddr+=4;
 25176              		.loc 1 260 0
 25177 019e D7F8A030 		ldr	r3, [r7, #160]
 25178 01a2 03F10403 		add	r3, r3, #4
 25179 01a6 C7F8A030 		str	r3, [r7, #160]
 261:../inc/STM32F4xx_StdPeriph_Driver/src/stm32f4xx_cryp_tdes.c ****     CRYP_DataIn(*(uint32_t*)(inputaddr));
 25180              		.loc 1 261 0
 25181 01aa D7F8A030 		ldr	r3, [r7, #160]
 25182 01ae 1B68     		ldr	r3, [r3, #0]
 25183 01b0 1846     		mov	r0, r3
 25184 01b2 FFF7FEFF 		bl	CRYP_DataIn
 262:../inc/STM32F4xx_StdPeriph_Driver/src/stm32f4xx_cryp_tdes.c ****     inputaddr+=4;
 25185              		.loc 1 262 0
 25186 01b6 D7F8A030 		ldr	r3, [r7, #160]
 25187 01ba 03F10403 		add	r3, r3, #4
 25188 01be C7F8A030 		str	r3, [r7, #160]
 263:../inc/STM32F4xx_StdPeriph_Driver/src/stm32f4xx_cryp_tdes.c **** 
 264:../inc/STM32F4xx_StdPeriph_Driver/src/stm32f4xx_cryp_tdes.c ****     /* Wait until the complete message has been processed */
 265:../inc/STM32F4xx_StdPeriph_Driver/src/stm32f4xx_cryp_tdes.c ****     counter = 0;
 25189              		.loc 1 265 0
 25190 01c2 4FF00003 		mov	r3, #0
 25191 01c6 3B61     		str	r3, [r7, #16]
 25192              	.L16:
 266:../inc/STM32F4xx_StdPeriph_Driver/src/stm32f4xx_cryp_tdes.c ****     do
 267:../inc/STM32F4xx_StdPeriph_Driver/src/stm32f4xx_cryp_tdes.c ****     {
 268:../inc/STM32F4xx_StdPeriph_Driver/src/stm32f4xx_cryp_tdes.c ****       busystatus = CRYP_GetFlagStatus(CRYP_FLAG_BUSY);
 25193              		.loc 1 268 0 discriminator 1
 25194 01c8 4FF01000 		mov	r0, #16
 25195 01cc FFF7FEFF 		bl	CRYP_GetFlagStatus
 25196 01d0 0346     		mov	r3, r0
 25197 01d2 C7F89430 		str	r3, [r7, #148]
 269:../inc/STM32F4xx_StdPeriph_Driver/src/stm32f4xx_cryp_tdes.c ****       counter++;
 25198              		.loc 1 269 0 discriminator 1
 25199 01d6 3B69     		ldr	r3, [r7, #16]
 25200 01d8 03F10103 		add	r3, r3, #1
 25201 01dc 3B61     		str	r3, [r7, #16]
 270:../inc/STM32F4xx_StdPeriph_Driver/src/stm32f4xx_cryp_tdes.c ****     }while ((counter != TDESBUSY_TIMEOUT) && (busystatus != RESET));
 25202              		.loc 1 270 0 discriminator 1
 25203 01de 3B69     		ldr	r3, [r7, #16]
 25204 01e0 B3F5803F 		cmp	r3, #65536
 25205 01e4 03D0     		beq	.L15
 25206 01e6 D7F89430 		ldr	r3, [r7, #148]
 25207 01ea 002B     		cmp	r3, #0
 25208 01ec ECD1     		bne	.L16
 25209              	.L15:
 271:../inc/STM32F4xx_StdPeriph_Driver/src/stm32f4xx_cryp_tdes.c **** 
 272:../inc/STM32F4xx_StdPeriph_Driver/src/stm32f4xx_cryp_tdes.c ****     if (busystatus != RESET)
 25210              		.loc 1 272 0
 25211 01ee D7F89430 		ldr	r3, [r7, #148]
 25212 01f2 002B     		cmp	r3, #0
 25213 01f4 04D0     		beq	.L17
 273:../inc/STM32F4xx_StdPeriph_Driver/src/stm32f4xx_cryp_tdes.c ****    {
 274:../inc/STM32F4xx_StdPeriph_Driver/src/stm32f4xx_cryp_tdes.c ****        status = ERROR;
 25214              		.loc 1 274 0
 25215 01f6 4FF00003 		mov	r3, #0
 25216 01fa 87F8A730 		strb	r3, [r7, #167]
 25217 01fe 17E0     		b	.L18
 25218              	.L17:
 275:../inc/STM32F4xx_StdPeriph_Driver/src/stm32f4xx_cryp_tdes.c ****     }
 276:../inc/STM32F4xx_StdPeriph_Driver/src/stm32f4xx_cryp_tdes.c ****     else
 277:../inc/STM32F4xx_StdPeriph_Driver/src/stm32f4xx_cryp_tdes.c ****     {
 278:../inc/STM32F4xx_StdPeriph_Driver/src/stm32f4xx_cryp_tdes.c **** 
 279:../inc/STM32F4xx_StdPeriph_Driver/src/stm32f4xx_cryp_tdes.c ****       /* Read the Output block from the Output FIFO */
 280:../inc/STM32F4xx_StdPeriph_Driver/src/stm32f4xx_cryp_tdes.c ****       *(uint32_t*)(outputaddr) = CRYP_DataOut();
 25219              		.loc 1 280 0
 25220 0200 D7F89C40 		ldr	r4, [r7, #156]
 25221 0204 FFF7FEFF 		bl	CRYP_DataOut
 25222 0208 0346     		mov	r3, r0
 25223 020a 2360     		str	r3, [r4, #0]
 281:../inc/STM32F4xx_StdPeriph_Driver/src/stm32f4xx_cryp_tdes.c ****       outputaddr+=4;
 25224              		.loc 1 281 0
 25225 020c D7F89C30 		ldr	r3, [r7, #156]
 25226 0210 03F10403 		add	r3, r3, #4
 25227 0214 C7F89C30 		str	r3, [r7, #156]
 282:../inc/STM32F4xx_StdPeriph_Driver/src/stm32f4xx_cryp_tdes.c ****       *(uint32_t*)(outputaddr) = CRYP_DataOut();
 25228              		.loc 1 282 0
 25229 0218 D7F89C40 		ldr	r4, [r7, #156]
 25230 021c FFF7FEFF 		bl	CRYP_DataOut
 25231 0220 0346     		mov	r3, r0
 25232 0222 2360     		str	r3, [r4, #0]
 283:../inc/STM32F4xx_StdPeriph_Driver/src/stm32f4xx_cryp_tdes.c ****       outputaddr+=4;
 25233              		.loc 1 283 0
 25234 0224 D7F89C30 		ldr	r3, [r7, #156]
 25235 0228 03F10403 		add	r3, r3, #4
 25236 022c C7F89C30 		str	r3, [r7, #156]
 25237              	.L18:
 256:../inc/STM32F4xx_StdPeriph_Driver/src/stm32f4xx_cryp_tdes.c ****   for(i=0; ((i<Ilength) && (status != ERROR)); i+=8)
 25238              		.loc 1 256 0
 25239 0230 D7F89830 		ldr	r3, [r7, #152]
 25240 0234 03F10803 		add	r3, r3, #8
 25241 0238 C7F89830 		str	r3, [r7, #152]
 25242              	.L14:
 256:../inc/STM32F4xx_StdPeriph_Driver/src/stm32f4xx_cryp_tdes.c ****   for(i=0; ((i<Ilength) && (status != ERROR)); i+=8)
 25243              		.loc 1 256 0 is_stmt 0 discriminator 1
 25244 023c D7F89820 		ldr	r2, [r7, #152]
 25245 0240 D7F8B830 		ldr	r3, [r7, #184]
 25246 0244 9A42     		cmp	r2, r3
 25247 0246 03D2     		bcs	.L19
 256:../inc/STM32F4xx_StdPeriph_Driver/src/stm32f4xx_cryp_tdes.c ****   for(i=0; ((i<Ilength) && (status != ERROR)); i+=8)
 25248              		.loc 1 256 0 discriminator 2
 25249 0248 97F8A730 		ldrb	r3, [r7, #167]	@ zero_extendqisi2
 25250 024c 002B     		cmp	r3, #0
 25251 024e A0D1     		bne	.L20
 25252              	.L19:
 284:../inc/STM32F4xx_StdPeriph_Driver/src/stm32f4xx_cryp_tdes.c ****     }
 285:../inc/STM32F4xx_StdPeriph_Driver/src/stm32f4xx_cryp_tdes.c ****   }
 286:../inc/STM32F4xx_StdPeriph_Driver/src/stm32f4xx_cryp_tdes.c **** 
 287:../inc/STM32F4xx_StdPeriph_Driver/src/stm32f4xx_cryp_tdes.c ****   /* Disable Crypto */
 288:../inc/STM32F4xx_StdPeriph_Driver/src/stm32f4xx_cryp_tdes.c ****   CRYP_Cmd(DISABLE);
 25253              		.loc 1 288 0 is_stmt 1
 25254 0250 4FF00000 		mov	r0, #0
 25255 0254 FFF7FEFF 		bl	CRYP_Cmd
 289:../inc/STM32F4xx_StdPeriph_Driver/src/stm32f4xx_cryp_tdes.c **** 
 290:../inc/STM32F4xx_StdPeriph_Driver/src/stm32f4xx_cryp_tdes.c ****   return status; 
 25256              		.loc 1 290 0
 25257 0258 97F8A730 		ldrb	r3, [r7, #167]	@ zero_extendqisi2
 291:../inc/STM32F4xx_StdPeriph_Driver/src/stm32f4xx_cryp_tdes.c **** }
 25258              		.loc 1 291 0
 25259 025c 1846     		mov	r0, r3
 25260 025e 07F1AC07 		add	r7, r7, #172
 25261 0262 BD46     		mov	sp, r7
 25262 0264 90BD     		pop	{r4, r7, pc}
 25263              		.cfi_endproc
 25264              	.LFE111:
 25266 0266 00BF     		.text
 25267              	.Letext0: