   1              		.syntax unified
   2              		.cpu cortex-m4
   3              		.fpu softvfp
   4              		.eabi_attribute 20, 1
   5              		.eabi_attribute 21, 1
   6              		.eabi_attribute 23, 3
   7              		.eabi_attribute 24, 1
   8              		.eabi_attribute 25, 1
   9              		.eabi_attribute 26, 1
  10              		.eabi_attribute 30, 6
  11              		.eabi_attribute 18, 4
  12              		.thumb
  13              		.file	"stm32f4xx_cryp_aes.c"
  23              	.Ltext0:
  24              		.file 1 "../inc/STM32F4xx_StdPeriph_Driver/src/stm32f4xx_cryp_aes.c"
 24578              		.align	2
 24579              		.global	CRYP_AES_ECB
 24580              		.thumb
 24581              		.thumb_func
 24583              	CRYP_AES_ECB:
 24584              	.LFB110:
   1:../inc/STM32F4xx_StdPeriph_Driver/src/stm32f4xx_cryp_aes.c **** /**
   2:../inc/STM32F4xx_StdPeriph_Driver/src/stm32f4xx_cryp_aes.c ****   ******************************************************************************
   3:../inc/STM32F4xx_StdPeriph_Driver/src/stm32f4xx_cryp_aes.c ****   * @file    stm32f4xx_cryp_aes.c
   4:../inc/STM32F4xx_StdPeriph_Driver/src/stm32f4xx_cryp_aes.c ****   * @author  MCD Application Team
   5:../inc/STM32F4xx_StdPeriph_Driver/src/stm32f4xx_cryp_aes.c ****   * @version V1.0.0
   6:../inc/STM32F4xx_StdPeriph_Driver/src/stm32f4xx_cryp_aes.c ****   * @date    30-September-2011
   7:../inc/STM32F4xx_StdPeriph_Driver/src/stm32f4xx_cryp_aes.c ****   * @brief   This file provides high level functions to encrypt and decrypt an 
   8:../inc/STM32F4xx_StdPeriph_Driver/src/stm32f4xx_cryp_aes.c ****   *          input message using AES in ECB/CBC/CTR modes.
   9:../inc/STM32F4xx_StdPeriph_Driver/src/stm32f4xx_cryp_aes.c ****   *          It uses the stm32f4xx_cryp.c/.h drivers to access the STM32F4xx CRYP
  10:../inc/STM32F4xx_StdPeriph_Driver/src/stm32f4xx_cryp_aes.c ****   *          peripheral.
  11:../inc/STM32F4xx_StdPeriph_Driver/src/stm32f4xx_cryp_aes.c ****   *
  12:../inc/STM32F4xx_StdPeriph_Driver/src/stm32f4xx_cryp_aes.c ****   *  @verbatim
  13:../inc/STM32F4xx_StdPeriph_Driver/src/stm32f4xx_cryp_aes.c ****   *
  14:../inc/STM32F4xx_StdPeriph_Driver/src/stm32f4xx_cryp_aes.c ****   *          ===================================================================
  15:../inc/STM32F4xx_StdPeriph_Driver/src/stm32f4xx_cryp_aes.c ****   *                                   How to use this driver
  16:../inc/STM32F4xx_StdPeriph_Driver/src/stm32f4xx_cryp_aes.c ****   *          ===================================================================
  17:../inc/STM32F4xx_StdPeriph_Driver/src/stm32f4xx_cryp_aes.c ****   *          1. Enable The CRYP controller clock using 
  18:../inc/STM32F4xx_StdPeriph_Driver/src/stm32f4xx_cryp_aes.c ****   *            RCC_AHB2PeriphClockCmd(RCC_AHB2Periph_CRYP, ENABLE); function.
  19:../inc/STM32F4xx_StdPeriph_Driver/src/stm32f4xx_cryp_aes.c ****   *
  20:../inc/STM32F4xx_StdPeriph_Driver/src/stm32f4xx_cryp_aes.c ****   *          2. Encrypt and decrypt using AES in ECB Mode using CRYP_AES_ECB()
  21:../inc/STM32F4xx_StdPeriph_Driver/src/stm32f4xx_cryp_aes.c ****   *             function.
  22:../inc/STM32F4xx_StdPeriph_Driver/src/stm32f4xx_cryp_aes.c ****   *
  23:../inc/STM32F4xx_StdPeriph_Driver/src/stm32f4xx_cryp_aes.c ****   *          3. Encrypt and decrypt using AES in CBC Mode using CRYP_AES_CBC()
  24:../inc/STM32F4xx_StdPeriph_Driver/src/stm32f4xx_cryp_aes.c ****   *             function.
  25:../inc/STM32F4xx_StdPeriph_Driver/src/stm32f4xx_cryp_aes.c ****   *
  26:../inc/STM32F4xx_StdPeriph_Driver/src/stm32f4xx_cryp_aes.c ****   *          4. Encrypt and decrypt using AES in CTR Mode using CRYP_AES_CTR()
  27:../inc/STM32F4xx_StdPeriph_Driver/src/stm32f4xx_cryp_aes.c ****   *             function.
  28:../inc/STM32F4xx_StdPeriph_Driver/src/stm32f4xx_cryp_aes.c ****   *
  29:../inc/STM32F4xx_StdPeriph_Driver/src/stm32f4xx_cryp_aes.c ****   *  @endverbatim
  30:../inc/STM32F4xx_StdPeriph_Driver/src/stm32f4xx_cryp_aes.c ****   *
  31:../inc/STM32F4xx_StdPeriph_Driver/src/stm32f4xx_cryp_aes.c ****   ******************************************************************************
  32:../inc/STM32F4xx_StdPeriph_Driver/src/stm32f4xx_cryp_aes.c ****   * @attention
  33:../inc/STM32F4xx_StdPeriph_Driver/src/stm32f4xx_cryp_aes.c ****   *
  34:../inc/STM32F4xx_StdPeriph_Driver/src/stm32f4xx_cryp_aes.c ****   * THE PRESENT FIRMWARE WHICH IS FOR GUIDANCE ONLY AIMS AT PROVIDING CUSTOMERS
  35:../inc/STM32F4xx_StdPeriph_Driver/src/stm32f4xx_cryp_aes.c ****   * WITH CODING INFORMATION REGARDING THEIR PRODUCTS IN ORDER FOR THEM TO SAVE
  36:../inc/STM32F4xx_StdPeriph_Driver/src/stm32f4xx_cryp_aes.c ****   * TIME. AS A RESULT, STMICROELECTRONICS SHALL NOT BE HELD LIABLE FOR ANY
  37:../inc/STM32F4xx_StdPeriph_Driver/src/stm32f4xx_cryp_aes.c ****   * DIRECT, INDIRECT OR CONSEQUENTIAL DAMAGES WITH RESPECT TO ANY CLAIMS ARISING
  38:../inc/STM32F4xx_StdPeriph_Driver/src/stm32f4xx_cryp_aes.c ****   * FROM THE CONTENT OF SUCH FIRMWARE AND/OR THE USE MADE BY CUSTOMERS OF THE
  39:../inc/STM32F4xx_StdPeriph_Driver/src/stm32f4xx_cryp_aes.c ****   * CODING INFORMATION CONTAINED HEREIN IN CONNECTION WITH THEIR PRODUCTS.
  40:../inc/STM32F4xx_StdPeriph_Driver/src/stm32f4xx_cryp_aes.c ****   *
  41:../inc/STM32F4xx_StdPeriph_Driver/src/stm32f4xx_cryp_aes.c ****   * <h2><center>&copy; COPYRIGHT 2011 STMicroelectronics</center></h2>
  42:../inc/STM32F4xx_StdPeriph_Driver/src/stm32f4xx_cryp_aes.c ****   ******************************************************************************  
  43:../inc/STM32F4xx_StdPeriph_Driver/src/stm32f4xx_cryp_aes.c ****   */
  44:../inc/STM32F4xx_StdPeriph_Driver/src/stm32f4xx_cryp_aes.c **** 
  45:../inc/STM32F4xx_StdPeriph_Driver/src/stm32f4xx_cryp_aes.c **** /* Includes ------------------------------------------------------------------*/
  46:../inc/STM32F4xx_StdPeriph_Driver/src/stm32f4xx_cryp_aes.c **** #include "stm32f4xx_cryp.h"
  47:../inc/STM32F4xx_StdPeriph_Driver/src/stm32f4xx_cryp_aes.c **** 
  48:../inc/STM32F4xx_StdPeriph_Driver/src/stm32f4xx_cryp_aes.c **** /** @addtogroup STM32F4xx_StdPeriph_Driver
  49:../inc/STM32F4xx_StdPeriph_Driver/src/stm32f4xx_cryp_aes.c ****   * @{
  50:../inc/STM32F4xx_StdPeriph_Driver/src/stm32f4xx_cryp_aes.c ****   */
  51:../inc/STM32F4xx_StdPeriph_Driver/src/stm32f4xx_cryp_aes.c **** 
  52:../inc/STM32F4xx_StdPeriph_Driver/src/stm32f4xx_cryp_aes.c **** /** @defgroup CRYP 
  53:../inc/STM32F4xx_StdPeriph_Driver/src/stm32f4xx_cryp_aes.c ****   * @brief CRYP driver modules
  54:../inc/STM32F4xx_StdPeriph_Driver/src/stm32f4xx_cryp_aes.c ****   * @{
  55:../inc/STM32F4xx_StdPeriph_Driver/src/stm32f4xx_cryp_aes.c ****   */
  56:../inc/STM32F4xx_StdPeriph_Driver/src/stm32f4xx_cryp_aes.c **** 
  57:../inc/STM32F4xx_StdPeriph_Driver/src/stm32f4xx_cryp_aes.c **** /* Private typedef -----------------------------------------------------------*/
  58:../inc/STM32F4xx_StdPeriph_Driver/src/stm32f4xx_cryp_aes.c **** /* Private define ------------------------------------------------------------*/
  59:../inc/STM32F4xx_StdPeriph_Driver/src/stm32f4xx_cryp_aes.c **** #define AESBUSY_TIMEOUT    ((uint32_t) 0x00010000)
  60:../inc/STM32F4xx_StdPeriph_Driver/src/stm32f4xx_cryp_aes.c **** 
  61:../inc/STM32F4xx_StdPeriph_Driver/src/stm32f4xx_cryp_aes.c **** /* Private macro -------------------------------------------------------------*/
  62:../inc/STM32F4xx_StdPeriph_Driver/src/stm32f4xx_cryp_aes.c **** /* Private variables ---------------------------------------------------------*/
  63:../inc/STM32F4xx_StdPeriph_Driver/src/stm32f4xx_cryp_aes.c **** /* Private function prototypes -----------------------------------------------*/
  64:../inc/STM32F4xx_StdPeriph_Driver/src/stm32f4xx_cryp_aes.c **** /* Private functions ---------------------------------------------------------*/
  65:../inc/STM32F4xx_StdPeriph_Driver/src/stm32f4xx_cryp_aes.c **** 
  66:../inc/STM32F4xx_StdPeriph_Driver/src/stm32f4xx_cryp_aes.c **** /** @defgroup CRYP_Private_Functions
  67:../inc/STM32F4xx_StdPeriph_Driver/src/stm32f4xx_cryp_aes.c ****   * @{
  68:../inc/STM32F4xx_StdPeriph_Driver/src/stm32f4xx_cryp_aes.c ****   */ 
  69:../inc/STM32F4xx_StdPeriph_Driver/src/stm32f4xx_cryp_aes.c **** 
  70:../inc/STM32F4xx_StdPeriph_Driver/src/stm32f4xx_cryp_aes.c **** /** @defgroup CRYP_Group6 High Level AES functions
  71:../inc/STM32F4xx_StdPeriph_Driver/src/stm32f4xx_cryp_aes.c ****  *  @brief   High Level AES functions 
  72:../inc/STM32F4xx_StdPeriph_Driver/src/stm32f4xx_cryp_aes.c ****  *
  73:../inc/STM32F4xx_StdPeriph_Driver/src/stm32f4xx_cryp_aes.c **** @verbatim   
  74:../inc/STM32F4xx_StdPeriph_Driver/src/stm32f4xx_cryp_aes.c ****  ===============================================================================
  75:../inc/STM32F4xx_StdPeriph_Driver/src/stm32f4xx_cryp_aes.c ****                           High Level AES functions
  76:../inc/STM32F4xx_StdPeriph_Driver/src/stm32f4xx_cryp_aes.c ****  ===============================================================================
  77:../inc/STM32F4xx_StdPeriph_Driver/src/stm32f4xx_cryp_aes.c **** 
  78:../inc/STM32F4xx_StdPeriph_Driver/src/stm32f4xx_cryp_aes.c **** 
  79:../inc/STM32F4xx_StdPeriph_Driver/src/stm32f4xx_cryp_aes.c **** @endverbatim
  80:../inc/STM32F4xx_StdPeriph_Driver/src/stm32f4xx_cryp_aes.c ****   * @{
  81:../inc/STM32F4xx_StdPeriph_Driver/src/stm32f4xx_cryp_aes.c ****   */
  82:../inc/STM32F4xx_StdPeriph_Driver/src/stm32f4xx_cryp_aes.c **** 
  83:../inc/STM32F4xx_StdPeriph_Driver/src/stm32f4xx_cryp_aes.c **** /**
  84:../inc/STM32F4xx_StdPeriph_Driver/src/stm32f4xx_cryp_aes.c ****   * @brief  Encrypt and decrypt using AES in ECB Mode
  85:../inc/STM32F4xx_StdPeriph_Driver/src/stm32f4xx_cryp_aes.c ****   * @param  Mode: encryption or decryption Mode.
  86:../inc/STM32F4xx_StdPeriph_Driver/src/stm32f4xx_cryp_aes.c ****   *          This parameter can be one of the following values:
  87:../inc/STM32F4xx_StdPeriph_Driver/src/stm32f4xx_cryp_aes.c ****   *            @arg MODE_ENCRYPT: Encryption
  88:../inc/STM32F4xx_StdPeriph_Driver/src/stm32f4xx_cryp_aes.c ****   *            @arg MODE_DECRYPT: Decryption
  89:../inc/STM32F4xx_StdPeriph_Driver/src/stm32f4xx_cryp_aes.c ****   * @param  Key: Key used for AES algorithm.
  90:../inc/STM32F4xx_StdPeriph_Driver/src/stm32f4xx_cryp_aes.c ****   * @param  Keysize: length of the Key, must be a 128, 192 or 256.
  91:../inc/STM32F4xx_StdPeriph_Driver/src/stm32f4xx_cryp_aes.c ****   * @param  Input: pointer to the Input buffer.
  92:../inc/STM32F4xx_StdPeriph_Driver/src/stm32f4xx_cryp_aes.c ****   * @param  Ilength: length of the Input buffer, must be a multiple of 16.
  93:../inc/STM32F4xx_StdPeriph_Driver/src/stm32f4xx_cryp_aes.c ****   * @param  Output: pointer to the returned buffer.
  94:../inc/STM32F4xx_StdPeriph_Driver/src/stm32f4xx_cryp_aes.c ****   * @retval An ErrorStatus enumeration value:
  95:../inc/STM32F4xx_StdPeriph_Driver/src/stm32f4xx_cryp_aes.c ****   *          - SUCCESS: Operation done
  96:../inc/STM32F4xx_StdPeriph_Driver/src/stm32f4xx_cryp_aes.c ****   *          - ERROR: Operation failed
  97:../inc/STM32F4xx_StdPeriph_Driver/src/stm32f4xx_cryp_aes.c ****   */
  98:../inc/STM32F4xx_StdPeriph_Driver/src/stm32f4xx_cryp_aes.c **** ErrorStatus CRYP_AES_ECB(uint8_t Mode, uint8_t* Key, uint16_t Keysize,
  99:../inc/STM32F4xx_StdPeriph_Driver/src/stm32f4xx_cryp_aes.c ****                          uint8_t* Input, uint32_t Ilength, uint8_t* Output)
 100:../inc/STM32F4xx_StdPeriph_Driver/src/stm32f4xx_cryp_aes.c **** {
 24585              		.loc 1 100 0
 24586              		.cfi_startproc
 24587              		@ args = 8, pretend = 0, frame = 232
 24588              		@ frame_needed = 1, uses_anonymous_args = 0
 24589 0000 90B5     		push	{r4, r7, lr}
 24590              	.LCFI0:
 24591              		.cfi_def_cfa_offset 12
 24592 0002 BBB0     		sub	sp, sp, #236
 24593              	.LCFI1:
 24594              		.cfi_def_cfa_offset 248
 24595 0004 00AF     		add	r7, sp, #0
 24596              		.cfi_offset 14, -4
 24597              		.cfi_offset 7, -8
 24598              		.cfi_offset 4, -12
 24599              	.LCFI2:
 24600              		.cfi_def_cfa_register 7
 24601 0006 B960     		str	r1, [r7, #8]
 24602 0008 3B60     		str	r3, [r7, #0]
 24603 000a 0346     		mov	r3, r0
 24604 000c FB73     		strb	r3, [r7, #15]
 24605 000e 1346     		mov	r3, r2	@ movhi
 24606 0010 FB80     		strh	r3, [r7, #6]	@ movhi
 101:../inc/STM32F4xx_StdPeriph_Driver/src/stm32f4xx_cryp_aes.c ****   CRYP_InitTypeDef AES_CRYP_InitStructure;
 102:../inc/STM32F4xx_StdPeriph_Driver/src/stm32f4xx_cryp_aes.c ****   CRYP_KeyInitTypeDef AES_CRYP_KeyInitStructure;
 103:../inc/STM32F4xx_StdPeriph_Driver/src/stm32f4xx_cryp_aes.c ****   __IO uint32_t counter = 0;
 24607              		.loc 1 103 0
 24608 0012 4FF00003 		mov	r3, #0
 24609 0016 7B61     		str	r3, [r7, #20]
 104:../inc/STM32F4xx_StdPeriph_Driver/src/stm32f4xx_cryp_aes.c ****   uint32_t busystatus = 0;
 24610              		.loc 1 104 0
 24611 0018 4FF00003 		mov	r3, #0
 24612 001c C7F8D430 		str	r3, [r7, #212]
 105:../inc/STM32F4xx_StdPeriph_Driver/src/stm32f4xx_cryp_aes.c ****   ErrorStatus status = SUCCESS;
 24613              		.loc 1 105 0
 24614 0020 4FF00103 		mov	r3, #1
 24615 0024 87F8E730 		strb	r3, [r7, #231]
 106:../inc/STM32F4xx_StdPeriph_Driver/src/stm32f4xx_cryp_aes.c ****   uint32_t keyaddr    = (uint32_t)Key;
 24616              		.loc 1 106 0
 24617 0028 BB68     		ldr	r3, [r7, #8]
 24618 002a C7F8D030 		str	r3, [r7, #208]
 107:../inc/STM32F4xx_StdPeriph_Driver/src/stm32f4xx_cryp_aes.c ****   uint32_t inputaddr  = (uint32_t)Input;
 24619              		.loc 1 107 0
 24620 002e 3B68     		ldr	r3, [r7, #0]
 24621 0030 C7F8E030 		str	r3, [r7, #224]
 108:../inc/STM32F4xx_StdPeriph_Driver/src/stm32f4xx_cryp_aes.c ****   uint32_t outputaddr = (uint32_t)Output;
 24622              		.loc 1 108 0
 24623 0034 D7F8FC30 		ldr	r3, [r7, #252]
 24624 0038 C7F8DC30 		str	r3, [r7, #220]
 109:../inc/STM32F4xx_StdPeriph_Driver/src/stm32f4xx_cryp_aes.c ****   uint32_t i = 0;
 24625              		.loc 1 109 0
 24626 003c 4FF00003 		mov	r3, #0
 24627 0040 C7F8D830 		str	r3, [r7, #216]
 110:../inc/STM32F4xx_StdPeriph_Driver/src/stm32f4xx_cryp_aes.c **** 
 111:../inc/STM32F4xx_StdPeriph_Driver/src/stm32f4xx_cryp_aes.c ****   /* Crypto structures initialisation*/
 112:../inc/STM32F4xx_StdPeriph_Driver/src/stm32f4xx_cryp_aes.c ****   CRYP_KeyStructInit(&AES_CRYP_KeyInitStructure);
 24628              		.loc 1 112 0
 24629 0044 07F11803 		add	r3, r7, #24
 24630 0048 1846     		mov	r0, r3
 24631 004a FFF7FEFF 		bl	CRYP_KeyStructInit
 113:../inc/STM32F4xx_StdPeriph_Driver/src/stm32f4xx_cryp_aes.c **** 
 114:../inc/STM32F4xx_StdPeriph_Driver/src/stm32f4xx_cryp_aes.c ****   switch(Keysize)
 24632              		.loc 1 114 0
 24633 004e FB88     		ldrh	r3, [r7, #6]
 24634 0050 C02B     		cmp	r3, #192
 24635 0052 50D0     		beq	.L4
 24636 0054 B3F5807F 		cmp	r3, #256
 24637 0058 00F0BD80 		beq	.L5
 24638 005c 802B     		cmp	r3, #128
 24639 005e 40F03081 		bne	.L19
 24640              	.L3:
 115:../inc/STM32F4xx_StdPeriph_Driver/src/stm32f4xx_cryp_aes.c ****   {
 116:../inc/STM32F4xx_StdPeriph_Driver/src/stm32f4xx_cryp_aes.c ****     case 128:
 117:../inc/STM32F4xx_StdPeriph_Driver/src/stm32f4xx_cryp_aes.c ****     AES_CRYP_InitStructure.CRYP_KeySize = CRYP_KeySize_128b;
 24641              		.loc 1 117 0
 24642 0062 4FF00003 		mov	r3, #0
 24643 0066 FB87     		strh	r3, [r7, #62]	@ movhi
 118:../inc/STM32F4xx_StdPeriph_Driver/src/stm32f4xx_cryp_aes.c ****     AES_CRYP_KeyInitStructure.CRYP_Key2Left = __REV(*(uint32_t*)(keyaddr));
 24644              		.loc 1 118 0
 24645 0068 D7F8D030 		ldr	r3, [r7, #208]
 24646 006c 1B68     		ldr	r3, [r3, #0]
 24647 006e C7F8CC30 		str	r3, [r7, #204]
 24648              	.LBB126:
 24649              	.LBB127:
   1:/home/kvv/workspace/k-car/autopilot/inc/CMSIS/core_cmInstr.h **** /**************************************************************************//**
   2:/home/kvv/workspace/k-car/autopilot/inc/CMSIS/core_cmInstr.h ****  * @file     core_cmInstr.h
   3:/home/kvv/workspace/k-car/autopilot/inc/CMSIS/core_cmInstr.h ****  * @brief    CMSIS Cortex-M Core Instruction Access Header File
   4:/home/kvv/workspace/k-car/autopilot/inc/CMSIS/core_cmInstr.h ****  * @version  V2.10
   5:/home/kvv/workspace/k-car/autopilot/inc/CMSIS/core_cmInstr.h ****  * @date     19. July 2011
   6:/home/kvv/workspace/k-car/autopilot/inc/CMSIS/core_cmInstr.h ****  *
   7:/home/kvv/workspace/k-car/autopilot/inc/CMSIS/core_cmInstr.h ****  * @note
   8:/home/kvv/workspace/k-car/autopilot/inc/CMSIS/core_cmInstr.h ****  * Copyright (C) 2009-2011 ARM Limited. All rights reserved.
   9:/home/kvv/workspace/k-car/autopilot/inc/CMSIS/core_cmInstr.h ****  *
  10:/home/kvv/workspace/k-car/autopilot/inc/CMSIS/core_cmInstr.h ****  * @par
  11:/home/kvv/workspace/k-car/autopilot/inc/CMSIS/core_cmInstr.h ****  * ARM Limited (ARM) is supplying this software for use with Cortex-M 
  12:/home/kvv/workspace/k-car/autopilot/inc/CMSIS/core_cmInstr.h ****  * processor based microcontrollers.  This file can be freely distributed 
  13:/home/kvv/workspace/k-car/autopilot/inc/CMSIS/core_cmInstr.h ****  * within development tools that are supporting such ARM based processors. 
  14:/home/kvv/workspace/k-car/autopilot/inc/CMSIS/core_cmInstr.h ****  *
  15:/home/kvv/workspace/k-car/autopilot/inc/CMSIS/core_cmInstr.h ****  * @par
  16:/home/kvv/workspace/k-car/autopilot/inc/CMSIS/core_cmInstr.h ****  * THIS SOFTWARE IS PROVIDED "AS IS".  NO WARRANTIES, WHETHER EXPRESS, IMPLIED
  17:/home/kvv/workspace/k-car/autopilot/inc/CMSIS/core_cmInstr.h ****  * OR STATUTORY, INCLUDING, BUT NOT LIMITED TO, IMPLIED WARRANTIES OF
  18:/home/kvv/workspace/k-car/autopilot/inc/CMSIS/core_cmInstr.h ****  * MERCHANTABILITY AND FITNESS FOR A PARTICULAR PURPOSE APPLY TO THIS SOFTWARE.
  19:/home/kvv/workspace/k-car/autopilot/inc/CMSIS/core_cmInstr.h ****  * ARM SHALL NOT, IN ANY CIRCUMSTANCES, BE LIABLE FOR SPECIAL, INCIDENTAL, OR
  20:/home/kvv/workspace/k-car/autopilot/inc/CMSIS/core_cmInstr.h ****  * CONSEQUENTIAL DAMAGES, FOR ANY REASON WHATSOEVER.
  21:/home/kvv/workspace/k-car/autopilot/inc/CMSIS/core_cmInstr.h ****  *
  22:/home/kvv/workspace/k-car/autopilot/inc/CMSIS/core_cmInstr.h ****  ******************************************************************************/
  23:/home/kvv/workspace/k-car/autopilot/inc/CMSIS/core_cmInstr.h **** 
  24:/home/kvv/workspace/k-car/autopilot/inc/CMSIS/core_cmInstr.h **** #ifndef __CORE_CMINSTR_H
  25:/home/kvv/workspace/k-car/autopilot/inc/CMSIS/core_cmInstr.h **** #define __CORE_CMINSTR_H
  26:/home/kvv/workspace/k-car/autopilot/inc/CMSIS/core_cmInstr.h **** 
  27:/home/kvv/workspace/k-car/autopilot/inc/CMSIS/core_cmInstr.h **** 
  28:/home/kvv/workspace/k-car/autopilot/inc/CMSIS/core_cmInstr.h **** /* ##########################  Core Instruction Access  ######################### */
  29:/home/kvv/workspace/k-car/autopilot/inc/CMSIS/core_cmInstr.h **** /** \defgroup CMSIS_Core_InstructionInterface CMSIS Core Instruction Interface
  30:/home/kvv/workspace/k-car/autopilot/inc/CMSIS/core_cmInstr.h ****   Access to dedicated instructions
  31:/home/kvv/workspace/k-car/autopilot/inc/CMSIS/core_cmInstr.h ****   @{
  32:/home/kvv/workspace/k-car/autopilot/inc/CMSIS/core_cmInstr.h **** */
  33:/home/kvv/workspace/k-car/autopilot/inc/CMSIS/core_cmInstr.h **** 
  34:/home/kvv/workspace/k-car/autopilot/inc/CMSIS/core_cmInstr.h **** #if   defined ( __CC_ARM ) /*------------------RealView Compiler -----------------*/
  35:/home/kvv/workspace/k-car/autopilot/inc/CMSIS/core_cmInstr.h **** /* ARM armcc specific functions */
  36:/home/kvv/workspace/k-car/autopilot/inc/CMSIS/core_cmInstr.h **** 
  37:/home/kvv/workspace/k-car/autopilot/inc/CMSIS/core_cmInstr.h **** #if (__ARMCC_VERSION < 400677)
  38:/home/kvv/workspace/k-car/autopilot/inc/CMSIS/core_cmInstr.h ****   #error "Please use ARM Compiler Toolchain V4.0.677 or later!"
  39:/home/kvv/workspace/k-car/autopilot/inc/CMSIS/core_cmInstr.h **** #endif
  40:/home/kvv/workspace/k-car/autopilot/inc/CMSIS/core_cmInstr.h **** 
  41:/home/kvv/workspace/k-car/autopilot/inc/CMSIS/core_cmInstr.h **** 
  42:/home/kvv/workspace/k-car/autopilot/inc/CMSIS/core_cmInstr.h **** /** \brief  No Operation
  43:/home/kvv/workspace/k-car/autopilot/inc/CMSIS/core_cmInstr.h **** 
  44:/home/kvv/workspace/k-car/autopilot/inc/CMSIS/core_cmInstr.h ****     No Operation does nothing. This instruction can be used for code alignment purposes.
  45:/home/kvv/workspace/k-car/autopilot/inc/CMSIS/core_cmInstr.h ****  */
  46:/home/kvv/workspace/k-car/autopilot/inc/CMSIS/core_cmInstr.h **** #define __NOP                             __nop
  47:/home/kvv/workspace/k-car/autopilot/inc/CMSIS/core_cmInstr.h **** 
  48:/home/kvv/workspace/k-car/autopilot/inc/CMSIS/core_cmInstr.h **** 
  49:/home/kvv/workspace/k-car/autopilot/inc/CMSIS/core_cmInstr.h **** /** \brief  Wait For Interrupt
  50:/home/kvv/workspace/k-car/autopilot/inc/CMSIS/core_cmInstr.h **** 
  51:/home/kvv/workspace/k-car/autopilot/inc/CMSIS/core_cmInstr.h ****     Wait For Interrupt is a hint instruction that suspends execution
  52:/home/kvv/workspace/k-car/autopilot/inc/CMSIS/core_cmInstr.h ****     until one of a number of events occurs.
  53:/home/kvv/workspace/k-car/autopilot/inc/CMSIS/core_cmInstr.h ****  */
  54:/home/kvv/workspace/k-car/autopilot/inc/CMSIS/core_cmInstr.h **** #define __WFI                             __wfi
  55:/home/kvv/workspace/k-car/autopilot/inc/CMSIS/core_cmInstr.h **** 
  56:/home/kvv/workspace/k-car/autopilot/inc/CMSIS/core_cmInstr.h **** 
  57:/home/kvv/workspace/k-car/autopilot/inc/CMSIS/core_cmInstr.h **** /** \brief  Wait For Event
  58:/home/kvv/workspace/k-car/autopilot/inc/CMSIS/core_cmInstr.h **** 
  59:/home/kvv/workspace/k-car/autopilot/inc/CMSIS/core_cmInstr.h ****     Wait For Event is a hint instruction that permits the processor to enter
  60:/home/kvv/workspace/k-car/autopilot/inc/CMSIS/core_cmInstr.h ****     a low-power state until one of a number of events occurs.
  61:/home/kvv/workspace/k-car/autopilot/inc/CMSIS/core_cmInstr.h ****  */
  62:/home/kvv/workspace/k-car/autopilot/inc/CMSIS/core_cmInstr.h **** #define __WFE                             __wfe
  63:/home/kvv/workspace/k-car/autopilot/inc/CMSIS/core_cmInstr.h **** 
  64:/home/kvv/workspace/k-car/autopilot/inc/CMSIS/core_cmInstr.h **** 
  65:/home/kvv/workspace/k-car/autopilot/inc/CMSIS/core_cmInstr.h **** /** \brief  Send Event
  66:/home/kvv/workspace/k-car/autopilot/inc/CMSIS/core_cmInstr.h **** 
  67:/home/kvv/workspace/k-car/autopilot/inc/CMSIS/core_cmInstr.h ****     Send Event is a hint instruction. It causes an event to be signaled to the CPU.
  68:/home/kvv/workspace/k-car/autopilot/inc/CMSIS/core_cmInstr.h ****  */
  69:/home/kvv/workspace/k-car/autopilot/inc/CMSIS/core_cmInstr.h **** #define __SEV                             __sev
  70:/home/kvv/workspace/k-car/autopilot/inc/CMSIS/core_cmInstr.h **** 
  71:/home/kvv/workspace/k-car/autopilot/inc/CMSIS/core_cmInstr.h **** 
  72:/home/kvv/workspace/k-car/autopilot/inc/CMSIS/core_cmInstr.h **** /** \brief  Instruction Synchronization Barrier
  73:/home/kvv/workspace/k-car/autopilot/inc/CMSIS/core_cmInstr.h **** 
  74:/home/kvv/workspace/k-car/autopilot/inc/CMSIS/core_cmInstr.h ****     Instruction Synchronization Barrier flushes the pipeline in the processor, 
  75:/home/kvv/workspace/k-car/autopilot/inc/CMSIS/core_cmInstr.h ****     so that all instructions following the ISB are fetched from cache or 
  76:/home/kvv/workspace/k-car/autopilot/inc/CMSIS/core_cmInstr.h ****     memory, after the instruction has been completed.
  77:/home/kvv/workspace/k-car/autopilot/inc/CMSIS/core_cmInstr.h ****  */
  78:/home/kvv/workspace/k-car/autopilot/inc/CMSIS/core_cmInstr.h **** #define __ISB()                           __isb(0xF)
  79:/home/kvv/workspace/k-car/autopilot/inc/CMSIS/core_cmInstr.h **** 
  80:/home/kvv/workspace/k-car/autopilot/inc/CMSIS/core_cmInstr.h **** 
  81:/home/kvv/workspace/k-car/autopilot/inc/CMSIS/core_cmInstr.h **** /** \brief  Data Synchronization Barrier
  82:/home/kvv/workspace/k-car/autopilot/inc/CMSIS/core_cmInstr.h **** 
  83:/home/kvv/workspace/k-car/autopilot/inc/CMSIS/core_cmInstr.h ****     This function acts as a special kind of Data Memory Barrier. 
  84:/home/kvv/workspace/k-car/autopilot/inc/CMSIS/core_cmInstr.h ****     It completes when all explicit memory accesses before this instruction complete.
  85:/home/kvv/workspace/k-car/autopilot/inc/CMSIS/core_cmInstr.h ****  */
  86:/home/kvv/workspace/k-car/autopilot/inc/CMSIS/core_cmInstr.h **** #define __DSB()                           __dsb(0xF)
  87:/home/kvv/workspace/k-car/autopilot/inc/CMSIS/core_cmInstr.h **** 
  88:/home/kvv/workspace/k-car/autopilot/inc/CMSIS/core_cmInstr.h **** 
  89:/home/kvv/workspace/k-car/autopilot/inc/CMSIS/core_cmInstr.h **** /** \brief  Data Memory Barrier
  90:/home/kvv/workspace/k-car/autopilot/inc/CMSIS/core_cmInstr.h **** 
  91:/home/kvv/workspace/k-car/autopilot/inc/CMSIS/core_cmInstr.h ****     This function ensures the apparent order of the explicit memory operations before 
  92:/home/kvv/workspace/k-car/autopilot/inc/CMSIS/core_cmInstr.h ****     and after the instruction, without ensuring their completion.
  93:/home/kvv/workspace/k-car/autopilot/inc/CMSIS/core_cmInstr.h ****  */
  94:/home/kvv/workspace/k-car/autopilot/inc/CMSIS/core_cmInstr.h **** #define __DMB()                           __dmb(0xF)
  95:/home/kvv/workspace/k-car/autopilot/inc/CMSIS/core_cmInstr.h **** 
  96:/home/kvv/workspace/k-car/autopilot/inc/CMSIS/core_cmInstr.h **** 
  97:/home/kvv/workspace/k-car/autopilot/inc/CMSIS/core_cmInstr.h **** /** \brief  Reverse byte order (32 bit)
  98:/home/kvv/workspace/k-car/autopilot/inc/CMSIS/core_cmInstr.h **** 
  99:/home/kvv/workspace/k-car/autopilot/inc/CMSIS/core_cmInstr.h ****     This function reverses the byte order in integer value.
 100:/home/kvv/workspace/k-car/autopilot/inc/CMSIS/core_cmInstr.h **** 
 101:/home/kvv/workspace/k-car/autopilot/inc/CMSIS/core_cmInstr.h ****     \param [in]    value  Value to reverse
 102:/home/kvv/workspace/k-car/autopilot/inc/CMSIS/core_cmInstr.h ****     \return               Reversed value
 103:/home/kvv/workspace/k-car/autopilot/inc/CMSIS/core_cmInstr.h ****  */
 104:/home/kvv/workspace/k-car/autopilot/inc/CMSIS/core_cmInstr.h **** #define __REV                             __rev
 105:/home/kvv/workspace/k-car/autopilot/inc/CMSIS/core_cmInstr.h **** 
 106:/home/kvv/workspace/k-car/autopilot/inc/CMSIS/core_cmInstr.h **** 
 107:/home/kvv/workspace/k-car/autopilot/inc/CMSIS/core_cmInstr.h **** /** \brief  Reverse byte order (16 bit)
 108:/home/kvv/workspace/k-car/autopilot/inc/CMSIS/core_cmInstr.h **** 
 109:/home/kvv/workspace/k-car/autopilot/inc/CMSIS/core_cmInstr.h ****     This function reverses the byte order in two unsigned short values.
 110:/home/kvv/workspace/k-car/autopilot/inc/CMSIS/core_cmInstr.h **** 
 111:/home/kvv/workspace/k-car/autopilot/inc/CMSIS/core_cmInstr.h ****     \param [in]    value  Value to reverse
 112:/home/kvv/workspace/k-car/autopilot/inc/CMSIS/core_cmInstr.h ****     \return               Reversed value
 113:/home/kvv/workspace/k-car/autopilot/inc/CMSIS/core_cmInstr.h ****  */
 114:/home/kvv/workspace/k-car/autopilot/inc/CMSIS/core_cmInstr.h **** static __INLINE __ASM uint32_t __REV16(uint32_t value)
 115:/home/kvv/workspace/k-car/autopilot/inc/CMSIS/core_cmInstr.h **** {
 116:/home/kvv/workspace/k-car/autopilot/inc/CMSIS/core_cmInstr.h ****   rev16 r0, r0
 117:/home/kvv/workspace/k-car/autopilot/inc/CMSIS/core_cmInstr.h ****   bx lr
 118:/home/kvv/workspace/k-car/autopilot/inc/CMSIS/core_cmInstr.h **** }
 119:/home/kvv/workspace/k-car/autopilot/inc/CMSIS/core_cmInstr.h **** 
 120:/home/kvv/workspace/k-car/autopilot/inc/CMSIS/core_cmInstr.h **** 
 121:/home/kvv/workspace/k-car/autopilot/inc/CMSIS/core_cmInstr.h **** /** \brief  Reverse byte order in signed short value
 122:/home/kvv/workspace/k-car/autopilot/inc/CMSIS/core_cmInstr.h **** 
 123:/home/kvv/workspace/k-car/autopilot/inc/CMSIS/core_cmInstr.h ****     This function reverses the byte order in a signed short value with sign extension to integer.
 124:/home/kvv/workspace/k-car/autopilot/inc/CMSIS/core_cmInstr.h **** 
 125:/home/kvv/workspace/k-car/autopilot/inc/CMSIS/core_cmInstr.h ****     \param [in]    value  Value to reverse
 126:/home/kvv/workspace/k-car/autopilot/inc/CMSIS/core_cmInstr.h ****     \return               Reversed value
 127:/home/kvv/workspace/k-car/autopilot/inc/CMSIS/core_cmInstr.h ****  */
 128:/home/kvv/workspace/k-car/autopilot/inc/CMSIS/core_cmInstr.h **** static __INLINE __ASM int32_t __REVSH(int32_t value)
 129:/home/kvv/workspace/k-car/autopilot/inc/CMSIS/core_cmInstr.h **** {
 130:/home/kvv/workspace/k-car/autopilot/inc/CMSIS/core_cmInstr.h ****   revsh r0, r0
 131:/home/kvv/workspace/k-car/autopilot/inc/CMSIS/core_cmInstr.h ****   bx lr
 132:/home/kvv/workspace/k-car/autopilot/inc/CMSIS/core_cmInstr.h **** }
 133:/home/kvv/workspace/k-car/autopilot/inc/CMSIS/core_cmInstr.h **** 
 134:/home/kvv/workspace/k-car/autopilot/inc/CMSIS/core_cmInstr.h **** 
 135:/home/kvv/workspace/k-car/autopilot/inc/CMSIS/core_cmInstr.h **** #if       (__CORTEX_M >= 0x03)
 136:/home/kvv/workspace/k-car/autopilot/inc/CMSIS/core_cmInstr.h **** 
 137:/home/kvv/workspace/k-car/autopilot/inc/CMSIS/core_cmInstr.h **** /** \brief  Reverse bit order of value
 138:/home/kvv/workspace/k-car/autopilot/inc/CMSIS/core_cmInstr.h **** 
 139:/home/kvv/workspace/k-car/autopilot/inc/CMSIS/core_cmInstr.h ****     This function reverses the bit order of the given value.
 140:/home/kvv/workspace/k-car/autopilot/inc/CMSIS/core_cmInstr.h **** 
 141:/home/kvv/workspace/k-car/autopilot/inc/CMSIS/core_cmInstr.h ****     \param [in]    value  Value to reverse
 142:/home/kvv/workspace/k-car/autopilot/inc/CMSIS/core_cmInstr.h ****     \return               Reversed value
 143:/home/kvv/workspace/k-car/autopilot/inc/CMSIS/core_cmInstr.h ****  */
 144:/home/kvv/workspace/k-car/autopilot/inc/CMSIS/core_cmInstr.h **** #define __RBIT                            __rbit
 145:/home/kvv/workspace/k-car/autopilot/inc/CMSIS/core_cmInstr.h **** 
 146:/home/kvv/workspace/k-car/autopilot/inc/CMSIS/core_cmInstr.h **** 
 147:/home/kvv/workspace/k-car/autopilot/inc/CMSIS/core_cmInstr.h **** /** \brief  LDR Exclusive (8 bit)
 148:/home/kvv/workspace/k-car/autopilot/inc/CMSIS/core_cmInstr.h **** 
 149:/home/kvv/workspace/k-car/autopilot/inc/CMSIS/core_cmInstr.h ****     This function performs a exclusive LDR command for 8 bit value.
 150:/home/kvv/workspace/k-car/autopilot/inc/CMSIS/core_cmInstr.h **** 
 151:/home/kvv/workspace/k-car/autopilot/inc/CMSIS/core_cmInstr.h ****     \param [in]    ptr  Pointer to data
 152:/home/kvv/workspace/k-car/autopilot/inc/CMSIS/core_cmInstr.h ****     \return             value of type uint8_t at (*ptr)
 153:/home/kvv/workspace/k-car/autopilot/inc/CMSIS/core_cmInstr.h ****  */
 154:/home/kvv/workspace/k-car/autopilot/inc/CMSIS/core_cmInstr.h **** #define __LDREXB(ptr)                     ((uint8_t ) __ldrex(ptr))
 155:/home/kvv/workspace/k-car/autopilot/inc/CMSIS/core_cmInstr.h **** 
 156:/home/kvv/workspace/k-car/autopilot/inc/CMSIS/core_cmInstr.h **** 
 157:/home/kvv/workspace/k-car/autopilot/inc/CMSIS/core_cmInstr.h **** /** \brief  LDR Exclusive (16 bit)
 158:/home/kvv/workspace/k-car/autopilot/inc/CMSIS/core_cmInstr.h **** 
 159:/home/kvv/workspace/k-car/autopilot/inc/CMSIS/core_cmInstr.h ****     This function performs a exclusive LDR command for 16 bit values.
 160:/home/kvv/workspace/k-car/autopilot/inc/CMSIS/core_cmInstr.h **** 
 161:/home/kvv/workspace/k-car/autopilot/inc/CMSIS/core_cmInstr.h ****     \param [in]    ptr  Pointer to data
 162:/home/kvv/workspace/k-car/autopilot/inc/CMSIS/core_cmInstr.h ****     \return        value of type uint16_t at (*ptr)
 163:/home/kvv/workspace/k-car/autopilot/inc/CMSIS/core_cmInstr.h ****  */
 164:/home/kvv/workspace/k-car/autopilot/inc/CMSIS/core_cmInstr.h **** #define __LDREXH(ptr)                     ((uint16_t) __ldrex(ptr))
 165:/home/kvv/workspace/k-car/autopilot/inc/CMSIS/core_cmInstr.h **** 
 166:/home/kvv/workspace/k-car/autopilot/inc/CMSIS/core_cmInstr.h **** 
 167:/home/kvv/workspace/k-car/autopilot/inc/CMSIS/core_cmInstr.h **** /** \brief  LDR Exclusive (32 bit)
 168:/home/kvv/workspace/k-car/autopilot/inc/CMSIS/core_cmInstr.h **** 
 169:/home/kvv/workspace/k-car/autopilot/inc/CMSIS/core_cmInstr.h ****     This function performs a exclusive LDR command for 32 bit values.
 170:/home/kvv/workspace/k-car/autopilot/inc/CMSIS/core_cmInstr.h **** 
 171:/home/kvv/workspace/k-car/autopilot/inc/CMSIS/core_cmInstr.h ****     \param [in]    ptr  Pointer to data
 172:/home/kvv/workspace/k-car/autopilot/inc/CMSIS/core_cmInstr.h ****     \return        value of type uint32_t at (*ptr)
 173:/home/kvv/workspace/k-car/autopilot/inc/CMSIS/core_cmInstr.h ****  */
 174:/home/kvv/workspace/k-car/autopilot/inc/CMSIS/core_cmInstr.h **** #define __LDREXW(ptr)                     ((uint32_t ) __ldrex(ptr))
 175:/home/kvv/workspace/k-car/autopilot/inc/CMSIS/core_cmInstr.h **** 
 176:/home/kvv/workspace/k-car/autopilot/inc/CMSIS/core_cmInstr.h **** 
 177:/home/kvv/workspace/k-car/autopilot/inc/CMSIS/core_cmInstr.h **** /** \brief  STR Exclusive (8 bit)
 178:/home/kvv/workspace/k-car/autopilot/inc/CMSIS/core_cmInstr.h **** 
 179:/home/kvv/workspace/k-car/autopilot/inc/CMSIS/core_cmInstr.h ****     This function performs a exclusive STR command for 8 bit values.
 180:/home/kvv/workspace/k-car/autopilot/inc/CMSIS/core_cmInstr.h **** 
 181:/home/kvv/workspace/k-car/autopilot/inc/CMSIS/core_cmInstr.h ****     \param [in]  value  Value to store
 182:/home/kvv/workspace/k-car/autopilot/inc/CMSIS/core_cmInstr.h ****     \param [in]    ptr  Pointer to location
 183:/home/kvv/workspace/k-car/autopilot/inc/CMSIS/core_cmInstr.h ****     \return          0  Function succeeded
 184:/home/kvv/workspace/k-car/autopilot/inc/CMSIS/core_cmInstr.h ****     \return          1  Function failed
 185:/home/kvv/workspace/k-car/autopilot/inc/CMSIS/core_cmInstr.h ****  */
 186:/home/kvv/workspace/k-car/autopilot/inc/CMSIS/core_cmInstr.h **** #define __STREXB(value, ptr)              __strex(value, ptr)
 187:/home/kvv/workspace/k-car/autopilot/inc/CMSIS/core_cmInstr.h **** 
 188:/home/kvv/workspace/k-car/autopilot/inc/CMSIS/core_cmInstr.h **** 
 189:/home/kvv/workspace/k-car/autopilot/inc/CMSIS/core_cmInstr.h **** /** \brief  STR Exclusive (16 bit)
 190:/home/kvv/workspace/k-car/autopilot/inc/CMSIS/core_cmInstr.h **** 
 191:/home/kvv/workspace/k-car/autopilot/inc/CMSIS/core_cmInstr.h ****     This function performs a exclusive STR command for 16 bit values.
 192:/home/kvv/workspace/k-car/autopilot/inc/CMSIS/core_cmInstr.h **** 
 193:/home/kvv/workspace/k-car/autopilot/inc/CMSIS/core_cmInstr.h ****     \param [in]  value  Value to store
 194:/home/kvv/workspace/k-car/autopilot/inc/CMSIS/core_cmInstr.h ****     \param [in]    ptr  Pointer to location
 195:/home/kvv/workspace/k-car/autopilot/inc/CMSIS/core_cmInstr.h ****     \return          0  Function succeeded
 196:/home/kvv/workspace/k-car/autopilot/inc/CMSIS/core_cmInstr.h ****     \return          1  Function failed
 197:/home/kvv/workspace/k-car/autopilot/inc/CMSIS/core_cmInstr.h ****  */
 198:/home/kvv/workspace/k-car/autopilot/inc/CMSIS/core_cmInstr.h **** #define __STREXH(value, ptr)              __strex(value, ptr)
 199:/home/kvv/workspace/k-car/autopilot/inc/CMSIS/core_cmInstr.h **** 
 200:/home/kvv/workspace/k-car/autopilot/inc/CMSIS/core_cmInstr.h **** 
 201:/home/kvv/workspace/k-car/autopilot/inc/CMSIS/core_cmInstr.h **** /** \brief  STR Exclusive (32 bit)
 202:/home/kvv/workspace/k-car/autopilot/inc/CMSIS/core_cmInstr.h **** 
 203:/home/kvv/workspace/k-car/autopilot/inc/CMSIS/core_cmInstr.h ****     This function performs a exclusive STR command for 32 bit values.
 204:/home/kvv/workspace/k-car/autopilot/inc/CMSIS/core_cmInstr.h **** 
 205:/home/kvv/workspace/k-car/autopilot/inc/CMSIS/core_cmInstr.h ****     \param [in]  value  Value to store
 206:/home/kvv/workspace/k-car/autopilot/inc/CMSIS/core_cmInstr.h ****     \param [in]    ptr  Pointer to location
 207:/home/kvv/workspace/k-car/autopilot/inc/CMSIS/core_cmInstr.h ****     \return          0  Function succeeded
 208:/home/kvv/workspace/k-car/autopilot/inc/CMSIS/core_cmInstr.h ****     \return          1  Function failed
 209:/home/kvv/workspace/k-car/autopilot/inc/CMSIS/core_cmInstr.h ****  */
 210:/home/kvv/workspace/k-car/autopilot/inc/CMSIS/core_cmInstr.h **** #define __STREXW(value, ptr)              __strex(value, ptr)
 211:/home/kvv/workspace/k-car/autopilot/inc/CMSIS/core_cmInstr.h **** 
 212:/home/kvv/workspace/k-car/autopilot/inc/CMSIS/core_cmInstr.h **** 
 213:/home/kvv/workspace/k-car/autopilot/inc/CMSIS/core_cmInstr.h **** /** \brief  Remove the exclusive lock
 214:/home/kvv/workspace/k-car/autopilot/inc/CMSIS/core_cmInstr.h **** 
 215:/home/kvv/workspace/k-car/autopilot/inc/CMSIS/core_cmInstr.h ****     This function removes the exclusive lock which is created by LDREX.
 216:/home/kvv/workspace/k-car/autopilot/inc/CMSIS/core_cmInstr.h **** 
 217:/home/kvv/workspace/k-car/autopilot/inc/CMSIS/core_cmInstr.h ****  */
 218:/home/kvv/workspace/k-car/autopilot/inc/CMSIS/core_cmInstr.h **** #define __CLREX                           __clrex
 219:/home/kvv/workspace/k-car/autopilot/inc/CMSIS/core_cmInstr.h **** 
 220:/home/kvv/workspace/k-car/autopilot/inc/CMSIS/core_cmInstr.h **** 
 221:/home/kvv/workspace/k-car/autopilot/inc/CMSIS/core_cmInstr.h **** /** \brief  Signed Saturate
 222:/home/kvv/workspace/k-car/autopilot/inc/CMSIS/core_cmInstr.h **** 
 223:/home/kvv/workspace/k-car/autopilot/inc/CMSIS/core_cmInstr.h ****     This function saturates a signed value.
 224:/home/kvv/workspace/k-car/autopilot/inc/CMSIS/core_cmInstr.h **** 
 225:/home/kvv/workspace/k-car/autopilot/inc/CMSIS/core_cmInstr.h ****     \param [in]  value  Value to be saturated
 226:/home/kvv/workspace/k-car/autopilot/inc/CMSIS/core_cmInstr.h ****     \param [in]    sat  Bit position to saturate to (1..32)
 227:/home/kvv/workspace/k-car/autopilot/inc/CMSIS/core_cmInstr.h ****     \return             Saturated value
 228:/home/kvv/workspace/k-car/autopilot/inc/CMSIS/core_cmInstr.h ****  */
 229:/home/kvv/workspace/k-car/autopilot/inc/CMSIS/core_cmInstr.h **** #define __SSAT                            __ssat
 230:/home/kvv/workspace/k-car/autopilot/inc/CMSIS/core_cmInstr.h **** 
 231:/home/kvv/workspace/k-car/autopilot/inc/CMSIS/core_cmInstr.h **** 
 232:/home/kvv/workspace/k-car/autopilot/inc/CMSIS/core_cmInstr.h **** /** \brief  Unsigned Saturate
 233:/home/kvv/workspace/k-car/autopilot/inc/CMSIS/core_cmInstr.h **** 
 234:/home/kvv/workspace/k-car/autopilot/inc/CMSIS/core_cmInstr.h ****     This function saturates an unsigned value.
 235:/home/kvv/workspace/k-car/autopilot/inc/CMSIS/core_cmInstr.h **** 
 236:/home/kvv/workspace/k-car/autopilot/inc/CMSIS/core_cmInstr.h ****     \param [in]  value  Value to be saturated
 237:/home/kvv/workspace/k-car/autopilot/inc/CMSIS/core_cmInstr.h ****     \param [in]    sat  Bit position to saturate to (0..31)
 238:/home/kvv/workspace/k-car/autopilot/inc/CMSIS/core_cmInstr.h ****     \return             Saturated value
 239:/home/kvv/workspace/k-car/autopilot/inc/CMSIS/core_cmInstr.h ****  */
 240:/home/kvv/workspace/k-car/autopilot/inc/CMSIS/core_cmInstr.h **** #define __USAT                            __usat
 241:/home/kvv/workspace/k-car/autopilot/inc/CMSIS/core_cmInstr.h **** 
 242:/home/kvv/workspace/k-car/autopilot/inc/CMSIS/core_cmInstr.h **** 
 243:/home/kvv/workspace/k-car/autopilot/inc/CMSIS/core_cmInstr.h **** /** \brief  Count leading zeros
 244:/home/kvv/workspace/k-car/autopilot/inc/CMSIS/core_cmInstr.h **** 
 245:/home/kvv/workspace/k-car/autopilot/inc/CMSIS/core_cmInstr.h ****     This function counts the number of leading zeros of a data value.
 246:/home/kvv/workspace/k-car/autopilot/inc/CMSIS/core_cmInstr.h **** 
 247:/home/kvv/workspace/k-car/autopilot/inc/CMSIS/core_cmInstr.h ****     \param [in]  value  Value to count the leading zeros
 248:/home/kvv/workspace/k-car/autopilot/inc/CMSIS/core_cmInstr.h ****     \return             number of leading zeros in value
 249:/home/kvv/workspace/k-car/autopilot/inc/CMSIS/core_cmInstr.h ****  */
 250:/home/kvv/workspace/k-car/autopilot/inc/CMSIS/core_cmInstr.h **** #define __CLZ                             __clz 
 251:/home/kvv/workspace/k-car/autopilot/inc/CMSIS/core_cmInstr.h **** 
 252:/home/kvv/workspace/k-car/autopilot/inc/CMSIS/core_cmInstr.h **** #endif /* (__CORTEX_M >= 0x03) */
 253:/home/kvv/workspace/k-car/autopilot/inc/CMSIS/core_cmInstr.h **** 
 254:/home/kvv/workspace/k-car/autopilot/inc/CMSIS/core_cmInstr.h **** 
 255:/home/kvv/workspace/k-car/autopilot/inc/CMSIS/core_cmInstr.h **** 
 256:/home/kvv/workspace/k-car/autopilot/inc/CMSIS/core_cmInstr.h **** #elif defined ( __ICCARM__ ) /*------------------ ICC Compiler -------------------*/
 257:/home/kvv/workspace/k-car/autopilot/inc/CMSIS/core_cmInstr.h **** /* IAR iccarm specific functions */
 258:/home/kvv/workspace/k-car/autopilot/inc/CMSIS/core_cmInstr.h **** 
 259:/home/kvv/workspace/k-car/autopilot/inc/CMSIS/core_cmInstr.h **** #include <cmsis_iar.h>
 260:/home/kvv/workspace/k-car/autopilot/inc/CMSIS/core_cmInstr.h **** 
 261:/home/kvv/workspace/k-car/autopilot/inc/CMSIS/core_cmInstr.h **** 
 262:/home/kvv/workspace/k-car/autopilot/inc/CMSIS/core_cmInstr.h **** #elif defined ( __GNUC__ ) /*------------------ GNU Compiler ---------------------*/
 263:/home/kvv/workspace/k-car/autopilot/inc/CMSIS/core_cmInstr.h **** /* GNU gcc specific functions */
 264:/home/kvv/workspace/k-car/autopilot/inc/CMSIS/core_cmInstr.h **** 
 265:/home/kvv/workspace/k-car/autopilot/inc/CMSIS/core_cmInstr.h **** /** \brief  No Operation
 266:/home/kvv/workspace/k-car/autopilot/inc/CMSIS/core_cmInstr.h **** 
 267:/home/kvv/workspace/k-car/autopilot/inc/CMSIS/core_cmInstr.h ****     No Operation does nothing. This instruction can be used for code alignment purposes.
 268:/home/kvv/workspace/k-car/autopilot/inc/CMSIS/core_cmInstr.h ****  */
 269:/home/kvv/workspace/k-car/autopilot/inc/CMSIS/core_cmInstr.h **** __attribute__( ( always_inline ) ) static __INLINE void __NOP(void)
 270:/home/kvv/workspace/k-car/autopilot/inc/CMSIS/core_cmInstr.h **** {
 271:/home/kvv/workspace/k-car/autopilot/inc/CMSIS/core_cmInstr.h ****   __ASM volatile ("nop");
 272:/home/kvv/workspace/k-car/autopilot/inc/CMSIS/core_cmInstr.h **** }
 273:/home/kvv/workspace/k-car/autopilot/inc/CMSIS/core_cmInstr.h **** 
 274:/home/kvv/workspace/k-car/autopilot/inc/CMSIS/core_cmInstr.h **** 
 275:/home/kvv/workspace/k-car/autopilot/inc/CMSIS/core_cmInstr.h **** /** \brief  Wait For Interrupt
 276:/home/kvv/workspace/k-car/autopilot/inc/CMSIS/core_cmInstr.h **** 
 277:/home/kvv/workspace/k-car/autopilot/inc/CMSIS/core_cmInstr.h ****     Wait For Interrupt is a hint instruction that suspends execution
 278:/home/kvv/workspace/k-car/autopilot/inc/CMSIS/core_cmInstr.h ****     until one of a number of events occurs.
 279:/home/kvv/workspace/k-car/autopilot/inc/CMSIS/core_cmInstr.h ****  */
 280:/home/kvv/workspace/k-car/autopilot/inc/CMSIS/core_cmInstr.h **** __attribute__( ( always_inline ) ) static __INLINE void __WFI(void)
 281:/home/kvv/workspace/k-car/autopilot/inc/CMSIS/core_cmInstr.h **** {
 282:/home/kvv/workspace/k-car/autopilot/inc/CMSIS/core_cmInstr.h ****   __ASM volatile ("wfi");
 283:/home/kvv/workspace/k-car/autopilot/inc/CMSIS/core_cmInstr.h **** }
 284:/home/kvv/workspace/k-car/autopilot/inc/CMSIS/core_cmInstr.h **** 
 285:/home/kvv/workspace/k-car/autopilot/inc/CMSIS/core_cmInstr.h **** 
 286:/home/kvv/workspace/k-car/autopilot/inc/CMSIS/core_cmInstr.h **** /** \brief  Wait For Event
 287:/home/kvv/workspace/k-car/autopilot/inc/CMSIS/core_cmInstr.h **** 
 288:/home/kvv/workspace/k-car/autopilot/inc/CMSIS/core_cmInstr.h ****     Wait For Event is a hint instruction that permits the processor to enter
 289:/home/kvv/workspace/k-car/autopilot/inc/CMSIS/core_cmInstr.h ****     a low-power state until one of a number of events occurs.
 290:/home/kvv/workspace/k-car/autopilot/inc/CMSIS/core_cmInstr.h ****  */
 291:/home/kvv/workspace/k-car/autopilot/inc/CMSIS/core_cmInstr.h **** __attribute__( ( always_inline ) ) static __INLINE void __WFE(void)
 292:/home/kvv/workspace/k-car/autopilot/inc/CMSIS/core_cmInstr.h **** {
 293:/home/kvv/workspace/k-car/autopilot/inc/CMSIS/core_cmInstr.h ****   __ASM volatile ("wfe");
 294:/home/kvv/workspace/k-car/autopilot/inc/CMSIS/core_cmInstr.h **** }
 295:/home/kvv/workspace/k-car/autopilot/inc/CMSIS/core_cmInstr.h **** 
 296:/home/kvv/workspace/k-car/autopilot/inc/CMSIS/core_cmInstr.h **** 
 297:/home/kvv/workspace/k-car/autopilot/inc/CMSIS/core_cmInstr.h **** /** \brief  Send Event
 298:/home/kvv/workspace/k-car/autopilot/inc/CMSIS/core_cmInstr.h **** 
 299:/home/kvv/workspace/k-car/autopilot/inc/CMSIS/core_cmInstr.h ****     Send Event is a hint instruction. It causes an event to be signaled to the CPU.
 300:/home/kvv/workspace/k-car/autopilot/inc/CMSIS/core_cmInstr.h ****  */
 301:/home/kvv/workspace/k-car/autopilot/inc/CMSIS/core_cmInstr.h **** __attribute__( ( always_inline ) ) static __INLINE void __SEV(void)
 302:/home/kvv/workspace/k-car/autopilot/inc/CMSIS/core_cmInstr.h **** {
 303:/home/kvv/workspace/k-car/autopilot/inc/CMSIS/core_cmInstr.h ****   __ASM volatile ("sev");
 304:/home/kvv/workspace/k-car/autopilot/inc/CMSIS/core_cmInstr.h **** }
 305:/home/kvv/workspace/k-car/autopilot/inc/CMSIS/core_cmInstr.h **** 
 306:/home/kvv/workspace/k-car/autopilot/inc/CMSIS/core_cmInstr.h **** 
 307:/home/kvv/workspace/k-car/autopilot/inc/CMSIS/core_cmInstr.h **** /** \brief  Instruction Synchronization Barrier
 308:/home/kvv/workspace/k-car/autopilot/inc/CMSIS/core_cmInstr.h **** 
 309:/home/kvv/workspace/k-car/autopilot/inc/CMSIS/core_cmInstr.h ****     Instruction Synchronization Barrier flushes the pipeline in the processor, 
 310:/home/kvv/workspace/k-car/autopilot/inc/CMSIS/core_cmInstr.h ****     so that all instructions following the ISB are fetched from cache or 
 311:/home/kvv/workspace/k-car/autopilot/inc/CMSIS/core_cmInstr.h ****     memory, after the instruction has been completed.
 312:/home/kvv/workspace/k-car/autopilot/inc/CMSIS/core_cmInstr.h ****  */
 313:/home/kvv/workspace/k-car/autopilot/inc/CMSIS/core_cmInstr.h **** __attribute__( ( always_inline ) ) static __INLINE void __ISB(void)
 314:/home/kvv/workspace/k-car/autopilot/inc/CMSIS/core_cmInstr.h **** {
 315:/home/kvv/workspace/k-car/autopilot/inc/CMSIS/core_cmInstr.h ****   __ASM volatile ("isb");
 316:/home/kvv/workspace/k-car/autopilot/inc/CMSIS/core_cmInstr.h **** }
 317:/home/kvv/workspace/k-car/autopilot/inc/CMSIS/core_cmInstr.h **** 
 318:/home/kvv/workspace/k-car/autopilot/inc/CMSIS/core_cmInstr.h **** 
 319:/home/kvv/workspace/k-car/autopilot/inc/CMSIS/core_cmInstr.h **** /** \brief  Data Synchronization Barrier
 320:/home/kvv/workspace/k-car/autopilot/inc/CMSIS/core_cmInstr.h **** 
 321:/home/kvv/workspace/k-car/autopilot/inc/CMSIS/core_cmInstr.h ****     This function acts as a special kind of Data Memory Barrier. 
 322:/home/kvv/workspace/k-car/autopilot/inc/CMSIS/core_cmInstr.h ****     It completes when all explicit memory accesses before this instruction complete.
 323:/home/kvv/workspace/k-car/autopilot/inc/CMSIS/core_cmInstr.h ****  */
 324:/home/kvv/workspace/k-car/autopilot/inc/CMSIS/core_cmInstr.h **** __attribute__( ( always_inline ) ) static __INLINE void __DSB(void)
 325:/home/kvv/workspace/k-car/autopilot/inc/CMSIS/core_cmInstr.h **** {
 326:/home/kvv/workspace/k-car/autopilot/inc/CMSIS/core_cmInstr.h ****   __ASM volatile ("dsb");
 327:/home/kvv/workspace/k-car/autopilot/inc/CMSIS/core_cmInstr.h **** }
 328:/home/kvv/workspace/k-car/autopilot/inc/CMSIS/core_cmInstr.h **** 
 329:/home/kvv/workspace/k-car/autopilot/inc/CMSIS/core_cmInstr.h **** 
 330:/home/kvv/workspace/k-car/autopilot/inc/CMSIS/core_cmInstr.h **** /** \brief  Data Memory Barrier
 331:/home/kvv/workspace/k-car/autopilot/inc/CMSIS/core_cmInstr.h **** 
 332:/home/kvv/workspace/k-car/autopilot/inc/CMSIS/core_cmInstr.h ****     This function ensures the apparent order of the explicit memory operations before 
 333:/home/kvv/workspace/k-car/autopilot/inc/CMSIS/core_cmInstr.h ****     and after the instruction, without ensuring their completion.
 334:/home/kvv/workspace/k-car/autopilot/inc/CMSIS/core_cmInstr.h ****  */
 335:/home/kvv/workspace/k-car/autopilot/inc/CMSIS/core_cmInstr.h **** __attribute__( ( always_inline ) ) static __INLINE void __DMB(void)
 336:/home/kvv/workspace/k-car/autopilot/inc/CMSIS/core_cmInstr.h **** {
 337:/home/kvv/workspace/k-car/autopilot/inc/CMSIS/core_cmInstr.h ****   __ASM volatile ("dmb");
 338:/home/kvv/workspace/k-car/autopilot/inc/CMSIS/core_cmInstr.h **** }
 339:/home/kvv/workspace/k-car/autopilot/inc/CMSIS/core_cmInstr.h **** 
 340:/home/kvv/workspace/k-car/autopilot/inc/CMSIS/core_cmInstr.h **** 
 341:/home/kvv/workspace/k-car/autopilot/inc/CMSIS/core_cmInstr.h **** /** \brief  Reverse byte order (32 bit)
 342:/home/kvv/workspace/k-car/autopilot/inc/CMSIS/core_cmInstr.h **** 
 343:/home/kvv/workspace/k-car/autopilot/inc/CMSIS/core_cmInstr.h ****     This function reverses the byte order in integer value.
 344:/home/kvv/workspace/k-car/autopilot/inc/CMSIS/core_cmInstr.h **** 
 345:/home/kvv/workspace/k-car/autopilot/inc/CMSIS/core_cmInstr.h ****     \param [in]    value  Value to reverse
 346:/home/kvv/workspace/k-car/autopilot/inc/CMSIS/core_cmInstr.h ****     \return               Reversed value
 347:/home/kvv/workspace/k-car/autopilot/inc/CMSIS/core_cmInstr.h ****  */
 348:/home/kvv/workspace/k-car/autopilot/inc/CMSIS/core_cmInstr.h **** __attribute__( ( always_inline ) ) static __INLINE uint32_t __REV(uint32_t value)
 349:/home/kvv/workspace/k-car/autopilot/inc/CMSIS/core_cmInstr.h **** {
 350:/home/kvv/workspace/k-car/autopilot/inc/CMSIS/core_cmInstr.h ****   uint32_t result;
 351:/home/kvv/workspace/k-car/autopilot/inc/CMSIS/core_cmInstr.h ****   
 352:/home/kvv/workspace/k-car/autopilot/inc/CMSIS/core_cmInstr.h ****   __ASM volatile ("rev %0, %1" : "=r" (result) : "r" (value) );
 24650              		.loc 7 352 0
 24651 0072 D7F8CC30 		ldr	r3, [r7, #204]
 24652              	@ 352 "/home/kvv/workspace/k-car/autopilot/inc/CMSIS/core_cmInstr.h" 1
 24653 0076 1CBA     		rev r4, r3
 24654              	@ 0 "" 2
 24655              		.thumb
 24656 0078 C7F8C840 		str	r4, [r7, #200]
 353:/home/kvv/workspace/k-car/autopilot/inc/CMSIS/core_cmInstr.h ****   return(result);
 24657              		.loc 7 353 0
 24658 007c D7F8C830 		ldr	r3, [r7, #200]
 24659              	.LBE127:
 24660              	.LBE126:
 24661              		.loc 1 118 0
 24662 0080 BB62     		str	r3, [r7, #40]
 119:../inc/STM32F4xx_StdPeriph_Driver/src/stm32f4xx_cryp_aes.c ****     keyaddr+=4;
 24663              		.loc 1 119 0
 24664 0082 D7F8D030 		ldr	r3, [r7, #208]
 24665 0086 03F10403 		add	r3, r3, #4
 24666 008a C7F8D030 		str	r3, [r7, #208]
 120:../inc/STM32F4xx_StdPeriph_Driver/src/stm32f4xx_cryp_aes.c ****     AES_CRYP_KeyInitStructure.CRYP_Key2Right= __REV(*(uint32_t*)(keyaddr));
 24667              		.loc 1 120 0
 24668 008e D7F8D030 		ldr	r3, [r7, #208]
 24669 0092 1B68     		ldr	r3, [r3, #0]
 24670 0094 C7F8C430 		str	r3, [r7, #196]
 24671              	.LBB128:
 24672              	.LBB129:
 352:/home/kvv/workspace/k-car/autopilot/inc/CMSIS/core_cmInstr.h ****   __ASM volatile ("rev %0, %1" : "=r" (result) : "r" (value) );
 24673              		.loc 7 352 0
 24674 0098 D7F8C430 		ldr	r3, [r7, #196]
 24675              	@ 352 "/home/kvv/workspace/k-car/autopilot/inc/CMSIS/core_cmInstr.h" 1
 24676 009c 1CBA     		rev r4, r3
 24677              	@ 0 "" 2
 24678              		.thumb
 24679 009e C7F8C040 		str	r4, [r7, #192]
 24680              		.loc 7 353 0
 24681 00a2 D7F8C030 		ldr	r3, [r7, #192]
 24682              	.LBE129:
 24683              	.LBE128:
 24684              		.loc 1 120 0
 24685 00a6 FB62     		str	r3, [r7, #44]
 121:../inc/STM32F4xx_StdPeriph_Driver/src/stm32f4xx_cryp_aes.c ****     keyaddr+=4;
 24686              		.loc 1 121 0
 24687 00a8 D7F8D030 		ldr	r3, [r7, #208]
 24688 00ac 03F10403 		add	r3, r3, #4
 24689 00b0 C7F8D030 		str	r3, [r7, #208]
 122:../inc/STM32F4xx_StdPeriph_Driver/src/stm32f4xx_cryp_aes.c ****     AES_CRYP_KeyInitStructure.CRYP_Key3Left = __REV(*(uint32_t*)(keyaddr));
 24690              		.loc 1 122 0
 24691 00b4 D7F8D030 		ldr	r3, [r7, #208]
 24692 00b8 1B68     		ldr	r3, [r3, #0]
 24693 00ba C7F8BC30 		str	r3, [r7, #188]
 24694              	.LBB130:
 24695              	.LBB131:
 352:/home/kvv/workspace/k-car/autopilot/inc/CMSIS/core_cmInstr.h ****   __ASM volatile ("rev %0, %1" : "=r" (result) : "r" (value) );
 24696              		.loc 7 352 0
 24697 00be D7F8BC30 		ldr	r3, [r7, #188]
 24698              	@ 352 "/home/kvv/workspace/k-car/autopilot/inc/CMSIS/core_cmInstr.h" 1
 24699 00c2 1CBA     		rev r4, r3
 24700              	@ 0 "" 2
 24701              		.thumb
 24702 00c4 C7F8B840 		str	r4, [r7, #184]
 24703              		.loc 7 353 0
 24704 00c8 D7F8B830 		ldr	r3, [r7, #184]
 24705              	.LBE131:
 24706              	.LBE130:
 24707              		.loc 1 122 0
 24708 00cc 3B63     		str	r3, [r7, #48]
 123:../inc/STM32F4xx_StdPeriph_Driver/src/stm32f4xx_cryp_aes.c ****     keyaddr+=4;
 24709              		.loc 1 123 0
 24710 00ce D7F8D030 		ldr	r3, [r7, #208]
 24711 00d2 03F10403 		add	r3, r3, #4
 24712 00d6 C7F8D030 		str	r3, [r7, #208]
 124:../inc/STM32F4xx_StdPeriph_Driver/src/stm32f4xx_cryp_aes.c ****     AES_CRYP_KeyInitStructure.CRYP_Key3Right= __REV(*(uint32_t*)(keyaddr));
 24713              		.loc 1 124 0
 24714 00da D7F8D030 		ldr	r3, [r7, #208]
 24715 00de 1B68     		ldr	r3, [r3, #0]
 24716 00e0 C7F8B430 		str	r3, [r7, #180]
 24717              	.LBB132:
 24718              	.LBB133:
 352:/home/kvv/workspace/k-car/autopilot/inc/CMSIS/core_cmInstr.h ****   __ASM volatile ("rev %0, %1" : "=r" (result) : "r" (value) );
 24719              		.loc 7 352 0
 24720 00e4 D7F8B430 		ldr	r3, [r7, #180]
 24721              	@ 352 "/home/kvv/workspace/k-car/autopilot/inc/CMSIS/core_cmInstr.h" 1
 24722 00e8 1CBA     		rev r4, r3
 24723              	@ 0 "" 2
 24724              		.thumb
 24725 00ea C7F8B040 		str	r4, [r7, #176]
 24726              		.loc 7 353 0
 24727 00ee D7F8B030 		ldr	r3, [r7, #176]
 24728              	.LBE133:
 24729              	.LBE132:
 24730              		.loc 1 124 0
 24731 00f2 7B63     		str	r3, [r7, #52]
 125:../inc/STM32F4xx_StdPeriph_Driver/src/stm32f4xx_cryp_aes.c ****     break;
 24732              		.loc 1 125 0
 24733 00f4 E6E0     		b	.L6
 24734              	.L4:
 126:../inc/STM32F4xx_StdPeriph_Driver/src/stm32f4xx_cryp_aes.c ****     case 192:
 127:../inc/STM32F4xx_StdPeriph_Driver/src/stm32f4xx_cryp_aes.c ****     AES_CRYP_InitStructure.CRYP_KeySize  = CRYP_KeySize_192b;
 24735              		.loc 1 127 0
 24736 00f6 4FF48073 		mov	r3, #256
 24737 00fa FB87     		strh	r3, [r7, #62]	@ movhi
 128:../inc/STM32F4xx_StdPeriph_Driver/src/stm32f4xx_cryp_aes.c ****     AES_CRYP_KeyInitStructure.CRYP_Key1Left = __REV(*(uint32_t*)(keyaddr));
 24738              		.loc 1 128 0
 24739 00fc D7F8D030 		ldr	r3, [r7, #208]
 24740 0100 1B68     		ldr	r3, [r3, #0]
 24741 0102 C7F8AC30 		str	r3, [r7, #172]
 24742              	.LBB134:
 24743              	.LBB135:
 352:/home/kvv/workspace/k-car/autopilot/inc/CMSIS/core_cmInstr.h ****   __ASM volatile ("rev %0, %1" : "=r" (result) : "r" (value) );
 24744              		.loc 7 352 0
 24745 0106 D7F8AC30 		ldr	r3, [r7, #172]
 24746              	@ 352 "/home/kvv/workspace/k-car/autopilot/inc/CMSIS/core_cmInstr.h" 1
 24747 010a 1CBA     		rev r4, r3
 24748              	@ 0 "" 2
 24749              		.thumb
 24750 010c C7F8A840 		str	r4, [r7, #168]
 24751              		.loc 7 353 0
 24752 0110 D7F8A830 		ldr	r3, [r7, #168]
 24753              	.LBE135:
 24754              	.LBE134:
 24755              		.loc 1 128 0
 24756 0114 3B62     		str	r3, [r7, #32]
 129:../inc/STM32F4xx_StdPeriph_Driver/src/stm32f4xx_cryp_aes.c ****     keyaddr+=4;
 24757              		.loc 1 129 0
 24758 0116 D7F8D030 		ldr	r3, [r7, #208]
 24759 011a 03F10403 		add	r3, r3, #4
 24760 011e C7F8D030 		str	r3, [r7, #208]
 130:../inc/STM32F4xx_StdPeriph_Driver/src/stm32f4xx_cryp_aes.c ****     AES_CRYP_KeyInitStructure.CRYP_Key1Right= __REV(*(uint32_t*)(keyaddr));
 24761              		.loc 1 130 0
 24762 0122 D7F8D030 		ldr	r3, [r7, #208]
 24763 0126 1B68     		ldr	r3, [r3, #0]
 24764 0128 C7F8A430 		str	r3, [r7, #164]
 24765              	.LBB136:
 24766              	.LBB137:
 352:/home/kvv/workspace/k-car/autopilot/inc/CMSIS/core_cmInstr.h ****   __ASM volatile ("rev %0, %1" : "=r" (result) : "r" (value) );
 24767              		.loc 7 352 0
 24768 012c D7F8A430 		ldr	r3, [r7, #164]
 24769              	@ 352 "/home/kvv/workspace/k-car/autopilot/inc/CMSIS/core_cmInstr.h" 1
 24770 0130 1CBA     		rev r4, r3
 24771              	@ 0 "" 2
 24772              		.thumb
 24773 0132 C7F8A040 		str	r4, [r7, #160]
 24774              		.loc 7 353 0
 24775 0136 D7F8A030 		ldr	r3, [r7, #160]
 24776              	.LBE137:
 24777              	.LBE136:
 24778              		.loc 1 130 0
 24779 013a 7B62     		str	r3, [r7, #36]
 131:../inc/STM32F4xx_StdPeriph_Driver/src/stm32f4xx_cryp_aes.c ****     keyaddr+=4;
 24780              		.loc 1 131 0
 24781 013c D7F8D030 		ldr	r3, [r7, #208]
 24782 0140 03F10403 		add	r3, r3, #4
 24783 0144 C7F8D030 		str	r3, [r7, #208]
 132:../inc/STM32F4xx_StdPeriph_Driver/src/stm32f4xx_cryp_aes.c ****     AES_CRYP_KeyInitStructure.CRYP_Key2Left = __REV(*(uint32_t*)(keyaddr));
 24784              		.loc 1 132 0
 24785 0148 D7F8D030 		ldr	r3, [r7, #208]
 24786 014c 1B68     		ldr	r3, [r3, #0]
 24787 014e C7F89C30 		str	r3, [r7, #156]
 24788              	.LBB138:
 24789              	.LBB139:
 352:/home/kvv/workspace/k-car/autopilot/inc/CMSIS/core_cmInstr.h ****   __ASM volatile ("rev %0, %1" : "=r" (result) : "r" (value) );
 24790              		.loc 7 352 0
 24791 0152 D7F89C30 		ldr	r3, [r7, #156]
 24792              	@ 352 "/home/kvv/workspace/k-car/autopilot/inc/CMSIS/core_cmInstr.h" 1
 24793 0156 1CBA     		rev r4, r3
 24794              	@ 0 "" 2
 24795              		.thumb
 24796 0158 C7F89840 		str	r4, [r7, #152]
 24797              		.loc 7 353 0
 24798 015c D7F89830 		ldr	r3, [r7, #152]
 24799              	.LBE139:
 24800              	.LBE138:
 24801              		.loc 1 132 0
 24802 0160 BB62     		str	r3, [r7, #40]
 133:../inc/STM32F4xx_StdPeriph_Driver/src/stm32f4xx_cryp_aes.c ****     keyaddr+=4;
 24803              		.loc 1 133 0
 24804 0162 D7F8D030 		ldr	r3, [r7, #208]
 24805 0166 03F10403 		add	r3, r3, #4
 24806 016a C7F8D030 		str	r3, [r7, #208]
 134:../inc/STM32F4xx_StdPeriph_Driver/src/stm32f4xx_cryp_aes.c ****     AES_CRYP_KeyInitStructure.CRYP_Key2Right= __REV(*(uint32_t*)(keyaddr));
 24807              		.loc 1 134 0
 24808 016e D7F8D030 		ldr	r3, [r7, #208]
 24809 0172 1B68     		ldr	r3, [r3, #0]
 24810 0174 C7F89430 		str	r3, [r7, #148]
 24811              	.LBB140:
 24812              	.LBB141:
 352:/home/kvv/workspace/k-car/autopilot/inc/CMSIS/core_cmInstr.h ****   __ASM volatile ("rev %0, %1" : "=r" (result) : "r" (value) );
 24813              		.loc 7 352 0
 24814 0178 D7F89430 		ldr	r3, [r7, #148]
 24815              	@ 352 "/home/kvv/workspace/k-car/autopilot/inc/CMSIS/core_cmInstr.h" 1
 24816 017c 1CBA     		rev r4, r3
 24817              	@ 0 "" 2
 24818              		.thumb
 24819 017e C7F89040 		str	r4, [r7, #144]
 24820              		.loc 7 353 0
 24821 0182 D7F89030 		ldr	r3, [r7, #144]
 24822              	.LBE141:
 24823              	.LBE140:
 24824              		.loc 1 134 0
 24825 0186 FB62     		str	r3, [r7, #44]
 135:../inc/STM32F4xx_StdPeriph_Driver/src/stm32f4xx_cryp_aes.c ****     keyaddr+=4;
 24826              		.loc 1 135 0
 24827 0188 D7F8D030 		ldr	r3, [r7, #208]
 24828 018c 03F10403 		add	r3, r3, #4
 24829 0190 C7F8D030 		str	r3, [r7, #208]
 136:../inc/STM32F4xx_StdPeriph_Driver/src/stm32f4xx_cryp_aes.c ****     AES_CRYP_KeyInitStructure.CRYP_Key3Left = __REV(*(uint32_t*)(keyaddr));
 24830              		.loc 1 136 0
 24831 0194 D7F8D030 		ldr	r3, [r7, #208]
 24832 0198 1B68     		ldr	r3, [r3, #0]
 24833 019a C7F88C30 		str	r3, [r7, #140]
 24834              	.LBB142:
 24835              	.LBB143:
 352:/home/kvv/workspace/k-car/autopilot/inc/CMSIS/core_cmInstr.h ****   __ASM volatile ("rev %0, %1" : "=r" (result) : "r" (value) );
 24836              		.loc 7 352 0
 24837 019e D7F88C30 		ldr	r3, [r7, #140]
 24838              	@ 352 "/home/kvv/workspace/k-car/autopilot/inc/CMSIS/core_cmInstr.h" 1
 24839 01a2 1CBA     		rev r4, r3
 24840              	@ 0 "" 2
 24841              		.thumb
 24842 01a4 C7F88840 		str	r4, [r7, #136]
 24843              		.loc 7 353 0
 24844 01a8 D7F88830 		ldr	r3, [r7, #136]
 24845              	.LBE143:
 24846              	.LBE142:
 24847              		.loc 1 136 0
 24848 01ac 3B63     		str	r3, [r7, #48]
 137:../inc/STM32F4xx_StdPeriph_Driver/src/stm32f4xx_cryp_aes.c ****     keyaddr+=4;
 24849              		.loc 1 137 0
 24850 01ae D7F8D030 		ldr	r3, [r7, #208]
 24851 01b2 03F10403 		add	r3, r3, #4
 24852 01b6 C7F8D030 		str	r3, [r7, #208]
 138:../inc/STM32F4xx_StdPeriph_Driver/src/stm32f4xx_cryp_aes.c ****     AES_CRYP_KeyInitStructure.CRYP_Key3Right= __REV(*(uint32_t*)(keyaddr));
 24853              		.loc 1 138 0
 24854 01ba D7F8D030 		ldr	r3, [r7, #208]
 24855 01be 1B68     		ldr	r3, [r3, #0]
 24856 01c0 C7F88430 		str	r3, [r7, #132]
 24857              	.LBB144:
 24858              	.LBB145:
 352:/home/kvv/workspace/k-car/autopilot/inc/CMSIS/core_cmInstr.h ****   __ASM volatile ("rev %0, %1" : "=r" (result) : "r" (value) );
 24859              		.loc 7 352 0
 24860 01c4 D7F88430 		ldr	r3, [r7, #132]
 24861              	@ 352 "/home/kvv/workspace/k-car/autopilot/inc/CMSIS/core_cmInstr.h" 1
 24862 01c8 1CBA     		rev r4, r3
 24863              	@ 0 "" 2
 24864              		.thumb
 24865 01ca C7F88040 		str	r4, [r7, #128]
 24866              		.loc 7 353 0
 24867 01ce D7F88030 		ldr	r3, [r7, #128]
 24868              	.LBE145:
 24869              	.LBE144:
 24870              		.loc 1 138 0
 24871 01d2 7B63     		str	r3, [r7, #52]
 139:../inc/STM32F4xx_StdPeriph_Driver/src/stm32f4xx_cryp_aes.c ****     break;
 24872              		.loc 1 139 0
 24873 01d4 76E0     		b	.L6
 24874              	.L5:
 140:../inc/STM32F4xx_StdPeriph_Driver/src/stm32f4xx_cryp_aes.c ****     case 256:
 141:../inc/STM32F4xx_StdPeriph_Driver/src/stm32f4xx_cryp_aes.c ****     AES_CRYP_InitStructure.CRYP_KeySize  = CRYP_KeySize_256b;
 24875              		.loc 1 141 0
 24876 01d6 4FF40073 		mov	r3, #512
 24877 01da FB87     		strh	r3, [r7, #62]	@ movhi
 142:../inc/STM32F4xx_StdPeriph_Driver/src/stm32f4xx_cryp_aes.c ****     AES_CRYP_KeyInitStructure.CRYP_Key0Left = __REV(*(uint32_t*)(keyaddr));
 24878              		.loc 1 142 0
 24879 01dc D7F8D030 		ldr	r3, [r7, #208]
 24880 01e0 1B68     		ldr	r3, [r3, #0]
 24881 01e2 FB67     		str	r3, [r7, #124]
 24882              	.LBB146:
 24883              	.LBB147:
 352:/home/kvv/workspace/k-car/autopilot/inc/CMSIS/core_cmInstr.h ****   __ASM volatile ("rev %0, %1" : "=r" (result) : "r" (value) );
 24884              		.loc 7 352 0
 24885 01e4 FB6F     		ldr	r3, [r7, #124]
 24886              	@ 352 "/home/kvv/workspace/k-car/autopilot/inc/CMSIS/core_cmInstr.h" 1
 24887 01e6 1CBA     		rev r4, r3
 24888              	@ 0 "" 2
 24889              		.thumb
 24890 01e8 BC67     		str	r4, [r7, #120]
 24891              		.loc 7 353 0
 24892 01ea BB6F     		ldr	r3, [r7, #120]
 24893              	.LBE147:
 24894              	.LBE146:
 24895              		.loc 1 142 0
 24896 01ec BB61     		str	r3, [r7, #24]
 143:../inc/STM32F4xx_StdPeriph_Driver/src/stm32f4xx_cryp_aes.c ****     keyaddr+=4;
 24897              		.loc 1 143 0
 24898 01ee D7F8D030 		ldr	r3, [r7, #208]
 24899 01f2 03F10403 		add	r3, r3, #4
 24900 01f6 C7F8D030 		str	r3, [r7, #208]
 144:../inc/STM32F4xx_StdPeriph_Driver/src/stm32f4xx_cryp_aes.c ****     AES_CRYP_KeyInitStructure.CRYP_Key0Right= __REV(*(uint32_t*)(keyaddr));
 24901              		.loc 1 144 0
 24902 01fa D7F8D030 		ldr	r3, [r7, #208]
 24903 01fe 1B68     		ldr	r3, [r3, #0]
 24904 0200 7B67     		str	r3, [r7, #116]
 24905              	.LBB148:
 24906              	.LBB149:
 352:/home/kvv/workspace/k-car/autopilot/inc/CMSIS/core_cmInstr.h ****   __ASM volatile ("rev %0, %1" : "=r" (result) : "r" (value) );
 24907              		.loc 7 352 0
 24908 0202 7B6F     		ldr	r3, [r7, #116]
 24909              	@ 352 "/home/kvv/workspace/k-car/autopilot/inc/CMSIS/core_cmInstr.h" 1
 24910 0204 1CBA     		rev r4, r3
 24911              	@ 0 "" 2
 24912              		.thumb
 24913 0206 3C67     		str	r4, [r7, #112]
 24914              		.loc 7 353 0
 24915 0208 3B6F     		ldr	r3, [r7, #112]
 24916              	.LBE149:
 24917              	.LBE148:
 24918              		.loc 1 144 0
 24919 020a FB61     		str	r3, [r7, #28]
 145:../inc/STM32F4xx_StdPeriph_Driver/src/stm32f4xx_cryp_aes.c ****     keyaddr+=4;
 24920              		.loc 1 145 0
 24921 020c D7F8D030 		ldr	r3, [r7, #208]
 24922 0210 03F10403 		add	r3, r3, #4
 24923 0214 C7F8D030 		str	r3, [r7, #208]
 146:../inc/STM32F4xx_StdPeriph_Driver/src/stm32f4xx_cryp_aes.c ****     AES_CRYP_KeyInitStructure.CRYP_Key1Left = __REV(*(uint32_t*)(keyaddr));
 24924              		.loc 1 146 0
 24925 0218 D7F8D030 		ldr	r3, [r7, #208]
 24926 021c 1B68     		ldr	r3, [r3, #0]
 24927 021e FB66     		str	r3, [r7, #108]
 24928              	.LBB150:
 24929              	.LBB151:
 352:/home/kvv/workspace/k-car/autopilot/inc/CMSIS/core_cmInstr.h ****   __ASM volatile ("rev %0, %1" : "=r" (result) : "r" (value) );
 24930              		.loc 7 352 0
 24931 0220 FB6E     		ldr	r3, [r7, #108]
 24932              	@ 352 "/home/kvv/workspace/k-car/autopilot/inc/CMSIS/core_cmInstr.h" 1
 24933 0222 1CBA     		rev r4, r3
 24934              	@ 0 "" 2
 24935              		.thumb
 24936 0224 BC66     		str	r4, [r7, #104]
 24937              		.loc 7 353 0
 24938 0226 BB6E     		ldr	r3, [r7, #104]
 24939              	.LBE151:
 24940              	.LBE150:
 24941              		.loc 1 146 0
 24942 0228 3B62     		str	r3, [r7, #32]
 147:../inc/STM32F4xx_StdPeriph_Driver/src/stm32f4xx_cryp_aes.c ****     keyaddr+=4;
 24943              		.loc 1 147 0
 24944 022a D7F8D030 		ldr	r3, [r7, #208]
 24945 022e 03F10403 		add	r3, r3, #4
 24946 0232 C7F8D030 		str	r3, [r7, #208]
 148:../inc/STM32F4xx_StdPeriph_Driver/src/stm32f4xx_cryp_aes.c ****     AES_CRYP_KeyInitStructure.CRYP_Key1Right= __REV(*(uint32_t*)(keyaddr));
 24947              		.loc 1 148 0
 24948 0236 D7F8D030 		ldr	r3, [r7, #208]
 24949 023a 1B68     		ldr	r3, [r3, #0]
 24950 023c 7B66     		str	r3, [r7, #100]
 24951              	.LBB152:
 24952              	.LBB153:
 352:/home/kvv/workspace/k-car/autopilot/inc/CMSIS/core_cmInstr.h ****   __ASM volatile ("rev %0, %1" : "=r" (result) : "r" (value) );
 24953              		.loc 7 352 0
 24954 023e 7B6E     		ldr	r3, [r7, #100]
 24955              	@ 352 "/home/kvv/workspace/k-car/autopilot/inc/CMSIS/core_cmInstr.h" 1
 24956 0240 1CBA     		rev r4, r3
 24957              	@ 0 "" 2
 24958              		.thumb
 24959 0242 3C66     		str	r4, [r7, #96]
 24960              		.loc 7 353 0
 24961 0244 3B6E     		ldr	r3, [r7, #96]
 24962              	.LBE153:
 24963              	.LBE152:
 24964              		.loc 1 148 0
 24965 0246 7B62     		str	r3, [r7, #36]
 149:../inc/STM32F4xx_StdPeriph_Driver/src/stm32f4xx_cryp_aes.c ****     keyaddr+=4;
 24966              		.loc 1 149 0
 24967 0248 D7F8D030 		ldr	r3, [r7, #208]
 24968 024c 03F10403 		add	r3, r3, #4
 24969 0250 C7F8D030 		str	r3, [r7, #208]
 150:../inc/STM32F4xx_StdPeriph_Driver/src/stm32f4xx_cryp_aes.c ****     AES_CRYP_KeyInitStructure.CRYP_Key2Left = __REV(*(uint32_t*)(keyaddr));
 24970              		.loc 1 150 0
 24971 0254 D7F8D030 		ldr	r3, [r7, #208]
 24972 0258 1B68     		ldr	r3, [r3, #0]
 24973 025a FB65     		str	r3, [r7, #92]
 24974              	.LBB154:
 24975              	.LBB155:
 352:/home/kvv/workspace/k-car/autopilot/inc/CMSIS/core_cmInstr.h ****   __ASM volatile ("rev %0, %1" : "=r" (result) : "r" (value) );
 24976              		.loc 7 352 0
 24977 025c FB6D     		ldr	r3, [r7, #92]
 24978              	@ 352 "/home/kvv/workspace/k-car/autopilot/inc/CMSIS/core_cmInstr.h" 1
 24979 025e 1CBA     		rev r4, r3
 24980              	@ 0 "" 2
 24981              		.thumb
 24982 0260 BC65     		str	r4, [r7, #88]
 24983              		.loc 7 353 0
 24984 0262 BB6D     		ldr	r3, [r7, #88]
 24985              	.LBE155:
 24986              	.LBE154:
 24987              		.loc 1 150 0
 24988 0264 BB62     		str	r3, [r7, #40]
 151:../inc/STM32F4xx_StdPeriph_Driver/src/stm32f4xx_cryp_aes.c ****     keyaddr+=4;
 24989              		.loc 1 151 0
 24990 0266 D7F8D030 		ldr	r3, [r7, #208]
 24991 026a 03F10403 		add	r3, r3, #4
 24992 026e C7F8D030 		str	r3, [r7, #208]
 152:../inc/STM32F4xx_StdPeriph_Driver/src/stm32f4xx_cryp_aes.c ****     AES_CRYP_KeyInitStructure.CRYP_Key2Right= __REV(*(uint32_t*)(keyaddr));
 24993              		.loc 1 152 0
 24994 0272 D7F8D030 		ldr	r3, [r7, #208]
 24995 0276 1B68     		ldr	r3, [r3, #0]
 24996 0278 7B65     		str	r3, [r7, #84]
 24997              	.LBB156:
 24998              	.LBB157:
 352:/home/kvv/workspace/k-car/autopilot/inc/CMSIS/core_cmInstr.h ****   __ASM volatile ("rev %0, %1" : "=r" (result) : "r" (value) );
 24999              		.loc 7 352 0
 25000 027a 7B6D     		ldr	r3, [r7, #84]
 25001              	@ 352 "/home/kvv/workspace/k-car/autopilot/inc/CMSIS/core_cmInstr.h" 1
 25002 027c 1CBA     		rev r4, r3
 25003              	@ 0 "" 2
 25004              		.thumb
 25005 027e 3C65     		str	r4, [r7, #80]
 25006              		.loc 7 353 0
 25007 0280 3B6D     		ldr	r3, [r7, #80]
 25008              	.LBE157:
 25009              	.LBE156:
 25010              		.loc 1 152 0
 25011 0282 FB62     		str	r3, [r7, #44]
 153:../inc/STM32F4xx_StdPeriph_Driver/src/stm32f4xx_cryp_aes.c ****     keyaddr+=4;
 25012              		.loc 1 153 0
 25013 0284 D7F8D030 		ldr	r3, [r7, #208]
 25014 0288 03F10403 		add	r3, r3, #4
 25015 028c C7F8D030 		str	r3, [r7, #208]
 154:../inc/STM32F4xx_StdPeriph_Driver/src/stm32f4xx_cryp_aes.c ****     AES_CRYP_KeyInitStructure.CRYP_Key3Left = __REV(*(uint32_t*)(keyaddr));
 25016              		.loc 1 154 0
 25017 0290 D7F8D030 		ldr	r3, [r7, #208]
 25018 0294 1B68     		ldr	r3, [r3, #0]
 25019 0296 FB64     		str	r3, [r7, #76]
 25020              	.LBB158:
 25021              	.LBB159:
 352:/home/kvv/workspace/k-car/autopilot/inc/CMSIS/core_cmInstr.h ****   __ASM volatile ("rev %0, %1" : "=r" (result) : "r" (value) );
 25022              		.loc 7 352 0
 25023 0298 FB6C     		ldr	r3, [r7, #76]
 25024              	@ 352 "/home/kvv/workspace/k-car/autopilot/inc/CMSIS/core_cmInstr.h" 1
 25025 029a 1CBA     		rev r4, r3
 25026              	@ 0 "" 2
 25027              		.thumb
 25028 029c BC64     		str	r4, [r7, #72]
 25029              		.loc 7 353 0
 25030 029e BB6C     		ldr	r3, [r7, #72]
 25031              	.LBE159:
 25032              	.LBE158:
 25033              		.loc 1 154 0
 25034 02a0 3B63     		str	r3, [r7, #48]
 155:../inc/STM32F4xx_StdPeriph_Driver/src/stm32f4xx_cryp_aes.c ****     keyaddr+=4;
 25035              		.loc 1 155 0
 25036 02a2 D7F8D030 		ldr	r3, [r7, #208]
 25037 02a6 03F10403 		add	r3, r3, #4
 25038 02aa C7F8D030 		str	r3, [r7, #208]
 156:../inc/STM32F4xx_StdPeriph_Driver/src/stm32f4xx_cryp_aes.c ****     AES_CRYP_KeyInitStructure.CRYP_Key3Right= __REV(*(uint32_t*)(keyaddr));
 25039              		.loc 1 156 0
 25040 02ae D7F8D030 		ldr	r3, [r7, #208]
 25041 02b2 1B68     		ldr	r3, [r3, #0]
 25042 02b4 7B64     		str	r3, [r7, #68]
 25043              	.LBB160:
 25044              	.LBB161:
 352:/home/kvv/workspace/k-car/autopilot/inc/CMSIS/core_cmInstr.h ****   __ASM volatile ("rev %0, %1" : "=r" (result) : "r" (value) );
 25045              		.loc 7 352 0
 25046 02b6 7B6C     		ldr	r3, [r7, #68]
 25047              	@ 352 "/home/kvv/workspace/k-car/autopilot/inc/CMSIS/core_cmInstr.h" 1
 25048 02b8 1CBA     		rev r4, r3
 25049              	@ 0 "" 2
 25050              		.thumb
 25051 02ba 3C64     		str	r4, [r7, #64]
 25052              		.loc 7 353 0
 25053 02bc 3B6C     		ldr	r3, [r7, #64]
 25054              	.LBE161:
 25055              	.LBE160:
 25056              		.loc 1 156 0
 25057 02be 7B63     		str	r3, [r7, #52]
 157:../inc/STM32F4xx_StdPeriph_Driver/src/stm32f4xx_cryp_aes.c ****     break;
 25058              		.loc 1 157 0
 25059 02c0 00E0     		b	.L6
 25060              	.L19:
 158:../inc/STM32F4xx_StdPeriph_Driver/src/stm32f4xx_cryp_aes.c ****     default:
 159:../inc/STM32F4xx_StdPeriph_Driver/src/stm32f4xx_cryp_aes.c ****     break;
 25061              		.loc 1 159 0
 25062 02c2 00BF     		nop
 25063              	.L6:
 160:../inc/STM32F4xx_StdPeriph_Driver/src/stm32f4xx_cryp_aes.c ****   }
 161:../inc/STM32F4xx_StdPeriph_Driver/src/stm32f4xx_cryp_aes.c **** 
 162:../inc/STM32F4xx_StdPeriph_Driver/src/stm32f4xx_cryp_aes.c ****   /*------------------ AES Decryption ------------------*/
 163:../inc/STM32F4xx_StdPeriph_Driver/src/stm32f4xx_cryp_aes.c ****   if(Mode == MODE_DECRYPT) /* AES decryption */
 25064              		.loc 1 163 0
 25065 02c4 FB7B     		ldrb	r3, [r7, #15]	@ zero_extendqisi2
 25066 02c6 002B     		cmp	r3, #0
 25067 02c8 38D1     		bne	.L7
 164:../inc/STM32F4xx_StdPeriph_Driver/src/stm32f4xx_cryp_aes.c ****   {
 165:../inc/STM32F4xx_StdPeriph_Driver/src/stm32f4xx_cryp_aes.c ****     /* Flush IN/OUT FIFOs */
 166:../inc/STM32F4xx_StdPeriph_Driver/src/stm32f4xx_cryp_aes.c ****     CRYP_FIFOFlush();
 25068              		.loc 1 166 0
 25069 02ca FFF7FEFF 		bl	CRYP_FIFOFlush
 167:../inc/STM32F4xx_StdPeriph_Driver/src/stm32f4xx_cryp_aes.c **** 
 168:../inc/STM32F4xx_StdPeriph_Driver/src/stm32f4xx_cryp_aes.c ****     /* Crypto Init for Key preparation for decryption process */
 169:../inc/STM32F4xx_StdPeriph_Driver/src/stm32f4xx_cryp_aes.c ****     AES_CRYP_InitStructure.CRYP_AlgoDir = CRYP_AlgoDir_Decrypt;
 25070              		.loc 1 169 0
 25071 02ce 4FF00403 		mov	r3, #4
 25072 02d2 3B87     		strh	r3, [r7, #56]	@ movhi
 170:../inc/STM32F4xx_StdPeriph_Driver/src/stm32f4xx_cryp_aes.c ****     AES_CRYP_InitStructure.CRYP_AlgoMode = CRYP_AlgoMode_AES_Key;
 25073              		.loc 1 170 0
 25074 02d4 4FF03803 		mov	r3, #56
 25075 02d8 7B87     		strh	r3, [r7, #58]	@ movhi
 171:../inc/STM32F4xx_StdPeriph_Driver/src/stm32f4xx_cryp_aes.c ****     AES_CRYP_InitStructure.CRYP_DataType = CRYP_DataType_32b;
 25076              		.loc 1 171 0
 25077 02da 4FF00003 		mov	r3, #0
 25078 02de BB87     		strh	r3, [r7, #60]	@ movhi
 172:../inc/STM32F4xx_StdPeriph_Driver/src/stm32f4xx_cryp_aes.c ****     CRYP_Init(&AES_CRYP_InitStructure);
 25079              		.loc 1 172 0
 25080 02e0 07F13803 		add	r3, r7, #56
 25081 02e4 1846     		mov	r0, r3
 25082 02e6 FFF7FEFF 		bl	CRYP_Init
 173:../inc/STM32F4xx_StdPeriph_Driver/src/stm32f4xx_cryp_aes.c **** 
 174:../inc/STM32F4xx_StdPeriph_Driver/src/stm32f4xx_cryp_aes.c ****     /* Key Initialisation */
 175:../inc/STM32F4xx_StdPeriph_Driver/src/stm32f4xx_cryp_aes.c ****     CRYP_KeyInit(&AES_CRYP_KeyInitStructure);
 25083              		.loc 1 175 0
 25084 02ea 07F11803 		add	r3, r7, #24
 25085 02ee 1846     		mov	r0, r3
 25086 02f0 FFF7FEFF 		bl	CRYP_KeyInit
 176:../inc/STM32F4xx_StdPeriph_Driver/src/stm32f4xx_cryp_aes.c **** 
 177:../inc/STM32F4xx_StdPeriph_Driver/src/stm32f4xx_cryp_aes.c ****     /* Enable Crypto processor */
 178:../inc/STM32F4xx_StdPeriph_Driver/src/stm32f4xx_cryp_aes.c ****     CRYP_Cmd(ENABLE);
 25087              		.loc 1 178 0
 25088 02f4 4FF00100 		mov	r0, #1
 25089 02f8 FFF7FEFF 		bl	CRYP_Cmd
 25090              	.L9:
 179:../inc/STM32F4xx_StdPeriph_Driver/src/stm32f4xx_cryp_aes.c **** 
 180:../inc/STM32F4xx_StdPeriph_Driver/src/stm32f4xx_cryp_aes.c ****     /* wait until the Busy flag is RESET */
 181:../inc/STM32F4xx_StdPeriph_Driver/src/stm32f4xx_cryp_aes.c ****     do
 182:../inc/STM32F4xx_StdPeriph_Driver/src/stm32f4xx_cryp_aes.c ****     {
 183:../inc/STM32F4xx_StdPeriph_Driver/src/stm32f4xx_cryp_aes.c ****       busystatus = CRYP_GetFlagStatus(CRYP_FLAG_BUSY);
 25091              		.loc 1 183 0 discriminator 1
 25092 02fc 4FF01000 		mov	r0, #16
 25093 0300 FFF7FEFF 		bl	CRYP_GetFlagStatus
 25094 0304 0346     		mov	r3, r0
 25095 0306 C7F8D430 		str	r3, [r7, #212]
 184:../inc/STM32F4xx_StdPeriph_Driver/src/stm32f4xx_cryp_aes.c ****       counter++;
 25096              		.loc 1 184 0 discriminator 1
 25097 030a 7B69     		ldr	r3, [r7, #20]
 25098 030c 03F10103 		add	r3, r3, #1
 25099 0310 7B61     		str	r3, [r7, #20]
 185:../inc/STM32F4xx_StdPeriph_Driver/src/stm32f4xx_cryp_aes.c ****     }while ((counter != AESBUSY_TIMEOUT) && (busystatus != RESET));
 25100              		.loc 1 185 0 discriminator 1
 25101 0312 7B69     		ldr	r3, [r7, #20]
 25102 0314 B3F5803F 		cmp	r3, #65536
 25103 0318 03D0     		beq	.L8
 25104 031a D7F8D430 		ldr	r3, [r7, #212]
 25105 031e 002B     		cmp	r3, #0
 25106 0320 ECD1     		bne	.L9
 25107              	.L8:
 186:../inc/STM32F4xx_StdPeriph_Driver/src/stm32f4xx_cryp_aes.c **** 
 187:../inc/STM32F4xx_StdPeriph_Driver/src/stm32f4xx_cryp_aes.c ****     if (busystatus != RESET)
 25108              		.loc 1 187 0
 25109 0322 D7F8D430 		ldr	r3, [r7, #212]
 25110 0326 002B     		cmp	r3, #0
 25111 0328 04D0     		beq	.L10
 188:../inc/STM32F4xx_StdPeriph_Driver/src/stm32f4xx_cryp_aes.c ****    {
 189:../inc/STM32F4xx_StdPeriph_Driver/src/stm32f4xx_cryp_aes.c ****        status = ERROR;
 25112              		.loc 1 189 0
 25113 032a 4FF00003 		mov	r3, #0
 25114 032e 87F8E730 		strb	r3, [r7, #231]
 25115 0332 0BE0     		b	.L11
 25116              	.L10:
 190:../inc/STM32F4xx_StdPeriph_Driver/src/stm32f4xx_cryp_aes.c ****     }
 191:../inc/STM32F4xx_StdPeriph_Driver/src/stm32f4xx_cryp_aes.c ****     else
 192:../inc/STM32F4xx_StdPeriph_Driver/src/stm32f4xx_cryp_aes.c ****     {
 193:../inc/STM32F4xx_StdPeriph_Driver/src/stm32f4xx_cryp_aes.c ****       /* Crypto Init for decryption process */  
 194:../inc/STM32F4xx_StdPeriph_Driver/src/stm32f4xx_cryp_aes.c ****       AES_CRYP_InitStructure.CRYP_AlgoDir = CRYP_AlgoDir_Decrypt;
 25117              		.loc 1 194 0
 25118 0334 4FF00403 		mov	r3, #4
 25119 0338 3B87     		strh	r3, [r7, #56]	@ movhi
 25120 033a 07E0     		b	.L11
 25121              	.L7:
 195:../inc/STM32F4xx_StdPeriph_Driver/src/stm32f4xx_cryp_aes.c ****     }
 196:../inc/STM32F4xx_StdPeriph_Driver/src/stm32f4xx_cryp_aes.c ****   }
 197:../inc/STM32F4xx_StdPeriph_Driver/src/stm32f4xx_cryp_aes.c ****   /*------------------ AES Encryption ------------------*/
 198:../inc/STM32F4xx_StdPeriph_Driver/src/stm32f4xx_cryp_aes.c ****   else /* AES encryption */
 199:../inc/STM32F4xx_StdPeriph_Driver/src/stm32f4xx_cryp_aes.c ****   {
 200:../inc/STM32F4xx_StdPeriph_Driver/src/stm32f4xx_cryp_aes.c **** 
 201:../inc/STM32F4xx_StdPeriph_Driver/src/stm32f4xx_cryp_aes.c ****     CRYP_KeyInit(&AES_CRYP_KeyInitStructure);
 25122              		.loc 1 201 0
 25123 033c 07F11803 		add	r3, r7, #24
 25124 0340 1846     		mov	r0, r3
 25125 0342 FFF7FEFF 		bl	CRYP_KeyInit
 202:../inc/STM32F4xx_StdPeriph_Driver/src/stm32f4xx_cryp_aes.c **** 
 203:../inc/STM32F4xx_StdPeriph_Driver/src/stm32f4xx_cryp_aes.c ****     /* Crypto Init for Encryption process */
 204:../inc/STM32F4xx_StdPeriph_Driver/src/stm32f4xx_cryp_aes.c ****     AES_CRYP_InitStructure.CRYP_AlgoDir  = CRYP_AlgoDir_Encrypt;
 25126              		.loc 1 204 0
 25127 0346 4FF00003 		mov	r3, #0
 25128 034a 3B87     		strh	r3, [r7, #56]	@ movhi
 25129              	.L11:
 205:../inc/STM32F4xx_StdPeriph_Driver/src/stm32f4xx_cryp_aes.c ****   }
 206:../inc/STM32F4xx_StdPeriph_Driver/src/stm32f4xx_cryp_aes.c **** 
 207:../inc/STM32F4xx_StdPeriph_Driver/src/stm32f4xx_cryp_aes.c ****   AES_CRYP_InitStructure.CRYP_AlgoMode = CRYP_AlgoMode_AES_ECB;
 25130              		.loc 1 207 0
 25131 034c 4FF02003 		mov	r3, #32
 25132 0350 7B87     		strh	r3, [r7, #58]	@ movhi
 208:../inc/STM32F4xx_StdPeriph_Driver/src/stm32f4xx_cryp_aes.c ****   AES_CRYP_InitStructure.CRYP_DataType = CRYP_DataType_8b;
 25133              		.loc 1 208 0
 25134 0352 4FF08003 		mov	r3, #128
 25135 0356 BB87     		strh	r3, [r7, #60]	@ movhi
 209:../inc/STM32F4xx_StdPeriph_Driver/src/stm32f4xx_cryp_aes.c ****   CRYP_Init(&AES_CRYP_InitStructure);
 25136              		.loc 1 209 0
 25137 0358 07F13803 		add	r3, r7, #56
 25138 035c 1846     		mov	r0, r3
 25139 035e FFF7FEFF 		bl	CRYP_Init
 210:../inc/STM32F4xx_StdPeriph_Driver/src/stm32f4xx_cryp_aes.c **** 
 211:../inc/STM32F4xx_StdPeriph_Driver/src/stm32f4xx_cryp_aes.c ****   /* Flush IN/OUT FIFOs */
 212:../inc/STM32F4xx_StdPeriph_Driver/src/stm32f4xx_cryp_aes.c ****   CRYP_FIFOFlush();
 25140              		.loc 1 212 0
 25141 0362 FFF7FEFF 		bl	CRYP_FIFOFlush
 213:../inc/STM32F4xx_StdPeriph_Driver/src/stm32f4xx_cryp_aes.c **** 
 214:../inc/STM32F4xx_StdPeriph_Driver/src/stm32f4xx_cryp_aes.c ****   /* Enable Crypto processor */
 215:../inc/STM32F4xx_StdPeriph_Driver/src/stm32f4xx_cryp_aes.c ****   CRYP_Cmd(ENABLE);
 25142              		.loc 1 215 0
 25143 0366 4FF00100 		mov	r0, #1
 25144 036a FFF7FEFF 		bl	CRYP_Cmd
 216:../inc/STM32F4xx_StdPeriph_Driver/src/stm32f4xx_cryp_aes.c **** 
 217:../inc/STM32F4xx_StdPeriph_Driver/src/stm32f4xx_cryp_aes.c ****   for(i=0; ((i<Ilength) && (status != ERROR)); i+=16)
 25145              		.loc 1 217 0
 25146 036e 4FF00003 		mov	r3, #0
 25147 0372 C7F8D830 		str	r3, [r7, #216]
 25148 0376 84E0     		b	.L12
 25149              	.L18:
 218:../inc/STM32F4xx_StdPeriph_Driver/src/stm32f4xx_cryp_aes.c ****   {
 219:../inc/STM32F4xx_StdPeriph_Driver/src/stm32f4xx_cryp_aes.c **** 
 220:../inc/STM32F4xx_StdPeriph_Driver/src/stm32f4xx_cryp_aes.c ****     /* Write the Input block in the IN FIFO */
 221:../inc/STM32F4xx_StdPeriph_Driver/src/stm32f4xx_cryp_aes.c ****     CRYP_DataIn(*(uint32_t*)(inputaddr));
 25150              		.loc 1 221 0
 25151 0378 D7F8E030 		ldr	r3, [r7, #224]
 25152 037c 1B68     		ldr	r3, [r3, #0]
 25153 037e 1846     		mov	r0, r3
 25154 0380 FFF7FEFF 		bl	CRYP_DataIn
 222:../inc/STM32F4xx_StdPeriph_Driver/src/stm32f4xx_cryp_aes.c ****     inputaddr+=4;
 25155              		.loc 1 222 0
 25156 0384 D7F8E030 		ldr	r3, [r7, #224]
 25157 0388 03F10403 		add	r3, r3, #4
 25158 038c C7F8E030 		str	r3, [r7, #224]
 223:../inc/STM32F4xx_StdPeriph_Driver/src/stm32f4xx_cryp_aes.c ****     CRYP_DataIn(*(uint32_t*)(inputaddr));
 25159              		.loc 1 223 0
 25160 0390 D7F8E030 		ldr	r3, [r7, #224]
 25161 0394 1B68     		ldr	r3, [r3, #0]
 25162 0396 1846     		mov	r0, r3
 25163 0398 FFF7FEFF 		bl	CRYP_DataIn
 224:../inc/STM32F4xx_StdPeriph_Driver/src/stm32f4xx_cryp_aes.c ****     inputaddr+=4;
 25164              		.loc 1 224 0
 25165 039c D7F8E030 		ldr	r3, [r7, #224]
 25166 03a0 03F10403 		add	r3, r3, #4
 25167 03a4 C7F8E030 		str	r3, [r7, #224]
 225:../inc/STM32F4xx_StdPeriph_Driver/src/stm32f4xx_cryp_aes.c ****     CRYP_DataIn(*(uint32_t*)(inputaddr));
 25168              		.loc 1 225 0
 25169 03a8 D7F8E030 		ldr	r3, [r7, #224]
 25170 03ac 1B68     		ldr	r3, [r3, #0]
 25171 03ae 1846     		mov	r0, r3
 25172 03b0 FFF7FEFF 		bl	CRYP_DataIn
 226:../inc/STM32F4xx_StdPeriph_Driver/src/stm32f4xx_cryp_aes.c ****     inputaddr+=4;
 25173              		.loc 1 226 0
 25174 03b4 D7F8E030 		ldr	r3, [r7, #224]
 25175 03b8 03F10403 		add	r3, r3, #4
 25176 03bc C7F8E030 		str	r3, [r7, #224]
 227:../inc/STM32F4xx_StdPeriph_Driver/src/stm32f4xx_cryp_aes.c ****     CRYP_DataIn(*(uint32_t*)(inputaddr));
 25177              		.loc 1 227 0
 25178 03c0 D7F8E030 		ldr	r3, [r7, #224]
 25179 03c4 1B68     		ldr	r3, [r3, #0]
 25180 03c6 1846     		mov	r0, r3
 25181 03c8 FFF7FEFF 		bl	CRYP_DataIn
 228:../inc/STM32F4xx_StdPeriph_Driver/src/stm32f4xx_cryp_aes.c ****     inputaddr+=4;
 25182              		.loc 1 228 0
 25183 03cc D7F8E030 		ldr	r3, [r7, #224]
 25184 03d0 03F10403 		add	r3, r3, #4
 25185 03d4 C7F8E030 		str	r3, [r7, #224]
 229:../inc/STM32F4xx_StdPeriph_Driver/src/stm32f4xx_cryp_aes.c **** 
 230:../inc/STM32F4xx_StdPeriph_Driver/src/stm32f4xx_cryp_aes.c ****     /* Wait until the complete message has been processed */
 231:../inc/STM32F4xx_StdPeriph_Driver/src/stm32f4xx_cryp_aes.c ****     counter = 0;
 25186              		.loc 1 231 0
 25187 03d8 4FF00003 		mov	r3, #0
 25188 03dc 7B61     		str	r3, [r7, #20]
 25189              	.L14:
 232:../inc/STM32F4xx_StdPeriph_Driver/src/stm32f4xx_cryp_aes.c ****     do
 233:../inc/STM32F4xx_StdPeriph_Driver/src/stm32f4xx_cryp_aes.c ****     {
 234:../inc/STM32F4xx_StdPeriph_Driver/src/stm32f4xx_cryp_aes.c ****       busystatus = CRYP_GetFlagStatus(CRYP_FLAG_BUSY);
 25190              		.loc 1 234 0 discriminator 1
 25191 03de 4FF01000 		mov	r0, #16
 25192 03e2 FFF7FEFF 		bl	CRYP_GetFlagStatus
 25193 03e6 0346     		mov	r3, r0
 25194 03e8 C7F8D430 		str	r3, [r7, #212]
 235:../inc/STM32F4xx_StdPeriph_Driver/src/stm32f4xx_cryp_aes.c ****       counter++;
 25195              		.loc 1 235 0 discriminator 1
 25196 03ec 7B69     		ldr	r3, [r7, #20]
 25197 03ee 03F10103 		add	r3, r3, #1
 25198 03f2 7B61     		str	r3, [r7, #20]
 236:../inc/STM32F4xx_StdPeriph_Driver/src/stm32f4xx_cryp_aes.c ****     }while ((counter != AESBUSY_TIMEOUT) && (busystatus != RESET));
 25199              		.loc 1 236 0 discriminator 1
 25200 03f4 7B69     		ldr	r3, [r7, #20]
 25201 03f6 B3F5803F 		cmp	r3, #65536
 25202 03fa 03D0     		beq	.L13
 25203 03fc D7F8D430 		ldr	r3, [r7, #212]
 25204 0400 002B     		cmp	r3, #0
 25205 0402 ECD1     		bne	.L14
 25206              	.L13:
 237:../inc/STM32F4xx_StdPeriph_Driver/src/stm32f4xx_cryp_aes.c **** 
 238:../inc/STM32F4xx_StdPeriph_Driver/src/stm32f4xx_cryp_aes.c ****     if (busystatus != RESET)
 25207              		.loc 1 238 0
 25208 0404 D7F8D430 		ldr	r3, [r7, #212]
 25209 0408 002B     		cmp	r3, #0
 25210 040a 04D0     		beq	.L15
 239:../inc/STM32F4xx_StdPeriph_Driver/src/stm32f4xx_cryp_aes.c ****    {
 240:../inc/STM32F4xx_StdPeriph_Driver/src/stm32f4xx_cryp_aes.c ****        status = ERROR;
 25211              		.loc 1 240 0
 25212 040c 4FF00003 		mov	r3, #0
 25213 0410 87F8E730 		strb	r3, [r7, #231]
 25214 0414 2FE0     		b	.L16
 25215              	.L15:
 241:../inc/STM32F4xx_StdPeriph_Driver/src/stm32f4xx_cryp_aes.c ****     }
 242:../inc/STM32F4xx_StdPeriph_Driver/src/stm32f4xx_cryp_aes.c ****     else
 243:../inc/STM32F4xx_StdPeriph_Driver/src/stm32f4xx_cryp_aes.c ****     {
 244:../inc/STM32F4xx_StdPeriph_Driver/src/stm32f4xx_cryp_aes.c **** 
 245:../inc/STM32F4xx_StdPeriph_Driver/src/stm32f4xx_cryp_aes.c ****       /* Read the Output block from the Output FIFO */
 246:../inc/STM32F4xx_StdPeriph_Driver/src/stm32f4xx_cryp_aes.c ****       *(uint32_t*)(outputaddr) = CRYP_DataOut();
 25216              		.loc 1 246 0
 25217 0416 D7F8DC40 		ldr	r4, [r7, #220]
 25218 041a FFF7FEFF 		bl	CRYP_DataOut
 25219 041e 0346     		mov	r3, r0
 25220 0420 2360     		str	r3, [r4, #0]
 247:../inc/STM32F4xx_StdPeriph_Driver/src/stm32f4xx_cryp_aes.c ****       outputaddr+=4;
 25221              		.loc 1 247 0
 25222 0422 D7F8DC30 		ldr	r3, [r7, #220]
 25223 0426 03F10403 		add	r3, r3, #4
 25224 042a C7F8DC30 		str	r3, [r7, #220]
 248:../inc/STM32F4xx_StdPeriph_Driver/src/stm32f4xx_cryp_aes.c ****       *(uint32_t*)(outputaddr) = CRYP_DataOut();
 25225              		.loc 1 248 0
 25226 042e D7F8DC40 		ldr	r4, [r7, #220]
 25227 0432 FFF7FEFF 		bl	CRYP_DataOut
 25228 0436 0346     		mov	r3, r0
 25229 0438 2360     		str	r3, [r4, #0]
 249:../inc/STM32F4xx_StdPeriph_Driver/src/stm32f4xx_cryp_aes.c ****       outputaddr+=4;
 25230              		.loc 1 249 0
 25231 043a D7F8DC30 		ldr	r3, [r7, #220]
 25232 043e 03F10403 		add	r3, r3, #4
 25233 0442 C7F8DC30 		str	r3, [r7, #220]
 250:../inc/STM32F4xx_StdPeriph_Driver/src/stm32f4xx_cryp_aes.c ****       *(uint32_t*)(outputaddr) = CRYP_DataOut();
 25234              		.loc 1 250 0
 25235 0446 D7F8DC40 		ldr	r4, [r7, #220]
 25236 044a FFF7FEFF 		bl	CRYP_DataOut
 25237 044e 0346     		mov	r3, r0
 25238 0450 2360     		str	r3, [r4, #0]
 251:../inc/STM32F4xx_StdPeriph_Driver/src/stm32f4xx_cryp_aes.c ****       outputaddr+=4;
 25239              		.loc 1 251 0
 25240 0452 D7F8DC30 		ldr	r3, [r7, #220]
 25241 0456 03F10403 		add	r3, r3, #4
 25242 045a C7F8DC30 		str	r3, [r7, #220]
 252:../inc/STM32F4xx_StdPeriph_Driver/src/stm32f4xx_cryp_aes.c ****       *(uint32_t*)(outputaddr) = CRYP_DataOut(); 
 25243              		.loc 1 252 0
 25244 045e D7F8DC40 		ldr	r4, [r7, #220]
 25245 0462 FFF7FEFF 		bl	CRYP_DataOut
 25246 0466 0346     		mov	r3, r0
 25247 0468 2360     		str	r3, [r4, #0]
 253:../inc/STM32F4xx_StdPeriph_Driver/src/stm32f4xx_cryp_aes.c ****       outputaddr+=4;
 25248              		.loc 1 253 0
 25249 046a D7F8DC30 		ldr	r3, [r7, #220]
 25250 046e 03F10403 		add	r3, r3, #4
 25251 0472 C7F8DC30 		str	r3, [r7, #220]
 25252              	.L16:
 217:../inc/STM32F4xx_StdPeriph_Driver/src/stm32f4xx_cryp_aes.c ****   for(i=0; ((i<Ilength) && (status != ERROR)); i+=16)
 25253              		.loc 1 217 0
 25254 0476 D7F8D830 		ldr	r3, [r7, #216]
 25255 047a 03F11003 		add	r3, r3, #16
 25256 047e C7F8D830 		str	r3, [r7, #216]
 25257              	.L12:
 217:../inc/STM32F4xx_StdPeriph_Driver/src/stm32f4xx_cryp_aes.c ****   for(i=0; ((i<Ilength) && (status != ERROR)); i+=16)
 25258              		.loc 1 217 0 is_stmt 0 discriminator 1
 25259 0482 D7F8D820 		ldr	r2, [r7, #216]
 25260 0486 D7F8F830 		ldr	r3, [r7, #248]
 25261 048a 9A42     		cmp	r2, r3
 25262 048c 04D2     		bcs	.L17
 217:../inc/STM32F4xx_StdPeriph_Driver/src/stm32f4xx_cryp_aes.c ****   for(i=0; ((i<Ilength) && (status != ERROR)); i+=16)
 25263              		.loc 1 217 0 discriminator 2
 25264 048e 97F8E730 		ldrb	r3, [r7, #231]	@ zero_extendqisi2
 25265 0492 002B     		cmp	r3, #0
 25266 0494 7FF470AF 		bne	.L18
 25267              	.L17:
 254:../inc/STM32F4xx_StdPeriph_Driver/src/stm32f4xx_cryp_aes.c ****     }
 255:../inc/STM32F4xx_StdPeriph_Driver/src/stm32f4xx_cryp_aes.c ****   }
 256:../inc/STM32F4xx_StdPeriph_Driver/src/stm32f4xx_cryp_aes.c **** 
 257:../inc/STM32F4xx_StdPeriph_Driver/src/stm32f4xx_cryp_aes.c ****   /* Disable Crypto */
 258:../inc/STM32F4xx_StdPeriph_Driver/src/stm32f4xx_cryp_aes.c ****   CRYP_Cmd(DISABLE);
 25268              		.loc 1 258 0 is_stmt 1
 25269 0498 4FF00000 		mov	r0, #0
 25270 049c FFF7FEFF 		bl	CRYP_Cmd
 259:../inc/STM32F4xx_StdPeriph_Driver/src/stm32f4xx_cryp_aes.c **** 
 260:../inc/STM32F4xx_StdPeriph_Driver/src/stm32f4xx_cryp_aes.c ****   return status; 
 25271              		.loc 1 260 0
 25272 04a0 97F8E730 		ldrb	r3, [r7, #231]	@ zero_extendqisi2
 261:../inc/STM32F4xx_StdPeriph_Driver/src/stm32f4xx_cryp_aes.c **** }
 25273              		.loc 1 261 0
 25274 04a4 1846     		mov	r0, r3
 25275 04a6 07F1EC07 		add	r7, r7, #236
 25276 04aa BD46     		mov	sp, r7
 25277 04ac 90BD     		pop	{r4, r7, pc}
 25278              		.cfi_endproc
 25279              	.LFE110:
 25281 04ae 00BF     		.section	.text.CRYP_AES_CBC,"ax",%progbits
 25282              		.align	2
 25283              		.global	CRYP_AES_CBC
 25284              		.thumb
 25285              		.thumb_func
 25287              	CRYP_AES_CBC:
 25288              	.LFB111:
 262:../inc/STM32F4xx_StdPeriph_Driver/src/stm32f4xx_cryp_aes.c **** 
 263:../inc/STM32F4xx_StdPeriph_Driver/src/stm32f4xx_cryp_aes.c **** /**
 264:../inc/STM32F4xx_StdPeriph_Driver/src/stm32f4xx_cryp_aes.c ****   * @brief  Encrypt and decrypt using AES in CBC Mode
 265:../inc/STM32F4xx_StdPeriph_Driver/src/stm32f4xx_cryp_aes.c ****   * @param  Mode: encryption or decryption Mode.
 266:../inc/STM32F4xx_StdPeriph_Driver/src/stm32f4xx_cryp_aes.c ****   *          This parameter can be one of the following values:
 267:../inc/STM32F4xx_StdPeriph_Driver/src/stm32f4xx_cryp_aes.c ****   *            @arg MODE_ENCRYPT: Encryption
 268:../inc/STM32F4xx_StdPeriph_Driver/src/stm32f4xx_cryp_aes.c ****   *            @arg MODE_DECRYPT: Decryption
 269:../inc/STM32F4xx_StdPeriph_Driver/src/stm32f4xx_cryp_aes.c ****   * @param  InitVectors: Initialisation Vectors used for AES algorithm.
 270:../inc/STM32F4xx_StdPeriph_Driver/src/stm32f4xx_cryp_aes.c ****   * @param  Key: Key used for AES algorithm.
 271:../inc/STM32F4xx_StdPeriph_Driver/src/stm32f4xx_cryp_aes.c ****   * @param  Keysize: length of the Key, must be a 128, 192 or 256.
 272:../inc/STM32F4xx_StdPeriph_Driver/src/stm32f4xx_cryp_aes.c ****   * @param  Input: pointer to the Input buffer.
 273:../inc/STM32F4xx_StdPeriph_Driver/src/stm32f4xx_cryp_aes.c ****   * @param  Ilength: length of the Input buffer, must be a multiple of 16.
 274:../inc/STM32F4xx_StdPeriph_Driver/src/stm32f4xx_cryp_aes.c ****   * @param  Output: pointer to the returned buffer.
 275:../inc/STM32F4xx_StdPeriph_Driver/src/stm32f4xx_cryp_aes.c ****   * @retval An ErrorStatus enumeration value:
 276:../inc/STM32F4xx_StdPeriph_Driver/src/stm32f4xx_cryp_aes.c ****   *          - SUCCESS: Operation done
 277:../inc/STM32F4xx_StdPeriph_Driver/src/stm32f4xx_cryp_aes.c ****   *          - ERROR: Operation failed
 278:../inc/STM32F4xx_StdPeriph_Driver/src/stm32f4xx_cryp_aes.c ****   */
 279:../inc/STM32F4xx_StdPeriph_Driver/src/stm32f4xx_cryp_aes.c **** ErrorStatus CRYP_AES_CBC(uint8_t Mode, uint8_t InitVectors[16], uint8_t *Key,
 280:../inc/STM32F4xx_StdPeriph_Driver/src/stm32f4xx_cryp_aes.c ****                          uint16_t Keysize, uint8_t *Input, uint32_t Ilength,
 281:../inc/STM32F4xx_StdPeriph_Driver/src/stm32f4xx_cryp_aes.c ****                          uint8_t *Output)
 282:../inc/STM32F4xx_StdPeriph_Driver/src/stm32f4xx_cryp_aes.c **** {
 25289              		.loc 1 282 0
 25290              		.cfi_startproc
 25291              		@ args = 12, pretend = 0, frame = 280
 25292              		@ frame_needed = 1, uses_anonymous_args = 0
 25293 0000 90B5     		push	{r4, r7, lr}
 25294              	.LCFI3:
 25295              		.cfi_def_cfa_offset 12
 25296 0002 C7B0     		sub	sp, sp, #284
 25297              	.LCFI4:
 25298              		.cfi_def_cfa_offset 296
 25299 0004 00AF     		add	r7, sp, #0
 25300              		.cfi_offset 14, -4
 25301              		.cfi_offset 7, -8
 25302              		.cfi_offset 4, -12
 25303              	.LCFI5:
 25304              		.cfi_def_cfa_register 7
 25305 0006 07F10804 		add	r4, r7, #8
 25306 000a 2160     		str	r1, [r4, #0]
 25307 000c 07F10401 		add	r1, r7, #4
 25308 0010 0A60     		str	r2, [r1, #0]
 25309 0012 1A46     		mov	r2, r3
 25310 0014 07F11003 		add	r3, r7, #16
 25311 0018 03F1FF33 		add	r3, r3, #-1
 25312 001c 0146     		mov	r1, r0
 25313 001e 1970     		strb	r1, [r3, #0]
 25314 0020 07F10203 		add	r3, r7, #2
 25315 0024 1A80     		strh	r2, [r3, #0]	@ movhi
 283:../inc/STM32F4xx_StdPeriph_Driver/src/stm32f4xx_cryp_aes.c ****   CRYP_InitTypeDef AES_CRYP_InitStructure;
 284:../inc/STM32F4xx_StdPeriph_Driver/src/stm32f4xx_cryp_aes.c ****   CRYP_KeyInitTypeDef AES_CRYP_KeyInitStructure;
 285:../inc/STM32F4xx_StdPeriph_Driver/src/stm32f4xx_cryp_aes.c ****   CRYP_IVInitTypeDef AES_CRYP_IVInitStructure;
 286:../inc/STM32F4xx_StdPeriph_Driver/src/stm32f4xx_cryp_aes.c ****   __IO uint32_t counter = 0;
 25316              		.loc 1 286 0
 25317 0026 07F11003 		add	r3, r7, #16
 25318 002a 4FF00002 		mov	r2, #0
 25319 002e 1A60     		str	r2, [r3, #0]
 287:../inc/STM32F4xx_StdPeriph_Driver/src/stm32f4xx_cryp_aes.c ****   uint32_t busystatus = 0;
 25320              		.loc 1 287 0
 25321 0030 4FF00003 		mov	r3, #0
 25322 0034 C7F80431 		str	r3, [r7, #260]
 288:../inc/STM32F4xx_StdPeriph_Driver/src/stm32f4xx_cryp_aes.c ****   ErrorStatus status = SUCCESS;
 25323              		.loc 1 288 0
 25324 0038 4FF00103 		mov	r3, #1
 25325 003c 87F81731 		strb	r3, [r7, #279]
 289:../inc/STM32F4xx_StdPeriph_Driver/src/stm32f4xx_cryp_aes.c ****   uint32_t keyaddr    = (uint32_t)Key;
 25326              		.loc 1 289 0
 25327 0040 07F10403 		add	r3, r7, #4
 25328 0044 1B68     		ldr	r3, [r3, #0]
 25329 0046 C7F80031 		str	r3, [r7, #256]
 290:../inc/STM32F4xx_StdPeriph_Driver/src/stm32f4xx_cryp_aes.c ****   uint32_t inputaddr  = (uint32_t)Input;
 25330              		.loc 1 290 0
 25331 004a D7F82831 		ldr	r3, [r7, #296]
 25332 004e C7F81031 		str	r3, [r7, #272]
 291:../inc/STM32F4xx_StdPeriph_Driver/src/stm32f4xx_cryp_aes.c ****   uint32_t outputaddr = (uint32_t)Output;
 25333              		.loc 1 291 0
 25334 0052 D7F83031 		ldr	r3, [r7, #304]
 25335 0056 C7F80C31 		str	r3, [r7, #268]
 292:../inc/STM32F4xx_StdPeriph_Driver/src/stm32f4xx_cryp_aes.c ****   uint32_t ivaddr     = (uint32_t)InitVectors;
 25336              		.loc 1 292 0
 25337 005a 07F10803 		add	r3, r7, #8
 25338 005e 1B68     		ldr	r3, [r3, #0]
 25339 0060 C7F8FC30 		str	r3, [r7, #252]
 293:../inc/STM32F4xx_StdPeriph_Driver/src/stm32f4xx_cryp_aes.c ****   uint32_t i = 0;
 25340              		.loc 1 293 0
 25341 0064 4FF00003 		mov	r3, #0
 25342 0068 C7F80831 		str	r3, [r7, #264]
 294:../inc/STM32F4xx_StdPeriph_Driver/src/stm32f4xx_cryp_aes.c **** 
 295:../inc/STM32F4xx_StdPeriph_Driver/src/stm32f4xx_cryp_aes.c ****   /* Crypto structures initialisation*/
 296:../inc/STM32F4xx_StdPeriph_Driver/src/stm32f4xx_cryp_aes.c ****   CRYP_KeyStructInit(&AES_CRYP_KeyInitStructure);
 25343              		.loc 1 296 0
 25344 006c 07F12403 		add	r3, r7, #36
 25345 0070 1846     		mov	r0, r3
 25346 0072 FFF7FEFF 		bl	CRYP_KeyStructInit
 297:../inc/STM32F4xx_StdPeriph_Driver/src/stm32f4xx_cryp_aes.c **** 
 298:../inc/STM32F4xx_StdPeriph_Driver/src/stm32f4xx_cryp_aes.c ****   switch(Keysize)
 25347              		.loc 1 298 0
 25348 0076 07F10203 		add	r3, r7, #2
 25349 007a 1B88     		ldrh	r3, [r3, #0]
 25350 007c C02B     		cmp	r3, #192
 25351 007e 51D0     		beq	.L23
 25352 0080 B3F5807F 		cmp	r3, #256
 25353 0084 00F0BF80 		beq	.L24
 25354 0088 802B     		cmp	r3, #128
 25355 008a 40F04981 		bne	.L38
 25356              	.L22:
 299:../inc/STM32F4xx_StdPeriph_Driver/src/stm32f4xx_cryp_aes.c ****   {
 300:../inc/STM32F4xx_StdPeriph_Driver/src/stm32f4xx_cryp_aes.c ****     case 128:
 301:../inc/STM32F4xx_StdPeriph_Driver/src/stm32f4xx_cryp_aes.c ****     AES_CRYP_InitStructure.CRYP_KeySize = CRYP_KeySize_128b;
 25357              		.loc 1 301 0
 25358 008e 4FF00003 		mov	r3, #0
 25359 0092 A7F84A30 		strh	r3, [r7, #74]	@ movhi
 302:../inc/STM32F4xx_StdPeriph_Driver/src/stm32f4xx_cryp_aes.c ****     AES_CRYP_KeyInitStructure.CRYP_Key2Left = __REV(*(uint32_t*)(keyaddr));
 25360              		.loc 1 302 0
 25361 0096 D7F80031 		ldr	r3, [r7, #256]
 25362 009a 1B68     		ldr	r3, [r3, #0]
 25363 009c C7F8F830 		str	r3, [r7, #248]
 25364              	.LBB162:
 25365              	.LBB163:
 352:/home/kvv/workspace/k-car/autopilot/inc/CMSIS/core_cmInstr.h ****   __ASM volatile ("rev %0, %1" : "=r" (result) : "r" (value) );
 25366              		.loc 7 352 0
 25367 00a0 D7F8F830 		ldr	r3, [r7, #248]
 25368              	@ 352 "/home/kvv/workspace/k-car/autopilot/inc/CMSIS/core_cmInstr.h" 1
 25369 00a4 1CBA     		rev r4, r3
 25370              	@ 0 "" 2
 25371              		.thumb
 25372 00a6 C7F8F440 		str	r4, [r7, #244]
 25373              		.loc 7 353 0
 25374 00aa D7F8F430 		ldr	r3, [r7, #244]
 25375              	.LBE163:
 25376              	.LBE162:
 25377              		.loc 1 302 0
 25378 00ae 7B63     		str	r3, [r7, #52]
 303:../inc/STM32F4xx_StdPeriph_Driver/src/stm32f4xx_cryp_aes.c ****     keyaddr+=4;
 25379              		.loc 1 303 0
 25380 00b0 D7F80031 		ldr	r3, [r7, #256]
 25381 00b4 03F10403 		add	r3, r3, #4
 25382 00b8 C7F80031 		str	r3, [r7, #256]
 304:../inc/STM32F4xx_StdPeriph_Driver/src/stm32f4xx_cryp_aes.c ****     AES_CRYP_KeyInitStructure.CRYP_Key2Right= __REV(*(uint32_t*)(keyaddr));
 25383              		.loc 1 304 0
 25384 00bc D7F80031 		ldr	r3, [r7, #256]
 25385 00c0 1B68     		ldr	r3, [r3, #0]
 25386 00c2 C7F8F030 		str	r3, [r7, #240]
 25387              	.LBB164:
 25388              	.LBB165:
 352:/home/kvv/workspace/k-car/autopilot/inc/CMSIS/core_cmInstr.h ****   __ASM volatile ("rev %0, %1" : "=r" (result) : "r" (value) );
 25389              		.loc 7 352 0
 25390 00c6 D7F8F030 		ldr	r3, [r7, #240]
 25391              	@ 352 "/home/kvv/workspace/k-car/autopilot/inc/CMSIS/core_cmInstr.h" 1
 25392 00ca 1CBA     		rev r4, r3
 25393              	@ 0 "" 2
 25394              		.thumb
 25395 00cc C7F8EC40 		str	r4, [r7, #236]
 25396              		.loc 7 353 0
 25397 00d0 D7F8EC30 		ldr	r3, [r7, #236]
 25398              	.LBE165:
 25399              	.LBE164:
 25400              		.loc 1 304 0
 25401 00d4 BB63     		str	r3, [r7, #56]
 305:../inc/STM32F4xx_StdPeriph_Driver/src/stm32f4xx_cryp_aes.c ****     keyaddr+=4;
 25402              		.loc 1 305 0
 25403 00d6 D7F80031 		ldr	r3, [r7, #256]
 25404 00da 03F10403 		add	r3, r3, #4
 25405 00de C7F80031 		str	r3, [r7, #256]
 306:../inc/STM32F4xx_StdPeriph_Driver/src/stm32f4xx_cryp_aes.c ****     AES_CRYP_KeyInitStructure.CRYP_Key3Left = __REV(*(uint32_t*)(keyaddr));
 25406              		.loc 1 306 0
 25407 00e2 D7F80031 		ldr	r3, [r7, #256]
 25408 00e6 1B68     		ldr	r3, [r3, #0]
 25409 00e8 C7F8E830 		str	r3, [r7, #232]
 25410              	.LBB166:
 25411              	.LBB167:
 352:/home/kvv/workspace/k-car/autopilot/inc/CMSIS/core_cmInstr.h ****   __ASM volatile ("rev %0, %1" : "=r" (result) : "r" (value) );
 25412              		.loc 7 352 0
 25413 00ec D7F8E830 		ldr	r3, [r7, #232]
 25414              	@ 352 "/home/kvv/workspace/k-car/autopilot/inc/CMSIS/core_cmInstr.h" 1
 25415 00f0 1CBA     		rev r4, r3
 25416              	@ 0 "" 2
 25417              		.thumb
 25418 00f2 C7F8E440 		str	r4, [r7, #228]
 25419              		.loc 7 353 0
 25420 00f6 D7F8E430 		ldr	r3, [r7, #228]
 25421              	.LBE167:
 25422              	.LBE166:
 25423              		.loc 1 306 0
 25424 00fa FB63     		str	r3, [r7, #60]
 307:../inc/STM32F4xx_StdPeriph_Driver/src/stm32f4xx_cryp_aes.c ****     keyaddr+=4;
 25425              		.loc 1 307 0
 25426 00fc D7F80031 		ldr	r3, [r7, #256]
 25427 0100 03F10403 		add	r3, r3, #4
 25428 0104 C7F80031 		str	r3, [r7, #256]
 308:../inc/STM32F4xx_StdPeriph_Driver/src/stm32f4xx_cryp_aes.c ****     AES_CRYP_KeyInitStructure.CRYP_Key3Right= __REV(*(uint32_t*)(keyaddr));
 25429              		.loc 1 308 0
 25430 0108 D7F80031 		ldr	r3, [r7, #256]
 25431 010c 1B68     		ldr	r3, [r3, #0]
 25432 010e C7F8E030 		str	r3, [r7, #224]
 25433              	.LBB168:
 25434              	.LBB169:
 352:/home/kvv/workspace/k-car/autopilot/inc/CMSIS/core_cmInstr.h ****   __ASM volatile ("rev %0, %1" : "=r" (result) : "r" (value) );
 25435              		.loc 7 352 0
 25436 0112 D7F8E030 		ldr	r3, [r7, #224]
 25437              	@ 352 "/home/kvv/workspace/k-car/autopilot/inc/CMSIS/core_cmInstr.h" 1
 25438 0116 1CBA     		rev r4, r3
 25439              	@ 0 "" 2
 25440              		.thumb
 25441 0118 C7F8DC40 		str	r4, [r7, #220]
 25442              		.loc 7 353 0
 25443 011c D7F8DC30 		ldr	r3, [r7, #220]
 25444              	.LBE169:
 25445              	.LBE168:
 25446              		.loc 1 308 0
 25447 0120 3B64     		str	r3, [r7, #64]
 309:../inc/STM32F4xx_StdPeriph_Driver/src/stm32f4xx_cryp_aes.c ****     break;
 25448              		.loc 1 309 0
 25449 0122 FEE0     		b	.L25
 25450              	.L23:
 310:../inc/STM32F4xx_StdPeriph_Driver/src/stm32f4xx_cryp_aes.c ****     case 192:
 311:../inc/STM32F4xx_StdPeriph_Driver/src/stm32f4xx_cryp_aes.c ****     AES_CRYP_InitStructure.CRYP_KeySize  = CRYP_KeySize_192b;
 25451              		.loc 1 311 0
 25452 0124 4FF48073 		mov	r3, #256
 25453 0128 A7F84A30 		strh	r3, [r7, #74]	@ movhi
 312:../inc/STM32F4xx_StdPeriph_Driver/src/stm32f4xx_cryp_aes.c ****     AES_CRYP_KeyInitStructure.CRYP_Key1Left = __REV(*(uint32_t*)(keyaddr));
 25454              		.loc 1 312 0
 25455 012c D7F80031 		ldr	r3, [r7, #256]
 25456 0130 1B68     		ldr	r3, [r3, #0]
 25457 0132 C7F8D830 		str	r3, [r7, #216]
 25458              	.LBB170:
 25459              	.LBB171:
 352:/home/kvv/workspace/k-car/autopilot/inc/CMSIS/core_cmInstr.h ****   __ASM volatile ("rev %0, %1" : "=r" (result) : "r" (value) );
 25460              		.loc 7 352 0
 25461 0136 D7F8D830 		ldr	r3, [r7, #216]
 25462              	@ 352 "/home/kvv/workspace/k-car/autopilot/inc/CMSIS/core_cmInstr.h" 1
 25463 013a 1CBA     		rev r4, r3
 25464              	@ 0 "" 2
 25465              		.thumb
 25466 013c C7F8D440 		str	r4, [r7, #212]
 25467              		.loc 7 353 0
 25468 0140 D7F8D430 		ldr	r3, [r7, #212]
 25469              	.LBE171:
 25470              	.LBE170:
 25471              		.loc 1 312 0
 25472 0144 FB62     		str	r3, [r7, #44]
 313:../inc/STM32F4xx_StdPeriph_Driver/src/stm32f4xx_cryp_aes.c ****     keyaddr+=4;
 25473              		.loc 1 313 0
 25474 0146 D7F80031 		ldr	r3, [r7, #256]
 25475 014a 03F10403 		add	r3, r3, #4
 25476 014e C7F80031 		str	r3, [r7, #256]
 314:../inc/STM32F4xx_StdPeriph_Driver/src/stm32f4xx_cryp_aes.c ****     AES_CRYP_KeyInitStructure.CRYP_Key1Right= __REV(*(uint32_t*)(keyaddr));
 25477              		.loc 1 314 0
 25478 0152 D7F80031 		ldr	r3, [r7, #256]
 25479 0156 1B68     		ldr	r3, [r3, #0]
 25480 0158 C7F8D030 		str	r3, [r7, #208]
 25481              	.LBB172:
 25482              	.LBB173:
 352:/home/kvv/workspace/k-car/autopilot/inc/CMSIS/core_cmInstr.h ****   __ASM volatile ("rev %0, %1" : "=r" (result) : "r" (value) );
 25483              		.loc 7 352 0
 25484 015c D7F8D030 		ldr	r3, [r7, #208]
 25485              	@ 352 "/home/kvv/workspace/k-car/autopilot/inc/CMSIS/core_cmInstr.h" 1
 25486 0160 1CBA     		rev r4, r3
 25487              	@ 0 "" 2
 25488              		.thumb
 25489 0162 C7F8CC40 		str	r4, [r7, #204]
 25490              		.loc 7 353 0
 25491 0166 D7F8CC30 		ldr	r3, [r7, #204]
 25492              	.LBE173:
 25493              	.LBE172:
 25494              		.loc 1 314 0
 25495 016a 3B63     		str	r3, [r7, #48]
 315:../inc/STM32F4xx_StdPeriph_Driver/src/stm32f4xx_cryp_aes.c ****     keyaddr+=4;
 25496              		.loc 1 315 0
 25497 016c D7F80031 		ldr	r3, [r7, #256]
 25498 0170 03F10403 		add	r3, r3, #4
 25499 0174 C7F80031 		str	r3, [r7, #256]
 316:../inc/STM32F4xx_StdPeriph_Driver/src/stm32f4xx_cryp_aes.c ****     AES_CRYP_KeyInitStructure.CRYP_Key2Left = __REV(*(uint32_t*)(keyaddr));
 25500              		.loc 1 316 0
 25501 0178 D7F80031 		ldr	r3, [r7, #256]
 25502 017c 1B68     		ldr	r3, [r3, #0]
 25503 017e C7F8C830 		str	r3, [r7, #200]
 25504              	.LBB174:
 25505              	.LBB175:
 352:/home/kvv/workspace/k-car/autopilot/inc/CMSIS/core_cmInstr.h ****   __ASM volatile ("rev %0, %1" : "=r" (result) : "r" (value) );
 25506              		.loc 7 352 0
 25507 0182 D7F8C830 		ldr	r3, [r7, #200]
 25508              	@ 352 "/home/kvv/workspace/k-car/autopilot/inc/CMSIS/core_cmInstr.h" 1
 25509 0186 1CBA     		rev r4, r3
 25510              	@ 0 "" 2
 25511              		.thumb
 25512 0188 C7F8C440 		str	r4, [r7, #196]
 25513              		.loc 7 353 0
 25514 018c D7F8C430 		ldr	r3, [r7, #196]
 25515              	.LBE175:
 25516              	.LBE174:
 25517              		.loc 1 316 0
 25518 0190 7B63     		str	r3, [r7, #52]
 317:../inc/STM32F4xx_StdPeriph_Driver/src/stm32f4xx_cryp_aes.c ****     keyaddr+=4;
 25519              		.loc 1 317 0
 25520 0192 D7F80031 		ldr	r3, [r7, #256]
 25521 0196 03F10403 		add	r3, r3, #4
 25522 019a C7F80031 		str	r3, [r7, #256]
 318:../inc/STM32F4xx_StdPeriph_Driver/src/stm32f4xx_cryp_aes.c ****     AES_CRYP_KeyInitStructure.CRYP_Key2Right= __REV(*(uint32_t*)(keyaddr));
 25523              		.loc 1 318 0
 25524 019e D7F80031 		ldr	r3, [r7, #256]
 25525 01a2 1B68     		ldr	r3, [r3, #0]
 25526 01a4 C7F8C030 		str	r3, [r7, #192]
 25527              	.LBB176:
 25528              	.LBB177:
 352:/home/kvv/workspace/k-car/autopilot/inc/CMSIS/core_cmInstr.h ****   __ASM volatile ("rev %0, %1" : "=r" (result) : "r" (value) );
 25529              		.loc 7 352 0
 25530 01a8 D7F8C030 		ldr	r3, [r7, #192]
 25531              	@ 352 "/home/kvv/workspace/k-car/autopilot/inc/CMSIS/core_cmInstr.h" 1
 25532 01ac 1CBA     		rev r4, r3
 25533              	@ 0 "" 2
 25534              		.thumb
 25535 01ae C7F8BC40 		str	r4, [r7, #188]
 25536              		.loc 7 353 0
 25537 01b2 D7F8BC30 		ldr	r3, [r7, #188]
 25538              	.LBE177:
 25539              	.LBE176:
 25540              		.loc 1 318 0
 25541 01b6 BB63     		str	r3, [r7, #56]
 319:../inc/STM32F4xx_StdPeriph_Driver/src/stm32f4xx_cryp_aes.c ****     keyaddr+=4;
 25542              		.loc 1 319 0
 25543 01b8 D7F80031 		ldr	r3, [r7, #256]
 25544 01bc 03F10403 		add	r3, r3, #4
 25545 01c0 C7F80031 		str	r3, [r7, #256]
 320:../inc/STM32F4xx_StdPeriph_Driver/src/stm32f4xx_cryp_aes.c ****     AES_CRYP_KeyInitStructure.CRYP_Key3Left = __REV(*(uint32_t*)(keyaddr));
 25546              		.loc 1 320 0
 25547 01c4 D7F80031 		ldr	r3, [r7, #256]
 25548 01c8 1B68     		ldr	r3, [r3, #0]
 25549 01ca C7F8B830 		str	r3, [r7, #184]
 25550              	.LBB178:
 25551              	.LBB179:
 352:/home/kvv/workspace/k-car/autopilot/inc/CMSIS/core_cmInstr.h ****   __ASM volatile ("rev %0, %1" : "=r" (result) : "r" (value) );
 25552              		.loc 7 352 0
 25553 01ce D7F8B830 		ldr	r3, [r7, #184]
 25554              	@ 352 "/home/kvv/workspace/k-car/autopilot/inc/CMSIS/core_cmInstr.h" 1
 25555 01d2 1CBA     		rev r4, r3
 25556              	@ 0 "" 2
 25557              		.thumb
 25558 01d4 C7F8B440 		str	r4, [r7, #180]
 25559              		.loc 7 353 0
 25560 01d8 D7F8B430 		ldr	r3, [r7, #180]
 25561              	.LBE179:
 25562              	.LBE178:
 25563              		.loc 1 320 0
 25564 01dc FB63     		str	r3, [r7, #60]
 321:../inc/STM32F4xx_StdPeriph_Driver/src/stm32f4xx_cryp_aes.c ****     keyaddr+=4;
 25565              		.loc 1 321 0
 25566 01de D7F80031 		ldr	r3, [r7, #256]
 25567 01e2 03F10403 		add	r3, r3, #4
 25568 01e6 C7F80031 		str	r3, [r7, #256]
 322:../inc/STM32F4xx_StdPeriph_Driver/src/stm32f4xx_cryp_aes.c ****     AES_CRYP_KeyInitStructure.CRYP_Key3Right= __REV(*(uint32_t*)(keyaddr));
 25569              		.loc 1 322 0
 25570 01ea D7F80031 		ldr	r3, [r7, #256]
 25571 01ee 1B68     		ldr	r3, [r3, #0]
 25572 01f0 C7F8B030 		str	r3, [r7, #176]
 25573              	.LBB180:
 25574              	.LBB181:
 352:/home/kvv/workspace/k-car/autopilot/inc/CMSIS/core_cmInstr.h ****   __ASM volatile ("rev %0, %1" : "=r" (result) : "r" (value) );
 25575              		.loc 7 352 0
 25576 01f4 D7F8B030 		ldr	r3, [r7, #176]
 25577              	@ 352 "/home/kvv/workspace/k-car/autopilot/inc/CMSIS/core_cmInstr.h" 1
 25578 01f8 1CBA     		rev r4, r3
 25579              	@ 0 "" 2
 25580              		.thumb
 25581 01fa C7F8AC40 		str	r4, [r7, #172]
 25582              		.loc 7 353 0
 25583 01fe D7F8AC30 		ldr	r3, [r7, #172]
 25584              	.LBE181:
 25585              	.LBE180:
 25586              		.loc 1 322 0
 25587 0202 3B64     		str	r3, [r7, #64]
 323:../inc/STM32F4xx_StdPeriph_Driver/src/stm32f4xx_cryp_aes.c ****     break;
 25588              		.loc 1 323 0
 25589 0204 8DE0     		b	.L25
 25590              	.L24:
 324:../inc/STM32F4xx_StdPeriph_Driver/src/stm32f4xx_cryp_aes.c ****     case 256:
 325:../inc/STM32F4xx_StdPeriph_Driver/src/stm32f4xx_cryp_aes.c ****     AES_CRYP_InitStructure.CRYP_KeySize  = CRYP_KeySize_256b;
 25591              		.loc 1 325 0
 25592 0206 4FF40073 		mov	r3, #512
 25593 020a A7F84A30 		strh	r3, [r7, #74]	@ movhi
 326:../inc/STM32F4xx_StdPeriph_Driver/src/stm32f4xx_cryp_aes.c ****     AES_CRYP_KeyInitStructure.CRYP_Key0Left = __REV(*(uint32_t*)(keyaddr));
 25594              		.loc 1 326 0
 25595 020e D7F80031 		ldr	r3, [r7, #256]
 25596 0212 1B68     		ldr	r3, [r3, #0]
 25597 0214 C7F8A830 		str	r3, [r7, #168]
 25598              	.LBB182:
 25599              	.LBB183:
 352:/home/kvv/workspace/k-car/autopilot/inc/CMSIS/core_cmInstr.h ****   __ASM volatile ("rev %0, %1" : "=r" (result) : "r" (value) );
 25600              		.loc 7 352 0
 25601 0218 D7F8A830 		ldr	r3, [r7, #168]
 25602              	@ 352 "/home/kvv/workspace/k-car/autopilot/inc/CMSIS/core_cmInstr.h" 1
 25603 021c 1CBA     		rev r4, r3
 25604              	@ 0 "" 2
 25605              		.thumb
 25606 021e C7F8A440 		str	r4, [r7, #164]
 25607              		.loc 7 353 0
 25608 0222 D7F8A430 		ldr	r3, [r7, #164]
 25609              	.LBE183:
 25610              	.LBE182:
 25611              		.loc 1 326 0
 25612 0226 7B62     		str	r3, [r7, #36]
 327:../inc/STM32F4xx_StdPeriph_Driver/src/stm32f4xx_cryp_aes.c ****     keyaddr+=4;
 25613              		.loc 1 327 0
 25614 0228 D7F80031 		ldr	r3, [r7, #256]
 25615 022c 03F10403 		add	r3, r3, #4
 25616 0230 C7F80031 		str	r3, [r7, #256]
 328:../inc/STM32F4xx_StdPeriph_Driver/src/stm32f4xx_cryp_aes.c ****     AES_CRYP_KeyInitStructure.CRYP_Key0Right= __REV(*(uint32_t*)(keyaddr));
 25617              		.loc 1 328 0
 25618 0234 D7F80031 		ldr	r3, [r7, #256]
 25619 0238 1B68     		ldr	r3, [r3, #0]
 25620 023a C7F8A030 		str	r3, [r7, #160]
 25621              	.LBB184:
 25622              	.LBB185:
 352:/home/kvv/workspace/k-car/autopilot/inc/CMSIS/core_cmInstr.h ****   __ASM volatile ("rev %0, %1" : "=r" (result) : "r" (value) );
 25623              		.loc 7 352 0
 25624 023e D7F8A030 		ldr	r3, [r7, #160]
 25625              	@ 352 "/home/kvv/workspace/k-car/autopilot/inc/CMSIS/core_cmInstr.h" 1
 25626 0242 1CBA     		rev r4, r3
 25627              	@ 0 "" 2
 25628              		.thumb
 25629 0244 C7F89C40 		str	r4, [r7, #156]
 25630              		.loc 7 353 0
 25631 0248 D7F89C30 		ldr	r3, [r7, #156]
 25632              	.LBE185:
 25633              	.LBE184:
 25634              		.loc 1 328 0
 25635 024c BB62     		str	r3, [r7, #40]
 329:../inc/STM32F4xx_StdPeriph_Driver/src/stm32f4xx_cryp_aes.c ****     keyaddr+=4;
 25636              		.loc 1 329 0
 25637 024e D7F80031 		ldr	r3, [r7, #256]
 25638 0252 03F10403 		add	r3, r3, #4
 25639 0256 C7F80031 		str	r3, [r7, #256]
 330:../inc/STM32F4xx_StdPeriph_Driver/src/stm32f4xx_cryp_aes.c ****     AES_CRYP_KeyInitStructure.CRYP_Key1Left = __REV(*(uint32_t*)(keyaddr));
 25640              		.loc 1 330 0
 25641 025a D7F80031 		ldr	r3, [r7, #256]
 25642 025e 1B68     		ldr	r3, [r3, #0]
 25643 0260 C7F89830 		str	r3, [r7, #152]
 25644              	.LBB186:
 25645              	.LBB187:
 352:/home/kvv/workspace/k-car/autopilot/inc/CMSIS/core_cmInstr.h ****   __ASM volatile ("rev %0, %1" : "=r" (result) : "r" (value) );
 25646              		.loc 7 352 0
 25647 0264 D7F89830 		ldr	r3, [r7, #152]
 25648              	@ 352 "/home/kvv/workspace/k-car/autopilot/inc/CMSIS/core_cmInstr.h" 1
 25649 0268 1CBA     		rev r4, r3
 25650              	@ 0 "" 2
 25651              		.thumb
 25652 026a C7F89440 		str	r4, [r7, #148]
 25653              		.loc 7 353 0
 25654 026e D7F89430 		ldr	r3, [r7, #148]
 25655              	.LBE187:
 25656              	.LBE186:
 25657              		.loc 1 330 0
 25658 0272 FB62     		str	r3, [r7, #44]
 331:../inc/STM32F4xx_StdPeriph_Driver/src/stm32f4xx_cryp_aes.c ****     keyaddr+=4;
 25659              		.loc 1 331 0
 25660 0274 D7F80031 		ldr	r3, [r7, #256]
 25661 0278 03F10403 		add	r3, r3, #4
 25662 027c C7F80031 		str	r3, [r7, #256]
 332:../inc/STM32F4xx_StdPeriph_Driver/src/stm32f4xx_cryp_aes.c ****     AES_CRYP_KeyInitStructure.CRYP_Key1Right= __REV(*(uint32_t*)(keyaddr));
 25663              		.loc 1 332 0
 25664 0280 D7F80031 		ldr	r3, [r7, #256]
 25665 0284 1B68     		ldr	r3, [r3, #0]
 25666 0286 C7F89030 		str	r3, [r7, #144]
 25667              	.LBB188:
 25668              	.LBB189:
 352:/home/kvv/workspace/k-car/autopilot/inc/CMSIS/core_cmInstr.h ****   __ASM volatile ("rev %0, %1" : "=r" (result) : "r" (value) );
 25669              		.loc 7 352 0
 25670 028a D7F89030 		ldr	r3, [r7, #144]
 25671              	@ 352 "/home/kvv/workspace/k-car/autopilot/inc/CMSIS/core_cmInstr.h" 1
 25672 028e 1CBA     		rev r4, r3
 25673              	@ 0 "" 2
 25674              		.thumb
 25675 0290 C7F88C40 		str	r4, [r7, #140]
 25676              		.loc 7 353 0
 25677 0294 D7F88C30 		ldr	r3, [r7, #140]
 25678              	.LBE189:
 25679              	.LBE188:
 25680              		.loc 1 332 0
 25681 0298 3B63     		str	r3, [r7, #48]
 333:../inc/STM32F4xx_StdPeriph_Driver/src/stm32f4xx_cryp_aes.c ****     keyaddr+=4;
 25682              		.loc 1 333 0
 25683 029a D7F80031 		ldr	r3, [r7, #256]
 25684 029e 03F10403 		add	r3, r3, #4
 25685 02a2 C7F80031 		str	r3, [r7, #256]
 334:../inc/STM32F4xx_StdPeriph_Driver/src/stm32f4xx_cryp_aes.c ****     AES_CRYP_KeyInitStructure.CRYP_Key2Left = __REV(*(uint32_t*)(keyaddr));
 25686              		.loc 1 334 0
 25687 02a6 D7F80031 		ldr	r3, [r7, #256]
 25688 02aa 1B68     		ldr	r3, [r3, #0]
 25689 02ac C7F88830 		str	r3, [r7, #136]
 25690              	.LBB190:
 25691              	.LBB191:
 352:/home/kvv/workspace/k-car/autopilot/inc/CMSIS/core_cmInstr.h ****   __ASM volatile ("rev %0, %1" : "=r" (result) : "r" (value) );
 25692              		.loc 7 352 0
 25693 02b0 D7F88830 		ldr	r3, [r7, #136]
 25694              	@ 352 "/home/kvv/workspace/k-car/autopilot/inc/CMSIS/core_cmInstr.h" 1
 25695 02b4 1CBA     		rev r4, r3
 25696              	@ 0 "" 2
 25697              		.thumb
 25698 02b6 C7F88440 		str	r4, [r7, #132]
 25699              		.loc 7 353 0
 25700 02ba D7F88430 		ldr	r3, [r7, #132]
 25701              	.LBE191:
 25702              	.LBE190:
 25703              		.loc 1 334 0
 25704 02be 7B63     		str	r3, [r7, #52]
 335:../inc/STM32F4xx_StdPeriph_Driver/src/stm32f4xx_cryp_aes.c ****     keyaddr+=4;
 25705              		.loc 1 335 0
 25706 02c0 D7F80031 		ldr	r3, [r7, #256]
 25707 02c4 03F10403 		add	r3, r3, #4
 25708 02c8 C7F80031 		str	r3, [r7, #256]
 336:../inc/STM32F4xx_StdPeriph_Driver/src/stm32f4xx_cryp_aes.c ****     AES_CRYP_KeyInitStructure.CRYP_Key2Right= __REV(*(uint32_t*)(keyaddr));
 25709              		.loc 1 336 0
 25710 02cc D7F80031 		ldr	r3, [r7, #256]
 25711 02d0 1B68     		ldr	r3, [r3, #0]
 25712 02d2 C7F88030 		str	r3, [r7, #128]
 25713              	.LBB192:
 25714              	.LBB193:
 352:/home/kvv/workspace/k-car/autopilot/inc/CMSIS/core_cmInstr.h ****   __ASM volatile ("rev %0, %1" : "=r" (result) : "r" (value) );
 25715              		.loc 7 352 0
 25716 02d6 D7F88030 		ldr	r3, [r7, #128]
 25717              	@ 352 "/home/kvv/workspace/k-car/autopilot/inc/CMSIS/core_cmInstr.h" 1
 25718 02da 1CBA     		rev r4, r3
 25719              	@ 0 "" 2
 25720              		.thumb
 25721 02dc FC67     		str	r4, [r7, #124]
 25722              		.loc 7 353 0
 25723 02de FB6F     		ldr	r3, [r7, #124]
 25724              	.LBE193:
 25725              	.LBE192:
 25726              		.loc 1 336 0
 25727 02e0 BB63     		str	r3, [r7, #56]
 337:../inc/STM32F4xx_StdPeriph_Driver/src/stm32f4xx_cryp_aes.c ****     keyaddr+=4;
 25728              		.loc 1 337 0
 25729 02e2 D7F80031 		ldr	r3, [r7, #256]
 25730 02e6 03F10403 		add	r3, r3, #4
 25731 02ea C7F80031 		str	r3, [r7, #256]
 338:../inc/STM32F4xx_StdPeriph_Driver/src/stm32f4xx_cryp_aes.c ****     AES_CRYP_KeyInitStructure.CRYP_Key3Left = __REV(*(uint32_t*)(keyaddr));
 25732              		.loc 1 338 0
 25733 02ee D7F80031 		ldr	r3, [r7, #256]
 25734 02f2 1B68     		ldr	r3, [r3, #0]
 25735 02f4 BB67     		str	r3, [r7, #120]
 25736              	.LBB194:
 25737              	.LBB195:
 352:/home/kvv/workspace/k-car/autopilot/inc/CMSIS/core_cmInstr.h ****   __ASM volatile ("rev %0, %1" : "=r" (result) : "r" (value) );
 25738              		.loc 7 352 0
 25739 02f6 BB6F     		ldr	r3, [r7, #120]
 25740              	@ 352 "/home/kvv/workspace/k-car/autopilot/inc/CMSIS/core_cmInstr.h" 1
 25741 02f8 1CBA     		rev r4, r3
 25742              	@ 0 "" 2
 25743              		.thumb
 25744 02fa 7C67     		str	r4, [r7, #116]
 25745              		.loc 7 353 0
 25746 02fc 7B6F     		ldr	r3, [r7, #116]
 25747              	.LBE195:
 25748              	.LBE194:
 25749              		.loc 1 338 0
 25750 02fe FB63     		str	r3, [r7, #60]
 339:../inc/STM32F4xx_StdPeriph_Driver/src/stm32f4xx_cryp_aes.c ****     keyaddr+=4;
 25751              		.loc 1 339 0
 25752 0300 D7F80031 		ldr	r3, [r7, #256]
 25753 0304 03F10403 		add	r3, r3, #4
 25754 0308 C7F80031 		str	r3, [r7, #256]
 340:../inc/STM32F4xx_StdPeriph_Driver/src/stm32f4xx_cryp_aes.c ****     AES_CRYP_KeyInitStructure.CRYP_Key3Right= __REV(*(uint32_t*)(keyaddr));
 25755              		.loc 1 340 0
 25756 030c D7F80031 		ldr	r3, [r7, #256]
 25757 0310 1B68     		ldr	r3, [r3, #0]
 25758 0312 3B67     		str	r3, [r7, #112]
 25759              	.LBB196:
 25760              	.LBB197:
 352:/home/kvv/workspace/k-car/autopilot/inc/CMSIS/core_cmInstr.h ****   __ASM volatile ("rev %0, %1" : "=r" (result) : "r" (value) );
 25761              		.loc 7 352 0
 25762 0314 3B6F     		ldr	r3, [r7, #112]
 25763              	@ 352 "/home/kvv/workspace/k-car/autopilot/inc/CMSIS/core_cmInstr.h" 1
 25764 0316 1CBA     		rev r4, r3
 25765              	@ 0 "" 2
 25766              		.thumb
 25767 0318 FC66     		str	r4, [r7, #108]
 25768              		.loc 7 353 0
 25769 031a FB6E     		ldr	r3, [r7, #108]
 25770              	.LBE197:
 25771              	.LBE196:
 25772              		.loc 1 340 0
 25773 031c 3B64     		str	r3, [r7, #64]
 341:../inc/STM32F4xx_StdPeriph_Driver/src/stm32f4xx_cryp_aes.c ****     break;
 25774              		.loc 1 341 0
 25775 031e 00E0     		b	.L25
 25776              	.L38:
 342:../inc/STM32F4xx_StdPeriph_Driver/src/stm32f4xx_cryp_aes.c ****     default:
 343:../inc/STM32F4xx_StdPeriph_Driver/src/stm32f4xx_cryp_aes.c ****     break;
 25777              		.loc 1 343 0
 25778 0320 00BF     		nop
 25779              	.L25:
 344:../inc/STM32F4xx_StdPeriph_Driver/src/stm32f4xx_cryp_aes.c ****   }
 345:../inc/STM32F4xx_StdPeriph_Driver/src/stm32f4xx_cryp_aes.c **** 
 346:../inc/STM32F4xx_StdPeriph_Driver/src/stm32f4xx_cryp_aes.c ****   /* CRYP Initialization Vectors */
 347:../inc/STM32F4xx_StdPeriph_Driver/src/stm32f4xx_cryp_aes.c ****   AES_CRYP_IVInitStructure.CRYP_IV0Left = __REV(*(uint32_t*)(ivaddr));
 25780              		.loc 1 347 0
 25781 0322 D7F8FC30 		ldr	r3, [r7, #252]
 25782 0326 1B68     		ldr	r3, [r3, #0]
 25783 0328 BB66     		str	r3, [r7, #104]
 25784              	.LBB198:
 25785              	.LBB199:
 352:/home/kvv/workspace/k-car/autopilot/inc/CMSIS/core_cmInstr.h ****   __ASM volatile ("rev %0, %1" : "=r" (result) : "r" (value) );
 25786              		.loc 7 352 0
 25787 032a BB6E     		ldr	r3, [r7, #104]
 25788              	@ 352 "/home/kvv/workspace/k-car/autopilot/inc/CMSIS/core_cmInstr.h" 1
 25789 032c 1CBA     		rev r4, r3
 25790              	@ 0 "" 2
 25791              		.thumb
 25792 032e 7C66     		str	r4, [r7, #100]
 25793              		.loc 7 353 0
 25794 0330 7B6E     		ldr	r3, [r7, #100]
 25795              		.loc 1 347 0
 25796 0332 1A46     		mov	r2, r3
 25797              	.LBE199:
 25798              	.LBE198:
 25799 0334 07F11403 		add	r3, r7, #20
 25800 0338 1A60     		str	r2, [r3, #0]
 348:../inc/STM32F4xx_StdPeriph_Driver/src/stm32f4xx_cryp_aes.c ****   ivaddr+=4;
 25801              		.loc 1 348 0
 25802 033a D7F8FC30 		ldr	r3, [r7, #252]
 25803 033e 03F10403 		add	r3, r3, #4
 25804 0342 C7F8FC30 		str	r3, [r7, #252]
 349:../inc/STM32F4xx_StdPeriph_Driver/src/stm32f4xx_cryp_aes.c ****   AES_CRYP_IVInitStructure.CRYP_IV0Right= __REV(*(uint32_t*)(ivaddr));
 25805              		.loc 1 349 0
 25806 0346 D7F8FC30 		ldr	r3, [r7, #252]
 25807 034a 1B68     		ldr	r3, [r3, #0]
 25808 034c 3B66     		str	r3, [r7, #96]
 25809              	.LBB200:
 25810              	.LBB201:
 352:/home/kvv/workspace/k-car/autopilot/inc/CMSIS/core_cmInstr.h ****   __ASM volatile ("rev %0, %1" : "=r" (result) : "r" (value) );
 25811              		.loc 7 352 0
 25812 034e 3B6E     		ldr	r3, [r7, #96]
 25813              	@ 352 "/home/kvv/workspace/k-car/autopilot/inc/CMSIS/core_cmInstr.h" 1
 25814 0350 1CBA     		rev r4, r3
 25815              	@ 0 "" 2
 25816              		.thumb
 25817 0352 FC65     		str	r4, [r7, #92]
 25818              		.loc 7 353 0
 25819 0354 FB6D     		ldr	r3, [r7, #92]
 25820              		.loc 1 349 0
 25821 0356 1A46     		mov	r2, r3
 25822              	.LBE201:
 25823              	.LBE200:
 25824 0358 07F11403 		add	r3, r7, #20
 25825 035c 5A60     		str	r2, [r3, #4]
 350:../inc/STM32F4xx_StdPeriph_Driver/src/stm32f4xx_cryp_aes.c ****   ivaddr+=4;
 25826              		.loc 1 350 0
 25827 035e D7F8FC30 		ldr	r3, [r7, #252]
 25828 0362 03F10403 		add	r3, r3, #4
 25829 0366 C7F8FC30 		str	r3, [r7, #252]
 351:../inc/STM32F4xx_StdPeriph_Driver/src/stm32f4xx_cryp_aes.c ****   AES_CRYP_IVInitStructure.CRYP_IV1Left = __REV(*(uint32_t*)(ivaddr));
 25830              		.loc 1 351 0
 25831 036a D7F8FC30 		ldr	r3, [r7, #252]
 25832 036e 1B68     		ldr	r3, [r3, #0]
 25833 0370 BB65     		str	r3, [r7, #88]
 25834              	.LBB202:
 25835              	.LBB203:
 352:/home/kvv/workspace/k-car/autopilot/inc/CMSIS/core_cmInstr.h ****   __ASM volatile ("rev %0, %1" : "=r" (result) : "r" (value) );
 25836              		.loc 7 352 0
 25837 0372 BB6D     		ldr	r3, [r7, #88]
 25838              	@ 352 "/home/kvv/workspace/k-car/autopilot/inc/CMSIS/core_cmInstr.h" 1
 25839 0374 1CBA     		rev r4, r3
 25840              	@ 0 "" 2
 25841              		.thumb
 25842 0376 7C65     		str	r4, [r7, #84]
 25843              		.loc 7 353 0
 25844 0378 7B6D     		ldr	r3, [r7, #84]
 25845              		.loc 1 351 0
 25846 037a 1A46     		mov	r2, r3
 25847              	.LBE203:
 25848              	.LBE202:
 25849 037c 07F11403 		add	r3, r7, #20
 25850 0380 9A60     		str	r2, [r3, #8]
 352:../inc/STM32F4xx_StdPeriph_Driver/src/stm32f4xx_cryp_aes.c ****   ivaddr+=4;
 25851              		.loc 1 352 0
 25852 0382 D7F8FC30 		ldr	r3, [r7, #252]
 25853 0386 03F10403 		add	r3, r3, #4
 25854 038a C7F8FC30 		str	r3, [r7, #252]
 353:../inc/STM32F4xx_StdPeriph_Driver/src/stm32f4xx_cryp_aes.c ****   AES_CRYP_IVInitStructure.CRYP_IV1Right= __REV(*(uint32_t*)(ivaddr));
 25855              		.loc 1 353 0
 25856 038e D7F8FC30 		ldr	r3, [r7, #252]
 25857 0392 1B68     		ldr	r3, [r3, #0]
 25858 0394 3B65     		str	r3, [r7, #80]
 25859              	.LBB204:
 25860              	.LBB205:
 352:/home/kvv/workspace/k-car/autopilot/inc/CMSIS/core_cmInstr.h ****   __ASM volatile ("rev %0, %1" : "=r" (result) : "r" (value) );
 25861              		.loc 7 352 0
 25862 0396 3B6D     		ldr	r3, [r7, #80]
 25863              	@ 352 "/home/kvv/workspace/k-car/autopilot/inc/CMSIS/core_cmInstr.h" 1
 25864 0398 1CBA     		rev r4, r3
 25865              	@ 0 "" 2
 25866              		.thumb
 25867 039a FC64     		str	r4, [r7, #76]
 25868              		.loc 7 353 0
 25869 039c FB6C     		ldr	r3, [r7, #76]
 25870              		.loc 1 353 0
 25871 039e 1A46     		mov	r2, r3
 25872              	.LBE205:
 25873              	.LBE204:
 25874 03a0 07F11403 		add	r3, r7, #20
 25875 03a4 DA60     		str	r2, [r3, #12]
 354:../inc/STM32F4xx_StdPeriph_Driver/src/stm32f4xx_cryp_aes.c **** 
 355:../inc/STM32F4xx_StdPeriph_Driver/src/stm32f4xx_cryp_aes.c **** 
 356:../inc/STM32F4xx_StdPeriph_Driver/src/stm32f4xx_cryp_aes.c ****   /*------------------ AES Decryption ------------------*/
 357:../inc/STM32F4xx_StdPeriph_Driver/src/stm32f4xx_cryp_aes.c ****   if(Mode == MODE_DECRYPT) /* AES decryption */
 25876              		.loc 1 357 0
 25877 03a6 07F11003 		add	r3, r7, #16
 25878 03aa 03F1FF33 		add	r3, r3, #-1
 25879 03ae 1B78     		ldrb	r3, [r3, #0]	@ zero_extendqisi2
 25880 03b0 002B     		cmp	r3, #0
 25881 03b2 42D1     		bne	.L26
 358:../inc/STM32F4xx_StdPeriph_Driver/src/stm32f4xx_cryp_aes.c ****   {
 359:../inc/STM32F4xx_StdPeriph_Driver/src/stm32f4xx_cryp_aes.c ****     /* Flush IN/OUT FIFOs */
 360:../inc/STM32F4xx_StdPeriph_Driver/src/stm32f4xx_cryp_aes.c ****     CRYP_FIFOFlush();
 25882              		.loc 1 360 0
 25883 03b4 FFF7FEFF 		bl	CRYP_FIFOFlush
 361:../inc/STM32F4xx_StdPeriph_Driver/src/stm32f4xx_cryp_aes.c **** 
 362:../inc/STM32F4xx_StdPeriph_Driver/src/stm32f4xx_cryp_aes.c ****     /* Crypto Init for Key preparation for decryption process */
 363:../inc/STM32F4xx_StdPeriph_Driver/src/stm32f4xx_cryp_aes.c ****     AES_CRYP_InitStructure.CRYP_AlgoDir = CRYP_AlgoDir_Decrypt;
 25884              		.loc 1 363 0
 25885 03b8 4FF00403 		mov	r3, #4
 25886 03bc A7F84430 		strh	r3, [r7, #68]	@ movhi
 364:../inc/STM32F4xx_StdPeriph_Driver/src/stm32f4xx_cryp_aes.c ****     AES_CRYP_InitStructure.CRYP_AlgoMode = CRYP_AlgoMode_AES_Key;
 25887              		.loc 1 364 0
 25888 03c0 4FF03803 		mov	r3, #56
 25889 03c4 A7F84630 		strh	r3, [r7, #70]	@ movhi
 365:../inc/STM32F4xx_StdPeriph_Driver/src/stm32f4xx_cryp_aes.c ****     AES_CRYP_InitStructure.CRYP_DataType = CRYP_DataType_32b;
 25890              		.loc 1 365 0
 25891 03c8 4FF00003 		mov	r3, #0
 25892 03cc A7F84830 		strh	r3, [r7, #72]	@ movhi
 366:../inc/STM32F4xx_StdPeriph_Driver/src/stm32f4xx_cryp_aes.c **** 
 367:../inc/STM32F4xx_StdPeriph_Driver/src/stm32f4xx_cryp_aes.c ****     CRYP_Init(&AES_CRYP_InitStructure);
 25893              		.loc 1 367 0
 25894 03d0 07F14403 		add	r3, r7, #68
 25895 03d4 1846     		mov	r0, r3
 25896 03d6 FFF7FEFF 		bl	CRYP_Init
 368:../inc/STM32F4xx_StdPeriph_Driver/src/stm32f4xx_cryp_aes.c **** 
 369:../inc/STM32F4xx_StdPeriph_Driver/src/stm32f4xx_cryp_aes.c ****     /* Key Initialisation */
 370:../inc/STM32F4xx_StdPeriph_Driver/src/stm32f4xx_cryp_aes.c ****     CRYP_KeyInit(&AES_CRYP_KeyInitStructure);
 25897              		.loc 1 370 0
 25898 03da 07F12403 		add	r3, r7, #36
 25899 03de 1846     		mov	r0, r3
 25900 03e0 FFF7FEFF 		bl	CRYP_KeyInit
 371:../inc/STM32F4xx_StdPeriph_Driver/src/stm32f4xx_cryp_aes.c **** 
 372:../inc/STM32F4xx_StdPeriph_Driver/src/stm32f4xx_cryp_aes.c ****     /* Enable Crypto processor */
 373:../inc/STM32F4xx_StdPeriph_Driver/src/stm32f4xx_cryp_aes.c ****     CRYP_Cmd(ENABLE);
 25901              		.loc 1 373 0
 25902 03e4 4FF00100 		mov	r0, #1
 25903 03e8 FFF7FEFF 		bl	CRYP_Cmd
 25904              	.L28:
 374:../inc/STM32F4xx_StdPeriph_Driver/src/stm32f4xx_cryp_aes.c **** 
 375:../inc/STM32F4xx_StdPeriph_Driver/src/stm32f4xx_cryp_aes.c ****     /* wait until the Busy flag is RESET */
 376:../inc/STM32F4xx_StdPeriph_Driver/src/stm32f4xx_cryp_aes.c ****     do
 377:../inc/STM32F4xx_StdPeriph_Driver/src/stm32f4xx_cryp_aes.c ****     {
 378:../inc/STM32F4xx_StdPeriph_Driver/src/stm32f4xx_cryp_aes.c ****       busystatus = CRYP_GetFlagStatus(CRYP_FLAG_BUSY);
 25905              		.loc 1 378 0 discriminator 1
 25906 03ec 4FF01000 		mov	r0, #16
 25907 03f0 FFF7FEFF 		bl	CRYP_GetFlagStatus
 25908 03f4 0346     		mov	r3, r0
 25909 03f6 C7F80431 		str	r3, [r7, #260]
 379:../inc/STM32F4xx_StdPeriph_Driver/src/stm32f4xx_cryp_aes.c ****       counter++;
 25910              		.loc 1 379 0 discriminator 1
 25911 03fa 07F11003 		add	r3, r7, #16
 25912 03fe 1B68     		ldr	r3, [r3, #0]
 25913 0400 03F10102 		add	r2, r3, #1
 25914 0404 07F11003 		add	r3, r7, #16
 25915 0408 1A60     		str	r2, [r3, #0]
 380:../inc/STM32F4xx_StdPeriph_Driver/src/stm32f4xx_cryp_aes.c ****     }while ((counter != AESBUSY_TIMEOUT) && (busystatus != RESET));
 25916              		.loc 1 380 0 discriminator 1
 25917 040a 07F11003 		add	r3, r7, #16
 25918 040e 1B68     		ldr	r3, [r3, #0]
 25919 0410 B3F5803F 		cmp	r3, #65536
 25920 0414 03D0     		beq	.L27
 25921 0416 D7F80431 		ldr	r3, [r7, #260]
 25922 041a 002B     		cmp	r3, #0
 25923 041c E6D1     		bne	.L28
 25924              	.L27:
 381:../inc/STM32F4xx_StdPeriph_Driver/src/stm32f4xx_cryp_aes.c **** 
 382:../inc/STM32F4xx_StdPeriph_Driver/src/stm32f4xx_cryp_aes.c ****     if (busystatus != RESET)
 25925              		.loc 1 382 0
 25926 041e D7F80431 		ldr	r3, [r7, #260]
 25927 0422 002B     		cmp	r3, #0
 25928 0424 04D0     		beq	.L29
 383:../inc/STM32F4xx_StdPeriph_Driver/src/stm32f4xx_cryp_aes.c ****    {
 384:../inc/STM32F4xx_StdPeriph_Driver/src/stm32f4xx_cryp_aes.c ****        status = ERROR;
 25929              		.loc 1 384 0
 25930 0426 4FF00003 		mov	r3, #0
 25931 042a 87F81731 		strb	r3, [r7, #279]
 25932 042e 0DE0     		b	.L30
 25933              	.L29:
 385:../inc/STM32F4xx_StdPeriph_Driver/src/stm32f4xx_cryp_aes.c ****     }
 386:../inc/STM32F4xx_StdPeriph_Driver/src/stm32f4xx_cryp_aes.c ****     else
 387:../inc/STM32F4xx_StdPeriph_Driver/src/stm32f4xx_cryp_aes.c ****     {
 388:../inc/STM32F4xx_StdPeriph_Driver/src/stm32f4xx_cryp_aes.c ****       /* Crypto Init for decryption process */  
 389:../inc/STM32F4xx_StdPeriph_Driver/src/stm32f4xx_cryp_aes.c ****       AES_CRYP_InitStructure.CRYP_AlgoDir = CRYP_AlgoDir_Decrypt;
 25934              		.loc 1 389 0
 25935 0430 4FF00403 		mov	r3, #4
 25936 0434 A7F84430 		strh	r3, [r7, #68]	@ movhi
 25937 0438 08E0     		b	.L30
 25938              	.L26:
 390:../inc/STM32F4xx_StdPeriph_Driver/src/stm32f4xx_cryp_aes.c ****     }
 391:../inc/STM32F4xx_StdPeriph_Driver/src/stm32f4xx_cryp_aes.c ****   }
 392:../inc/STM32F4xx_StdPeriph_Driver/src/stm32f4xx_cryp_aes.c ****   /*------------------ AES Encryption ------------------*/
 393:../inc/STM32F4xx_StdPeriph_Driver/src/stm32f4xx_cryp_aes.c ****   else /* AES encryption */
 394:../inc/STM32F4xx_StdPeriph_Driver/src/stm32f4xx_cryp_aes.c ****   {
 395:../inc/STM32F4xx_StdPeriph_Driver/src/stm32f4xx_cryp_aes.c ****     CRYP_KeyInit(&AES_CRYP_KeyInitStructure);
 25939              		.loc 1 395 0
 25940 043a 07F12403 		add	r3, r7, #36
 25941 043e 1846     		mov	r0, r3
 25942 0440 FFF7FEFF 		bl	CRYP_KeyInit
 396:../inc/STM32F4xx_StdPeriph_Driver/src/stm32f4xx_cryp_aes.c **** 
 397:../inc/STM32F4xx_StdPeriph_Driver/src/stm32f4xx_cryp_aes.c ****     /* Crypto Init for Encryption process */
 398:../inc/STM32F4xx_StdPeriph_Driver/src/stm32f4xx_cryp_aes.c ****     AES_CRYP_InitStructure.CRYP_AlgoDir  = CRYP_AlgoDir_Encrypt;
 25943              		.loc 1 398 0
 25944 0444 4FF00003 		mov	r3, #0
 25945 0448 A7F84430 		strh	r3, [r7, #68]	@ movhi
 25946              	.L30:
 399:../inc/STM32F4xx_StdPeriph_Driver/src/stm32f4xx_cryp_aes.c ****   }
 400:../inc/STM32F4xx_StdPeriph_Driver/src/stm32f4xx_cryp_aes.c ****   AES_CRYP_InitStructure.CRYP_AlgoMode = CRYP_AlgoMode_AES_CBC;
 25947              		.loc 1 400 0
 25948 044c 4FF02803 		mov	r3, #40
 25949 0450 A7F84630 		strh	r3, [r7, #70]	@ movhi
 401:../inc/STM32F4xx_StdPeriph_Driver/src/stm32f4xx_cryp_aes.c ****   AES_CRYP_InitStructure.CRYP_DataType = CRYP_DataType_8b;
 25950              		.loc 1 401 0
 25951 0454 4FF08003 		mov	r3, #128
 25952 0458 A7F84830 		strh	r3, [r7, #72]	@ movhi
 402:../inc/STM32F4xx_StdPeriph_Driver/src/stm32f4xx_cryp_aes.c ****   CRYP_Init(&AES_CRYP_InitStructure);
 25953              		.loc 1 402 0
 25954 045c 07F14403 		add	r3, r7, #68
 25955 0460 1846     		mov	r0, r3
 25956 0462 FFF7FEFF 		bl	CRYP_Init
 403:../inc/STM32F4xx_StdPeriph_Driver/src/stm32f4xx_cryp_aes.c **** 
 404:../inc/STM32F4xx_StdPeriph_Driver/src/stm32f4xx_cryp_aes.c ****   /* CRYP Initialization Vectors */
 405:../inc/STM32F4xx_StdPeriph_Driver/src/stm32f4xx_cryp_aes.c ****   CRYP_IVInit(&AES_CRYP_IVInitStructure);
 25957              		.loc 1 405 0
 25958 0466 07F11403 		add	r3, r7, #20
 25959 046a 1846     		mov	r0, r3
 25960 046c FFF7FEFF 		bl	CRYP_IVInit
 406:../inc/STM32F4xx_StdPeriph_Driver/src/stm32f4xx_cryp_aes.c **** 
 407:../inc/STM32F4xx_StdPeriph_Driver/src/stm32f4xx_cryp_aes.c ****   /* Flush IN/OUT FIFOs */
 408:../inc/STM32F4xx_StdPeriph_Driver/src/stm32f4xx_cryp_aes.c ****   CRYP_FIFOFlush();
 25961              		.loc 1 408 0
 25962 0470 FFF7FEFF 		bl	CRYP_FIFOFlush
 409:../inc/STM32F4xx_StdPeriph_Driver/src/stm32f4xx_cryp_aes.c **** 
 410:../inc/STM32F4xx_StdPeriph_Driver/src/stm32f4xx_cryp_aes.c ****   /* Enable Crypto processor */
 411:../inc/STM32F4xx_StdPeriph_Driver/src/stm32f4xx_cryp_aes.c ****   CRYP_Cmd(ENABLE);
 25963              		.loc 1 411 0
 25964 0474 4FF00100 		mov	r0, #1
 25965 0478 FFF7FEFF 		bl	CRYP_Cmd
 412:../inc/STM32F4xx_StdPeriph_Driver/src/stm32f4xx_cryp_aes.c **** 
 413:../inc/STM32F4xx_StdPeriph_Driver/src/stm32f4xx_cryp_aes.c **** 
 414:../inc/STM32F4xx_StdPeriph_Driver/src/stm32f4xx_cryp_aes.c ****   for(i=0; ((i<Ilength) && (status != ERROR)); i+=16)
 25966              		.loc 1 414 0
 25967 047c 4FF00003 		mov	r3, #0
 25968 0480 C7F80831 		str	r3, [r7, #264]
 25969 0484 8CE0     		b	.L31
 25970              	.L37:
 415:../inc/STM32F4xx_StdPeriph_Driver/src/stm32f4xx_cryp_aes.c ****   {
 416:../inc/STM32F4xx_StdPeriph_Driver/src/stm32f4xx_cryp_aes.c **** 
 417:../inc/STM32F4xx_StdPeriph_Driver/src/stm32f4xx_cryp_aes.c ****     /* Write the Input block in the IN FIFO */
 418:../inc/STM32F4xx_StdPeriph_Driver/src/stm32f4xx_cryp_aes.c ****     CRYP_DataIn(*(uint32_t*)(inputaddr));
 25971              		.loc 1 418 0
 25972 0486 D7F81031 		ldr	r3, [r7, #272]
 25973 048a 1B68     		ldr	r3, [r3, #0]
 25974 048c 1846     		mov	r0, r3
 25975 048e FFF7FEFF 		bl	CRYP_DataIn
 419:../inc/STM32F4xx_StdPeriph_Driver/src/stm32f4xx_cryp_aes.c ****     inputaddr+=4;
 25976              		.loc 1 419 0
 25977 0492 D7F81031 		ldr	r3, [r7, #272]
 25978 0496 03F10403 		add	r3, r3, #4
 25979 049a C7F81031 		str	r3, [r7, #272]
 420:../inc/STM32F4xx_StdPeriph_Driver/src/stm32f4xx_cryp_aes.c ****     CRYP_DataIn(*(uint32_t*)(inputaddr));
 25980              		.loc 1 420 0
 25981 049e D7F81031 		ldr	r3, [r7, #272]
 25982 04a2 1B68     		ldr	r3, [r3, #0]
 25983 04a4 1846     		mov	r0, r3
 25984 04a6 FFF7FEFF 		bl	CRYP_DataIn
 421:../inc/STM32F4xx_StdPeriph_Driver/src/stm32f4xx_cryp_aes.c ****     inputaddr+=4;
 25985              		.loc 1 421 0
 25986 04aa D7F81031 		ldr	r3, [r7, #272]
 25987 04ae 03F10403 		add	r3, r3, #4
 25988 04b2 C7F81031 		str	r3, [r7, #272]
 422:../inc/STM32F4xx_StdPeriph_Driver/src/stm32f4xx_cryp_aes.c ****     CRYP_DataIn(*(uint32_t*)(inputaddr));
 25989              		.loc 1 422 0
 25990 04b6 D7F81031 		ldr	r3, [r7, #272]
 25991 04ba 1B68     		ldr	r3, [r3, #0]
 25992 04bc 1846     		mov	r0, r3
 25993 04be FFF7FEFF 		bl	CRYP_DataIn
 423:../inc/STM32F4xx_StdPeriph_Driver/src/stm32f4xx_cryp_aes.c ****     inputaddr+=4;
 25994              		.loc 1 423 0
 25995 04c2 D7F81031 		ldr	r3, [r7, #272]
 25996 04c6 03F10403 		add	r3, r3, #4
 25997 04ca C7F81031 		str	r3, [r7, #272]
 424:../inc/STM32F4xx_StdPeriph_Driver/src/stm32f4xx_cryp_aes.c ****     CRYP_DataIn(*(uint32_t*)(inputaddr));
 25998              		.loc 1 424 0
 25999 04ce D7F81031 		ldr	r3, [r7, #272]
 26000 04d2 1B68     		ldr	r3, [r3, #0]
 26001 04d4 1846     		mov	r0, r3
 26002 04d6 FFF7FEFF 		bl	CRYP_DataIn
 425:../inc/STM32F4xx_StdPeriph_Driver/src/stm32f4xx_cryp_aes.c ****     inputaddr+=4;
 26003              		.loc 1 425 0
 26004 04da D7F81031 		ldr	r3, [r7, #272]
 26005 04de 03F10403 		add	r3, r3, #4
 26006 04e2 C7F81031 		str	r3, [r7, #272]
 426:../inc/STM32F4xx_StdPeriph_Driver/src/stm32f4xx_cryp_aes.c ****     /* Wait until the complete message has been processed */
 427:../inc/STM32F4xx_StdPeriph_Driver/src/stm32f4xx_cryp_aes.c ****     counter = 0;
 26007              		.loc 1 427 0
 26008 04e6 07F11003 		add	r3, r7, #16
 26009 04ea 4FF00002 		mov	r2, #0
 26010 04ee 1A60     		str	r2, [r3, #0]
 26011              	.L33:
 428:../inc/STM32F4xx_StdPeriph_Driver/src/stm32f4xx_cryp_aes.c ****     do
 429:../inc/STM32F4xx_StdPeriph_Driver/src/stm32f4xx_cryp_aes.c ****     {
 430:../inc/STM32F4xx_StdPeriph_Driver/src/stm32f4xx_cryp_aes.c ****       busystatus = CRYP_GetFlagStatus(CRYP_FLAG_BUSY);
 26012              		.loc 1 430 0 discriminator 1
 26013 04f0 4FF01000 		mov	r0, #16
 26014 04f4 FFF7FEFF 		bl	CRYP_GetFlagStatus
 26015 04f8 0346     		mov	r3, r0
 26016 04fa C7F80431 		str	r3, [r7, #260]
 431:../inc/STM32F4xx_StdPeriph_Driver/src/stm32f4xx_cryp_aes.c ****       counter++;
 26017              		.loc 1 431 0 discriminator 1
 26018 04fe 07F11003 		add	r3, r7, #16
 26019 0502 1B68     		ldr	r3, [r3, #0]
 26020 0504 03F10102 		add	r2, r3, #1
 26021 0508 07F11003 		add	r3, r7, #16
 26022 050c 1A60     		str	r2, [r3, #0]
 432:../inc/STM32F4xx_StdPeriph_Driver/src/stm32f4xx_cryp_aes.c ****     }while ((counter != AESBUSY_TIMEOUT) && (busystatus != RESET));
 26023              		.loc 1 432 0 discriminator 1
 26024 050e 07F11003 		add	r3, r7, #16
 26025 0512 1B68     		ldr	r3, [r3, #0]
 26026 0514 B3F5803F 		cmp	r3, #65536
 26027 0518 03D0     		beq	.L32
 26028 051a D7F80431 		ldr	r3, [r7, #260]
 26029 051e 002B     		cmp	r3, #0
 26030 0520 E6D1     		bne	.L33
 26031              	.L32:
 433:../inc/STM32F4xx_StdPeriph_Driver/src/stm32f4xx_cryp_aes.c **** 
 434:../inc/STM32F4xx_StdPeriph_Driver/src/stm32f4xx_cryp_aes.c ****     if (busystatus != RESET)
 26032              		.loc 1 434 0
 26033 0522 D7F80431 		ldr	r3, [r7, #260]
 26034 0526 002B     		cmp	r3, #0
 26035 0528 04D0     		beq	.L34
 435:../inc/STM32F4xx_StdPeriph_Driver/src/stm32f4xx_cryp_aes.c ****    {
 436:../inc/STM32F4xx_StdPeriph_Driver/src/stm32f4xx_cryp_aes.c ****        status = ERROR;
 26036              		.loc 1 436 0
 26037 052a 4FF00003 		mov	r3, #0
 26038 052e 87F81731 		strb	r3, [r7, #279]
 26039 0532 2FE0     		b	.L35
 26040              	.L34:
 437:../inc/STM32F4xx_StdPeriph_Driver/src/stm32f4xx_cryp_aes.c ****     }
 438:../inc/STM32F4xx_StdPeriph_Driver/src/stm32f4xx_cryp_aes.c ****     else
 439:../inc/STM32F4xx_StdPeriph_Driver/src/stm32f4xx_cryp_aes.c ****     {
 440:../inc/STM32F4xx_StdPeriph_Driver/src/stm32f4xx_cryp_aes.c **** 
 441:../inc/STM32F4xx_StdPeriph_Driver/src/stm32f4xx_cryp_aes.c ****       /* Read the Output block from the Output FIFO */
 442:../inc/STM32F4xx_StdPeriph_Driver/src/stm32f4xx_cryp_aes.c ****       *(uint32_t*)(outputaddr) = CRYP_DataOut();
 26041              		.loc 1 442 0
 26042 0534 D7F80C41 		ldr	r4, [r7, #268]
 26043 0538 FFF7FEFF 		bl	CRYP_DataOut
 26044 053c 0346     		mov	r3, r0
 26045 053e 2360     		str	r3, [r4, #0]
 443:../inc/STM32F4xx_StdPeriph_Driver/src/stm32f4xx_cryp_aes.c ****       outputaddr+=4;
 26046              		.loc 1 443 0
 26047 0540 D7F80C31 		ldr	r3, [r7, #268]
 26048 0544 03F10403 		add	r3, r3, #4
 26049 0548 C7F80C31 		str	r3, [r7, #268]
 444:../inc/STM32F4xx_StdPeriph_Driver/src/stm32f4xx_cryp_aes.c ****       *(uint32_t*)(outputaddr) = CRYP_DataOut();
 26050              		.loc 1 444 0
 26051 054c D7F80C41 		ldr	r4, [r7, #268]
 26052 0550 FFF7FEFF 		bl	CRYP_DataOut
 26053 0554 0346     		mov	r3, r0
 26054 0556 2360     		str	r3, [r4, #0]
 445:../inc/STM32F4xx_StdPeriph_Driver/src/stm32f4xx_cryp_aes.c ****       outputaddr+=4;
 26055              		.loc 1 445 0
 26056 0558 D7F80C31 		ldr	r3, [r7, #268]
 26057 055c 03F10403 		add	r3, r3, #4
 26058 0560 C7F80C31 		str	r3, [r7, #268]
 446:../inc/STM32F4xx_StdPeriph_Driver/src/stm32f4xx_cryp_aes.c ****       *(uint32_t*)(outputaddr) = CRYP_DataOut();
 26059              		.loc 1 446 0
 26060 0564 D7F80C41 		ldr	r4, [r7, #268]
 26061 0568 FFF7FEFF 		bl	CRYP_DataOut
 26062 056c 0346     		mov	r3, r0
 26063 056e 2360     		str	r3, [r4, #0]
 447:../inc/STM32F4xx_StdPeriph_Driver/src/stm32f4xx_cryp_aes.c ****       outputaddr+=4;
 26064              		.loc 1 447 0
 26065 0570 D7F80C31 		ldr	r3, [r7, #268]
 26066 0574 03F10403 		add	r3, r3, #4
 26067 0578 C7F80C31 		str	r3, [r7, #268]
 448:../inc/STM32F4xx_StdPeriph_Driver/src/stm32f4xx_cryp_aes.c ****       *(uint32_t*)(outputaddr) = CRYP_DataOut();
 26068              		.loc 1 448 0
 26069 057c D7F80C41 		ldr	r4, [r7, #268]
 26070 0580 FFF7FEFF 		bl	CRYP_DataOut
 26071 0584 0346     		mov	r3, r0
 26072 0586 2360     		str	r3, [r4, #0]
 449:../inc/STM32F4xx_StdPeriph_Driver/src/stm32f4xx_cryp_aes.c ****       outputaddr+=4;
 26073              		.loc 1 449 0
 26074 0588 D7F80C31 		ldr	r3, [r7, #268]
 26075 058c 03F10403 		add	r3, r3, #4
 26076 0590 C7F80C31 		str	r3, [r7, #268]
 26077              	.L35:
 414:../inc/STM32F4xx_StdPeriph_Driver/src/stm32f4xx_cryp_aes.c ****   for(i=0; ((i<Ilength) && (status != ERROR)); i+=16)
 26078              		.loc 1 414 0
 26079 0594 D7F80831 		ldr	r3, [r7, #264]
 26080 0598 03F11003 		add	r3, r3, #16
 26081 059c C7F80831 		str	r3, [r7, #264]
 26082              	.L31:
 414:../inc/STM32F4xx_StdPeriph_Driver/src/stm32f4xx_cryp_aes.c ****   for(i=0; ((i<Ilength) && (status != ERROR)); i+=16)
 26083              		.loc 1 414 0 is_stmt 0 discriminator 1
 26084 05a0 D7F80821 		ldr	r2, [r7, #264]
 26085 05a4 D7F82C31 		ldr	r3, [r7, #300]
 26086 05a8 9A42     		cmp	r2, r3
 26087 05aa 04D2     		bcs	.L36
 414:../inc/STM32F4xx_StdPeriph_Driver/src/stm32f4xx_cryp_aes.c ****   for(i=0; ((i<Ilength) && (status != ERROR)); i+=16)
 26088              		.loc 1 414 0 discriminator 2
 26089 05ac 97F81731 		ldrb	r3, [r7, #279]	@ zero_extendqisi2
 26090 05b0 002B     		cmp	r3, #0
 26091 05b2 7FF468AF 		bne	.L37
 26092              	.L36:
 450:../inc/STM32F4xx_StdPeriph_Driver/src/stm32f4xx_cryp_aes.c ****     }
 451:../inc/STM32F4xx_StdPeriph_Driver/src/stm32f4xx_cryp_aes.c ****   }
 452:../inc/STM32F4xx_StdPeriph_Driver/src/stm32f4xx_cryp_aes.c **** 
 453:../inc/STM32F4xx_StdPeriph_Driver/src/stm32f4xx_cryp_aes.c ****   /* Disable Crypto */
 454:../inc/STM32F4xx_StdPeriph_Driver/src/stm32f4xx_cryp_aes.c ****   CRYP_Cmd(DISABLE);
 26093              		.loc 1 454 0 is_stmt 1
 26094 05b6 4FF00000 		mov	r0, #0
 26095 05ba FFF7FEFF 		bl	CRYP_Cmd
 455:../inc/STM32F4xx_StdPeriph_Driver/src/stm32f4xx_cryp_aes.c **** 
 456:../inc/STM32F4xx_StdPeriph_Driver/src/stm32f4xx_cryp_aes.c ****   return status;
 26096              		.loc 1 456 0
 26097 05be 97F81731 		ldrb	r3, [r7, #279]	@ zero_extendqisi2
 457:../inc/STM32F4xx_StdPeriph_Driver/src/stm32f4xx_cryp_aes.c **** }
 26098              		.loc 1 457 0
 26099 05c2 1846     		mov	r0, r3
 26100 05c4 07F58E77 		add	r7, r7, #284
 26101 05c8 BD46     		mov	sp, r7
 26102 05ca 90BD     		pop	{r4, r7, pc}
 26103              		.cfi_endproc
 26104              	.LFE111:
 26106              		.section	.text.CRYP_AES_CTR,"ax",%progbits
 26107              		.align	2
 26108              		.global	CRYP_AES_CTR
 26109              		.thumb
 26110              		.thumb_func
 26112              	CRYP_AES_CTR:
 26113              	.LFB112:
 458:../inc/STM32F4xx_StdPeriph_Driver/src/stm32f4xx_cryp_aes.c **** 
 459:../inc/STM32F4xx_StdPeriph_Driver/src/stm32f4xx_cryp_aes.c **** /**
 460:../inc/STM32F4xx_StdPeriph_Driver/src/stm32f4xx_cryp_aes.c ****   * @brief  Encrypt and decrypt using AES in CTR Mode
 461:../inc/STM32F4xx_StdPeriph_Driver/src/stm32f4xx_cryp_aes.c ****   * @param  Mode: encryption or decryption Mode.
 462:../inc/STM32F4xx_StdPeriph_Driver/src/stm32f4xx_cryp_aes.c ****   *           This parameter can be one of the following values:
 463:../inc/STM32F4xx_StdPeriph_Driver/src/stm32f4xx_cryp_aes.c ****   *            @arg MODE_ENCRYPT: Encryption
 464:../inc/STM32F4xx_StdPeriph_Driver/src/stm32f4xx_cryp_aes.c ****   *            @arg MODE_DECRYPT: Decryption
 465:../inc/STM32F4xx_StdPeriph_Driver/src/stm32f4xx_cryp_aes.c ****   * @param  InitVectors: Initialisation Vectors used for AES algorithm.
 466:../inc/STM32F4xx_StdPeriph_Driver/src/stm32f4xx_cryp_aes.c ****   * @param  Key: Key used for AES algorithm.
 467:../inc/STM32F4xx_StdPeriph_Driver/src/stm32f4xx_cryp_aes.c ****   * @param  Keysize: length of the Key, must be a 128, 192 or 256.
 468:../inc/STM32F4xx_StdPeriph_Driver/src/stm32f4xx_cryp_aes.c ****   * @param  Input: pointer to the Input buffer.
 469:../inc/STM32F4xx_StdPeriph_Driver/src/stm32f4xx_cryp_aes.c ****   * @param  Ilength: length of the Input buffer, must be a multiple of 16.
 470:../inc/STM32F4xx_StdPeriph_Driver/src/stm32f4xx_cryp_aes.c ****   * @param  Output: pointer to the returned buffer.
 471:../inc/STM32F4xx_StdPeriph_Driver/src/stm32f4xx_cryp_aes.c ****   * @retval An ErrorStatus enumeration value:
 472:../inc/STM32F4xx_StdPeriph_Driver/src/stm32f4xx_cryp_aes.c ****   *          - SUCCESS: Operation done
 473:../inc/STM32F4xx_StdPeriph_Driver/src/stm32f4xx_cryp_aes.c ****   *          - ERROR: Operation failed
 474:../inc/STM32F4xx_StdPeriph_Driver/src/stm32f4xx_cryp_aes.c ****   */
 475:../inc/STM32F4xx_StdPeriph_Driver/src/stm32f4xx_cryp_aes.c **** ErrorStatus CRYP_AES_CTR(uint8_t Mode, uint8_t InitVectors[16], uint8_t *Key, 
 476:../inc/STM32F4xx_StdPeriph_Driver/src/stm32f4xx_cryp_aes.c ****                          uint16_t Keysize, uint8_t *Input, uint32_t Ilength,
 477:../inc/STM32F4xx_StdPeriph_Driver/src/stm32f4xx_cryp_aes.c ****                          uint8_t *Output)
 478:../inc/STM32F4xx_StdPeriph_Driver/src/stm32f4xx_cryp_aes.c **** {
 26114              		.loc 1 478 0
 26115              		.cfi_startproc
 26116              		@ args = 12, pretend = 0, frame = 280
 26117              		@ frame_needed = 1, uses_anonymous_args = 0
 26118 0000 90B5     		push	{r4, r7, lr}
 26119              	.LCFI6:
 26120              		.cfi_def_cfa_offset 12
 26121 0002 C7B0     		sub	sp, sp, #284
 26122              	.LCFI7:
 26123              		.cfi_def_cfa_offset 296
 26124 0004 00AF     		add	r7, sp, #0
 26125              		.cfi_offset 14, -4
 26126              		.cfi_offset 7, -8
 26127              		.cfi_offset 4, -12
 26128              	.LCFI8:
 26129              		.cfi_def_cfa_register 7
 26130 0006 07F10804 		add	r4, r7, #8
 26131 000a 2160     		str	r1, [r4, #0]
 26132 000c 07F10401 		add	r1, r7, #4
 26133 0010 0A60     		str	r2, [r1, #0]
 26134 0012 1A46     		mov	r2, r3
 26135 0014 07F11003 		add	r3, r7, #16
 26136 0018 03F1FF33 		add	r3, r3, #-1
 26137 001c 0146     		mov	r1, r0
 26138 001e 1970     		strb	r1, [r3, #0]
 26139 0020 07F10203 		add	r3, r7, #2
 26140 0024 1A80     		strh	r2, [r3, #0]	@ movhi
 479:../inc/STM32F4xx_StdPeriph_Driver/src/stm32f4xx_cryp_aes.c ****   CRYP_InitTypeDef AES_CRYP_InitStructure;
 480:../inc/STM32F4xx_StdPeriph_Driver/src/stm32f4xx_cryp_aes.c ****   CRYP_KeyInitTypeDef AES_CRYP_KeyInitStructure;
 481:../inc/STM32F4xx_StdPeriph_Driver/src/stm32f4xx_cryp_aes.c ****   CRYP_IVInitTypeDef AES_CRYP_IVInitStructure;
 482:../inc/STM32F4xx_StdPeriph_Driver/src/stm32f4xx_cryp_aes.c ****   __IO uint32_t counter = 0;
 26141              		.loc 1 482 0
 26142 0026 07F11003 		add	r3, r7, #16
 26143 002a 4FF00002 		mov	r2, #0
 26144 002e 1A60     		str	r2, [r3, #0]
 483:../inc/STM32F4xx_StdPeriph_Driver/src/stm32f4xx_cryp_aes.c ****   uint32_t busystatus = 0;
 26145              		.loc 1 483 0
 26146 0030 4FF00003 		mov	r3, #0
 26147 0034 C7F80431 		str	r3, [r7, #260]
 484:../inc/STM32F4xx_StdPeriph_Driver/src/stm32f4xx_cryp_aes.c ****   ErrorStatus status = SUCCESS;
 26148              		.loc 1 484 0
 26149 0038 4FF00103 		mov	r3, #1
 26150 003c 87F81731 		strb	r3, [r7, #279]
 485:../inc/STM32F4xx_StdPeriph_Driver/src/stm32f4xx_cryp_aes.c ****   uint32_t keyaddr    = (uint32_t)Key;
 26151              		.loc 1 485 0
 26152 0040 07F10403 		add	r3, r7, #4
 26153 0044 1B68     		ldr	r3, [r3, #0]
 26154 0046 C7F80031 		str	r3, [r7, #256]
 486:../inc/STM32F4xx_StdPeriph_Driver/src/stm32f4xx_cryp_aes.c ****   uint32_t inputaddr  = (uint32_t)Input;
 26155              		.loc 1 486 0
 26156 004a D7F82831 		ldr	r3, [r7, #296]
 26157 004e C7F81031 		str	r3, [r7, #272]
 487:../inc/STM32F4xx_StdPeriph_Driver/src/stm32f4xx_cryp_aes.c ****   uint32_t outputaddr = (uint32_t)Output;
 26158              		.loc 1 487 0
 26159 0052 D7F83031 		ldr	r3, [r7, #304]
 26160 0056 C7F80C31 		str	r3, [r7, #268]
 488:../inc/STM32F4xx_StdPeriph_Driver/src/stm32f4xx_cryp_aes.c ****   uint32_t ivaddr     = (uint32_t)InitVectors;
 26161              		.loc 1 488 0
 26162 005a 07F10803 		add	r3, r7, #8
 26163 005e 1B68     		ldr	r3, [r3, #0]
 26164 0060 C7F8FC30 		str	r3, [r7, #252]
 489:../inc/STM32F4xx_StdPeriph_Driver/src/stm32f4xx_cryp_aes.c ****   uint32_t i = 0;
 26165              		.loc 1 489 0
 26166 0064 4FF00003 		mov	r3, #0
 26167 0068 C7F80831 		str	r3, [r7, #264]
 490:../inc/STM32F4xx_StdPeriph_Driver/src/stm32f4xx_cryp_aes.c **** 
 491:../inc/STM32F4xx_StdPeriph_Driver/src/stm32f4xx_cryp_aes.c ****   /* Crypto structures initialisation*/
 492:../inc/STM32F4xx_StdPeriph_Driver/src/stm32f4xx_cryp_aes.c ****   CRYP_KeyStructInit(&AES_CRYP_KeyInitStructure);
 26168              		.loc 1 492 0
 26169 006c 07F12403 		add	r3, r7, #36
 26170 0070 1846     		mov	r0, r3
 26171 0072 FFF7FEFF 		bl	CRYP_KeyStructInit
 493:../inc/STM32F4xx_StdPeriph_Driver/src/stm32f4xx_cryp_aes.c **** 
 494:../inc/STM32F4xx_StdPeriph_Driver/src/stm32f4xx_cryp_aes.c ****   switch(Keysize)
 26172              		.loc 1 494 0
 26173 0076 07F10203 		add	r3, r7, #2
 26174 007a 1B88     		ldrh	r3, [r3, #0]
 26175 007c C02B     		cmp	r3, #192
 26176 007e 51D0     		beq	.L42
 26177 0080 B3F5807F 		cmp	r3, #256
 26178 0084 00F0BF80 		beq	.L43
 26179 0088 802B     		cmp	r3, #128
 26180 008a 40F04981 		bne	.L54
 26181              	.L41:
 495:../inc/STM32F4xx_StdPeriph_Driver/src/stm32f4xx_cryp_aes.c ****   {
 496:../inc/STM32F4xx_StdPeriph_Driver/src/stm32f4xx_cryp_aes.c ****     case 128:
 497:../inc/STM32F4xx_StdPeriph_Driver/src/stm32f4xx_cryp_aes.c ****     AES_CRYP_InitStructure.CRYP_KeySize = CRYP_KeySize_128b;
 26182              		.loc 1 497 0
 26183 008e 4FF00003 		mov	r3, #0
 26184 0092 A7F84A30 		strh	r3, [r7, #74]	@ movhi
 498:../inc/STM32F4xx_StdPeriph_Driver/src/stm32f4xx_cryp_aes.c ****     AES_CRYP_KeyInitStructure.CRYP_Key2Left = __REV(*(uint32_t*)(keyaddr));
 26185              		.loc 1 498 0
 26186 0096 D7F80031 		ldr	r3, [r7, #256]
 26187 009a 1B68     		ldr	r3, [r3, #0]
 26188 009c C7F8F830 		str	r3, [r7, #248]
 26189              	.LBB206:
 26190              	.LBB207:
 352:/home/kvv/workspace/k-car/autopilot/inc/CMSIS/core_cmInstr.h ****   __ASM volatile ("rev %0, %1" : "=r" (result) : "r" (value) );
 26191              		.loc 7 352 0
 26192 00a0 D7F8F830 		ldr	r3, [r7, #248]
 26193              	@ 352 "/home/kvv/workspace/k-car/autopilot/inc/CMSIS/core_cmInstr.h" 1
 26194 00a4 1CBA     		rev r4, r3
 26195              	@ 0 "" 2
 26196              		.thumb
 26197 00a6 C7F8F440 		str	r4, [r7, #244]
 26198              		.loc 7 353 0
 26199 00aa D7F8F430 		ldr	r3, [r7, #244]
 26200              	.LBE207:
 26201              	.LBE206:
 26202              		.loc 1 498 0
 26203 00ae 7B63     		str	r3, [r7, #52]
 499:../inc/STM32F4xx_StdPeriph_Driver/src/stm32f4xx_cryp_aes.c ****     keyaddr+=4;
 26204              		.loc 1 499 0
 26205 00b0 D7F80031 		ldr	r3, [r7, #256]
 26206 00b4 03F10403 		add	r3, r3, #4
 26207 00b8 C7F80031 		str	r3, [r7, #256]
 500:../inc/STM32F4xx_StdPeriph_Driver/src/stm32f4xx_cryp_aes.c ****     AES_CRYP_KeyInitStructure.CRYP_Key2Right= __REV(*(uint32_t*)(keyaddr));
 26208              		.loc 1 500 0
 26209 00bc D7F80031 		ldr	r3, [r7, #256]
 26210 00c0 1B68     		ldr	r3, [r3, #0]
 26211 00c2 C7F8F030 		str	r3, [r7, #240]
 26212              	.LBB208:
 26213              	.LBB209:
 352:/home/kvv/workspace/k-car/autopilot/inc/CMSIS/core_cmInstr.h ****   __ASM volatile ("rev %0, %1" : "=r" (result) : "r" (value) );
 26214              		.loc 7 352 0
 26215 00c6 D7F8F030 		ldr	r3, [r7, #240]
 26216              	@ 352 "/home/kvv/workspace/k-car/autopilot/inc/CMSIS/core_cmInstr.h" 1
 26217 00ca 1CBA     		rev r4, r3
 26218              	@ 0 "" 2
 26219              		.thumb
 26220 00cc C7F8EC40 		str	r4, [r7, #236]
 26221              		.loc 7 353 0
 26222 00d0 D7F8EC30 		ldr	r3, [r7, #236]
 26223              	.LBE209:
 26224              	.LBE208:
 26225              		.loc 1 500 0
 26226 00d4 BB63     		str	r3, [r7, #56]
 501:../inc/STM32F4xx_StdPeriph_Driver/src/stm32f4xx_cryp_aes.c ****     keyaddr+=4;
 26227              		.loc 1 501 0
 26228 00d6 D7F80031 		ldr	r3, [r7, #256]
 26229 00da 03F10403 		add	r3, r3, #4
 26230 00de C7F80031 		str	r3, [r7, #256]
 502:../inc/STM32F4xx_StdPeriph_Driver/src/stm32f4xx_cryp_aes.c ****     AES_CRYP_KeyInitStructure.CRYP_Key3Left = __REV(*(uint32_t*)(keyaddr));
 26231              		.loc 1 502 0
 26232 00e2 D7F80031 		ldr	r3, [r7, #256]
 26233 00e6 1B68     		ldr	r3, [r3, #0]
 26234 00e8 C7F8E830 		str	r3, [r7, #232]
 26235              	.LBB210:
 26236              	.LBB211:
 352:/home/kvv/workspace/k-car/autopilot/inc/CMSIS/core_cmInstr.h ****   __ASM volatile ("rev %0, %1" : "=r" (result) : "r" (value) );
 26237              		.loc 7 352 0
 26238 00ec D7F8E830 		ldr	r3, [r7, #232]
 26239              	@ 352 "/home/kvv/workspace/k-car/autopilot/inc/CMSIS/core_cmInstr.h" 1
 26240 00f0 1CBA     		rev r4, r3
 26241              	@ 0 "" 2
 26242              		.thumb
 26243 00f2 C7F8E440 		str	r4, [r7, #228]
 26244              		.loc 7 353 0
 26245 00f6 D7F8E430 		ldr	r3, [r7, #228]
 26246              	.LBE211:
 26247              	.LBE210:
 26248              		.loc 1 502 0
 26249 00fa FB63     		str	r3, [r7, #60]
 503:../inc/STM32F4xx_StdPeriph_Driver/src/stm32f4xx_cryp_aes.c ****     keyaddr+=4;
 26250              		.loc 1 503 0
 26251 00fc D7F80031 		ldr	r3, [r7, #256]
 26252 0100 03F10403 		add	r3, r3, #4
 26253 0104 C7F80031 		str	r3, [r7, #256]
 504:../inc/STM32F4xx_StdPeriph_Driver/src/stm32f4xx_cryp_aes.c ****     AES_CRYP_KeyInitStructure.CRYP_Key3Right= __REV(*(uint32_t*)(keyaddr));
 26254              		.loc 1 504 0
 26255 0108 D7F80031 		ldr	r3, [r7, #256]
 26256 010c 1B68     		ldr	r3, [r3, #0]
 26257 010e C7F8E030 		str	r3, [r7, #224]
 26258              	.LBB212:
 26259              	.LBB213:
 352:/home/kvv/workspace/k-car/autopilot/inc/CMSIS/core_cmInstr.h ****   __ASM volatile ("rev %0, %1" : "=r" (result) : "r" (value) );
 26260              		.loc 7 352 0
 26261 0112 D7F8E030 		ldr	r3, [r7, #224]
 26262              	@ 352 "/home/kvv/workspace/k-car/autopilot/inc/CMSIS/core_cmInstr.h" 1
 26263 0116 1CBA     		rev r4, r3
 26264              	@ 0 "" 2
 26265              		.thumb
 26266 0118 C7F8DC40 		str	r4, [r7, #220]
 26267              		.loc 7 353 0
 26268 011c D7F8DC30 		ldr	r3, [r7, #220]
 26269              	.LBE213:
 26270              	.LBE212:
 26271              		.loc 1 504 0
 26272 0120 3B64     		str	r3, [r7, #64]
 505:../inc/STM32F4xx_StdPeriph_Driver/src/stm32f4xx_cryp_aes.c ****     break;
 26273              		.loc 1 505 0
 26274 0122 FEE0     		b	.L44
 26275              	.L42:
 506:../inc/STM32F4xx_StdPeriph_Driver/src/stm32f4xx_cryp_aes.c ****     case 192:
 507:../inc/STM32F4xx_StdPeriph_Driver/src/stm32f4xx_cryp_aes.c ****     AES_CRYP_InitStructure.CRYP_KeySize  = CRYP_KeySize_192b;
 26276              		.loc 1 507 0
 26277 0124 4FF48073 		mov	r3, #256
 26278 0128 A7F84A30 		strh	r3, [r7, #74]	@ movhi
 508:../inc/STM32F4xx_StdPeriph_Driver/src/stm32f4xx_cryp_aes.c ****     AES_CRYP_KeyInitStructure.CRYP_Key1Left = __REV(*(uint32_t*)(keyaddr));
 26279              		.loc 1 508 0
 26280 012c D7F80031 		ldr	r3, [r7, #256]
 26281 0130 1B68     		ldr	r3, [r3, #0]
 26282 0132 C7F8D830 		str	r3, [r7, #216]
 26283              	.LBB214:
 26284              	.LBB215:
 352:/home/kvv/workspace/k-car/autopilot/inc/CMSIS/core_cmInstr.h ****   __ASM volatile ("rev %0, %1" : "=r" (result) : "r" (value) );
 26285              		.loc 7 352 0
 26286 0136 D7F8D830 		ldr	r3, [r7, #216]
 26287              	@ 352 "/home/kvv/workspace/k-car/autopilot/inc/CMSIS/core_cmInstr.h" 1
 26288 013a 1CBA     		rev r4, r3
 26289              	@ 0 "" 2
 26290              		.thumb
 26291 013c C7F8D440 		str	r4, [r7, #212]
 26292              		.loc 7 353 0
 26293 0140 D7F8D430 		ldr	r3, [r7, #212]
 26294              	.LBE215:
 26295              	.LBE214:
 26296              		.loc 1 508 0
 26297 0144 FB62     		str	r3, [r7, #44]
 509:../inc/STM32F4xx_StdPeriph_Driver/src/stm32f4xx_cryp_aes.c ****     keyaddr+=4;
 26298              		.loc 1 509 0
 26299 0146 D7F80031 		ldr	r3, [r7, #256]
 26300 014a 03F10403 		add	r3, r3, #4
 26301 014e C7F80031 		str	r3, [r7, #256]
 510:../inc/STM32F4xx_StdPeriph_Driver/src/stm32f4xx_cryp_aes.c ****     AES_CRYP_KeyInitStructure.CRYP_Key1Right= __REV(*(uint32_t*)(keyaddr));
 26302              		.loc 1 510 0
 26303 0152 D7F80031 		ldr	r3, [r7, #256]
 26304 0156 1B68     		ldr	r3, [r3, #0]
 26305 0158 C7F8D030 		str	r3, [r7, #208]
 26306              	.LBB216:
 26307              	.LBB217:
 352:/home/kvv/workspace/k-car/autopilot/inc/CMSIS/core_cmInstr.h ****   __ASM volatile ("rev %0, %1" : "=r" (result) : "r" (value) );
 26308              		.loc 7 352 0
 26309 015c D7F8D030 		ldr	r3, [r7, #208]
 26310              	@ 352 "/home/kvv/workspace/k-car/autopilot/inc/CMSIS/core_cmInstr.h" 1
 26311 0160 1CBA     		rev r4, r3
 26312              	@ 0 "" 2
 26313              		.thumb
 26314 0162 C7F8CC40 		str	r4, [r7, #204]
 26315              		.loc 7 353 0
 26316 0166 D7F8CC30 		ldr	r3, [r7, #204]
 26317              	.LBE217:
 26318              	.LBE216:
 26319              		.loc 1 510 0
 26320 016a 3B63     		str	r3, [r7, #48]
 511:../inc/STM32F4xx_StdPeriph_Driver/src/stm32f4xx_cryp_aes.c ****     keyaddr+=4;
 26321              		.loc 1 511 0
 26322 016c D7F80031 		ldr	r3, [r7, #256]
 26323 0170 03F10403 		add	r3, r3, #4
 26324 0174 C7F80031 		str	r3, [r7, #256]
 512:../inc/STM32F4xx_StdPeriph_Driver/src/stm32f4xx_cryp_aes.c ****     AES_CRYP_KeyInitStructure.CRYP_Key2Left = __REV(*(uint32_t*)(keyaddr));
 26325              		.loc 1 512 0
 26326 0178 D7F80031 		ldr	r3, [r7, #256]
 26327 017c 1B68     		ldr	r3, [r3, #0]
 26328 017e C7F8C830 		str	r3, [r7, #200]
 26329              	.LBB218:
 26330              	.LBB219:
 352:/home/kvv/workspace/k-car/autopilot/inc/CMSIS/core_cmInstr.h ****   __ASM volatile ("rev %0, %1" : "=r" (result) : "r" (value) );
 26331              		.loc 7 352 0
 26332 0182 D7F8C830 		ldr	r3, [r7, #200]
 26333              	@ 352 "/home/kvv/workspace/k-car/autopilot/inc/CMSIS/core_cmInstr.h" 1
 26334 0186 1CBA     		rev r4, r3
 26335              	@ 0 "" 2
 26336              		.thumb
 26337 0188 C7F8C440 		str	r4, [r7, #196]
 26338              		.loc 7 353 0
 26339 018c D7F8C430 		ldr	r3, [r7, #196]
 26340              	.LBE219:
 26341              	.LBE218:
 26342              		.loc 1 512 0
 26343 0190 7B63     		str	r3, [r7, #52]
 513:../inc/STM32F4xx_StdPeriph_Driver/src/stm32f4xx_cryp_aes.c ****     keyaddr+=4;
 26344              		.loc 1 513 0
 26345 0192 D7F80031 		ldr	r3, [r7, #256]
 26346 0196 03F10403 		add	r3, r3, #4
 26347 019a C7F80031 		str	r3, [r7, #256]
 514:../inc/STM32F4xx_StdPeriph_Driver/src/stm32f4xx_cryp_aes.c ****     AES_CRYP_KeyInitStructure.CRYP_Key2Right= __REV(*(uint32_t*)(keyaddr));
 26348              		.loc 1 514 0
 26349 019e D7F80031 		ldr	r3, [r7, #256]
 26350 01a2 1B68     		ldr	r3, [r3, #0]
 26351 01a4 C7F8C030 		str	r3, [r7, #192]
 26352              	.LBB220:
 26353              	.LBB221:
 352:/home/kvv/workspace/k-car/autopilot/inc/CMSIS/core_cmInstr.h ****   __ASM volatile ("rev %0, %1" : "=r" (result) : "r" (value) );
 26354              		.loc 7 352 0
 26355 01a8 D7F8C030 		ldr	r3, [r7, #192]
 26356              	@ 352 "/home/kvv/workspace/k-car/autopilot/inc/CMSIS/core_cmInstr.h" 1
 26357 01ac 1CBA     		rev r4, r3
 26358              	@ 0 "" 2
 26359              		.thumb
 26360 01ae C7F8BC40 		str	r4, [r7, #188]
 26361              		.loc 7 353 0
 26362 01b2 D7F8BC30 		ldr	r3, [r7, #188]
 26363              	.LBE221:
 26364              	.LBE220:
 26365              		.loc 1 514 0
 26366 01b6 BB63     		str	r3, [r7, #56]
 515:../inc/STM32F4xx_StdPeriph_Driver/src/stm32f4xx_cryp_aes.c ****     keyaddr+=4;
 26367              		.loc 1 515 0
 26368 01b8 D7F80031 		ldr	r3, [r7, #256]
 26369 01bc 03F10403 		add	r3, r3, #4
 26370 01c0 C7F80031 		str	r3, [r7, #256]
 516:../inc/STM32F4xx_StdPeriph_Driver/src/stm32f4xx_cryp_aes.c ****     AES_CRYP_KeyInitStructure.CRYP_Key3Left = __REV(*(uint32_t*)(keyaddr));
 26371              		.loc 1 516 0
 26372 01c4 D7F80031 		ldr	r3, [r7, #256]
 26373 01c8 1B68     		ldr	r3, [r3, #0]
 26374 01ca C7F8B830 		str	r3, [r7, #184]
 26375              	.LBB222:
 26376              	.LBB223:
 352:/home/kvv/workspace/k-car/autopilot/inc/CMSIS/core_cmInstr.h ****   __ASM volatile ("rev %0, %1" : "=r" (result) : "r" (value) );
 26377              		.loc 7 352 0
 26378 01ce D7F8B830 		ldr	r3, [r7, #184]
 26379              	@ 352 "/home/kvv/workspace/k-car/autopilot/inc/CMSIS/core_cmInstr.h" 1
 26380 01d2 1CBA     		rev r4, r3
 26381              	@ 0 "" 2
 26382              		.thumb
 26383 01d4 C7F8B440 		str	r4, [r7, #180]
 26384              		.loc 7 353 0
 26385 01d8 D7F8B430 		ldr	r3, [r7, #180]
 26386              	.LBE223:
 26387              	.LBE222:
 26388              		.loc 1 516 0
 26389 01dc FB63     		str	r3, [r7, #60]
 517:../inc/STM32F4xx_StdPeriph_Driver/src/stm32f4xx_cryp_aes.c ****     keyaddr+=4;
 26390              		.loc 1 517 0
 26391 01de D7F80031 		ldr	r3, [r7, #256]
 26392 01e2 03F10403 		add	r3, r3, #4
 26393 01e6 C7F80031 		str	r3, [r7, #256]
 518:../inc/STM32F4xx_StdPeriph_Driver/src/stm32f4xx_cryp_aes.c ****     AES_CRYP_KeyInitStructure.CRYP_Key3Right= __REV(*(uint32_t*)(keyaddr));
 26394              		.loc 1 518 0
 26395 01ea D7F80031 		ldr	r3, [r7, #256]
 26396 01ee 1B68     		ldr	r3, [r3, #0]
 26397 01f0 C7F8B030 		str	r3, [r7, #176]
 26398              	.LBB224:
 26399              	.LBB225:
 352:/home/kvv/workspace/k-car/autopilot/inc/CMSIS/core_cmInstr.h ****   __ASM volatile ("rev %0, %1" : "=r" (result) : "r" (value) );
 26400              		.loc 7 352 0
 26401 01f4 D7F8B030 		ldr	r3, [r7, #176]
 26402              	@ 352 "/home/kvv/workspace/k-car/autopilot/inc/CMSIS/core_cmInstr.h" 1
 26403 01f8 1CBA     		rev r4, r3
 26404              	@ 0 "" 2
 26405              		.thumb
 26406 01fa C7F8AC40 		str	r4, [r7, #172]
 26407              		.loc 7 353 0
 26408 01fe D7F8AC30 		ldr	r3, [r7, #172]
 26409              	.LBE225:
 26410              	.LBE224:
 26411              		.loc 1 518 0
 26412 0202 3B64     		str	r3, [r7, #64]
 519:../inc/STM32F4xx_StdPeriph_Driver/src/stm32f4xx_cryp_aes.c ****     break;
 26413              		.loc 1 519 0
 26414 0204 8DE0     		b	.L44
 26415              	.L43:
 520:../inc/STM32F4xx_StdPeriph_Driver/src/stm32f4xx_cryp_aes.c ****     case 256:
 521:../inc/STM32F4xx_StdPeriph_Driver/src/stm32f4xx_cryp_aes.c ****     AES_CRYP_InitStructure.CRYP_KeySize  = CRYP_KeySize_256b;
 26416              		.loc 1 521 0
 26417 0206 4FF40073 		mov	r3, #512
 26418 020a A7F84A30 		strh	r3, [r7, #74]	@ movhi
 522:../inc/STM32F4xx_StdPeriph_Driver/src/stm32f4xx_cryp_aes.c ****     AES_CRYP_KeyInitStructure.CRYP_Key0Left = __REV(*(uint32_t*)(keyaddr));
 26419              		.loc 1 522 0
 26420 020e D7F80031 		ldr	r3, [r7, #256]
 26421 0212 1B68     		ldr	r3, [r3, #0]
 26422 0214 C7F8A830 		str	r3, [r7, #168]
 26423              	.LBB226:
 26424              	.LBB227:
 352:/home/kvv/workspace/k-car/autopilot/inc/CMSIS/core_cmInstr.h ****   __ASM volatile ("rev %0, %1" : "=r" (result) : "r" (value) );
 26425              		.loc 7 352 0
 26426 0218 D7F8A830 		ldr	r3, [r7, #168]
 26427              	@ 352 "/home/kvv/workspace/k-car/autopilot/inc/CMSIS/core_cmInstr.h" 1
 26428 021c 1CBA     		rev r4, r3
 26429              	@ 0 "" 2
 26430              		.thumb
 26431 021e C7F8A440 		str	r4, [r7, #164]
 26432              		.loc 7 353 0
 26433 0222 D7F8A430 		ldr	r3, [r7, #164]
 26434              	.LBE227:
 26435              	.LBE226:
 26436              		.loc 1 522 0
 26437 0226 7B62     		str	r3, [r7, #36]
 523:../inc/STM32F4xx_StdPeriph_Driver/src/stm32f4xx_cryp_aes.c ****     keyaddr+=4;
 26438              		.loc 1 523 0
 26439 0228 D7F80031 		ldr	r3, [r7, #256]
 26440 022c 03F10403 		add	r3, r3, #4
 26441 0230 C7F80031 		str	r3, [r7, #256]
 524:../inc/STM32F4xx_StdPeriph_Driver/src/stm32f4xx_cryp_aes.c ****     AES_CRYP_KeyInitStructure.CRYP_Key0Right= __REV(*(uint32_t*)(keyaddr));
 26442              		.loc 1 524 0
 26443 0234 D7F80031 		ldr	r3, [r7, #256]
 26444 0238 1B68     		ldr	r3, [r3, #0]
 26445 023a C7F8A030 		str	r3, [r7, #160]
 26446              	.LBB228:
 26447              	.LBB229:
 352:/home/kvv/workspace/k-car/autopilot/inc/CMSIS/core_cmInstr.h ****   __ASM volatile ("rev %0, %1" : "=r" (result) : "r" (value) );
 26448              		.loc 7 352 0
 26449 023e D7F8A030 		ldr	r3, [r7, #160]
 26450              	@ 352 "/home/kvv/workspace/k-car/autopilot/inc/CMSIS/core_cmInstr.h" 1
 26451 0242 1CBA     		rev r4, r3
 26452              	@ 0 "" 2
 26453              		.thumb
 26454 0244 C7F89C40 		str	r4, [r7, #156]
 26455              		.loc 7 353 0
 26456 0248 D7F89C30 		ldr	r3, [r7, #156]
 26457              	.LBE229:
 26458              	.LBE228:
 26459              		.loc 1 524 0
 26460 024c BB62     		str	r3, [r7, #40]
 525:../inc/STM32F4xx_StdPeriph_Driver/src/stm32f4xx_cryp_aes.c ****     keyaddr+=4;
 26461              		.loc 1 525 0
 26462 024e D7F80031 		ldr	r3, [r7, #256]
 26463 0252 03F10403 		add	r3, r3, #4
 26464 0256 C7F80031 		str	r3, [r7, #256]
 526:../inc/STM32F4xx_StdPeriph_Driver/src/stm32f4xx_cryp_aes.c ****     AES_CRYP_KeyInitStructure.CRYP_Key1Left = __REV(*(uint32_t*)(keyaddr));
 26465              		.loc 1 526 0
 26466 025a D7F80031 		ldr	r3, [r7, #256]
 26467 025e 1B68     		ldr	r3, [r3, #0]
 26468 0260 C7F89830 		str	r3, [r7, #152]
 26469              	.LBB230:
 26470              	.LBB231:
 352:/home/kvv/workspace/k-car/autopilot/inc/CMSIS/core_cmInstr.h ****   __ASM volatile ("rev %0, %1" : "=r" (result) : "r" (value) );
 26471              		.loc 7 352 0
 26472 0264 D7F89830 		ldr	r3, [r7, #152]
 26473              	@ 352 "/home/kvv/workspace/k-car/autopilot/inc/CMSIS/core_cmInstr.h" 1
 26474 0268 1CBA     		rev r4, r3
 26475              	@ 0 "" 2
 26476              		.thumb
 26477 026a C7F89440 		str	r4, [r7, #148]
 26478              		.loc 7 353 0
 26479 026e D7F89430 		ldr	r3, [r7, #148]
 26480              	.LBE231:
 26481              	.LBE230:
 26482              		.loc 1 526 0
 26483 0272 FB62     		str	r3, [r7, #44]
 527:../inc/STM32F4xx_StdPeriph_Driver/src/stm32f4xx_cryp_aes.c ****     keyaddr+=4;
 26484              		.loc 1 527 0
 26485 0274 D7F80031 		ldr	r3, [r7, #256]
 26486 0278 03F10403 		add	r3, r3, #4
 26487 027c C7F80031 		str	r3, [r7, #256]
 528:../inc/STM32F4xx_StdPeriph_Driver/src/stm32f4xx_cryp_aes.c ****     AES_CRYP_KeyInitStructure.CRYP_Key1Right= __REV(*(uint32_t*)(keyaddr));
 26488              		.loc 1 528 0
 26489 0280 D7F80031 		ldr	r3, [r7, #256]
 26490 0284 1B68     		ldr	r3, [r3, #0]
 26491 0286 C7F89030 		str	r3, [r7, #144]
 26492              	.LBB232:
 26493              	.LBB233:
 352:/home/kvv/workspace/k-car/autopilot/inc/CMSIS/core_cmInstr.h ****   __ASM volatile ("rev %0, %1" : "=r" (result) : "r" (value) );
 26494              		.loc 7 352 0
 26495 028a D7F89030 		ldr	r3, [r7, #144]
 26496              	@ 352 "/home/kvv/workspace/k-car/autopilot/inc/CMSIS/core_cmInstr.h" 1
 26497 028e 1CBA     		rev r4, r3
 26498              	@ 0 "" 2
 26499              		.thumb
 26500 0290 C7F88C40 		str	r4, [r7, #140]
 26501              		.loc 7 353 0
 26502 0294 D7F88C30 		ldr	r3, [r7, #140]
 26503              	.LBE233:
 26504              	.LBE232:
 26505              		.loc 1 528 0
 26506 0298 3B63     		str	r3, [r7, #48]
 529:../inc/STM32F4xx_StdPeriph_Driver/src/stm32f4xx_cryp_aes.c ****     keyaddr+=4;
 26507              		.loc 1 529 0
 26508 029a D7F80031 		ldr	r3, [r7, #256]
 26509 029e 03F10403 		add	r3, r3, #4
 26510 02a2 C7F80031 		str	r3, [r7, #256]
 530:../inc/STM32F4xx_StdPeriph_Driver/src/stm32f4xx_cryp_aes.c ****     AES_CRYP_KeyInitStructure.CRYP_Key2Left = __REV(*(uint32_t*)(keyaddr));
 26511              		.loc 1 530 0
 26512 02a6 D7F80031 		ldr	r3, [r7, #256]
 26513 02aa 1B68     		ldr	r3, [r3, #0]
 26514 02ac C7F88830 		str	r3, [r7, #136]
 26515              	.LBB234:
 26516              	.LBB235:
 352:/home/kvv/workspace/k-car/autopilot/inc/CMSIS/core_cmInstr.h ****   __ASM volatile ("rev %0, %1" : "=r" (result) : "r" (value) );
 26517              		.loc 7 352 0
 26518 02b0 D7F88830 		ldr	r3, [r7, #136]
 26519              	@ 352 "/home/kvv/workspace/k-car/autopilot/inc/CMSIS/core_cmInstr.h" 1
 26520 02b4 1CBA     		rev r4, r3
 26521              	@ 0 "" 2
 26522              		.thumb
 26523 02b6 C7F88440 		str	r4, [r7, #132]
 26524              		.loc 7 353 0
 26525 02ba D7F88430 		ldr	r3, [r7, #132]
 26526              	.LBE235:
 26527              	.LBE234:
 26528              		.loc 1 530 0
 26529 02be 7B63     		str	r3, [r7, #52]
 531:../inc/STM32F4xx_StdPeriph_Driver/src/stm32f4xx_cryp_aes.c ****     keyaddr+=4;
 26530              		.loc 1 531 0
 26531 02c0 D7F80031 		ldr	r3, [r7, #256]
 26532 02c4 03F10403 		add	r3, r3, #4
 26533 02c8 C7F80031 		str	r3, [r7, #256]
 532:../inc/STM32F4xx_StdPeriph_Driver/src/stm32f4xx_cryp_aes.c ****     AES_CRYP_KeyInitStructure.CRYP_Key2Right= __REV(*(uint32_t*)(keyaddr));
 26534              		.loc 1 532 0
 26535 02cc D7F80031 		ldr	r3, [r7, #256]
 26536 02d0 1B68     		ldr	r3, [r3, #0]
 26537 02d2 C7F88030 		str	r3, [r7, #128]
 26538              	.LBB236:
 26539              	.LBB237:
 352:/home/kvv/workspace/k-car/autopilot/inc/CMSIS/core_cmInstr.h ****   __ASM volatile ("rev %0, %1" : "=r" (result) : "r" (value) );
 26540              		.loc 7 352 0
 26541 02d6 D7F88030 		ldr	r3, [r7, #128]
 26542              	@ 352 "/home/kvv/workspace/k-car/autopilot/inc/CMSIS/core_cmInstr.h" 1
 26543 02da 1CBA     		rev r4, r3
 26544              	@ 0 "" 2
 26545              		.thumb
 26546 02dc FC67     		str	r4, [r7, #124]
 26547              		.loc 7 353 0
 26548 02de FB6F     		ldr	r3, [r7, #124]
 26549              	.LBE237:
 26550              	.LBE236:
 26551              		.loc 1 532 0
 26552 02e0 BB63     		str	r3, [r7, #56]
 533:../inc/STM32F4xx_StdPeriph_Driver/src/stm32f4xx_cryp_aes.c ****     keyaddr+=4;
 26553              		.loc 1 533 0
 26554 02e2 D7F80031 		ldr	r3, [r7, #256]
 26555 02e6 03F10403 		add	r3, r3, #4
 26556 02ea C7F80031 		str	r3, [r7, #256]
 534:../inc/STM32F4xx_StdPeriph_Driver/src/stm32f4xx_cryp_aes.c ****     AES_CRYP_KeyInitStructure.CRYP_Key3Left = __REV(*(uint32_t*)(keyaddr));
 26557              		.loc 1 534 0
 26558 02ee D7F80031 		ldr	r3, [r7, #256]
 26559 02f2 1B68     		ldr	r3, [r3, #0]
 26560 02f4 BB67     		str	r3, [r7, #120]
 26561              	.LBB238:
 26562              	.LBB239:
 352:/home/kvv/workspace/k-car/autopilot/inc/CMSIS/core_cmInstr.h ****   __ASM volatile ("rev %0, %1" : "=r" (result) : "r" (value) );
 26563              		.loc 7 352 0
 26564 02f6 BB6F     		ldr	r3, [r7, #120]
 26565              	@ 352 "/home/kvv/workspace/k-car/autopilot/inc/CMSIS/core_cmInstr.h" 1
 26566 02f8 1CBA     		rev r4, r3
 26567              	@ 0 "" 2
 26568              		.thumb
 26569 02fa 7C67     		str	r4, [r7, #116]
 26570              		.loc 7 353 0
 26571 02fc 7B6F     		ldr	r3, [r7, #116]
 26572              	.LBE239:
 26573              	.LBE238:
 26574              		.loc 1 534 0
 26575 02fe FB63     		str	r3, [r7, #60]
 535:../inc/STM32F4xx_StdPeriph_Driver/src/stm32f4xx_cryp_aes.c ****     keyaddr+=4;
 26576              		.loc 1 535 0
 26577 0300 D7F80031 		ldr	r3, [r7, #256]
 26578 0304 03F10403 		add	r3, r3, #4
 26579 0308 C7F80031 		str	r3, [r7, #256]
 536:../inc/STM32F4xx_StdPeriph_Driver/src/stm32f4xx_cryp_aes.c ****     AES_CRYP_KeyInitStructure.CRYP_Key3Right= __REV(*(uint32_t*)(keyaddr));
 26580              		.loc 1 536 0
 26581 030c D7F80031 		ldr	r3, [r7, #256]
 26582 0310 1B68     		ldr	r3, [r3, #0]
 26583 0312 3B67     		str	r3, [r7, #112]
 26584              	.LBB240:
 26585              	.LBB241:
 352:/home/kvv/workspace/k-car/autopilot/inc/CMSIS/core_cmInstr.h ****   __ASM volatile ("rev %0, %1" : "=r" (result) : "r" (value) );
 26586              		.loc 7 352 0
 26587 0314 3B6F     		ldr	r3, [r7, #112]
 26588              	@ 352 "/home/kvv/workspace/k-car/autopilot/inc/CMSIS/core_cmInstr.h" 1
 26589 0316 1CBA     		rev r4, r3
 26590              	@ 0 "" 2
 26591              		.thumb
 26592 0318 FC66     		str	r4, [r7, #108]
 26593              		.loc 7 353 0
 26594 031a FB6E     		ldr	r3, [r7, #108]
 26595              	.LBE241:
 26596              	.LBE240:
 26597              		.loc 1 536 0
 26598 031c 3B64     		str	r3, [r7, #64]
 537:../inc/STM32F4xx_StdPeriph_Driver/src/stm32f4xx_cryp_aes.c ****     break;
 26599              		.loc 1 537 0
 26600 031e 00E0     		b	.L44
 26601              	.L54:
 538:../inc/STM32F4xx_StdPeriph_Driver/src/stm32f4xx_cryp_aes.c ****     default:
 539:../inc/STM32F4xx_StdPeriph_Driver/src/stm32f4xx_cryp_aes.c ****     break;
 26602              		.loc 1 539 0
 26603 0320 00BF     		nop
 26604              	.L44:
 540:../inc/STM32F4xx_StdPeriph_Driver/src/stm32f4xx_cryp_aes.c ****   }
 541:../inc/STM32F4xx_StdPeriph_Driver/src/stm32f4xx_cryp_aes.c ****   /* CRYP Initialization Vectors */
 542:../inc/STM32F4xx_StdPeriph_Driver/src/stm32f4xx_cryp_aes.c ****   AES_CRYP_IVInitStructure.CRYP_IV0Left = __REV(*(uint32_t*)(ivaddr));
 26605              		.loc 1 542 0
 26606 0322 D7F8FC30 		ldr	r3, [r7, #252]
 26607 0326 1B68     		ldr	r3, [r3, #0]
 26608 0328 BB66     		str	r3, [r7, #104]
 26609              	.LBB242:
 26610              	.LBB243:
 352:/home/kvv/workspace/k-car/autopilot/inc/CMSIS/core_cmInstr.h ****   __ASM volatile ("rev %0, %1" : "=r" (result) : "r" (value) );
 26611              		.loc 7 352 0
 26612 032a BB6E     		ldr	r3, [r7, #104]
 26613              	@ 352 "/home/kvv/workspace/k-car/autopilot/inc/CMSIS/core_cmInstr.h" 1
 26614 032c 1CBA     		rev r4, r3
 26615              	@ 0 "" 2
 26616              		.thumb
 26617 032e 7C66     		str	r4, [r7, #100]
 26618              		.loc 7 353 0
 26619 0330 7B6E     		ldr	r3, [r7, #100]
 26620              		.loc 1 542 0
 26621 0332 1A46     		mov	r2, r3
 26622              	.LBE243:
 26623              	.LBE242:
 26624 0334 07F11403 		add	r3, r7, #20
 26625 0338 1A60     		str	r2, [r3, #0]
 543:../inc/STM32F4xx_StdPeriph_Driver/src/stm32f4xx_cryp_aes.c ****   ivaddr+=4;
 26626              		.loc 1 543 0
 26627 033a D7F8FC30 		ldr	r3, [r7, #252]
 26628 033e 03F10403 		add	r3, r3, #4
 26629 0342 C7F8FC30 		str	r3, [r7, #252]
 544:../inc/STM32F4xx_StdPeriph_Driver/src/stm32f4xx_cryp_aes.c ****   AES_CRYP_IVInitStructure.CRYP_IV0Right= __REV(*(uint32_t*)(ivaddr));
 26630              		.loc 1 544 0
 26631 0346 D7F8FC30 		ldr	r3, [r7, #252]
 26632 034a 1B68     		ldr	r3, [r3, #0]
 26633 034c 3B66     		str	r3, [r7, #96]
 26634              	.LBB244:
 26635              	.LBB245:
 352:/home/kvv/workspace/k-car/autopilot/inc/CMSIS/core_cmInstr.h ****   __ASM volatile ("rev %0, %1" : "=r" (result) : "r" (value) );
 26636              		.loc 7 352 0
 26637 034e 3B6E     		ldr	r3, [r7, #96]
 26638              	@ 352 "/home/kvv/workspace/k-car/autopilot/inc/CMSIS/core_cmInstr.h" 1
 26639 0350 1CBA     		rev r4, r3
 26640              	@ 0 "" 2
 26641              		.thumb
 26642 0352 FC65     		str	r4, [r7, #92]
 26643              		.loc 7 353 0
 26644 0354 FB6D     		ldr	r3, [r7, #92]
 26645              		.loc 1 544 0
 26646 0356 1A46     		mov	r2, r3
 26647              	.LBE245:
 26648              	.LBE244:
 26649 0358 07F11403 		add	r3, r7, #20
 26650 035c 5A60     		str	r2, [r3, #4]
 545:../inc/STM32F4xx_StdPeriph_Driver/src/stm32f4xx_cryp_aes.c ****   ivaddr+=4;
 26651              		.loc 1 545 0
 26652 035e D7F8FC30 		ldr	r3, [r7, #252]
 26653 0362 03F10403 		add	r3, r3, #4
 26654 0366 C7F8FC30 		str	r3, [r7, #252]
 546:../inc/STM32F4xx_StdPeriph_Driver/src/stm32f4xx_cryp_aes.c ****   AES_CRYP_IVInitStructure.CRYP_IV1Left = __REV(*(uint32_t*)(ivaddr));
 26655              		.loc 1 546 0
 26656 036a D7F8FC30 		ldr	r3, [r7, #252]
 26657 036e 1B68     		ldr	r3, [r3, #0]
 26658 0370 BB65     		str	r3, [r7, #88]
 26659              	.LBB246:
 26660              	.LBB247:
 352:/home/kvv/workspace/k-car/autopilot/inc/CMSIS/core_cmInstr.h ****   __ASM volatile ("rev %0, %1" : "=r" (result) : "r" (value) );
 26661              		.loc 7 352 0
 26662 0372 BB6D     		ldr	r3, [r7, #88]
 26663              	@ 352 "/home/kvv/workspace/k-car/autopilot/inc/CMSIS/core_cmInstr.h" 1
 26664 0374 1CBA     		rev r4, r3
 26665              	@ 0 "" 2
 26666              		.thumb
 26667 0376 7C65     		str	r4, [r7, #84]
 26668              		.loc 7 353 0
 26669 0378 7B6D     		ldr	r3, [r7, #84]
 26670              		.loc 1 546 0
 26671 037a 1A46     		mov	r2, r3
 26672              	.LBE247:
 26673              	.LBE246:
 26674 037c 07F11403 		add	r3, r7, #20
 26675 0380 9A60     		str	r2, [r3, #8]
 547:../inc/STM32F4xx_StdPeriph_Driver/src/stm32f4xx_cryp_aes.c ****   ivaddr+=4;
 26676              		.loc 1 547 0
 26677 0382 D7F8FC30 		ldr	r3, [r7, #252]
 26678 0386 03F10403 		add	r3, r3, #4
 26679 038a C7F8FC30 		str	r3, [r7, #252]
 548:../inc/STM32F4xx_StdPeriph_Driver/src/stm32f4xx_cryp_aes.c ****   AES_CRYP_IVInitStructure.CRYP_IV1Right= __REV(*(uint32_t*)(ivaddr));
 26680              		.loc 1 548 0
 26681 038e D7F8FC30 		ldr	r3, [r7, #252]
 26682 0392 1B68     		ldr	r3, [r3, #0]
 26683 0394 3B65     		str	r3, [r7, #80]
 26684              	.LBB248:
 26685              	.LBB249:
 352:/home/kvv/workspace/k-car/autopilot/inc/CMSIS/core_cmInstr.h ****   __ASM volatile ("rev %0, %1" : "=r" (result) : "r" (value) );
 26686              		.loc 7 352 0
 26687 0396 3B6D     		ldr	r3, [r7, #80]
 26688              	@ 352 "/home/kvv/workspace/k-car/autopilot/inc/CMSIS/core_cmInstr.h" 1
 26689 0398 1CBA     		rev r4, r3
 26690              	@ 0 "" 2
 26691              		.thumb
 26692 039a FC64     		str	r4, [r7, #76]
 26693              		.loc 7 353 0
 26694 039c FB6C     		ldr	r3, [r7, #76]
 26695              		.loc 1 548 0
 26696 039e 1A46     		mov	r2, r3
 26697              	.LBE249:
 26698              	.LBE248:
 26699 03a0 07F11403 		add	r3, r7, #20
 26700 03a4 DA60     		str	r2, [r3, #12]
 549:../inc/STM32F4xx_StdPeriph_Driver/src/stm32f4xx_cryp_aes.c **** 
 550:../inc/STM32F4xx_StdPeriph_Driver/src/stm32f4xx_cryp_aes.c ****   /* Key Initialisation */
 551:../inc/STM32F4xx_StdPeriph_Driver/src/stm32f4xx_cryp_aes.c ****   CRYP_KeyInit(&AES_CRYP_KeyInitStructure);
 26701              		.loc 1 551 0
 26702 03a6 07F12403 		add	r3, r7, #36
 26703 03aa 1846     		mov	r0, r3
 26704 03ac FFF7FEFF 		bl	CRYP_KeyInit
 552:../inc/STM32F4xx_StdPeriph_Driver/src/stm32f4xx_cryp_aes.c **** 
 553:../inc/STM32F4xx_StdPeriph_Driver/src/stm32f4xx_cryp_aes.c ****   /*------------------ AES Decryption ------------------*/
 554:../inc/STM32F4xx_StdPeriph_Driver/src/stm32f4xx_cryp_aes.c ****   if(Mode == MODE_DECRYPT) /* AES decryption */
 26705              		.loc 1 554 0
 26706 03b0 07F11003 		add	r3, r7, #16
 26707 03b4 03F1FF33 		add	r3, r3, #-1
 26708 03b8 1B78     		ldrb	r3, [r3, #0]	@ zero_extendqisi2
 26709 03ba 002B     		cmp	r3, #0
 26710 03bc 04D1     		bne	.L45
 555:../inc/STM32F4xx_StdPeriph_Driver/src/stm32f4xx_cryp_aes.c ****   {
 556:../inc/STM32F4xx_StdPeriph_Driver/src/stm32f4xx_cryp_aes.c ****     /* Crypto Init for decryption process */
 557:../inc/STM32F4xx_StdPeriph_Driver/src/stm32f4xx_cryp_aes.c ****     AES_CRYP_InitStructure.CRYP_AlgoDir = CRYP_AlgoDir_Decrypt;
 26711              		.loc 1 557 0
 26712 03be 4FF00403 		mov	r3, #4
 26713 03c2 A7F84430 		strh	r3, [r7, #68]	@ movhi
 26714 03c6 03E0     		b	.L46
 26715              	.L45:
 558:../inc/STM32F4xx_StdPeriph_Driver/src/stm32f4xx_cryp_aes.c ****   }
 559:../inc/STM32F4xx_StdPeriph_Driver/src/stm32f4xx_cryp_aes.c ****   /*------------------ AES Encryption ------------------*/
 560:../inc/STM32F4xx_StdPeriph_Driver/src/stm32f4xx_cryp_aes.c ****   else /* AES encryption */
 561:../inc/STM32F4xx_StdPeriph_Driver/src/stm32f4xx_cryp_aes.c ****   {
 562:../inc/STM32F4xx_StdPeriph_Driver/src/stm32f4xx_cryp_aes.c ****     /* Crypto Init for Encryption process */
 563:../inc/STM32F4xx_StdPeriph_Driver/src/stm32f4xx_cryp_aes.c ****     AES_CRYP_InitStructure.CRYP_AlgoDir = CRYP_AlgoDir_Encrypt;
 26716              		.loc 1 563 0
 26717 03c8 4FF00003 		mov	r3, #0
 26718 03cc A7F84430 		strh	r3, [r7, #68]	@ movhi
 26719              	.L46:
 564:../inc/STM32F4xx_StdPeriph_Driver/src/stm32f4xx_cryp_aes.c ****   }
 565:../inc/STM32F4xx_StdPeriph_Driver/src/stm32f4xx_cryp_aes.c ****   AES_CRYP_InitStructure.CRYP_AlgoMode = CRYP_AlgoMode_AES_CTR;
 26720              		.loc 1 565 0
 26721 03d0 4FF03003 		mov	r3, #48
 26722 03d4 A7F84630 		strh	r3, [r7, #70]	@ movhi
 566:../inc/STM32F4xx_StdPeriph_Driver/src/stm32f4xx_cryp_aes.c ****   AES_CRYP_InitStructure.CRYP_DataType = CRYP_DataType_8b;
 26723              		.loc 1 566 0
 26724 03d8 4FF08003 		mov	r3, #128
 26725 03dc A7F84830 		strh	r3, [r7, #72]	@ movhi
 567:../inc/STM32F4xx_StdPeriph_Driver/src/stm32f4xx_cryp_aes.c ****   CRYP_Init(&AES_CRYP_InitStructure);
 26726              		.loc 1 567 0
 26727 03e0 07F14403 		add	r3, r7, #68
 26728 03e4 1846     		mov	r0, r3
 26729 03e6 FFF7FEFF 		bl	CRYP_Init
 568:../inc/STM32F4xx_StdPeriph_Driver/src/stm32f4xx_cryp_aes.c **** 
 569:../inc/STM32F4xx_StdPeriph_Driver/src/stm32f4xx_cryp_aes.c ****   /* CRYP Initialization Vectors */
 570:../inc/STM32F4xx_StdPeriph_Driver/src/stm32f4xx_cryp_aes.c ****   CRYP_IVInit(&AES_CRYP_IVInitStructure);
 26730              		.loc 1 570 0
 26731 03ea 07F11403 		add	r3, r7, #20
 26732 03ee 1846     		mov	r0, r3
 26733 03f0 FFF7FEFF 		bl	CRYP_IVInit
 571:../inc/STM32F4xx_StdPeriph_Driver/src/stm32f4xx_cryp_aes.c **** 
 572:../inc/STM32F4xx_StdPeriph_Driver/src/stm32f4xx_cryp_aes.c ****   /* Flush IN/OUT FIFOs */
 573:../inc/STM32F4xx_StdPeriph_Driver/src/stm32f4xx_cryp_aes.c ****   CRYP_FIFOFlush();
 26734              		.loc 1 573 0
 26735 03f4 FFF7FEFF 		bl	CRYP_FIFOFlush
 574:../inc/STM32F4xx_StdPeriph_Driver/src/stm32f4xx_cryp_aes.c **** 
 575:../inc/STM32F4xx_StdPeriph_Driver/src/stm32f4xx_cryp_aes.c ****   /* Enable Crypto processor */
 576:../inc/STM32F4xx_StdPeriph_Driver/src/stm32f4xx_cryp_aes.c ****   CRYP_Cmd(ENABLE);
 26736              		.loc 1 576 0
 26737 03f8 4FF00100 		mov	r0, #1
 26738 03fc FFF7FEFF 		bl	CRYP_Cmd
 577:../inc/STM32F4xx_StdPeriph_Driver/src/stm32f4xx_cryp_aes.c **** 
 578:../inc/STM32F4xx_StdPeriph_Driver/src/stm32f4xx_cryp_aes.c ****   for(i=0; ((i<Ilength) && (status != ERROR)); i+=16)
 26739              		.loc 1 578 0
 26740 0400 4FF00003 		mov	r3, #0
 26741 0404 C7F80831 		str	r3, [r7, #264]
 26742 0408 8CE0     		b	.L47
 26743              	.L53:
 579:../inc/STM32F4xx_StdPeriph_Driver/src/stm32f4xx_cryp_aes.c ****   {
 580:../inc/STM32F4xx_StdPeriph_Driver/src/stm32f4xx_cryp_aes.c **** 
 581:../inc/STM32F4xx_StdPeriph_Driver/src/stm32f4xx_cryp_aes.c ****     /* Write the Input block in the IN FIFO */
 582:../inc/STM32F4xx_StdPeriph_Driver/src/stm32f4xx_cryp_aes.c ****     CRYP_DataIn(*(uint32_t*)(inputaddr));
 26744              		.loc 1 582 0
 26745 040a D7F81031 		ldr	r3, [r7, #272]
 26746 040e 1B68     		ldr	r3, [r3, #0]
 26747 0410 1846     		mov	r0, r3
 26748 0412 FFF7FEFF 		bl	CRYP_DataIn
 583:../inc/STM32F4xx_StdPeriph_Driver/src/stm32f4xx_cryp_aes.c ****     inputaddr+=4;
 26749              		.loc 1 583 0
 26750 0416 D7F81031 		ldr	r3, [r7, #272]
 26751 041a 03F10403 		add	r3, r3, #4
 26752 041e C7F81031 		str	r3, [r7, #272]
 584:../inc/STM32F4xx_StdPeriph_Driver/src/stm32f4xx_cryp_aes.c ****     CRYP_DataIn(*(uint32_t*)(inputaddr));
 26753              		.loc 1 584 0
 26754 0422 D7F81031 		ldr	r3, [r7, #272]
 26755 0426 1B68     		ldr	r3, [r3, #0]
 26756 0428 1846     		mov	r0, r3
 26757 042a FFF7FEFF 		bl	CRYP_DataIn
 585:../inc/STM32F4xx_StdPeriph_Driver/src/stm32f4xx_cryp_aes.c ****     inputaddr+=4;
 26758              		.loc 1 585 0
 26759 042e D7F81031 		ldr	r3, [r7, #272]
 26760 0432 03F10403 		add	r3, r3, #4
 26761 0436 C7F81031 		str	r3, [r7, #272]
 586:../inc/STM32F4xx_StdPeriph_Driver/src/stm32f4xx_cryp_aes.c ****     CRYP_DataIn(*(uint32_t*)(inputaddr));
 26762              		.loc 1 586 0
 26763 043a D7F81031 		ldr	r3, [r7, #272]
 26764 043e 1B68     		ldr	r3, [r3, #0]
 26765 0440 1846     		mov	r0, r3
 26766 0442 FFF7FEFF 		bl	CRYP_DataIn
 587:../inc/STM32F4xx_StdPeriph_Driver/src/stm32f4xx_cryp_aes.c ****     inputaddr+=4;
 26767              		.loc 1 587 0
 26768 0446 D7F81031 		ldr	r3, [r7, #272]
 26769 044a 03F10403 		add	r3, r3, #4
 26770 044e C7F81031 		str	r3, [r7, #272]
 588:../inc/STM32F4xx_StdPeriph_Driver/src/stm32f4xx_cryp_aes.c ****     CRYP_DataIn(*(uint32_t*)(inputaddr));
 26771              		.loc 1 588 0
 26772 0452 D7F81031 		ldr	r3, [r7, #272]
 26773 0456 1B68     		ldr	r3, [r3, #0]
 26774 0458 1846     		mov	r0, r3
 26775 045a FFF7FEFF 		bl	CRYP_DataIn
 589:../inc/STM32F4xx_StdPeriph_Driver/src/stm32f4xx_cryp_aes.c ****     inputaddr+=4;
 26776              		.loc 1 589 0
 26777 045e D7F81031 		ldr	r3, [r7, #272]
 26778 0462 03F10403 		add	r3, r3, #4
 26779 0466 C7F81031 		str	r3, [r7, #272]
 590:../inc/STM32F4xx_StdPeriph_Driver/src/stm32f4xx_cryp_aes.c ****     /* Wait until the complete message has been processed */
 591:../inc/STM32F4xx_StdPeriph_Driver/src/stm32f4xx_cryp_aes.c ****     counter = 0;
 26780              		.loc 1 591 0
 26781 046a 07F11003 		add	r3, r7, #16
 26782 046e 4FF00002 		mov	r2, #0
 26783 0472 1A60     		str	r2, [r3, #0]
 26784              	.L49:
 592:../inc/STM32F4xx_StdPeriph_Driver/src/stm32f4xx_cryp_aes.c ****     do
 593:../inc/STM32F4xx_StdPeriph_Driver/src/stm32f4xx_cryp_aes.c ****     {
 594:../inc/STM32F4xx_StdPeriph_Driver/src/stm32f4xx_cryp_aes.c ****       busystatus = CRYP_GetFlagStatus(CRYP_FLAG_BUSY);
 26785              		.loc 1 594 0 discriminator 1
 26786 0474 4FF01000 		mov	r0, #16
 26787 0478 FFF7FEFF 		bl	CRYP_GetFlagStatus
 26788 047c 0346     		mov	r3, r0
 26789 047e C7F80431 		str	r3, [r7, #260]
 595:../inc/STM32F4xx_StdPeriph_Driver/src/stm32f4xx_cryp_aes.c ****       counter++;
 26790              		.loc 1 595 0 discriminator 1
 26791 0482 07F11003 		add	r3, r7, #16
 26792 0486 1B68     		ldr	r3, [r3, #0]
 26793 0488 03F10102 		add	r2, r3, #1
 26794 048c 07F11003 		add	r3, r7, #16
 26795 0490 1A60     		str	r2, [r3, #0]
 596:../inc/STM32F4xx_StdPeriph_Driver/src/stm32f4xx_cryp_aes.c ****     }while ((counter != AESBUSY_TIMEOUT) && (busystatus != RESET));
 26796              		.loc 1 596 0 discriminator 1
 26797 0492 07F11003 		add	r3, r7, #16
 26798 0496 1B68     		ldr	r3, [r3, #0]
 26799 0498 B3F5803F 		cmp	r3, #65536
 26800 049c 03D0     		beq	.L48
 26801 049e D7F80431 		ldr	r3, [r7, #260]
 26802 04a2 002B     		cmp	r3, #0
 26803 04a4 E6D1     		bne	.L49
 26804              	.L48:
 597:../inc/STM32F4xx_StdPeriph_Driver/src/stm32f4xx_cryp_aes.c **** 
 598:../inc/STM32F4xx_StdPeriph_Driver/src/stm32f4xx_cryp_aes.c ****     if (busystatus != RESET)
 26805              		.loc 1 598 0
 26806 04a6 D7F80431 		ldr	r3, [r7, #260]
 26807 04aa 002B     		cmp	r3, #0
 26808 04ac 04D0     		beq	.L50
 599:../inc/STM32F4xx_StdPeriph_Driver/src/stm32f4xx_cryp_aes.c ****    {
 600:../inc/STM32F4xx_StdPeriph_Driver/src/stm32f4xx_cryp_aes.c ****        status = ERROR;
 26809              		.loc 1 600 0
 26810 04ae 4FF00003 		mov	r3, #0
 26811 04b2 87F81731 		strb	r3, [r7, #279]
 26812 04b6 2FE0     		b	.L51
 26813              	.L50:
 601:../inc/STM32F4xx_StdPeriph_Driver/src/stm32f4xx_cryp_aes.c ****     }
 602:../inc/STM32F4xx_StdPeriph_Driver/src/stm32f4xx_cryp_aes.c ****     else
 603:../inc/STM32F4xx_StdPeriph_Driver/src/stm32f4xx_cryp_aes.c ****     {
 604:../inc/STM32F4xx_StdPeriph_Driver/src/stm32f4xx_cryp_aes.c **** 
 605:../inc/STM32F4xx_StdPeriph_Driver/src/stm32f4xx_cryp_aes.c ****       /* Read the Output block from the Output FIFO */
 606:../inc/STM32F4xx_StdPeriph_Driver/src/stm32f4xx_cryp_aes.c ****       *(uint32_t*)(outputaddr) = CRYP_DataOut();
 26814              		.loc 1 606 0
 26815 04b8 D7F80C41 		ldr	r4, [r7, #268]
 26816 04bc FFF7FEFF 		bl	CRYP_DataOut
 26817 04c0 0346     		mov	r3, r0
 26818 04c2 2360     		str	r3, [r4, #0]
 607:../inc/STM32F4xx_StdPeriph_Driver/src/stm32f4xx_cryp_aes.c ****       outputaddr+=4;
 26819              		.loc 1 607 0
 26820 04c4 D7F80C31 		ldr	r3, [r7, #268]
 26821 04c8 03F10403 		add	r3, r3, #4
 26822 04cc C7F80C31 		str	r3, [r7, #268]
 608:../inc/STM32F4xx_StdPeriph_Driver/src/stm32f4xx_cryp_aes.c ****       *(uint32_t*)(outputaddr) = CRYP_DataOut();
 26823              		.loc 1 608 0
 26824 04d0 D7F80C41 		ldr	r4, [r7, #268]
 26825 04d4 FFF7FEFF 		bl	CRYP_DataOut
 26826 04d8 0346     		mov	r3, r0
 26827 04da 2360     		str	r3, [r4, #0]
 609:../inc/STM32F4xx_StdPeriph_Driver/src/stm32f4xx_cryp_aes.c ****       outputaddr+=4;
 26828              		.loc 1 609 0
 26829 04dc D7F80C31 		ldr	r3, [r7, #268]
 26830 04e0 03F10403 		add	r3, r3, #4
 26831 04e4 C7F80C31 		str	r3, [r7, #268]
 610:../inc/STM32F4xx_StdPeriph_Driver/src/stm32f4xx_cryp_aes.c ****       *(uint32_t*)(outputaddr) = CRYP_DataOut();
 26832              		.loc 1 610 0
 26833 04e8 D7F80C41 		ldr	r4, [r7, #268]
 26834 04ec FFF7FEFF 		bl	CRYP_DataOut
 26835 04f0 0346     		mov	r3, r0
 26836 04f2 2360     		str	r3, [r4, #0]
 611:../inc/STM32F4xx_StdPeriph_Driver/src/stm32f4xx_cryp_aes.c ****       outputaddr+=4;
 26837              		.loc 1 611 0
 26838 04f4 D7F80C31 		ldr	r3, [r7, #268]
 26839 04f8 03F10403 		add	r3, r3, #4
 26840 04fc C7F80C31 		str	r3, [r7, #268]
 612:../inc/STM32F4xx_StdPeriph_Driver/src/stm32f4xx_cryp_aes.c ****       *(uint32_t*)(outputaddr) = CRYP_DataOut();
 26841              		.loc 1 612 0
 26842 0500 D7F80C41 		ldr	r4, [r7, #268]
 26843 0504 FFF7FEFF 		bl	CRYP_DataOut
 26844 0508 0346     		mov	r3, r0
 26845 050a 2360     		str	r3, [r4, #0]
 613:../inc/STM32F4xx_StdPeriph_Driver/src/stm32f4xx_cryp_aes.c ****       outputaddr+=4;
 26846              		.loc 1 613 0
 26847 050c D7F80C31 		ldr	r3, [r7, #268]
 26848 0510 03F10403 		add	r3, r3, #4
 26849 0514 C7F80C31 		str	r3, [r7, #268]
 26850              	.L51:
 578:../inc/STM32F4xx_StdPeriph_Driver/src/stm32f4xx_cryp_aes.c ****   for(i=0; ((i<Ilength) && (status != ERROR)); i+=16)
 26851              		.loc 1 578 0
 26852 0518 D7F80831 		ldr	r3, [r7, #264]
 26853 051c 03F11003 		add	r3, r3, #16
 26854 0520 C7F80831 		str	r3, [r7, #264]
 26855              	.L47:
 578:../inc/STM32F4xx_StdPeriph_Driver/src/stm32f4xx_cryp_aes.c ****   for(i=0; ((i<Ilength) && (status != ERROR)); i+=16)
 26856              		.loc 1 578 0 is_stmt 0 discriminator 1
 26857 0524 D7F80821 		ldr	r2, [r7, #264]
 26858 0528 D7F82C31 		ldr	r3, [r7, #300]
 26859 052c 9A42     		cmp	r2, r3
 26860 052e 04D2     		bcs	.L52
 578:../inc/STM32F4xx_StdPeriph_Driver/src/stm32f4xx_cryp_aes.c ****   for(i=0; ((i<Ilength) && (status != ERROR)); i+=16)
 26861              		.loc 1 578 0 discriminator 2
 26862 0530 97F81731 		ldrb	r3, [r7, #279]	@ zero_extendqisi2
 26863 0534 002B     		cmp	r3, #0
 26864 0536 7FF468AF 		bne	.L53
 26865              	.L52:
 614:../inc/STM32F4xx_StdPeriph_Driver/src/stm32f4xx_cryp_aes.c ****     }
 615:../inc/STM32F4xx_StdPeriph_Driver/src/stm32f4xx_cryp_aes.c ****   }
 616:../inc/STM32F4xx_StdPeriph_Driver/src/stm32f4xx_cryp_aes.c ****   /* Disable Crypto */
 617:../inc/STM32F4xx_StdPeriph_Driver/src/stm32f4xx_cryp_aes.c ****   CRYP_Cmd(DISABLE);
 26866              		.loc 1 617 0 is_stmt 1
 26867 053a 4FF00000 		mov	r0, #0
 26868 053e FFF7FEFF 		bl	CRYP_Cmd
 618:../inc/STM32F4xx_StdPeriph_Driver/src/stm32f4xx_cryp_aes.c **** 
 619:../inc/STM32F4xx_StdPeriph_Driver/src/stm32f4xx_cryp_aes.c ****   return status;
 26869              		.loc 1 619 0
 26870 0542 97F81731 		ldrb	r3, [r7, #279]	@ zero_extendqisi2
 620:../inc/STM32F4xx_StdPeriph_Driver/src/stm32f4xx_cryp_aes.c **** }
 26871              		.loc 1 620 0
 26872 0546 1846     		mov	r0, r3
 26873 0548 07F58E77 		add	r7, r7, #284
 26874 054c BD46     		mov	sp, r7
 26875 054e 90BD     		pop	{r4, r7, pc}
 26876              		.cfi_endproc
 26877              	.LFE112:
 26879              		.text
 26880              	.Letext0: