   1              		.syntax unified
   2              		.cpu cortex-m4
   3              		.fpu softvfp
   4              		.eabi_attribute 20, 1
   5              		.eabi_attribute 21, 1
   6              		.eabi_attribute 23, 3
   7              		.eabi_attribute 24, 1
   8              		.eabi_attribute 25, 1
   9              		.eabi_attribute 26, 1
  10              		.eabi_attribute 30, 6
  11              		.eabi_attribute 18, 4
  12              		.thumb
  13              		.file	"stm32f4xx_tim.c"
  23              	.Ltext0:
  24              		.file 1 "../inc/STM32F4xx_StdPeriph_Driver/src/stm32f4xx_tim.c"
 24593              		.align	2
 24594              		.global	TIM_DeInit
 24595              		.thumb
 24596              		.thumb_func
 24598              	TIM_DeInit:
 24599              	.LFB110:
   1:../inc/STM32F4xx_StdPeriph_Driver/src/stm32f4xx_tim.c **** /**
   2:../inc/STM32F4xx_StdPeriph_Driver/src/stm32f4xx_tim.c ****   ******************************************************************************
   3:../inc/STM32F4xx_StdPeriph_Driver/src/stm32f4xx_tim.c ****   * @file    stm32f4xx_tim.c
   4:../inc/STM32F4xx_StdPeriph_Driver/src/stm32f4xx_tim.c ****   * @author  MCD Application Team
   5:../inc/STM32F4xx_StdPeriph_Driver/src/stm32f4xx_tim.c ****   * @version V1.0.0
   6:../inc/STM32F4xx_StdPeriph_Driver/src/stm32f4xx_tim.c ****   * @date    30-September-2011
   7:../inc/STM32F4xx_StdPeriph_Driver/src/stm32f4xx_tim.c ****   * @brief   This file provides firmware functions to manage the following 
   8:../inc/STM32F4xx_StdPeriph_Driver/src/stm32f4xx_tim.c ****   *          functionalities of the TIM peripheral:
   9:../inc/STM32F4xx_StdPeriph_Driver/src/stm32f4xx_tim.c ****   *            - TimeBase management
  10:../inc/STM32F4xx_StdPeriph_Driver/src/stm32f4xx_tim.c ****   *            - Output Compare management
  11:../inc/STM32F4xx_StdPeriph_Driver/src/stm32f4xx_tim.c ****   *            - Input Capture management
  12:../inc/STM32F4xx_StdPeriph_Driver/src/stm32f4xx_tim.c ****   *            - Advanced-control timers (TIM1 and TIM8) specific features  
  13:../inc/STM32F4xx_StdPeriph_Driver/src/stm32f4xx_tim.c ****   *            - Interrupts, DMA and flags management
  14:../inc/STM32F4xx_StdPeriph_Driver/src/stm32f4xx_tim.c ****   *            - Clocks management
  15:../inc/STM32F4xx_StdPeriph_Driver/src/stm32f4xx_tim.c ****   *            - Synchronization management
  16:../inc/STM32F4xx_StdPeriph_Driver/src/stm32f4xx_tim.c ****   *            - Specific interface management
  17:../inc/STM32F4xx_StdPeriph_Driver/src/stm32f4xx_tim.c ****   *            - Specific remapping management      
  18:../inc/STM32F4xx_StdPeriph_Driver/src/stm32f4xx_tim.c ****   *              
  19:../inc/STM32F4xx_StdPeriph_Driver/src/stm32f4xx_tim.c ****   *  @verbatim
  20:../inc/STM32F4xx_StdPeriph_Driver/src/stm32f4xx_tim.c ****   *  
  21:../inc/STM32F4xx_StdPeriph_Driver/src/stm32f4xx_tim.c ****   *          ===================================================================
  22:../inc/STM32F4xx_StdPeriph_Driver/src/stm32f4xx_tim.c ****   *                                 How to use this driver
  23:../inc/STM32F4xx_StdPeriph_Driver/src/stm32f4xx_tim.c ****   *          ===================================================================
  24:../inc/STM32F4xx_StdPeriph_Driver/src/stm32f4xx_tim.c ****   *          This driver provides functions to configure and program the TIM 
  25:../inc/STM32F4xx_StdPeriph_Driver/src/stm32f4xx_tim.c ****   *          of all STM32F4xx devices.
  26:../inc/STM32F4xx_StdPeriph_Driver/src/stm32f4xx_tim.c ****   *          These functions are split in 9 groups: 
  27:../inc/STM32F4xx_StdPeriph_Driver/src/stm32f4xx_tim.c ****   *   
  28:../inc/STM32F4xx_StdPeriph_Driver/src/stm32f4xx_tim.c ****   *          1. TIM TimeBase management: this group includes all needed functions 
  29:../inc/STM32F4xx_StdPeriph_Driver/src/stm32f4xx_tim.c ****   *             to configure the TM Timebase unit:
  30:../inc/STM32F4xx_StdPeriph_Driver/src/stm32f4xx_tim.c ****   *                   - Set/Get Prescaler
  31:../inc/STM32F4xx_StdPeriph_Driver/src/stm32f4xx_tim.c ****   *                   - Set/Get Autoreload  
  32:../inc/STM32F4xx_StdPeriph_Driver/src/stm32f4xx_tim.c ****   *                   - Counter modes configuration
  33:../inc/STM32F4xx_StdPeriph_Driver/src/stm32f4xx_tim.c ****   *                   - Set Clock division  
  34:../inc/STM32F4xx_StdPeriph_Driver/src/stm32f4xx_tim.c ****   *                   - Select the One Pulse mode
  35:../inc/STM32F4xx_StdPeriph_Driver/src/stm32f4xx_tim.c ****   *                   - Update Request Configuration
  36:../inc/STM32F4xx_StdPeriph_Driver/src/stm32f4xx_tim.c ****   *                   - Update Disable Configuration
  37:../inc/STM32F4xx_StdPeriph_Driver/src/stm32f4xx_tim.c ****   *                   - Auto-Preload Configuration 
  38:../inc/STM32F4xx_StdPeriph_Driver/src/stm32f4xx_tim.c ****   *                   - Enable/Disable the counter     
  39:../inc/STM32F4xx_StdPeriph_Driver/src/stm32f4xx_tim.c ****   *                 
  40:../inc/STM32F4xx_StdPeriph_Driver/src/stm32f4xx_tim.c ****   *          2. TIM Output Compare management: this group includes all needed 
  41:../inc/STM32F4xx_StdPeriph_Driver/src/stm32f4xx_tim.c ****   *             functions to configure the Capture/Compare unit used in Output 
  42:../inc/STM32F4xx_StdPeriph_Driver/src/stm32f4xx_tim.c ****   *             compare mode: 
  43:../inc/STM32F4xx_StdPeriph_Driver/src/stm32f4xx_tim.c ****   *                   - Configure each channel, independently, in Output Compare mode
  44:../inc/STM32F4xx_StdPeriph_Driver/src/stm32f4xx_tim.c ****   *                   - Select the output compare modes
  45:../inc/STM32F4xx_StdPeriph_Driver/src/stm32f4xx_tim.c ****   *                   - Select the Polarities of each channel
  46:../inc/STM32F4xx_StdPeriph_Driver/src/stm32f4xx_tim.c ****   *                   - Set/Get the Capture/Compare register values
  47:../inc/STM32F4xx_StdPeriph_Driver/src/stm32f4xx_tim.c ****   *                   - Select the Output Compare Fast mode 
  48:../inc/STM32F4xx_StdPeriph_Driver/src/stm32f4xx_tim.c ****   *                   - Select the Output Compare Forced mode  
  49:../inc/STM32F4xx_StdPeriph_Driver/src/stm32f4xx_tim.c ****   *                   - Output Compare-Preload Configuration 
  50:../inc/STM32F4xx_StdPeriph_Driver/src/stm32f4xx_tim.c ****   *                   - Clear Output Compare Reference
  51:../inc/STM32F4xx_StdPeriph_Driver/src/stm32f4xx_tim.c ****   *                   - Select the OCREF Clear signal
  52:../inc/STM32F4xx_StdPeriph_Driver/src/stm32f4xx_tim.c ****   *                   - Enable/Disable the Capture/Compare Channels    
  53:../inc/STM32F4xx_StdPeriph_Driver/src/stm32f4xx_tim.c ****   *                   
  54:../inc/STM32F4xx_StdPeriph_Driver/src/stm32f4xx_tim.c ****   *          3. TIM Input Capture management: this group includes all needed 
  55:../inc/STM32F4xx_StdPeriph_Driver/src/stm32f4xx_tim.c ****   *             functions to configure the Capture/Compare unit used in 
  56:../inc/STM32F4xx_StdPeriph_Driver/src/stm32f4xx_tim.c ****   *             Input Capture mode:
  57:../inc/STM32F4xx_StdPeriph_Driver/src/stm32f4xx_tim.c ****   *                   - Configure each channel in input capture mode
  58:../inc/STM32F4xx_StdPeriph_Driver/src/stm32f4xx_tim.c ****   *                   - Configure Channel1/2 in PWM Input mode
  59:../inc/STM32F4xx_StdPeriph_Driver/src/stm32f4xx_tim.c ****   *                   - Set the Input Capture Prescaler
  60:../inc/STM32F4xx_StdPeriph_Driver/src/stm32f4xx_tim.c ****   *                   - Get the Capture/Compare values      
  61:../inc/STM32F4xx_StdPeriph_Driver/src/stm32f4xx_tim.c ****   *                   
  62:../inc/STM32F4xx_StdPeriph_Driver/src/stm32f4xx_tim.c ****   *          4. Advanced-control timers (TIM1 and TIM8) specific features
  63:../inc/STM32F4xx_StdPeriph_Driver/src/stm32f4xx_tim.c ****   *                   - Configures the Break input, dead time, Lock level, the OSSI,
  64:../inc/STM32F4xx_StdPeriph_Driver/src/stm32f4xx_tim.c ****   *                      the OSSR State and the AOE(automatic output enable)
  65:../inc/STM32F4xx_StdPeriph_Driver/src/stm32f4xx_tim.c ****   *                   - Enable/Disable the TIM peripheral Main Outputs
  66:../inc/STM32F4xx_StdPeriph_Driver/src/stm32f4xx_tim.c ****   *                   - Select the Commutation event
  67:../inc/STM32F4xx_StdPeriph_Driver/src/stm32f4xx_tim.c ****   *                   - Set/Reset the Capture Compare Preload Control bit
  68:../inc/STM32F4xx_StdPeriph_Driver/src/stm32f4xx_tim.c ****   *                              
  69:../inc/STM32F4xx_StdPeriph_Driver/src/stm32f4xx_tim.c ****   *          5. TIM interrupts, DMA and flags management
  70:../inc/STM32F4xx_StdPeriph_Driver/src/stm32f4xx_tim.c ****   *                   - Enable/Disable interrupt sources
  71:../inc/STM32F4xx_StdPeriph_Driver/src/stm32f4xx_tim.c ****   *                   - Get flags status
  72:../inc/STM32F4xx_StdPeriph_Driver/src/stm32f4xx_tim.c ****   *                   - Clear flags/ Pending bits
  73:../inc/STM32F4xx_StdPeriph_Driver/src/stm32f4xx_tim.c ****   *                   - Enable/Disable DMA requests 
  74:../inc/STM32F4xx_StdPeriph_Driver/src/stm32f4xx_tim.c ****   *                   - Configure DMA burst mode
  75:../inc/STM32F4xx_StdPeriph_Driver/src/stm32f4xx_tim.c ****   *                   - Select CaptureCompare DMA request  
  76:../inc/STM32F4xx_StdPeriph_Driver/src/stm32f4xx_tim.c ****   *              
  77:../inc/STM32F4xx_StdPeriph_Driver/src/stm32f4xx_tim.c ****   *          6. TIM clocks management: this group includes all needed functions 
  78:../inc/STM32F4xx_StdPeriph_Driver/src/stm32f4xx_tim.c ****   *             to configure the clock controller unit:
  79:../inc/STM32F4xx_StdPeriph_Driver/src/stm32f4xx_tim.c ****   *                   - Select internal/External clock
  80:../inc/STM32F4xx_StdPeriph_Driver/src/stm32f4xx_tim.c ****   *                   - Select the external clock mode: ETR(Mode1/Mode2), TIx or ITRx
  81:../inc/STM32F4xx_StdPeriph_Driver/src/stm32f4xx_tim.c ****   *         
  82:../inc/STM32F4xx_StdPeriph_Driver/src/stm32f4xx_tim.c ****   *          7. TIM synchronization management: this group includes all needed 
  83:../inc/STM32F4xx_StdPeriph_Driver/src/stm32f4xx_tim.c ****   *             functions to configure the Synchronization unit:
  84:../inc/STM32F4xx_StdPeriph_Driver/src/stm32f4xx_tim.c ****   *                   - Select Input Trigger  
  85:../inc/STM32F4xx_StdPeriph_Driver/src/stm32f4xx_tim.c ****   *                   - Select Output Trigger  
  86:../inc/STM32F4xx_StdPeriph_Driver/src/stm32f4xx_tim.c ****   *                   - Select Master Slave Mode 
  87:../inc/STM32F4xx_StdPeriph_Driver/src/stm32f4xx_tim.c ****   *                   - ETR Configuration when used as external trigger   
  88:../inc/STM32F4xx_StdPeriph_Driver/src/stm32f4xx_tim.c ****   *     
  89:../inc/STM32F4xx_StdPeriph_Driver/src/stm32f4xx_tim.c ****   *          8. TIM specific interface management, this group includes all 
  90:../inc/STM32F4xx_StdPeriph_Driver/src/stm32f4xx_tim.c ****   *             needed functions to use the specific TIM interface:
  91:../inc/STM32F4xx_StdPeriph_Driver/src/stm32f4xx_tim.c ****   *                   - Encoder Interface Configuration
  92:../inc/STM32F4xx_StdPeriph_Driver/src/stm32f4xx_tim.c ****   *                   - Select Hall Sensor   
  93:../inc/STM32F4xx_StdPeriph_Driver/src/stm32f4xx_tim.c ****   *         
  94:../inc/STM32F4xx_StdPeriph_Driver/src/stm32f4xx_tim.c ****   *          9. TIM specific remapping management includes the Remapping 
  95:../inc/STM32F4xx_StdPeriph_Driver/src/stm32f4xx_tim.c ****   *             configuration of specific timers               
  96:../inc/STM32F4xx_StdPeriph_Driver/src/stm32f4xx_tim.c ****   *   
  97:../inc/STM32F4xx_StdPeriph_Driver/src/stm32f4xx_tim.c ****   *  @endverbatim
  98:../inc/STM32F4xx_StdPeriph_Driver/src/stm32f4xx_tim.c ****   *    
  99:../inc/STM32F4xx_StdPeriph_Driver/src/stm32f4xx_tim.c ****   ******************************************************************************
 100:../inc/STM32F4xx_StdPeriph_Driver/src/stm32f4xx_tim.c ****   * @attention
 101:../inc/STM32F4xx_StdPeriph_Driver/src/stm32f4xx_tim.c ****   *
 102:../inc/STM32F4xx_StdPeriph_Driver/src/stm32f4xx_tim.c ****   * THE PRESENT FIRMWARE WHICH IS FOR GUIDANCE ONLY AIMS AT PROVIDING CUSTOMERS
 103:../inc/STM32F4xx_StdPeriph_Driver/src/stm32f4xx_tim.c ****   * WITH CODING INFORMATION REGARDING THEIR PRODUCTS IN ORDER FOR THEM TO SAVE
 104:../inc/STM32F4xx_StdPeriph_Driver/src/stm32f4xx_tim.c ****   * TIME. AS A RESULT, STMICROELECTRONICS SHALL NOT BE HELD LIABLE FOR ANY
 105:../inc/STM32F4xx_StdPeriph_Driver/src/stm32f4xx_tim.c ****   * DIRECT, INDIRECT OR CONSEQUENTIAL DAMAGES WITH RESPECT TO ANY CLAIMS ARISING
 106:../inc/STM32F4xx_StdPeriph_Driver/src/stm32f4xx_tim.c ****   * FROM THE CONTENT OF SUCH FIRMWARE AND/OR THE USE MADE BY CUSTOMERS OF THE
 107:../inc/STM32F4xx_StdPeriph_Driver/src/stm32f4xx_tim.c ****   * CODING INFORMATION CONTAINED HEREIN IN CONNECTION WITH THEIR PRODUCTS.
 108:../inc/STM32F4xx_StdPeriph_Driver/src/stm32f4xx_tim.c ****   *
 109:../inc/STM32F4xx_StdPeriph_Driver/src/stm32f4xx_tim.c ****   * <h2><center>&copy; COPYRIGHT 2011 STMicroelectronics</center></h2>
 110:../inc/STM32F4xx_StdPeriph_Driver/src/stm32f4xx_tim.c ****   ******************************************************************************
 111:../inc/STM32F4xx_StdPeriph_Driver/src/stm32f4xx_tim.c ****   */
 112:../inc/STM32F4xx_StdPeriph_Driver/src/stm32f4xx_tim.c **** 
 113:../inc/STM32F4xx_StdPeriph_Driver/src/stm32f4xx_tim.c **** /* Includes ------------------------------------------------------------------*/
 114:../inc/STM32F4xx_StdPeriph_Driver/src/stm32f4xx_tim.c **** #include "stm32f4xx_tim.h"
 115:../inc/STM32F4xx_StdPeriph_Driver/src/stm32f4xx_tim.c **** #include "stm32f4xx_rcc.h"
 116:../inc/STM32F4xx_StdPeriph_Driver/src/stm32f4xx_tim.c **** 
 117:../inc/STM32F4xx_StdPeriph_Driver/src/stm32f4xx_tim.c **** /** @addtogroup STM32F4xx_StdPeriph_Driver
 118:../inc/STM32F4xx_StdPeriph_Driver/src/stm32f4xx_tim.c ****   * @{
 119:../inc/STM32F4xx_StdPeriph_Driver/src/stm32f4xx_tim.c ****   */
 120:../inc/STM32F4xx_StdPeriph_Driver/src/stm32f4xx_tim.c **** 
 121:../inc/STM32F4xx_StdPeriph_Driver/src/stm32f4xx_tim.c **** /** @defgroup TIM 
 122:../inc/STM32F4xx_StdPeriph_Driver/src/stm32f4xx_tim.c ****   * @brief TIM driver modules
 123:../inc/STM32F4xx_StdPeriph_Driver/src/stm32f4xx_tim.c ****   * @{
 124:../inc/STM32F4xx_StdPeriph_Driver/src/stm32f4xx_tim.c ****   */
 125:../inc/STM32F4xx_StdPeriph_Driver/src/stm32f4xx_tim.c **** 
 126:../inc/STM32F4xx_StdPeriph_Driver/src/stm32f4xx_tim.c **** /* Private typedef -----------------------------------------------------------*/
 127:../inc/STM32F4xx_StdPeriph_Driver/src/stm32f4xx_tim.c **** /* Private define ------------------------------------------------------------*/
 128:../inc/STM32F4xx_StdPeriph_Driver/src/stm32f4xx_tim.c **** 
 129:../inc/STM32F4xx_StdPeriph_Driver/src/stm32f4xx_tim.c **** /* ---------------------- TIM registers bit mask ------------------------ */
 130:../inc/STM32F4xx_StdPeriph_Driver/src/stm32f4xx_tim.c **** #define SMCR_ETR_MASK      ((uint16_t)0x00FF) 
 131:../inc/STM32F4xx_StdPeriph_Driver/src/stm32f4xx_tim.c **** #define CCMR_OFFSET        ((uint16_t)0x0018)
 132:../inc/STM32F4xx_StdPeriph_Driver/src/stm32f4xx_tim.c **** #define CCER_CCE_SET       ((uint16_t)0x0001)  
 133:../inc/STM32F4xx_StdPeriph_Driver/src/stm32f4xx_tim.c **** #define	CCER_CCNE_SET      ((uint16_t)0x0004) 
 134:../inc/STM32F4xx_StdPeriph_Driver/src/stm32f4xx_tim.c **** #define CCMR_OC13M_MASK    ((uint16_t)0xFF8F)
 135:../inc/STM32F4xx_StdPeriph_Driver/src/stm32f4xx_tim.c **** #define CCMR_OC24M_MASK    ((uint16_t)0x8FFF) 
 136:../inc/STM32F4xx_StdPeriph_Driver/src/stm32f4xx_tim.c **** 
 137:../inc/STM32F4xx_StdPeriph_Driver/src/stm32f4xx_tim.c **** /* Private macro -------------------------------------------------------------*/
 138:../inc/STM32F4xx_StdPeriph_Driver/src/stm32f4xx_tim.c **** /* Private variables ---------------------------------------------------------*/
 139:../inc/STM32F4xx_StdPeriph_Driver/src/stm32f4xx_tim.c **** /* Private function prototypes -----------------------------------------------*/
 140:../inc/STM32F4xx_StdPeriph_Driver/src/stm32f4xx_tim.c **** static void TI1_Config(TIM_TypeDef* TIMx, uint16_t TIM_ICPolarity, uint16_t TIM_ICSelection,
 141:../inc/STM32F4xx_StdPeriph_Driver/src/stm32f4xx_tim.c ****                        uint16_t TIM_ICFilter);
 142:../inc/STM32F4xx_StdPeriph_Driver/src/stm32f4xx_tim.c **** static void TI2_Config(TIM_TypeDef* TIMx, uint16_t TIM_ICPolarity, uint16_t TIM_ICSelection,
 143:../inc/STM32F4xx_StdPeriph_Driver/src/stm32f4xx_tim.c ****                        uint16_t TIM_ICFilter);
 144:../inc/STM32F4xx_StdPeriph_Driver/src/stm32f4xx_tim.c **** static void TI3_Config(TIM_TypeDef* TIMx, uint16_t TIM_ICPolarity, uint16_t TIM_ICSelection,
 145:../inc/STM32F4xx_StdPeriph_Driver/src/stm32f4xx_tim.c ****                        uint16_t TIM_ICFilter);
 146:../inc/STM32F4xx_StdPeriph_Driver/src/stm32f4xx_tim.c **** static void TI4_Config(TIM_TypeDef* TIMx, uint16_t TIM_ICPolarity, uint16_t TIM_ICSelection,
 147:../inc/STM32F4xx_StdPeriph_Driver/src/stm32f4xx_tim.c ****                        uint16_t TIM_ICFilter);
 148:../inc/STM32F4xx_StdPeriph_Driver/src/stm32f4xx_tim.c **** 
 149:../inc/STM32F4xx_StdPeriph_Driver/src/stm32f4xx_tim.c **** /* Private functions ---------------------------------------------------------*/
 150:../inc/STM32F4xx_StdPeriph_Driver/src/stm32f4xx_tim.c **** 
 151:../inc/STM32F4xx_StdPeriph_Driver/src/stm32f4xx_tim.c **** /** @defgroup TIM_Private_Functions
 152:../inc/STM32F4xx_StdPeriph_Driver/src/stm32f4xx_tim.c ****   * @{
 153:../inc/STM32F4xx_StdPeriph_Driver/src/stm32f4xx_tim.c ****   */
 154:../inc/STM32F4xx_StdPeriph_Driver/src/stm32f4xx_tim.c **** 
 155:../inc/STM32F4xx_StdPeriph_Driver/src/stm32f4xx_tim.c **** /** @defgroup TIM_Group1 TimeBase management functions
 156:../inc/STM32F4xx_StdPeriph_Driver/src/stm32f4xx_tim.c ****  *  @brief   TimeBase management functions 
 157:../inc/STM32F4xx_StdPeriph_Driver/src/stm32f4xx_tim.c ****  *
 158:../inc/STM32F4xx_StdPeriph_Driver/src/stm32f4xx_tim.c **** @verbatim   
 159:../inc/STM32F4xx_StdPeriph_Driver/src/stm32f4xx_tim.c ****  ===============================================================================
 160:../inc/STM32F4xx_StdPeriph_Driver/src/stm32f4xx_tim.c ****                        TimeBase management functions
 161:../inc/STM32F4xx_StdPeriph_Driver/src/stm32f4xx_tim.c ****  ===============================================================================  
 162:../inc/STM32F4xx_StdPeriph_Driver/src/stm32f4xx_tim.c ****   
 163:../inc/STM32F4xx_StdPeriph_Driver/src/stm32f4xx_tim.c ****        ===================================================================      
 164:../inc/STM32F4xx_StdPeriph_Driver/src/stm32f4xx_tim.c ****               TIM Driver: how to use it in Timing(Time base) Mode
 165:../inc/STM32F4xx_StdPeriph_Driver/src/stm32f4xx_tim.c ****        =================================================================== 
 166:../inc/STM32F4xx_StdPeriph_Driver/src/stm32f4xx_tim.c ****        To use the Timer in Timing(Time base) mode, the following steps are mandatory:
 167:../inc/STM32F4xx_StdPeriph_Driver/src/stm32f4xx_tim.c ****        
 168:../inc/STM32F4xx_StdPeriph_Driver/src/stm32f4xx_tim.c ****        1. Enable TIM clock using RCC_APBxPeriphClockCmd(RCC_APBxPeriph_TIMx, ENABLE) function
 169:../inc/STM32F4xx_StdPeriph_Driver/src/stm32f4xx_tim.c ****                     
 170:../inc/STM32F4xx_StdPeriph_Driver/src/stm32f4xx_tim.c ****        2. Fill the TIM_TimeBaseInitStruct with the desired parameters.
 171:../inc/STM32F4xx_StdPeriph_Driver/src/stm32f4xx_tim.c ****        
 172:../inc/STM32F4xx_StdPeriph_Driver/src/stm32f4xx_tim.c ****        3. Call TIM_TimeBaseInit(TIMx, &TIM_TimeBaseInitStruct) to configure the Time Base unit
 173:../inc/STM32F4xx_StdPeriph_Driver/src/stm32f4xx_tim.c ****           with the corresponding configuration
 174:../inc/STM32F4xx_StdPeriph_Driver/src/stm32f4xx_tim.c ****           
 175:../inc/STM32F4xx_StdPeriph_Driver/src/stm32f4xx_tim.c ****        4. Enable the NVIC if you need to generate the update interrupt. 
 176:../inc/STM32F4xx_StdPeriph_Driver/src/stm32f4xx_tim.c ****           
 177:../inc/STM32F4xx_StdPeriph_Driver/src/stm32f4xx_tim.c ****        5. Enable the corresponding interrupt using the function TIM_ITConfig(TIMx, TIM_IT_Update) 
 178:../inc/STM32F4xx_StdPeriph_Driver/src/stm32f4xx_tim.c ****        
 179:../inc/STM32F4xx_StdPeriph_Driver/src/stm32f4xx_tim.c ****        6. Call the TIM_Cmd(ENABLE) function to enable the TIM counter.
 180:../inc/STM32F4xx_StdPeriph_Driver/src/stm32f4xx_tim.c ****              
 181:../inc/STM32F4xx_StdPeriph_Driver/src/stm32f4xx_tim.c ****        Note1: All other functions can be used separately to modify, if needed,
 182:../inc/STM32F4xx_StdPeriph_Driver/src/stm32f4xx_tim.c ****           a specific feature of the Timer. 
 183:../inc/STM32F4xx_StdPeriph_Driver/src/stm32f4xx_tim.c **** 
 184:../inc/STM32F4xx_StdPeriph_Driver/src/stm32f4xx_tim.c **** @endverbatim
 185:../inc/STM32F4xx_StdPeriph_Driver/src/stm32f4xx_tim.c ****   * @{
 186:../inc/STM32F4xx_StdPeriph_Driver/src/stm32f4xx_tim.c ****   */
 187:../inc/STM32F4xx_StdPeriph_Driver/src/stm32f4xx_tim.c ****   
 188:../inc/STM32F4xx_StdPeriph_Driver/src/stm32f4xx_tim.c **** /**
 189:../inc/STM32F4xx_StdPeriph_Driver/src/stm32f4xx_tim.c ****   * @brief  Deinitializes the TIMx peripheral registers to their default reset values.
 190:../inc/STM32F4xx_StdPeriph_Driver/src/stm32f4xx_tim.c ****   * @param  TIMx: where x can be 1 to 14 to select the TIM peripheral.
 191:../inc/STM32F4xx_StdPeriph_Driver/src/stm32f4xx_tim.c ****   * @retval None
 192:../inc/STM32F4xx_StdPeriph_Driver/src/stm32f4xx_tim.c **** 
 193:../inc/STM32F4xx_StdPeriph_Driver/src/stm32f4xx_tim.c ****   */
 194:../inc/STM32F4xx_StdPeriph_Driver/src/stm32f4xx_tim.c **** void TIM_DeInit(TIM_TypeDef* TIMx)
 195:../inc/STM32F4xx_StdPeriph_Driver/src/stm32f4xx_tim.c **** {
 24600              		.loc 1 195 0
 24601              		.cfi_startproc
 24602              		@ args = 0, pretend = 0, frame = 8
 24603              		@ frame_needed = 1, uses_anonymous_args = 0
 24604 0000 80B5     		push	{r7, lr}
 24605              	.LCFI0:
 24606              		.cfi_def_cfa_offset 8
 24607 0002 82B0     		sub	sp, sp, #8
 24608              	.LCFI1:
 24609              		.cfi_def_cfa_offset 16
 24610 0004 00AF     		add	r7, sp, #0
 24611              		.cfi_offset 14, -4
 24612              		.cfi_offset 7, -8
 24613              	.LCFI2:
 24614              		.cfi_def_cfa_register 7
 24615 0006 7860     		str	r0, [r7, #4]
 196:../inc/STM32F4xx_StdPeriph_Driver/src/stm32f4xx_tim.c ****   /* Check the parameters */
 197:../inc/STM32F4xx_StdPeriph_Driver/src/stm32f4xx_tim.c ****   assert_param(IS_TIM_ALL_PERIPH(TIMx)); 
 198:../inc/STM32F4xx_StdPeriph_Driver/src/stm32f4xx_tim.c ****  
 199:../inc/STM32F4xx_StdPeriph_Driver/src/stm32f4xx_tim.c ****   if (TIMx == TIM1)
 24616              		.loc 1 199 0
 24617 0008 7A68     		ldr	r2, [r7, #4]
 24618 000a 784B     		ldr	r3, .L16
 24619 000c 9A42     		cmp	r2, r3
 24620 000e 0CD1     		bne	.L2
 200:../inc/STM32F4xx_StdPeriph_Driver/src/stm32f4xx_tim.c ****   {
 201:../inc/STM32F4xx_StdPeriph_Driver/src/stm32f4xx_tim.c ****     RCC_APB2PeriphResetCmd(RCC_APB2Periph_TIM1, ENABLE);
 24621              		.loc 1 201 0
 24622 0010 4FF00100 		mov	r0, #1
 24623 0014 4FF00101 		mov	r1, #1
 24624 0018 FFF7FEFF 		bl	RCC_APB2PeriphResetCmd
 202:../inc/STM32F4xx_StdPeriph_Driver/src/stm32f4xx_tim.c ****     RCC_APB2PeriphResetCmd(RCC_APB2Periph_TIM1, DISABLE);  
 24625              		.loc 1 202 0
 24626 001c 4FF00100 		mov	r0, #1
 24627 0020 4FF00001 		mov	r1, #0
 24628 0024 FFF7FEFF 		bl	RCC_APB2PeriphResetCmd
 24629 0028 DBE0     		b	.L1
 24630              	.L2:
 203:../inc/STM32F4xx_StdPeriph_Driver/src/stm32f4xx_tim.c ****   } 
 204:../inc/STM32F4xx_StdPeriph_Driver/src/stm32f4xx_tim.c ****   else if (TIMx == TIM2) 
 24631              		.loc 1 204 0
 24632 002a 7B68     		ldr	r3, [r7, #4]
 24633 002c B3F1804F 		cmp	r3, #1073741824
 24634 0030 0CD1     		bne	.L4
 205:../inc/STM32F4xx_StdPeriph_Driver/src/stm32f4xx_tim.c ****   {     
 206:../inc/STM32F4xx_StdPeriph_Driver/src/stm32f4xx_tim.c ****     RCC_APB1PeriphResetCmd(RCC_APB1Periph_TIM2, ENABLE);
 24635              		.loc 1 206 0
 24636 0032 4FF00100 		mov	r0, #1
 24637 0036 4FF00101 		mov	r1, #1
 24638 003a FFF7FEFF 		bl	RCC_APB1PeriphResetCmd
 207:../inc/STM32F4xx_StdPeriph_Driver/src/stm32f4xx_tim.c ****     RCC_APB1PeriphResetCmd(RCC_APB1Periph_TIM2, DISABLE);
 24639              		.loc 1 207 0
 24640 003e 4FF00100 		mov	r0, #1
 24641 0042 4FF00001 		mov	r1, #0
 24642 0046 FFF7FEFF 		bl	RCC_APB1PeriphResetCmd
 24643 004a CAE0     		b	.L1
 24644              	.L4:
 208:../inc/STM32F4xx_StdPeriph_Driver/src/stm32f4xx_tim.c ****   }  
 209:../inc/STM32F4xx_StdPeriph_Driver/src/stm32f4xx_tim.c ****   else if (TIMx == TIM3)
 24645              		.loc 1 209 0
 24646 004c 7A68     		ldr	r2, [r7, #4]
 24647 004e 684B     		ldr	r3, .L16+4
 24648 0050 9A42     		cmp	r2, r3
 24649 0052 0CD1     		bne	.L5
 210:../inc/STM32F4xx_StdPeriph_Driver/src/stm32f4xx_tim.c ****   { 
 211:../inc/STM32F4xx_StdPeriph_Driver/src/stm32f4xx_tim.c ****     RCC_APB1PeriphResetCmd(RCC_APB1Periph_TIM3, ENABLE);
 24650              		.loc 1 211 0
 24651 0054 4FF00200 		mov	r0, #2
 24652 0058 4FF00101 		mov	r1, #1
 24653 005c FFF7FEFF 		bl	RCC_APB1PeriphResetCmd
 212:../inc/STM32F4xx_StdPeriph_Driver/src/stm32f4xx_tim.c ****     RCC_APB1PeriphResetCmd(RCC_APB1Periph_TIM3, DISABLE);
 24654              		.loc 1 212 0
 24655 0060 4FF00200 		mov	r0, #2
 24656 0064 4FF00001 		mov	r1, #0
 24657 0068 FFF7FEFF 		bl	RCC_APB1PeriphResetCmd
 24658 006c B9E0     		b	.L1
 24659              	.L5:
 213:../inc/STM32F4xx_StdPeriph_Driver/src/stm32f4xx_tim.c ****   }  
 214:../inc/STM32F4xx_StdPeriph_Driver/src/stm32f4xx_tim.c ****   else if (TIMx == TIM4)
 24660              		.loc 1 214 0
 24661 006e 7A68     		ldr	r2, [r7, #4]
 24662 0070 604B     		ldr	r3, .L16+8
 24663 0072 9A42     		cmp	r2, r3
 24664 0074 0CD1     		bne	.L6
 215:../inc/STM32F4xx_StdPeriph_Driver/src/stm32f4xx_tim.c ****   { 
 216:../inc/STM32F4xx_StdPeriph_Driver/src/stm32f4xx_tim.c ****     RCC_APB1PeriphResetCmd(RCC_APB1Periph_TIM4, ENABLE);
 24665              		.loc 1 216 0
 24666 0076 4FF00400 		mov	r0, #4
 24667 007a 4FF00101 		mov	r1, #1
 24668 007e FFF7FEFF 		bl	RCC_APB1PeriphResetCmd
 217:../inc/STM32F4xx_StdPeriph_Driver/src/stm32f4xx_tim.c ****     RCC_APB1PeriphResetCmd(RCC_APB1Periph_TIM4, DISABLE);
 24669              		.loc 1 217 0
 24670 0082 4FF00400 		mov	r0, #4
 24671 0086 4FF00001 		mov	r1, #0
 24672 008a FFF7FEFF 		bl	RCC_APB1PeriphResetCmd
 24673 008e A8E0     		b	.L1
 24674              	.L6:
 218:../inc/STM32F4xx_StdPeriph_Driver/src/stm32f4xx_tim.c ****   }  
 219:../inc/STM32F4xx_StdPeriph_Driver/src/stm32f4xx_tim.c ****   else if (TIMx == TIM5)
 24675              		.loc 1 219 0
 24676 0090 7A68     		ldr	r2, [r7, #4]
 24677 0092 594B     		ldr	r3, .L16+12
 24678 0094 9A42     		cmp	r2, r3
 24679 0096 0CD1     		bne	.L7
 220:../inc/STM32F4xx_StdPeriph_Driver/src/stm32f4xx_tim.c ****   {      
 221:../inc/STM32F4xx_StdPeriph_Driver/src/stm32f4xx_tim.c ****     RCC_APB1PeriphResetCmd(RCC_APB1Periph_TIM5, ENABLE);
 24680              		.loc 1 221 0
 24681 0098 4FF00800 		mov	r0, #8
 24682 009c 4FF00101 		mov	r1, #1
 24683 00a0 FFF7FEFF 		bl	RCC_APB1PeriphResetCmd
 222:../inc/STM32F4xx_StdPeriph_Driver/src/stm32f4xx_tim.c ****     RCC_APB1PeriphResetCmd(RCC_APB1Periph_TIM5, DISABLE);
 24684              		.loc 1 222 0
 24685 00a4 4FF00800 		mov	r0, #8
 24686 00a8 4FF00001 		mov	r1, #0
 24687 00ac FFF7FEFF 		bl	RCC_APB1PeriphResetCmd
 24688 00b0 97E0     		b	.L1
 24689              	.L7:
 223:../inc/STM32F4xx_StdPeriph_Driver/src/stm32f4xx_tim.c ****   }  
 224:../inc/STM32F4xx_StdPeriph_Driver/src/stm32f4xx_tim.c ****   else if (TIMx == TIM6)  
 24690              		.loc 1 224 0
 24691 00b2 7A68     		ldr	r2, [r7, #4]
 24692 00b4 514B     		ldr	r3, .L16+16
 24693 00b6 9A42     		cmp	r2, r3
 24694 00b8 0CD1     		bne	.L8
 225:../inc/STM32F4xx_StdPeriph_Driver/src/stm32f4xx_tim.c ****   {    
 226:../inc/STM32F4xx_StdPeriph_Driver/src/stm32f4xx_tim.c ****     RCC_APB1PeriphResetCmd(RCC_APB1Periph_TIM6, ENABLE);
 24695              		.loc 1 226 0
 24696 00ba 4FF01000 		mov	r0, #16
 24697 00be 4FF00101 		mov	r1, #1
 24698 00c2 FFF7FEFF 		bl	RCC_APB1PeriphResetCmd
 227:../inc/STM32F4xx_StdPeriph_Driver/src/stm32f4xx_tim.c ****     RCC_APB1PeriphResetCmd(RCC_APB1Periph_TIM6, DISABLE);
 24699              		.loc 1 227 0
 24700 00c6 4FF01000 		mov	r0, #16
 24701 00ca 4FF00001 		mov	r1, #0
 24702 00ce FFF7FEFF 		bl	RCC_APB1PeriphResetCmd
 24703 00d2 86E0     		b	.L1
 24704              	.L8:
 228:../inc/STM32F4xx_StdPeriph_Driver/src/stm32f4xx_tim.c ****   }  
 229:../inc/STM32F4xx_StdPeriph_Driver/src/stm32f4xx_tim.c ****   else if (TIMx == TIM7)
 24705              		.loc 1 229 0
 24706 00d4 7A68     		ldr	r2, [r7, #4]
 24707 00d6 4A4B     		ldr	r3, .L16+20
 24708 00d8 9A42     		cmp	r2, r3
 24709 00da 0CD1     		bne	.L9
 230:../inc/STM32F4xx_StdPeriph_Driver/src/stm32f4xx_tim.c ****   {      
 231:../inc/STM32F4xx_StdPeriph_Driver/src/stm32f4xx_tim.c ****     RCC_APB1PeriphResetCmd(RCC_APB1Periph_TIM7, ENABLE);
 24710              		.loc 1 231 0
 24711 00dc 4FF02000 		mov	r0, #32
 24712 00e0 4FF00101 		mov	r1, #1
 24713 00e4 FFF7FEFF 		bl	RCC_APB1PeriphResetCmd
 232:../inc/STM32F4xx_StdPeriph_Driver/src/stm32f4xx_tim.c ****     RCC_APB1PeriphResetCmd(RCC_APB1Periph_TIM7, DISABLE);
 24714              		.loc 1 232 0
 24715 00e8 4FF02000 		mov	r0, #32
 24716 00ec 4FF00001 		mov	r1, #0
 24717 00f0 FFF7FEFF 		bl	RCC_APB1PeriphResetCmd
 24718 00f4 75E0     		b	.L1
 24719              	.L9:
 233:../inc/STM32F4xx_StdPeriph_Driver/src/stm32f4xx_tim.c ****   }  
 234:../inc/STM32F4xx_StdPeriph_Driver/src/stm32f4xx_tim.c ****   else if (TIMx == TIM8)
 24720              		.loc 1 234 0
 24721 00f6 7A68     		ldr	r2, [r7, #4]
 24722 00f8 424B     		ldr	r3, .L16+24
 24723 00fa 9A42     		cmp	r2, r3
 24724 00fc 0CD1     		bne	.L10
 235:../inc/STM32F4xx_StdPeriph_Driver/src/stm32f4xx_tim.c ****   {      
 236:../inc/STM32F4xx_StdPeriph_Driver/src/stm32f4xx_tim.c ****     RCC_APB2PeriphResetCmd(RCC_APB2Periph_TIM8, ENABLE);
 24725              		.loc 1 236 0
 24726 00fe 4FF00200 		mov	r0, #2
 24727 0102 4FF00101 		mov	r1, #1
 24728 0106 FFF7FEFF 		bl	RCC_APB2PeriphResetCmd
 237:../inc/STM32F4xx_StdPeriph_Driver/src/stm32f4xx_tim.c ****     RCC_APB2PeriphResetCmd(RCC_APB2Periph_TIM8, DISABLE);  
 24729              		.loc 1 237 0
 24730 010a 4FF00200 		mov	r0, #2
 24731 010e 4FF00001 		mov	r1, #0
 24732 0112 FFF7FEFF 		bl	RCC_APB2PeriphResetCmd
 24733 0116 64E0     		b	.L1
 24734              	.L10:
 238:../inc/STM32F4xx_StdPeriph_Driver/src/stm32f4xx_tim.c ****   }  
 239:../inc/STM32F4xx_StdPeriph_Driver/src/stm32f4xx_tim.c ****   else if (TIMx == TIM9)
 24735              		.loc 1 239 0
 24736 0118 7A68     		ldr	r2, [r7, #4]
 24737 011a 3B4B     		ldr	r3, .L16+28
 24738 011c 9A42     		cmp	r2, r3
 24739 011e 0CD1     		bne	.L11
 240:../inc/STM32F4xx_StdPeriph_Driver/src/stm32f4xx_tim.c ****   {      
 241:../inc/STM32F4xx_StdPeriph_Driver/src/stm32f4xx_tim.c ****     RCC_APB2PeriphResetCmd(RCC_APB2Periph_TIM9, ENABLE);
 24740              		.loc 1 241 0
 24741 0120 4FF48030 		mov	r0, #65536
 24742 0124 4FF00101 		mov	r1, #1
 24743 0128 FFF7FEFF 		bl	RCC_APB2PeriphResetCmd
 242:../inc/STM32F4xx_StdPeriph_Driver/src/stm32f4xx_tim.c ****     RCC_APB2PeriphResetCmd(RCC_APB2Periph_TIM9, DISABLE);  
 24744              		.loc 1 242 0
 24745 012c 4FF48030 		mov	r0, #65536
 24746 0130 4FF00001 		mov	r1, #0
 24747 0134 FFF7FEFF 		bl	RCC_APB2PeriphResetCmd
 24748 0138 53E0     		b	.L1
 24749              	.L11:
 243:../inc/STM32F4xx_StdPeriph_Driver/src/stm32f4xx_tim.c ****    }  
 244:../inc/STM32F4xx_StdPeriph_Driver/src/stm32f4xx_tim.c ****   else if (TIMx == TIM10)
 24750              		.loc 1 244 0
 24751 013a 7A68     		ldr	r2, [r7, #4]
 24752 013c 334B     		ldr	r3, .L16+32
 24753 013e 9A42     		cmp	r2, r3
 24754 0140 0CD1     		bne	.L12
 245:../inc/STM32F4xx_StdPeriph_Driver/src/stm32f4xx_tim.c ****   {      
 246:../inc/STM32F4xx_StdPeriph_Driver/src/stm32f4xx_tim.c ****     RCC_APB2PeriphResetCmd(RCC_APB2Periph_TIM10, ENABLE);
 24755              		.loc 1 246 0
 24756 0142 4FF40030 		mov	r0, #131072
 24757 0146 4FF00101 		mov	r1, #1
 24758 014a FFF7FEFF 		bl	RCC_APB2PeriphResetCmd
 247:../inc/STM32F4xx_StdPeriph_Driver/src/stm32f4xx_tim.c ****     RCC_APB2PeriphResetCmd(RCC_APB2Periph_TIM10, DISABLE);  
 24759              		.loc 1 247 0
 24760 014e 4FF40030 		mov	r0, #131072
 24761 0152 4FF00001 		mov	r1, #0
 24762 0156 FFF7FEFF 		bl	RCC_APB2PeriphResetCmd
 24763 015a 42E0     		b	.L1
 24764              	.L12:
 248:../inc/STM32F4xx_StdPeriph_Driver/src/stm32f4xx_tim.c ****   }  
 249:../inc/STM32F4xx_StdPeriph_Driver/src/stm32f4xx_tim.c ****   else if (TIMx == TIM11) 
 24765              		.loc 1 249 0
 24766 015c 7A68     		ldr	r2, [r7, #4]
 24767 015e 2C4B     		ldr	r3, .L16+36
 24768 0160 9A42     		cmp	r2, r3
 24769 0162 0CD1     		bne	.L13
 250:../inc/STM32F4xx_StdPeriph_Driver/src/stm32f4xx_tim.c ****   {     
 251:../inc/STM32F4xx_StdPeriph_Driver/src/stm32f4xx_tim.c ****     RCC_APB2PeriphResetCmd(RCC_APB2Periph_TIM11, ENABLE);
 24770              		.loc 1 251 0
 24771 0164 4FF48020 		mov	r0, #262144
 24772 0168 4FF00101 		mov	r1, #1
 24773 016c FFF7FEFF 		bl	RCC_APB2PeriphResetCmd
 252:../inc/STM32F4xx_StdPeriph_Driver/src/stm32f4xx_tim.c ****     RCC_APB2PeriphResetCmd(RCC_APB2Periph_TIM11, DISABLE);  
 24774              		.loc 1 252 0
 24775 0170 4FF48020 		mov	r0, #262144
 24776 0174 4FF00001 		mov	r1, #0
 24777 0178 FFF7FEFF 		bl	RCC_APB2PeriphResetCmd
 24778 017c 31E0     		b	.L1
 24779              	.L13:
 253:../inc/STM32F4xx_StdPeriph_Driver/src/stm32f4xx_tim.c ****   }  
 254:../inc/STM32F4xx_StdPeriph_Driver/src/stm32f4xx_tim.c ****   else if (TIMx == TIM12)
 24780              		.loc 1 254 0
 24781 017e 7A68     		ldr	r2, [r7, #4]
 24782 0180 244B     		ldr	r3, .L16+40
 24783 0182 9A42     		cmp	r2, r3
 24784 0184 0CD1     		bne	.L14
 255:../inc/STM32F4xx_StdPeriph_Driver/src/stm32f4xx_tim.c ****   {      
 256:../inc/STM32F4xx_StdPeriph_Driver/src/stm32f4xx_tim.c ****     RCC_APB1PeriphResetCmd(RCC_APB1Periph_TIM12, ENABLE);
 24785              		.loc 1 256 0
 24786 0186 4FF04000 		mov	r0, #64
 24787 018a 4FF00101 		mov	r1, #1
 24788 018e FFF7FEFF 		bl	RCC_APB1PeriphResetCmd
 257:../inc/STM32F4xx_StdPeriph_Driver/src/stm32f4xx_tim.c ****     RCC_APB1PeriphResetCmd(RCC_APB1Periph_TIM12, DISABLE);  
 24789              		.loc 1 257 0
 24790 0192 4FF04000 		mov	r0, #64
 24791 0196 4FF00001 		mov	r1, #0
 24792 019a FFF7FEFF 		bl	RCC_APB1PeriphResetCmd
 24793 019e 20E0     		b	.L1
 24794              	.L14:
 258:../inc/STM32F4xx_StdPeriph_Driver/src/stm32f4xx_tim.c ****   }  
 259:../inc/STM32F4xx_StdPeriph_Driver/src/stm32f4xx_tim.c ****   else if (TIMx == TIM13) 
 24795              		.loc 1 259 0
 24796 01a0 7A68     		ldr	r2, [r7, #4]
 24797 01a2 1D4B     		ldr	r3, .L16+44
 24798 01a4 9A42     		cmp	r2, r3
 24799 01a6 0CD1     		bne	.L15
 260:../inc/STM32F4xx_StdPeriph_Driver/src/stm32f4xx_tim.c ****   {       
 261:../inc/STM32F4xx_StdPeriph_Driver/src/stm32f4xx_tim.c ****     RCC_APB1PeriphResetCmd(RCC_APB1Periph_TIM13, ENABLE);
 24800              		.loc 1 261 0
 24801 01a8 4FF08000 		mov	r0, #128
 24802 01ac 4FF00101 		mov	r1, #1
 24803 01b0 FFF7FEFF 		bl	RCC_APB1PeriphResetCmd
 262:../inc/STM32F4xx_StdPeriph_Driver/src/stm32f4xx_tim.c ****     RCC_APB1PeriphResetCmd(RCC_APB1Periph_TIM13, DISABLE);  
 24804              		.loc 1 262 0
 24805 01b4 4FF08000 		mov	r0, #128
 24806 01b8 4FF00001 		mov	r1, #0
 24807 01bc FFF7FEFF 		bl	RCC_APB1PeriphResetCmd
 24808 01c0 0FE0     		b	.L1
 24809              	.L15:
 263:../inc/STM32F4xx_StdPeriph_Driver/src/stm32f4xx_tim.c ****   }  
 264:../inc/STM32F4xx_StdPeriph_Driver/src/stm32f4xx_tim.c ****   else
 265:../inc/STM32F4xx_StdPeriph_Driver/src/stm32f4xx_tim.c ****   { 
 266:../inc/STM32F4xx_StdPeriph_Driver/src/stm32f4xx_tim.c ****     if (TIMx == TIM14) 
 24810              		.loc 1 266 0
 24811 01c2 7A68     		ldr	r2, [r7, #4]
 24812 01c4 154B     		ldr	r3, .L16+48
 24813 01c6 9A42     		cmp	r2, r3
 24814 01c8 0BD1     		bne	.L1
 267:../inc/STM32F4xx_StdPeriph_Driver/src/stm32f4xx_tim.c ****     {     
 268:../inc/STM32F4xx_StdPeriph_Driver/src/stm32f4xx_tim.c ****       RCC_APB1PeriphResetCmd(RCC_APB1Periph_TIM14, ENABLE);
 24815              		.loc 1 268 0
 24816 01ca 4FF48070 		mov	r0, #256
 24817 01ce 4FF00101 		mov	r1, #1
 24818 01d2 FFF7FEFF 		bl	RCC_APB1PeriphResetCmd
 269:../inc/STM32F4xx_StdPeriph_Driver/src/stm32f4xx_tim.c ****       RCC_APB1PeriphResetCmd(RCC_APB1Periph_TIM14, DISABLE); 
 24819              		.loc 1 269 0
 24820 01d6 4FF48070 		mov	r0, #256
 24821 01da 4FF00001 		mov	r1, #0
 24822 01de FFF7FEFF 		bl	RCC_APB1PeriphResetCmd
 24823              	.L1:
 270:../inc/STM32F4xx_StdPeriph_Driver/src/stm32f4xx_tim.c ****     }   
 271:../inc/STM32F4xx_StdPeriph_Driver/src/stm32f4xx_tim.c ****   }
 272:../inc/STM32F4xx_StdPeriph_Driver/src/stm32f4xx_tim.c **** }
 24824              		.loc 1 272 0
 24825 01e2 07F10807 		add	r7, r7, #8
 24826 01e6 BD46     		mov	sp, r7
 24827 01e8 80BD     		pop	{r7, pc}
 24828              	.L17:
 24829 01ea 00BF     		.align	2
 24830              	.L16:
 24831 01ec 00000140 		.word	1073807360
 24832 01f0 00040040 		.word	1073742848
 24833 01f4 00080040 		.word	1073743872
 24834 01f8 000C0040 		.word	1073744896
 24835 01fc 00100040 		.word	1073745920
 24836 0200 00140040 		.word	1073746944
 24837 0204 00040140 		.word	1073808384
 24838 0208 00400140 		.word	1073823744
 24839 020c 00440140 		.word	1073824768
 24840 0210 00480140 		.word	1073825792
 24841 0214 00180040 		.word	1073747968
 24842 0218 001C0040 		.word	1073748992
 24843 021c 00200040 		.word	1073750016
 24844              		.cfi_endproc
 24845              	.LFE110:
 24847              		.section	.text.TIM_TimeBaseInit,"ax",%progbits
 24848              		.align	2
 24849              		.global	TIM_TimeBaseInit
 24850              		.thumb
 24851              		.thumb_func
 24853              	TIM_TimeBaseInit:
 24854              	.LFB111:
 273:../inc/STM32F4xx_StdPeriph_Driver/src/stm32f4xx_tim.c **** 
 274:../inc/STM32F4xx_StdPeriph_Driver/src/stm32f4xx_tim.c **** /**
 275:../inc/STM32F4xx_StdPeriph_Driver/src/stm32f4xx_tim.c ****   * @brief  Initializes the TIMx Time Base Unit peripheral according to 
 276:../inc/STM32F4xx_StdPeriph_Driver/src/stm32f4xx_tim.c ****   *         the specified parameters in the TIM_TimeBaseInitStruct.
 277:../inc/STM32F4xx_StdPeriph_Driver/src/stm32f4xx_tim.c ****   * @param  TIMx: where x can be  1 to 14 to select the TIM peripheral.
 278:../inc/STM32F4xx_StdPeriph_Driver/src/stm32f4xx_tim.c ****   * @param  TIM_TimeBaseInitStruct: pointer to a TIM_TimeBaseInitTypeDef structure
 279:../inc/STM32F4xx_StdPeriph_Driver/src/stm32f4xx_tim.c ****   *         that contains the configuration information for the specified TIM peripheral.
 280:../inc/STM32F4xx_StdPeriph_Driver/src/stm32f4xx_tim.c ****   * @retval None
 281:../inc/STM32F4xx_StdPeriph_Driver/src/stm32f4xx_tim.c ****   */
 282:../inc/STM32F4xx_StdPeriph_Driver/src/stm32f4xx_tim.c **** void TIM_TimeBaseInit(TIM_TypeDef* TIMx, TIM_TimeBaseInitTypeDef* TIM_TimeBaseInitStruct)
 283:../inc/STM32F4xx_StdPeriph_Driver/src/stm32f4xx_tim.c **** {
 24855              		.loc 1 283 0
 24856              		.cfi_startproc
 24857              		@ args = 0, pretend = 0, frame = 16
 24858              		@ frame_needed = 1, uses_anonymous_args = 0
 24859              		@ link register save eliminated.
 24860 0000 80B4     		push	{r7}
 24861              	.LCFI3:
 24862              		.cfi_def_cfa_offset 4
 24863 0002 85B0     		sub	sp, sp, #20
 24864              	.LCFI4:
 24865              		.cfi_def_cfa_offset 24
 24866 0004 00AF     		add	r7, sp, #0
 24867              		.cfi_offset 7, -4
 24868              	.LCFI5:
 24869              		.cfi_def_cfa_register 7
 24870 0006 7860     		str	r0, [r7, #4]
 24871 0008 3960     		str	r1, [r7, #0]
 284:../inc/STM32F4xx_StdPeriph_Driver/src/stm32f4xx_tim.c ****   uint16_t tmpcr1 = 0;
 24872              		.loc 1 284 0
 24873 000a 4FF00003 		mov	r3, #0
 24874 000e FB81     		strh	r3, [r7, #14]	@ movhi
 285:../inc/STM32F4xx_StdPeriph_Driver/src/stm32f4xx_tim.c **** 
 286:../inc/STM32F4xx_StdPeriph_Driver/src/stm32f4xx_tim.c ****   /* Check the parameters */
 287:../inc/STM32F4xx_StdPeriph_Driver/src/stm32f4xx_tim.c ****   assert_param(IS_TIM_ALL_PERIPH(TIMx)); 
 288:../inc/STM32F4xx_StdPeriph_Driver/src/stm32f4xx_tim.c ****   assert_param(IS_TIM_COUNTER_MODE(TIM_TimeBaseInitStruct->TIM_CounterMode));
 289:../inc/STM32F4xx_StdPeriph_Driver/src/stm32f4xx_tim.c ****   assert_param(IS_TIM_CKD_DIV(TIM_TimeBaseInitStruct->TIM_ClockDivision));
 290:../inc/STM32F4xx_StdPeriph_Driver/src/stm32f4xx_tim.c **** 
 291:../inc/STM32F4xx_StdPeriph_Driver/src/stm32f4xx_tim.c ****   tmpcr1 = TIMx->CR1;  
 24875              		.loc 1 291 0
 24876 0010 7B68     		ldr	r3, [r7, #4]
 24877 0012 1B88     		ldrh	r3, [r3, #0]	@ movhi
 24878 0014 FB81     		strh	r3, [r7, #14]	@ movhi
 292:../inc/STM32F4xx_StdPeriph_Driver/src/stm32f4xx_tim.c **** 
 293:../inc/STM32F4xx_StdPeriph_Driver/src/stm32f4xx_tim.c ****   if((TIMx == TIM1) || (TIMx == TIM8)||
 24879              		.loc 1 293 0
 24880 0016 7A68     		ldr	r2, [r7, #4]
 24881 0018 294B     		ldr	r3, .L24
 24882 001a 9A42     		cmp	r2, r3
 24883 001c 13D0     		beq	.L19
 24884              		.loc 1 293 0 is_stmt 0 discriminator 1
 24885 001e 7A68     		ldr	r2, [r7, #4]
 24886 0020 284B     		ldr	r3, .L24+4
 24887 0022 9A42     		cmp	r2, r3
 24888 0024 0FD0     		beq	.L19
 24889 0026 7B68     		ldr	r3, [r7, #4]
 24890 0028 B3F1804F 		cmp	r3, #1073741824
 24891 002c 0BD0     		beq	.L19
 294:../inc/STM32F4xx_StdPeriph_Driver/src/stm32f4xx_tim.c ****      (TIMx == TIM2) || (TIMx == TIM3)||
 24892              		.loc 1 294 0 is_stmt 1
 24893 002e 7A68     		ldr	r2, [r7, #4]
 24894 0030 254B     		ldr	r3, .L24+8
 24895 0032 9A42     		cmp	r2, r3
 24896 0034 07D0     		beq	.L19
 24897              		.loc 1 294 0 is_stmt 0 discriminator 1
 24898 0036 7A68     		ldr	r2, [r7, #4]
 24899 0038 244B     		ldr	r3, .L24+12
 24900 003a 9A42     		cmp	r2, r3
 24901 003c 03D0     		beq	.L19
 295:../inc/STM32F4xx_StdPeriph_Driver/src/stm32f4xx_tim.c ****      (TIMx == TIM4) || (TIMx == TIM5)) 
 24902              		.loc 1 295 0 is_stmt 1
 24903 003e 7A68     		ldr	r2, [r7, #4]
 24904 0040 234B     		ldr	r3, .L24+16
 24905 0042 9A42     		cmp	r2, r3
 24906 0044 09D1     		bne	.L20
 24907              	.L19:
 296:../inc/STM32F4xx_StdPeriph_Driver/src/stm32f4xx_tim.c ****   {
 297:../inc/STM32F4xx_StdPeriph_Driver/src/stm32f4xx_tim.c ****     /* Select the Counter Mode */
 298:../inc/STM32F4xx_StdPeriph_Driver/src/stm32f4xx_tim.c ****     tmpcr1 &= (uint16_t)(~(TIM_CR1_DIR | TIM_CR1_CMS));
 24908              		.loc 1 298 0
 24909 0046 FB89     		ldrh	r3, [r7, #14]	@ movhi
 24910 0048 23F07003 		bic	r3, r3, #112
 24911 004c FB81     		strh	r3, [r7, #14]	@ movhi
 299:../inc/STM32F4xx_StdPeriph_Driver/src/stm32f4xx_tim.c ****     tmpcr1 |= (uint32_t)TIM_TimeBaseInitStruct->TIM_CounterMode;
 24912              		.loc 1 299 0
 24913 004e 3B68     		ldr	r3, [r7, #0]
 24914 0050 5A88     		ldrh	r2, [r3, #2]
 24915 0052 FB89     		ldrh	r3, [r7, #14]	@ movhi
 24916 0054 42EA0303 		orr	r3, r2, r3
 24917 0058 FB81     		strh	r3, [r7, #14]	@ movhi
 24918              	.L20:
 300:../inc/STM32F4xx_StdPeriph_Driver/src/stm32f4xx_tim.c ****   }
 301:../inc/STM32F4xx_StdPeriph_Driver/src/stm32f4xx_tim.c ****  
 302:../inc/STM32F4xx_StdPeriph_Driver/src/stm32f4xx_tim.c ****   if((TIMx != TIM6) && (TIMx != TIM7))
 24919              		.loc 1 302 0
 24920 005a 7A68     		ldr	r2, [r7, #4]
 24921 005c 1D4B     		ldr	r3, .L24+20
 24922 005e 9A42     		cmp	r2, r3
 24923 0060 0DD0     		beq	.L21
 24924              		.loc 1 302 0 is_stmt 0 discriminator 1
 24925 0062 7A68     		ldr	r2, [r7, #4]
 24926 0064 1C4B     		ldr	r3, .L24+24
 24927 0066 9A42     		cmp	r2, r3
 24928 0068 09D0     		beq	.L21
 303:../inc/STM32F4xx_StdPeriph_Driver/src/stm32f4xx_tim.c ****   {
 304:../inc/STM32F4xx_StdPeriph_Driver/src/stm32f4xx_tim.c ****     /* Set the clock division */
 305:../inc/STM32F4xx_StdPeriph_Driver/src/stm32f4xx_tim.c ****     tmpcr1 &=  (uint16_t)(~TIM_CR1_CKD);
 24929              		.loc 1 305 0 is_stmt 1
 24930 006a FB89     		ldrh	r3, [r7, #14]	@ movhi
 24931 006c 23F44073 		bic	r3, r3, #768
 24932 0070 FB81     		strh	r3, [r7, #14]	@ movhi
 306:../inc/STM32F4xx_StdPeriph_Driver/src/stm32f4xx_tim.c ****     tmpcr1 |= (uint32_t)TIM_TimeBaseInitStruct->TIM_ClockDivision;
 24933              		.loc 1 306 0
 24934 0072 3B68     		ldr	r3, [r7, #0]
 24935 0074 1A89     		ldrh	r2, [r3, #8]
 24936 0076 FB89     		ldrh	r3, [r7, #14]	@ movhi
 24937 0078 42EA0303 		orr	r3, r2, r3
 24938 007c FB81     		strh	r3, [r7, #14]	@ movhi
 24939              	.L21:
 307:../inc/STM32F4xx_StdPeriph_Driver/src/stm32f4xx_tim.c ****   }
 308:../inc/STM32F4xx_StdPeriph_Driver/src/stm32f4xx_tim.c **** 
 309:../inc/STM32F4xx_StdPeriph_Driver/src/stm32f4xx_tim.c ****   TIMx->CR1 = tmpcr1;
 24940              		.loc 1 309 0
 24941 007e 7B68     		ldr	r3, [r7, #4]
 24942 0080 FA89     		ldrh	r2, [r7, #14]	@ movhi
 24943 0082 1A80     		strh	r2, [r3, #0]	@ movhi
 310:../inc/STM32F4xx_StdPeriph_Driver/src/stm32f4xx_tim.c **** 
 311:../inc/STM32F4xx_StdPeriph_Driver/src/stm32f4xx_tim.c ****   /* Set the Autoreload value */
 312:../inc/STM32F4xx_StdPeriph_Driver/src/stm32f4xx_tim.c ****   TIMx->ARR = TIM_TimeBaseInitStruct->TIM_Period ;
 24944              		.loc 1 312 0
 24945 0084 3B68     		ldr	r3, [r7, #0]
 24946 0086 5A68     		ldr	r2, [r3, #4]
 24947 0088 7B68     		ldr	r3, [r7, #4]
 24948 008a DA62     		str	r2, [r3, #44]
 313:../inc/STM32F4xx_StdPeriph_Driver/src/stm32f4xx_tim.c ****  
 314:../inc/STM32F4xx_StdPeriph_Driver/src/stm32f4xx_tim.c ****   /* Set the Prescaler value */
 315:../inc/STM32F4xx_StdPeriph_Driver/src/stm32f4xx_tim.c ****   TIMx->PSC = TIM_TimeBaseInitStruct->TIM_Prescaler;
 24949              		.loc 1 315 0
 24950 008c 3B68     		ldr	r3, [r7, #0]
 24951 008e 1A88     		ldrh	r2, [r3, #0]
 24952 0090 7B68     		ldr	r3, [r7, #4]
 24953 0092 1A85     		strh	r2, [r3, #40]	@ movhi
 316:../inc/STM32F4xx_StdPeriph_Driver/src/stm32f4xx_tim.c ****     
 317:../inc/STM32F4xx_StdPeriph_Driver/src/stm32f4xx_tim.c ****   if ((TIMx == TIM1) || (TIMx == TIM8))  
 24954              		.loc 1 317 0
 24955 0094 7A68     		ldr	r2, [r7, #4]
 24956 0096 0A4B     		ldr	r3, .L24
 24957 0098 9A42     		cmp	r2, r3
 24958 009a 03D0     		beq	.L22
 24959              		.loc 1 317 0 is_stmt 0 discriminator 1
 24960 009c 7A68     		ldr	r2, [r7, #4]
 24961 009e 094B     		ldr	r3, .L24+4
 24962 00a0 9A42     		cmp	r2, r3
 24963 00a2 04D1     		bne	.L23
 24964              	.L22:
 318:../inc/STM32F4xx_StdPeriph_Driver/src/stm32f4xx_tim.c ****   {
 319:../inc/STM32F4xx_StdPeriph_Driver/src/stm32f4xx_tim.c ****     /* Set the Repetition Counter value */
 320:../inc/STM32F4xx_StdPeriph_Driver/src/stm32f4xx_tim.c ****     TIMx->RCR = TIM_TimeBaseInitStruct->TIM_RepetitionCounter;
 24965              		.loc 1 320 0 is_stmt 1
 24966 00a4 3B68     		ldr	r3, [r7, #0]
 24967 00a6 9B7A     		ldrb	r3, [r3, #10]	@ zero_extendqisi2
 24968 00a8 1A46     		mov	r2, r3
 24969 00aa 7B68     		ldr	r3, [r7, #4]
 24970 00ac 1A86     		strh	r2, [r3, #48]	@ movhi
 24971              	.L23:
 321:../inc/STM32F4xx_StdPeriph_Driver/src/stm32f4xx_tim.c ****   }
 322:../inc/STM32F4xx_StdPeriph_Driver/src/stm32f4xx_tim.c **** 
 323:../inc/STM32F4xx_StdPeriph_Driver/src/stm32f4xx_tim.c ****   /* Generate an update event to reload the Prescaler 
 324:../inc/STM32F4xx_StdPeriph_Driver/src/stm32f4xx_tim.c ****      and the repetition counter(only for TIM1 and TIM8) value immediatly */
 325:../inc/STM32F4xx_StdPeriph_Driver/src/stm32f4xx_tim.c ****   TIMx->EGR = TIM_PSCReloadMode_Immediate;          
 24972              		.loc 1 325 0
 24973 00ae 7B68     		ldr	r3, [r7, #4]
 24974 00b0 4FF00102 		mov	r2, #1
 24975 00b4 9A82     		strh	r2, [r3, #20]	@ movhi
 326:../inc/STM32F4xx_StdPeriph_Driver/src/stm32f4xx_tim.c **** }
 24976              		.loc 1 326 0
 24977 00b6 07F11407 		add	r7, r7, #20
 24978 00ba BD46     		mov	sp, r7
 24979 00bc 80BC     		pop	{r7}
 24980 00be 7047     		bx	lr
 24981              	.L25:
 24982              		.align	2
 24983              	.L24:
 24984 00c0 00000140 		.word	1073807360
 24985 00c4 00040140 		.word	1073808384
 24986 00c8 00040040 		.word	1073742848
 24987 00cc 00080040 		.word	1073743872
 24988 00d0 000C0040 		.word	1073744896
 24989 00d4 00100040 		.word	1073745920
 24990 00d8 00140040 		.word	1073746944
 24991              		.cfi_endproc
 24992              	.LFE111:
 24994              		.section	.text.TIM_TimeBaseStructInit,"ax",%progbits
 24995              		.align	2
 24996              		.global	TIM_TimeBaseStructInit
 24997              		.thumb
 24998              		.thumb_func
 25000              	TIM_TimeBaseStructInit:
 25001              	.LFB112:
 327:../inc/STM32F4xx_StdPeriph_Driver/src/stm32f4xx_tim.c **** 
 328:../inc/STM32F4xx_StdPeriph_Driver/src/stm32f4xx_tim.c **** /**
 329:../inc/STM32F4xx_StdPeriph_Driver/src/stm32f4xx_tim.c ****   * @brief  Fills each TIM_TimeBaseInitStruct member with its default value.
 330:../inc/STM32F4xx_StdPeriph_Driver/src/stm32f4xx_tim.c ****   * @param  TIM_TimeBaseInitStruct : pointer to a TIM_TimeBaseInitTypeDef
 331:../inc/STM32F4xx_StdPeriph_Driver/src/stm32f4xx_tim.c ****   *         structure which will be initialized.
 332:../inc/STM32F4xx_StdPeriph_Driver/src/stm32f4xx_tim.c ****   * @retval None
 333:../inc/STM32F4xx_StdPeriph_Driver/src/stm32f4xx_tim.c ****   */
 334:../inc/STM32F4xx_StdPeriph_Driver/src/stm32f4xx_tim.c **** void TIM_TimeBaseStructInit(TIM_TimeBaseInitTypeDef* TIM_TimeBaseInitStruct)
 335:../inc/STM32F4xx_StdPeriph_Driver/src/stm32f4xx_tim.c **** {
 25002              		.loc 1 335 0
 25003              		.cfi_startproc
 25004              		@ args = 0, pretend = 0, frame = 8
 25005              		@ frame_needed = 1, uses_anonymous_args = 0
 25006              		@ link register save eliminated.
 25007 0000 80B4     		push	{r7}
 25008              	.LCFI6:
 25009              		.cfi_def_cfa_offset 4
 25010 0002 83B0     		sub	sp, sp, #12
 25011              	.LCFI7:
 25012              		.cfi_def_cfa_offset 16
 25013 0004 00AF     		add	r7, sp, #0
 25014              		.cfi_offset 7, -4
 25015              	.LCFI8:
 25016              		.cfi_def_cfa_register 7
 25017 0006 7860     		str	r0, [r7, #4]
 336:../inc/STM32F4xx_StdPeriph_Driver/src/stm32f4xx_tim.c ****   /* Set the default configuration */
 337:../inc/STM32F4xx_StdPeriph_Driver/src/stm32f4xx_tim.c ****   TIM_TimeBaseInitStruct->TIM_Period = 0xFFFFFFFF;
 25018              		.loc 1 337 0
 25019 0008 7B68     		ldr	r3, [r7, #4]
 25020 000a 4FF0FF32 		mov	r2, #-1
 25021 000e 5A60     		str	r2, [r3, #4]
 338:../inc/STM32F4xx_StdPeriph_Driver/src/stm32f4xx_tim.c ****   TIM_TimeBaseInitStruct->TIM_Prescaler = 0x0000;
 25022              		.loc 1 338 0
 25023 0010 7B68     		ldr	r3, [r7, #4]
 25024 0012 4FF00002 		mov	r2, #0
 25025 0016 1A80     		strh	r2, [r3, #0]	@ movhi
 339:../inc/STM32F4xx_StdPeriph_Driver/src/stm32f4xx_tim.c ****   TIM_TimeBaseInitStruct->TIM_ClockDivision = TIM_CKD_DIV1;
 25026              		.loc 1 339 0
 25027 0018 7B68     		ldr	r3, [r7, #4]
 25028 001a 4FF00002 		mov	r2, #0
 25029 001e 1A81     		strh	r2, [r3, #8]	@ movhi
 340:../inc/STM32F4xx_StdPeriph_Driver/src/stm32f4xx_tim.c ****   TIM_TimeBaseInitStruct->TIM_CounterMode = TIM_CounterMode_Up;
 25030              		.loc 1 340 0
 25031 0020 7B68     		ldr	r3, [r7, #4]
 25032 0022 4FF00002 		mov	r2, #0
 25033 0026 5A80     		strh	r2, [r3, #2]	@ movhi
 341:../inc/STM32F4xx_StdPeriph_Driver/src/stm32f4xx_tim.c ****   TIM_TimeBaseInitStruct->TIM_RepetitionCounter = 0x0000;
 25034              		.loc 1 341 0
 25035 0028 7B68     		ldr	r3, [r7, #4]
 25036 002a 4FF00002 		mov	r2, #0
 25037 002e 9A72     		strb	r2, [r3, #10]
 342:../inc/STM32F4xx_StdPeriph_Driver/src/stm32f4xx_tim.c **** }
 25038              		.loc 1 342 0
 25039 0030 07F10C07 		add	r7, r7, #12
 25040 0034 BD46     		mov	sp, r7
 25041 0036 80BC     		pop	{r7}
 25042 0038 7047     		bx	lr
 25043              		.cfi_endproc
 25044              	.LFE112:
 25046 003a 00BF     		.section	.text.TIM_PrescalerConfig,"ax",%progbits
 25047              		.align	2
 25048              		.global	TIM_PrescalerConfig
 25049              		.thumb
 25050              		.thumb_func
 25052              	TIM_PrescalerConfig:
 25053              	.LFB113:
 343:../inc/STM32F4xx_StdPeriph_Driver/src/stm32f4xx_tim.c **** 
 344:../inc/STM32F4xx_StdPeriph_Driver/src/stm32f4xx_tim.c **** /**
 345:../inc/STM32F4xx_StdPeriph_Driver/src/stm32f4xx_tim.c ****   * @brief  Configures the TIMx Prescaler.
 346:../inc/STM32F4xx_StdPeriph_Driver/src/stm32f4xx_tim.c ****   * @param  TIMx: where x can be  1 to 14 to select the TIM peripheral.
 347:../inc/STM32F4xx_StdPeriph_Driver/src/stm32f4xx_tim.c ****   * @param  Prescaler: specifies the Prescaler Register value
 348:../inc/STM32F4xx_StdPeriph_Driver/src/stm32f4xx_tim.c ****   * @param  TIM_PSCReloadMode: specifies the TIM Prescaler Reload mode
 349:../inc/STM32F4xx_StdPeriph_Driver/src/stm32f4xx_tim.c ****   *          This parameter can be one of the following values:
 350:../inc/STM32F4xx_StdPeriph_Driver/src/stm32f4xx_tim.c ****   *            @arg TIM_PSCReloadMode_Update: The Prescaler is loaded at the update event.
 351:../inc/STM32F4xx_StdPeriph_Driver/src/stm32f4xx_tim.c ****   *            @arg TIM_PSCReloadMode_Immediate: The Prescaler is loaded immediatly.
 352:../inc/STM32F4xx_StdPeriph_Driver/src/stm32f4xx_tim.c ****   * @retval None
 353:../inc/STM32F4xx_StdPeriph_Driver/src/stm32f4xx_tim.c ****   */
 354:../inc/STM32F4xx_StdPeriph_Driver/src/stm32f4xx_tim.c **** void TIM_PrescalerConfig(TIM_TypeDef* TIMx, uint16_t Prescaler, uint16_t TIM_PSCReloadMode)
 355:../inc/STM32F4xx_StdPeriph_Driver/src/stm32f4xx_tim.c **** {
 25054              		.loc 1 355 0
 25055              		.cfi_startproc
 25056              		@ args = 0, pretend = 0, frame = 8
 25057              		@ frame_needed = 1, uses_anonymous_args = 0
 25058              		@ link register save eliminated.
 25059 0000 80B4     		push	{r7}
 25060              	.LCFI9:
 25061              		.cfi_def_cfa_offset 4
 25062 0002 83B0     		sub	sp, sp, #12
 25063              	.LCFI10:
 25064              		.cfi_def_cfa_offset 16
 25065 0004 00AF     		add	r7, sp, #0
 25066              		.cfi_offset 7, -4
 25067              	.LCFI11:
 25068              		.cfi_def_cfa_register 7
 25069 0006 7860     		str	r0, [r7, #4]
 25070 0008 1346     		mov	r3, r2
 25071 000a 0A46     		mov	r2, r1	@ movhi
 25072 000c 7A80     		strh	r2, [r7, #2]	@ movhi
 25073 000e 3B80     		strh	r3, [r7, #0]	@ movhi
 356:../inc/STM32F4xx_StdPeriph_Driver/src/stm32f4xx_tim.c ****   /* Check the parameters */
 357:../inc/STM32F4xx_StdPeriph_Driver/src/stm32f4xx_tim.c ****   assert_param(IS_TIM_ALL_PERIPH(TIMx));
 358:../inc/STM32F4xx_StdPeriph_Driver/src/stm32f4xx_tim.c ****   assert_param(IS_TIM_PRESCALER_RELOAD(TIM_PSCReloadMode));
 359:../inc/STM32F4xx_StdPeriph_Driver/src/stm32f4xx_tim.c ****   /* Set the Prescaler value */
 360:../inc/STM32F4xx_StdPeriph_Driver/src/stm32f4xx_tim.c ****   TIMx->PSC = Prescaler;
 25074              		.loc 1 360 0
 25075 0010 7B68     		ldr	r3, [r7, #4]
 25076 0012 7A88     		ldrh	r2, [r7, #2]	@ movhi
 25077 0014 1A85     		strh	r2, [r3, #40]	@ movhi
 361:../inc/STM32F4xx_StdPeriph_Driver/src/stm32f4xx_tim.c ****   /* Set or reset the UG Bit */
 362:../inc/STM32F4xx_StdPeriph_Driver/src/stm32f4xx_tim.c ****   TIMx->EGR = TIM_PSCReloadMode;
 25078              		.loc 1 362 0
 25079 0016 7B68     		ldr	r3, [r7, #4]
 25080 0018 3A88     		ldrh	r2, [r7, #0]	@ movhi
 25081 001a 9A82     		strh	r2, [r3, #20]	@ movhi
 363:../inc/STM32F4xx_StdPeriph_Driver/src/stm32f4xx_tim.c **** }
 25082              		.loc 1 363 0
 25083 001c 07F10C07 		add	r7, r7, #12
 25084 0020 BD46     		mov	sp, r7
 25085 0022 80BC     		pop	{r7}
 25086 0024 7047     		bx	lr
 25087              		.cfi_endproc
 25088              	.LFE113:
 25090 0026 00BF     		.section	.text.TIM_CounterModeConfig,"ax",%progbits
 25091              		.align	2
 25092              		.global	TIM_CounterModeConfig
 25093              		.thumb
 25094              		.thumb_func
 25096              	TIM_CounterModeConfig:
 25097              	.LFB114:
 364:../inc/STM32F4xx_StdPeriph_Driver/src/stm32f4xx_tim.c **** 
 365:../inc/STM32F4xx_StdPeriph_Driver/src/stm32f4xx_tim.c **** /**
 366:../inc/STM32F4xx_StdPeriph_Driver/src/stm32f4xx_tim.c ****   * @brief  Specifies the TIMx Counter Mode to be used.
 367:../inc/STM32F4xx_StdPeriph_Driver/src/stm32f4xx_tim.c ****   * @param  TIMx: where x can be  1, 2, 3, 4, 5 or 8 to select the TIM peripheral.
 368:../inc/STM32F4xx_StdPeriph_Driver/src/stm32f4xx_tim.c ****   * @param  TIM_CounterMode: specifies the Counter Mode to be used
 369:../inc/STM32F4xx_StdPeriph_Driver/src/stm32f4xx_tim.c ****   *          This parameter can be one of the following values:
 370:../inc/STM32F4xx_StdPeriph_Driver/src/stm32f4xx_tim.c ****   *            @arg TIM_CounterMode_Up: TIM Up Counting Mode
 371:../inc/STM32F4xx_StdPeriph_Driver/src/stm32f4xx_tim.c ****   *            @arg TIM_CounterMode_Down: TIM Down Counting Mode
 372:../inc/STM32F4xx_StdPeriph_Driver/src/stm32f4xx_tim.c ****   *            @arg TIM_CounterMode_CenterAligned1: TIM Center Aligned Mode1
 373:../inc/STM32F4xx_StdPeriph_Driver/src/stm32f4xx_tim.c ****   *            @arg TIM_CounterMode_CenterAligned2: TIM Center Aligned Mode2
 374:../inc/STM32F4xx_StdPeriph_Driver/src/stm32f4xx_tim.c ****   *            @arg TIM_CounterMode_CenterAligned3: TIM Center Aligned Mode3
 375:../inc/STM32F4xx_StdPeriph_Driver/src/stm32f4xx_tim.c ****   * @retval None
 376:../inc/STM32F4xx_StdPeriph_Driver/src/stm32f4xx_tim.c ****   */
 377:../inc/STM32F4xx_StdPeriph_Driver/src/stm32f4xx_tim.c **** void TIM_CounterModeConfig(TIM_TypeDef* TIMx, uint16_t TIM_CounterMode)
 378:../inc/STM32F4xx_StdPeriph_Driver/src/stm32f4xx_tim.c **** {
 25098              		.loc 1 378 0
 25099              		.cfi_startproc
 25100              		@ args = 0, pretend = 0, frame = 16
 25101              		@ frame_needed = 1, uses_anonymous_args = 0
 25102              		@ link register save eliminated.
 25103 0000 80B4     		push	{r7}
 25104              	.LCFI12:
 25105              		.cfi_def_cfa_offset 4
 25106 0002 85B0     		sub	sp, sp, #20
 25107              	.LCFI13:
 25108              		.cfi_def_cfa_offset 24
 25109 0004 00AF     		add	r7, sp, #0
 25110              		.cfi_offset 7, -4
 25111              	.LCFI14:
 25112              		.cfi_def_cfa_register 7
 25113 0006 7860     		str	r0, [r7, #4]
 25114 0008 0B46     		mov	r3, r1
 25115 000a 7B80     		strh	r3, [r7, #2]	@ movhi
 379:../inc/STM32F4xx_StdPeriph_Driver/src/stm32f4xx_tim.c ****   uint16_t tmpcr1 = 0;
 25116              		.loc 1 379 0
 25117 000c 4FF00003 		mov	r3, #0
 25118 0010 FB81     		strh	r3, [r7, #14]	@ movhi
 380:../inc/STM32F4xx_StdPeriph_Driver/src/stm32f4xx_tim.c **** 
 381:../inc/STM32F4xx_StdPeriph_Driver/src/stm32f4xx_tim.c ****   /* Check the parameters */
 382:../inc/STM32F4xx_StdPeriph_Driver/src/stm32f4xx_tim.c ****   assert_param(IS_TIM_LIST3_PERIPH(TIMx));
 383:../inc/STM32F4xx_StdPeriph_Driver/src/stm32f4xx_tim.c ****   assert_param(IS_TIM_COUNTER_MODE(TIM_CounterMode));
 384:../inc/STM32F4xx_StdPeriph_Driver/src/stm32f4xx_tim.c **** 
 385:../inc/STM32F4xx_StdPeriph_Driver/src/stm32f4xx_tim.c ****   tmpcr1 = TIMx->CR1;
 25119              		.loc 1 385 0
 25120 0012 7B68     		ldr	r3, [r7, #4]
 25121 0014 1B88     		ldrh	r3, [r3, #0]	@ movhi
 25122 0016 FB81     		strh	r3, [r7, #14]	@ movhi
 386:../inc/STM32F4xx_StdPeriph_Driver/src/stm32f4xx_tim.c **** 
 387:../inc/STM32F4xx_StdPeriph_Driver/src/stm32f4xx_tim.c ****   /* Reset the CMS and DIR Bits */
 388:../inc/STM32F4xx_StdPeriph_Driver/src/stm32f4xx_tim.c ****   tmpcr1 &= (uint16_t)~(TIM_CR1_DIR | TIM_CR1_CMS);
 25123              		.loc 1 388 0
 25124 0018 FB89     		ldrh	r3, [r7, #14]	@ movhi
 25125 001a 23F07003 		bic	r3, r3, #112
 25126 001e FB81     		strh	r3, [r7, #14]	@ movhi
 389:../inc/STM32F4xx_StdPeriph_Driver/src/stm32f4xx_tim.c **** 
 390:../inc/STM32F4xx_StdPeriph_Driver/src/stm32f4xx_tim.c ****   /* Set the Counter Mode */
 391:../inc/STM32F4xx_StdPeriph_Driver/src/stm32f4xx_tim.c ****   tmpcr1 |= TIM_CounterMode;
 25127              		.loc 1 391 0
 25128 0020 FA89     		ldrh	r2, [r7, #14]	@ movhi
 25129 0022 7B88     		ldrh	r3, [r7, #2]	@ movhi
 25130 0024 42EA0303 		orr	r3, r2, r3
 25131 0028 FB81     		strh	r3, [r7, #14]	@ movhi
 392:../inc/STM32F4xx_StdPeriph_Driver/src/stm32f4xx_tim.c **** 
 393:../inc/STM32F4xx_StdPeriph_Driver/src/stm32f4xx_tim.c ****   /* Write to TIMx CR1 register */
 394:../inc/STM32F4xx_StdPeriph_Driver/src/stm32f4xx_tim.c ****   TIMx->CR1 = tmpcr1;
 25132              		.loc 1 394 0
 25133 002a 7B68     		ldr	r3, [r7, #4]
 25134 002c FA89     		ldrh	r2, [r7, #14]	@ movhi
 25135 002e 1A80     		strh	r2, [r3, #0]	@ movhi
 395:../inc/STM32F4xx_StdPeriph_Driver/src/stm32f4xx_tim.c **** }
 25136              		.loc 1 395 0
 25137 0030 07F11407 		add	r7, r7, #20
 25138 0034 BD46     		mov	sp, r7
 25139 0036 80BC     		pop	{r7}
 25140 0038 7047     		bx	lr
 25141              		.cfi_endproc
 25142              	.LFE114:
 25144 003a 00BF     		.section	.text.TIM_SetCounter,"ax",%progbits
 25145              		.align	2
 25146              		.global	TIM_SetCounter
 25147              		.thumb
 25148              		.thumb_func
 25150              	TIM_SetCounter:
 25151              	.LFB115:
 396:../inc/STM32F4xx_StdPeriph_Driver/src/stm32f4xx_tim.c **** 
 397:../inc/STM32F4xx_StdPeriph_Driver/src/stm32f4xx_tim.c **** /**
 398:../inc/STM32F4xx_StdPeriph_Driver/src/stm32f4xx_tim.c ****   * @brief  Sets the TIMx Counter Register value
 399:../inc/STM32F4xx_StdPeriph_Driver/src/stm32f4xx_tim.c ****   * @param  TIMx: where x can be 1 to 14 to select the TIM peripheral.
 400:../inc/STM32F4xx_StdPeriph_Driver/src/stm32f4xx_tim.c ****   * @param  Counter: specifies the Counter register new value.
 401:../inc/STM32F4xx_StdPeriph_Driver/src/stm32f4xx_tim.c ****   * @retval None
 402:../inc/STM32F4xx_StdPeriph_Driver/src/stm32f4xx_tim.c ****   */
 403:../inc/STM32F4xx_StdPeriph_Driver/src/stm32f4xx_tim.c **** void TIM_SetCounter(TIM_TypeDef* TIMx, uint32_t Counter)
 404:../inc/STM32F4xx_StdPeriph_Driver/src/stm32f4xx_tim.c **** {
 25152              		.loc 1 404 0
 25153              		.cfi_startproc
 25154              		@ args = 0, pretend = 0, frame = 8
 25155              		@ frame_needed = 1, uses_anonymous_args = 0
 25156              		@ link register save eliminated.
 25157 0000 80B4     		push	{r7}
 25158              	.LCFI15:
 25159              		.cfi_def_cfa_offset 4
 25160 0002 83B0     		sub	sp, sp, #12
 25161              	.LCFI16:
 25162              		.cfi_def_cfa_offset 16
 25163 0004 00AF     		add	r7, sp, #0
 25164              		.cfi_offset 7, -4
 25165              	.LCFI17:
 25166              		.cfi_def_cfa_register 7
 25167 0006 7860     		str	r0, [r7, #4]
 25168 0008 3960     		str	r1, [r7, #0]
 405:../inc/STM32F4xx_StdPeriph_Driver/src/stm32f4xx_tim.c ****   /* Check the parameters */
 406:../inc/STM32F4xx_StdPeriph_Driver/src/stm32f4xx_tim.c ****    assert_param(IS_TIM_ALL_PERIPH(TIMx));
 407:../inc/STM32F4xx_StdPeriph_Driver/src/stm32f4xx_tim.c **** 
 408:../inc/STM32F4xx_StdPeriph_Driver/src/stm32f4xx_tim.c ****   /* Set the Counter Register value */
 409:../inc/STM32F4xx_StdPeriph_Driver/src/stm32f4xx_tim.c ****   TIMx->CNT = Counter;
 25169              		.loc 1 409 0
 25170 000a 7B68     		ldr	r3, [r7, #4]
 25171 000c 3A68     		ldr	r2, [r7, #0]
 25172 000e 5A62     		str	r2, [r3, #36]
 410:../inc/STM32F4xx_StdPeriph_Driver/src/stm32f4xx_tim.c **** }
 25173              		.loc 1 410 0
 25174 0010 07F10C07 		add	r7, r7, #12
 25175 0014 BD46     		mov	sp, r7
 25176 0016 80BC     		pop	{r7}
 25177 0018 7047     		bx	lr
 25178              		.cfi_endproc
 25179              	.LFE115:
 25181 001a 00BF     		.section	.text.TIM_SetAutoreload,"ax",%progbits
 25182              		.align	2
 25183              		.global	TIM_SetAutoreload
 25184              		.thumb
 25185              		.thumb_func
 25187              	TIM_SetAutoreload:
 25188              	.LFB116:
 411:../inc/STM32F4xx_StdPeriph_Driver/src/stm32f4xx_tim.c **** 
 412:../inc/STM32F4xx_StdPeriph_Driver/src/stm32f4xx_tim.c **** /**
 413:../inc/STM32F4xx_StdPeriph_Driver/src/stm32f4xx_tim.c ****   * @brief  Sets the TIMx Autoreload Register value
 414:../inc/STM32F4xx_StdPeriph_Driver/src/stm32f4xx_tim.c ****   * @param  TIMx: where x can be 1 to 14 to select the TIM peripheral.
 415:../inc/STM32F4xx_StdPeriph_Driver/src/stm32f4xx_tim.c ****   * @param  Autoreload: specifies the Autoreload register new value.
 416:../inc/STM32F4xx_StdPeriph_Driver/src/stm32f4xx_tim.c ****   * @retval None
 417:../inc/STM32F4xx_StdPeriph_Driver/src/stm32f4xx_tim.c ****   */
 418:../inc/STM32F4xx_StdPeriph_Driver/src/stm32f4xx_tim.c **** void TIM_SetAutoreload(TIM_TypeDef* TIMx, uint32_t Autoreload)
 419:../inc/STM32F4xx_StdPeriph_Driver/src/stm32f4xx_tim.c **** {
 25189              		.loc 1 419 0
 25190              		.cfi_startproc
 25191              		@ args = 0, pretend = 0, frame = 8
 25192              		@ frame_needed = 1, uses_anonymous_args = 0
 25193              		@ link register save eliminated.
 25194 0000 80B4     		push	{r7}
 25195              	.LCFI18:
 25196              		.cfi_def_cfa_offset 4
 25197 0002 83B0     		sub	sp, sp, #12
 25198              	.LCFI19:
 25199              		.cfi_def_cfa_offset 16
 25200 0004 00AF     		add	r7, sp, #0
 25201              		.cfi_offset 7, -4
 25202              	.LCFI20:
 25203              		.cfi_def_cfa_register 7
 25204 0006 7860     		str	r0, [r7, #4]
 25205 0008 3960     		str	r1, [r7, #0]
 420:../inc/STM32F4xx_StdPeriph_Driver/src/stm32f4xx_tim.c ****   /* Check the parameters */
 421:../inc/STM32F4xx_StdPeriph_Driver/src/stm32f4xx_tim.c ****   assert_param(IS_TIM_ALL_PERIPH(TIMx));
 422:../inc/STM32F4xx_StdPeriph_Driver/src/stm32f4xx_tim.c ****   
 423:../inc/STM32F4xx_StdPeriph_Driver/src/stm32f4xx_tim.c ****   /* Set the Autoreload Register value */
 424:../inc/STM32F4xx_StdPeriph_Driver/src/stm32f4xx_tim.c ****   TIMx->ARR = Autoreload;
 25206              		.loc 1 424 0
 25207 000a 7B68     		ldr	r3, [r7, #4]
 25208 000c 3A68     		ldr	r2, [r7, #0]
 25209 000e DA62     		str	r2, [r3, #44]
 425:../inc/STM32F4xx_StdPeriph_Driver/src/stm32f4xx_tim.c **** }
 25210              		.loc 1 425 0
 25211 0010 07F10C07 		add	r7, r7, #12
 25212 0014 BD46     		mov	sp, r7
 25213 0016 80BC     		pop	{r7}
 25214 0018 7047     		bx	lr
 25215              		.cfi_endproc
 25216              	.LFE116:
 25218 001a 00BF     		.section	.text.TIM_GetCounter,"ax",%progbits
 25219              		.align	2
 25220              		.global	TIM_GetCounter
 25221              		.thumb
 25222              		.thumb_func
 25224              	TIM_GetCounter:
 25225              	.LFB117:
 426:../inc/STM32F4xx_StdPeriph_Driver/src/stm32f4xx_tim.c **** 
 427:../inc/STM32F4xx_StdPeriph_Driver/src/stm32f4xx_tim.c **** /**
 428:../inc/STM32F4xx_StdPeriph_Driver/src/stm32f4xx_tim.c ****   * @brief  Gets the TIMx Counter value.
 429:../inc/STM32F4xx_StdPeriph_Driver/src/stm32f4xx_tim.c ****   * @param  TIMx: where x can be 1 to 14 to select the TIM peripheral.
 430:../inc/STM32F4xx_StdPeriph_Driver/src/stm32f4xx_tim.c ****   * @retval Counter Register value
 431:../inc/STM32F4xx_StdPeriph_Driver/src/stm32f4xx_tim.c ****   */
 432:../inc/STM32F4xx_StdPeriph_Driver/src/stm32f4xx_tim.c **** uint32_t TIM_GetCounter(TIM_TypeDef* TIMx)
 433:../inc/STM32F4xx_StdPeriph_Driver/src/stm32f4xx_tim.c **** {
 25226              		.loc 1 433 0
 25227              		.cfi_startproc
 25228              		@ args = 0, pretend = 0, frame = 8
 25229              		@ frame_needed = 1, uses_anonymous_args = 0
 25230              		@ link register save eliminated.
 25231 0000 80B4     		push	{r7}
 25232              	.LCFI21:
 25233              		.cfi_def_cfa_offset 4
 25234 0002 83B0     		sub	sp, sp, #12
 25235              	.LCFI22:
 25236              		.cfi_def_cfa_offset 16
 25237 0004 00AF     		add	r7, sp, #0
 25238              		.cfi_offset 7, -4
 25239              	.LCFI23:
 25240              		.cfi_def_cfa_register 7
 25241 0006 7860     		str	r0, [r7, #4]
 434:../inc/STM32F4xx_StdPeriph_Driver/src/stm32f4xx_tim.c ****   /* Check the parameters */
 435:../inc/STM32F4xx_StdPeriph_Driver/src/stm32f4xx_tim.c ****   assert_param(IS_TIM_ALL_PERIPH(TIMx));
 436:../inc/STM32F4xx_StdPeriph_Driver/src/stm32f4xx_tim.c **** 
 437:../inc/STM32F4xx_StdPeriph_Driver/src/stm32f4xx_tim.c ****   /* Get the Counter Register value */
 438:../inc/STM32F4xx_StdPeriph_Driver/src/stm32f4xx_tim.c ****   return TIMx->CNT;
 25242              		.loc 1 438 0
 25243 0008 7B68     		ldr	r3, [r7, #4]
 25244 000a 5B6A     		ldr	r3, [r3, #36]
 439:../inc/STM32F4xx_StdPeriph_Driver/src/stm32f4xx_tim.c **** }
 25245              		.loc 1 439 0
 25246 000c 1846     		mov	r0, r3
 25247 000e 07F10C07 		add	r7, r7, #12
 25248 0012 BD46     		mov	sp, r7
 25249 0014 80BC     		pop	{r7}
 25250 0016 7047     		bx	lr
 25251              		.cfi_endproc
 25252              	.LFE117:
 25254              		.section	.text.TIM_GetPrescaler,"ax",%progbits
 25255              		.align	2
 25256              		.global	TIM_GetPrescaler
 25257              		.thumb
 25258              		.thumb_func
 25260              	TIM_GetPrescaler:
 25261              	.LFB118:
 440:../inc/STM32F4xx_StdPeriph_Driver/src/stm32f4xx_tim.c **** 
 441:../inc/STM32F4xx_StdPeriph_Driver/src/stm32f4xx_tim.c **** /**
 442:../inc/STM32F4xx_StdPeriph_Driver/src/stm32f4xx_tim.c ****   * @brief  Gets the TIMx Prescaler value.
 443:../inc/STM32F4xx_StdPeriph_Driver/src/stm32f4xx_tim.c ****   * @param  TIMx: where x can be 1 to 14 to select the TIM peripheral.
 444:../inc/STM32F4xx_StdPeriph_Driver/src/stm32f4xx_tim.c ****   * @retval Prescaler Register value.
 445:../inc/STM32F4xx_StdPeriph_Driver/src/stm32f4xx_tim.c ****   */
 446:../inc/STM32F4xx_StdPeriph_Driver/src/stm32f4xx_tim.c **** uint16_t TIM_GetPrescaler(TIM_TypeDef* TIMx)
 447:../inc/STM32F4xx_StdPeriph_Driver/src/stm32f4xx_tim.c **** {
 25262              		.loc 1 447 0
 25263              		.cfi_startproc
 25264              		@ args = 0, pretend = 0, frame = 8
 25265              		@ frame_needed = 1, uses_anonymous_args = 0
 25266              		@ link register save eliminated.
 25267 0000 80B4     		push	{r7}
 25268              	.LCFI24:
 25269              		.cfi_def_cfa_offset 4
 25270 0002 83B0     		sub	sp, sp, #12
 25271              	.LCFI25:
 25272              		.cfi_def_cfa_offset 16
 25273 0004 00AF     		add	r7, sp, #0
 25274              		.cfi_offset 7, -4
 25275              	.LCFI26:
 25276              		.cfi_def_cfa_register 7
 25277 0006 7860     		str	r0, [r7, #4]
 448:../inc/STM32F4xx_StdPeriph_Driver/src/stm32f4xx_tim.c ****   /* Check the parameters */
 449:../inc/STM32F4xx_StdPeriph_Driver/src/stm32f4xx_tim.c ****   assert_param(IS_TIM_ALL_PERIPH(TIMx));
 450:../inc/STM32F4xx_StdPeriph_Driver/src/stm32f4xx_tim.c **** 
 451:../inc/STM32F4xx_StdPeriph_Driver/src/stm32f4xx_tim.c ****   /* Get the Prescaler Register value */
 452:../inc/STM32F4xx_StdPeriph_Driver/src/stm32f4xx_tim.c ****   return TIMx->PSC;
 25278              		.loc 1 452 0
 25279 0008 7B68     		ldr	r3, [r7, #4]
 25280 000a 1B8D     		ldrh	r3, [r3, #40]	@ movhi
 25281 000c 9BB2     		uxth	r3, r3
 453:../inc/STM32F4xx_StdPeriph_Driver/src/stm32f4xx_tim.c **** }
 25282              		.loc 1 453 0
 25283 000e 1846     		mov	r0, r3
 25284 0010 07F10C07 		add	r7, r7, #12
 25285 0014 BD46     		mov	sp, r7
 25286 0016 80BC     		pop	{r7}
 25287 0018 7047     		bx	lr
 25288              		.cfi_endproc
 25289              	.LFE118:
 25291 001a 00BF     		.section	.text.TIM_UpdateDisableConfig,"ax",%progbits
 25292              		.align	2
 25293              		.global	TIM_UpdateDisableConfig
 25294              		.thumb
 25295              		.thumb_func
 25297              	TIM_UpdateDisableConfig:
 25298              	.LFB119:
 454:../inc/STM32F4xx_StdPeriph_Driver/src/stm32f4xx_tim.c **** 
 455:../inc/STM32F4xx_StdPeriph_Driver/src/stm32f4xx_tim.c **** /**
 456:../inc/STM32F4xx_StdPeriph_Driver/src/stm32f4xx_tim.c ****   * @brief  Enables or Disables the TIMx Update event.
 457:../inc/STM32F4xx_StdPeriph_Driver/src/stm32f4xx_tim.c ****   * @param  TIMx: where x can be 1 to 14 to select the TIM peripheral.
 458:../inc/STM32F4xx_StdPeriph_Driver/src/stm32f4xx_tim.c ****   * @param  NewState: new state of the TIMx UDIS bit
 459:../inc/STM32F4xx_StdPeriph_Driver/src/stm32f4xx_tim.c ****   *          This parameter can be: ENABLE or DISABLE.
 460:../inc/STM32F4xx_StdPeriph_Driver/src/stm32f4xx_tim.c ****   * @retval None
 461:../inc/STM32F4xx_StdPeriph_Driver/src/stm32f4xx_tim.c ****   */
 462:../inc/STM32F4xx_StdPeriph_Driver/src/stm32f4xx_tim.c **** void TIM_UpdateDisableConfig(TIM_TypeDef* TIMx, FunctionalState NewState)
 463:../inc/STM32F4xx_StdPeriph_Driver/src/stm32f4xx_tim.c **** {
 25299              		.loc 1 463 0
 25300              		.cfi_startproc
 25301              		@ args = 0, pretend = 0, frame = 8
 25302              		@ frame_needed = 1, uses_anonymous_args = 0
 25303              		@ link register save eliminated.
 25304 0000 80B4     		push	{r7}
 25305              	.LCFI27:
 25306              		.cfi_def_cfa_offset 4
 25307 0002 83B0     		sub	sp, sp, #12
 25308              	.LCFI28:
 25309              		.cfi_def_cfa_offset 16
 25310 0004 00AF     		add	r7, sp, #0
 25311              		.cfi_offset 7, -4
 25312              	.LCFI29:
 25313              		.cfi_def_cfa_register 7
 25314 0006 7860     		str	r0, [r7, #4]
 25315 0008 0B46     		mov	r3, r1
 25316 000a FB70     		strb	r3, [r7, #3]
 464:../inc/STM32F4xx_StdPeriph_Driver/src/stm32f4xx_tim.c ****   /* Check the parameters */
 465:../inc/STM32F4xx_StdPeriph_Driver/src/stm32f4xx_tim.c ****   assert_param(IS_TIM_ALL_PERIPH(TIMx));
 466:../inc/STM32F4xx_StdPeriph_Driver/src/stm32f4xx_tim.c ****   assert_param(IS_FUNCTIONAL_STATE(NewState));
 467:../inc/STM32F4xx_StdPeriph_Driver/src/stm32f4xx_tim.c **** 
 468:../inc/STM32F4xx_StdPeriph_Driver/src/stm32f4xx_tim.c ****   if (NewState != DISABLE)
 25317              		.loc 1 468 0
 25318 000c FB78     		ldrb	r3, [r7, #3]	@ zero_extendqisi2
 25319 000e 002B     		cmp	r3, #0
 25320 0010 08D0     		beq	.L34
 469:../inc/STM32F4xx_StdPeriph_Driver/src/stm32f4xx_tim.c ****   {
 470:../inc/STM32F4xx_StdPeriph_Driver/src/stm32f4xx_tim.c ****     /* Set the Update Disable Bit */
 471:../inc/STM32F4xx_StdPeriph_Driver/src/stm32f4xx_tim.c ****     TIMx->CR1 |= TIM_CR1_UDIS;
 25321              		.loc 1 471 0
 25322 0012 7B68     		ldr	r3, [r7, #4]
 25323 0014 1B88     		ldrh	r3, [r3, #0]	@ movhi
 25324 0016 9BB2     		uxth	r3, r3
 25325 0018 43F00203 		orr	r3, r3, #2
 25326 001c 9AB2     		uxth	r2, r3
 25327 001e 7B68     		ldr	r3, [r7, #4]
 25328 0020 1A80     		strh	r2, [r3, #0]	@ movhi
 25329 0022 07E0     		b	.L33
 25330              	.L34:
 472:../inc/STM32F4xx_StdPeriph_Driver/src/stm32f4xx_tim.c ****   }
 473:../inc/STM32F4xx_StdPeriph_Driver/src/stm32f4xx_tim.c ****   else
 474:../inc/STM32F4xx_StdPeriph_Driver/src/stm32f4xx_tim.c ****   {
 475:../inc/STM32F4xx_StdPeriph_Driver/src/stm32f4xx_tim.c ****     /* Reset the Update Disable Bit */
 476:../inc/STM32F4xx_StdPeriph_Driver/src/stm32f4xx_tim.c ****     TIMx->CR1 &= (uint16_t)~TIM_CR1_UDIS;
 25331              		.loc 1 476 0
 25332 0024 7B68     		ldr	r3, [r7, #4]
 25333 0026 1B88     		ldrh	r3, [r3, #0]	@ movhi
 25334 0028 9BB2     		uxth	r3, r3
 25335 002a 23F00203 		bic	r3, r3, #2
 25336 002e 9AB2     		uxth	r2, r3
 25337 0030 7B68     		ldr	r3, [r7, #4]
 25338 0032 1A80     		strh	r2, [r3, #0]	@ movhi
 25339              	.L33:
 477:../inc/STM32F4xx_StdPeriph_Driver/src/stm32f4xx_tim.c ****   }
 478:../inc/STM32F4xx_StdPeriph_Driver/src/stm32f4xx_tim.c **** }
 25340              		.loc 1 478 0
 25341 0034 07F10C07 		add	r7, r7, #12
 25342 0038 BD46     		mov	sp, r7
 25343 003a 80BC     		pop	{r7}
 25344 003c 7047     		bx	lr
 25345              		.cfi_endproc
 25346              	.LFE119:
 25348 003e 00BF     		.section	.text.TIM_UpdateRequestConfig,"ax",%progbits
 25349              		.align	2
 25350              		.global	TIM_UpdateRequestConfig
 25351              		.thumb
 25352              		.thumb_func
 25354              	TIM_UpdateRequestConfig:
 25355              	.LFB120:
 479:../inc/STM32F4xx_StdPeriph_Driver/src/stm32f4xx_tim.c **** 
 480:../inc/STM32F4xx_StdPeriph_Driver/src/stm32f4xx_tim.c **** /**
 481:../inc/STM32F4xx_StdPeriph_Driver/src/stm32f4xx_tim.c ****   * @brief  Configures the TIMx Update Request Interrupt source.
 482:../inc/STM32F4xx_StdPeriph_Driver/src/stm32f4xx_tim.c ****   * @param  TIMx: where x can be 1 to 14 to select the TIM peripheral.
 483:../inc/STM32F4xx_StdPeriph_Driver/src/stm32f4xx_tim.c ****   * @param  TIM_UpdateSource: specifies the Update source.
 484:../inc/STM32F4xx_StdPeriph_Driver/src/stm32f4xx_tim.c ****   *          This parameter can be one of the following values:
 485:../inc/STM32F4xx_StdPeriph_Driver/src/stm32f4xx_tim.c ****   *            @arg TIM_UpdateSource_Global: Source of update is the counter
 486:../inc/STM32F4xx_StdPeriph_Driver/src/stm32f4xx_tim.c ****   *                 overflow/underflow or the setting of UG bit, or an update
 487:../inc/STM32F4xx_StdPeriph_Driver/src/stm32f4xx_tim.c ****   *                 generation through the slave mode controller.
 488:../inc/STM32F4xx_StdPeriph_Driver/src/stm32f4xx_tim.c ****   *            @arg TIM_UpdateSource_Regular: Source of update is counter overflow/underflow.
 489:../inc/STM32F4xx_StdPeriph_Driver/src/stm32f4xx_tim.c ****   * @retval None
 490:../inc/STM32F4xx_StdPeriph_Driver/src/stm32f4xx_tim.c ****   */
 491:../inc/STM32F4xx_StdPeriph_Driver/src/stm32f4xx_tim.c **** void TIM_UpdateRequestConfig(TIM_TypeDef* TIMx, uint16_t TIM_UpdateSource)
 492:../inc/STM32F4xx_StdPeriph_Driver/src/stm32f4xx_tim.c **** {
 25356              		.loc 1 492 0
 25357              		.cfi_startproc
 25358              		@ args = 0, pretend = 0, frame = 8
 25359              		@ frame_needed = 1, uses_anonymous_args = 0
 25360              		@ link register save eliminated.
 25361 0000 80B4     		push	{r7}
 25362              	.LCFI30:
 25363              		.cfi_def_cfa_offset 4
 25364 0002 83B0     		sub	sp, sp, #12
 25365              	.LCFI31:
 25366              		.cfi_def_cfa_offset 16
 25367 0004 00AF     		add	r7, sp, #0
 25368              		.cfi_offset 7, -4
 25369              	.LCFI32:
 25370              		.cfi_def_cfa_register 7
 25371 0006 7860     		str	r0, [r7, #4]
 25372 0008 0B46     		mov	r3, r1
 25373 000a 7B80     		strh	r3, [r7, #2]	@ movhi
 493:../inc/STM32F4xx_StdPeriph_Driver/src/stm32f4xx_tim.c ****   /* Check the parameters */
 494:../inc/STM32F4xx_StdPeriph_Driver/src/stm32f4xx_tim.c ****   assert_param(IS_TIM_ALL_PERIPH(TIMx));
 495:../inc/STM32F4xx_StdPeriph_Driver/src/stm32f4xx_tim.c ****   assert_param(IS_TIM_UPDATE_SOURCE(TIM_UpdateSource));
 496:../inc/STM32F4xx_StdPeriph_Driver/src/stm32f4xx_tim.c **** 
 497:../inc/STM32F4xx_StdPeriph_Driver/src/stm32f4xx_tim.c ****   if (TIM_UpdateSource != TIM_UpdateSource_Global)
 25374              		.loc 1 497 0
 25375 000c 7B88     		ldrh	r3, [r7, #2]
 25376 000e 002B     		cmp	r3, #0
 25377 0010 08D0     		beq	.L37
 498:../inc/STM32F4xx_StdPeriph_Driver/src/stm32f4xx_tim.c ****   {
 499:../inc/STM32F4xx_StdPeriph_Driver/src/stm32f4xx_tim.c ****     /* Set the URS Bit */
 500:../inc/STM32F4xx_StdPeriph_Driver/src/stm32f4xx_tim.c ****     TIMx->CR1 |= TIM_CR1_URS;
 25378              		.loc 1 500 0
 25379 0012 7B68     		ldr	r3, [r7, #4]
 25380 0014 1B88     		ldrh	r3, [r3, #0]	@ movhi
 25381 0016 9BB2     		uxth	r3, r3
 25382 0018 43F00403 		orr	r3, r3, #4
 25383 001c 9AB2     		uxth	r2, r3
 25384 001e 7B68     		ldr	r3, [r7, #4]
 25385 0020 1A80     		strh	r2, [r3, #0]	@ movhi
 25386 0022 07E0     		b	.L36
 25387              	.L37:
 501:../inc/STM32F4xx_StdPeriph_Driver/src/stm32f4xx_tim.c ****   }
 502:../inc/STM32F4xx_StdPeriph_Driver/src/stm32f4xx_tim.c ****   else
 503:../inc/STM32F4xx_StdPeriph_Driver/src/stm32f4xx_tim.c ****   {
 504:../inc/STM32F4xx_StdPeriph_Driver/src/stm32f4xx_tim.c ****     /* Reset the URS Bit */
 505:../inc/STM32F4xx_StdPeriph_Driver/src/stm32f4xx_tim.c ****     TIMx->CR1 &= (uint16_t)~TIM_CR1_URS;
 25388              		.loc 1 505 0
 25389 0024 7B68     		ldr	r3, [r7, #4]
 25390 0026 1B88     		ldrh	r3, [r3, #0]	@ movhi
 25391 0028 9BB2     		uxth	r3, r3
 25392 002a 23F00403 		bic	r3, r3, #4
 25393 002e 9AB2     		uxth	r2, r3
 25394 0030 7B68     		ldr	r3, [r7, #4]
 25395 0032 1A80     		strh	r2, [r3, #0]	@ movhi
 25396              	.L36:
 506:../inc/STM32F4xx_StdPeriph_Driver/src/stm32f4xx_tim.c ****   }
 507:../inc/STM32F4xx_StdPeriph_Driver/src/stm32f4xx_tim.c **** }
 25397              		.loc 1 507 0
 25398 0034 07F10C07 		add	r7, r7, #12
 25399 0038 BD46     		mov	sp, r7
 25400 003a 80BC     		pop	{r7}
 25401 003c 7047     		bx	lr
 25402              		.cfi_endproc
 25403              	.LFE120:
 25405 003e 00BF     		.section	.text.TIM_ARRPreloadConfig,"ax",%progbits
 25406              		.align	2
 25407              		.global	TIM_ARRPreloadConfig
 25408              		.thumb
 25409              		.thumb_func
 25411              	TIM_ARRPreloadConfig:
 25412              	.LFB121:
 508:../inc/STM32F4xx_StdPeriph_Driver/src/stm32f4xx_tim.c **** 
 509:../inc/STM32F4xx_StdPeriph_Driver/src/stm32f4xx_tim.c **** /**
 510:../inc/STM32F4xx_StdPeriph_Driver/src/stm32f4xx_tim.c ****   * @brief  Enables or disables TIMx peripheral Preload register on ARR.
 511:../inc/STM32F4xx_StdPeriph_Driver/src/stm32f4xx_tim.c ****   * @param  TIMx: where x can be 1 to 14 to select the TIM peripheral.
 512:../inc/STM32F4xx_StdPeriph_Driver/src/stm32f4xx_tim.c ****   * @param  NewState: new state of the TIMx peripheral Preload register
 513:../inc/STM32F4xx_StdPeriph_Driver/src/stm32f4xx_tim.c ****   *          This parameter can be: ENABLE or DISABLE.
 514:../inc/STM32F4xx_StdPeriph_Driver/src/stm32f4xx_tim.c ****   * @retval None
 515:../inc/STM32F4xx_StdPeriph_Driver/src/stm32f4xx_tim.c ****   */
 516:../inc/STM32F4xx_StdPeriph_Driver/src/stm32f4xx_tim.c **** void TIM_ARRPreloadConfig(TIM_TypeDef* TIMx, FunctionalState NewState)
 517:../inc/STM32F4xx_StdPeriph_Driver/src/stm32f4xx_tim.c **** {
 25413              		.loc 1 517 0
 25414              		.cfi_startproc
 25415              		@ args = 0, pretend = 0, frame = 8
 25416              		@ frame_needed = 1, uses_anonymous_args = 0
 25417              		@ link register save eliminated.
 25418 0000 80B4     		push	{r7}
 25419              	.LCFI33:
 25420              		.cfi_def_cfa_offset 4
 25421 0002 83B0     		sub	sp, sp, #12
 25422              	.LCFI34:
 25423              		.cfi_def_cfa_offset 16
 25424 0004 00AF     		add	r7, sp, #0
 25425              		.cfi_offset 7, -4
 25426              	.LCFI35:
 25427              		.cfi_def_cfa_register 7
 25428 0006 7860     		str	r0, [r7, #4]
 25429 0008 0B46     		mov	r3, r1
 25430 000a FB70     		strb	r3, [r7, #3]
 518:../inc/STM32F4xx_StdPeriph_Driver/src/stm32f4xx_tim.c ****   /* Check the parameters */
 519:../inc/STM32F4xx_StdPeriph_Driver/src/stm32f4xx_tim.c ****   assert_param(IS_TIM_ALL_PERIPH(TIMx));
 520:../inc/STM32F4xx_StdPeriph_Driver/src/stm32f4xx_tim.c ****   assert_param(IS_FUNCTIONAL_STATE(NewState));
 521:../inc/STM32F4xx_StdPeriph_Driver/src/stm32f4xx_tim.c **** 
 522:../inc/STM32F4xx_StdPeriph_Driver/src/stm32f4xx_tim.c ****   if (NewState != DISABLE)
 25431              		.loc 1 522 0
 25432 000c FB78     		ldrb	r3, [r7, #3]	@ zero_extendqisi2
 25433 000e 002B     		cmp	r3, #0
 25434 0010 08D0     		beq	.L40
 523:../inc/STM32F4xx_StdPeriph_Driver/src/stm32f4xx_tim.c ****   {
 524:../inc/STM32F4xx_StdPeriph_Driver/src/stm32f4xx_tim.c ****     /* Set the ARR Preload Bit */
 525:../inc/STM32F4xx_StdPeriph_Driver/src/stm32f4xx_tim.c ****     TIMx->CR1 |= TIM_CR1_ARPE;
 25435              		.loc 1 525 0
 25436 0012 7B68     		ldr	r3, [r7, #4]
 25437 0014 1B88     		ldrh	r3, [r3, #0]	@ movhi
 25438 0016 9BB2     		uxth	r3, r3
 25439 0018 43F08003 		orr	r3, r3, #128
 25440 001c 9AB2     		uxth	r2, r3
 25441 001e 7B68     		ldr	r3, [r7, #4]
 25442 0020 1A80     		strh	r2, [r3, #0]	@ movhi
 25443 0022 07E0     		b	.L39
 25444              	.L40:
 526:../inc/STM32F4xx_StdPeriph_Driver/src/stm32f4xx_tim.c ****   }
 527:../inc/STM32F4xx_StdPeriph_Driver/src/stm32f4xx_tim.c ****   else
 528:../inc/STM32F4xx_StdPeriph_Driver/src/stm32f4xx_tim.c ****   {
 529:../inc/STM32F4xx_StdPeriph_Driver/src/stm32f4xx_tim.c ****     /* Reset the ARR Preload Bit */
 530:../inc/STM32F4xx_StdPeriph_Driver/src/stm32f4xx_tim.c ****     TIMx->CR1 &= (uint16_t)~TIM_CR1_ARPE;
 25445              		.loc 1 530 0
 25446 0024 7B68     		ldr	r3, [r7, #4]
 25447 0026 1B88     		ldrh	r3, [r3, #0]	@ movhi
 25448 0028 9BB2     		uxth	r3, r3
 25449 002a 23F08003 		bic	r3, r3, #128
 25450 002e 9AB2     		uxth	r2, r3
 25451 0030 7B68     		ldr	r3, [r7, #4]
 25452 0032 1A80     		strh	r2, [r3, #0]	@ movhi
 25453              	.L39:
 531:../inc/STM32F4xx_StdPeriph_Driver/src/stm32f4xx_tim.c ****   }
 532:../inc/STM32F4xx_StdPeriph_Driver/src/stm32f4xx_tim.c **** }
 25454              		.loc 1 532 0
 25455 0034 07F10C07 		add	r7, r7, #12
 25456 0038 BD46     		mov	sp, r7
 25457 003a 80BC     		pop	{r7}
 25458 003c 7047     		bx	lr
 25459              		.cfi_endproc
 25460              	.LFE121:
 25462 003e 00BF     		.section	.text.TIM_SelectOnePulseMode,"ax",%progbits
 25463              		.align	2
 25464              		.global	TIM_SelectOnePulseMode
 25465              		.thumb
 25466              		.thumb_func
 25468              	TIM_SelectOnePulseMode:
 25469              	.LFB122:
 533:../inc/STM32F4xx_StdPeriph_Driver/src/stm32f4xx_tim.c **** 
 534:../inc/STM32F4xx_StdPeriph_Driver/src/stm32f4xx_tim.c **** /**
 535:../inc/STM32F4xx_StdPeriph_Driver/src/stm32f4xx_tim.c ****   * @brief  Selects the TIMx's One Pulse Mode.
 536:../inc/STM32F4xx_StdPeriph_Driver/src/stm32f4xx_tim.c ****   * @param  TIMx: where x can be 1 to 14 to select the TIM peripheral.
 537:../inc/STM32F4xx_StdPeriph_Driver/src/stm32f4xx_tim.c ****   * @param  TIM_OPMode: specifies the OPM Mode to be used.
 538:../inc/STM32F4xx_StdPeriph_Driver/src/stm32f4xx_tim.c ****   *          This parameter can be one of the following values:
 539:../inc/STM32F4xx_StdPeriph_Driver/src/stm32f4xx_tim.c ****   *            @arg TIM_OPMode_Single
 540:../inc/STM32F4xx_StdPeriph_Driver/src/stm32f4xx_tim.c ****   *            @arg TIM_OPMode_Repetitive
 541:../inc/STM32F4xx_StdPeriph_Driver/src/stm32f4xx_tim.c ****   * @retval None
 542:../inc/STM32F4xx_StdPeriph_Driver/src/stm32f4xx_tim.c ****   */
 543:../inc/STM32F4xx_StdPeriph_Driver/src/stm32f4xx_tim.c **** void TIM_SelectOnePulseMode(TIM_TypeDef* TIMx, uint16_t TIM_OPMode)
 544:../inc/STM32F4xx_StdPeriph_Driver/src/stm32f4xx_tim.c **** {
 25470              		.loc 1 544 0
 25471              		.cfi_startproc
 25472              		@ args = 0, pretend = 0, frame = 8
 25473              		@ frame_needed = 1, uses_anonymous_args = 0
 25474              		@ link register save eliminated.
 25475 0000 80B4     		push	{r7}
 25476              	.LCFI36:
 25477              		.cfi_def_cfa_offset 4
 25478 0002 83B0     		sub	sp, sp, #12
 25479              	.LCFI37:
 25480              		.cfi_def_cfa_offset 16
 25481 0004 00AF     		add	r7, sp, #0
 25482              		.cfi_offset 7, -4
 25483              	.LCFI38:
 25484              		.cfi_def_cfa_register 7
 25485 0006 7860     		str	r0, [r7, #4]
 25486 0008 0B46     		mov	r3, r1
 25487 000a 7B80     		strh	r3, [r7, #2]	@ movhi
 545:../inc/STM32F4xx_StdPeriph_Driver/src/stm32f4xx_tim.c ****   /* Check the parameters */
 546:../inc/STM32F4xx_StdPeriph_Driver/src/stm32f4xx_tim.c ****   assert_param(IS_TIM_ALL_PERIPH(TIMx));
 547:../inc/STM32F4xx_StdPeriph_Driver/src/stm32f4xx_tim.c ****   assert_param(IS_TIM_OPM_MODE(TIM_OPMode));
 548:../inc/STM32F4xx_StdPeriph_Driver/src/stm32f4xx_tim.c **** 
 549:../inc/STM32F4xx_StdPeriph_Driver/src/stm32f4xx_tim.c ****   /* Reset the OPM Bit */
 550:../inc/STM32F4xx_StdPeriph_Driver/src/stm32f4xx_tim.c ****   TIMx->CR1 &= (uint16_t)~TIM_CR1_OPM;
 25488              		.loc 1 550 0
 25489 000c 7B68     		ldr	r3, [r7, #4]
 25490 000e 1B88     		ldrh	r3, [r3, #0]	@ movhi
 25491 0010 9BB2     		uxth	r3, r3
 25492 0012 23F00803 		bic	r3, r3, #8
 25493 0016 9AB2     		uxth	r2, r3
 25494 0018 7B68     		ldr	r3, [r7, #4]
 25495 001a 1A80     		strh	r2, [r3, #0]	@ movhi
 551:../inc/STM32F4xx_StdPeriph_Driver/src/stm32f4xx_tim.c **** 
 552:../inc/STM32F4xx_StdPeriph_Driver/src/stm32f4xx_tim.c ****   /* Configure the OPM Mode */
 553:../inc/STM32F4xx_StdPeriph_Driver/src/stm32f4xx_tim.c ****   TIMx->CR1 |= TIM_OPMode;
 25496              		.loc 1 553 0
 25497 001c 7B68     		ldr	r3, [r7, #4]
 25498 001e 1B88     		ldrh	r3, [r3, #0]	@ movhi
 25499 0020 9AB2     		uxth	r2, r3
 25500 0022 7B88     		ldrh	r3, [r7, #2]	@ movhi
 25501 0024 42EA0303 		orr	r3, r2, r3
 25502 0028 9AB2     		uxth	r2, r3
 25503 002a 7B68     		ldr	r3, [r7, #4]
 25504 002c 1A80     		strh	r2, [r3, #0]	@ movhi
 554:../inc/STM32F4xx_StdPeriph_Driver/src/stm32f4xx_tim.c **** }
 25505              		.loc 1 554 0
 25506 002e 07F10C07 		add	r7, r7, #12
 25507 0032 BD46     		mov	sp, r7
 25508 0034 80BC     		pop	{r7}
 25509 0036 7047     		bx	lr
 25510              		.cfi_endproc
 25511              	.LFE122:
 25513              		.section	.text.TIM_SetClockDivision,"ax",%progbits
 25514              		.align	2
 25515              		.global	TIM_SetClockDivision
 25516              		.thumb
 25517              		.thumb_func
 25519              	TIM_SetClockDivision:
 25520              	.LFB123:
 555:../inc/STM32F4xx_StdPeriph_Driver/src/stm32f4xx_tim.c **** 
 556:../inc/STM32F4xx_StdPeriph_Driver/src/stm32f4xx_tim.c **** /**
 557:../inc/STM32F4xx_StdPeriph_Driver/src/stm32f4xx_tim.c ****   * @brief  Sets the TIMx Clock Division value.
 558:../inc/STM32F4xx_StdPeriph_Driver/src/stm32f4xx_tim.c ****   * @param  TIMx: where x can be 1 to 14 except 6 and 7, to select the TIM peripheral.
 559:../inc/STM32F4xx_StdPeriph_Driver/src/stm32f4xx_tim.c ****   * @param  TIM_CKD: specifies the clock division value.
 560:../inc/STM32F4xx_StdPeriph_Driver/src/stm32f4xx_tim.c ****   *          This parameter can be one of the following value:
 561:../inc/STM32F4xx_StdPeriph_Driver/src/stm32f4xx_tim.c ****   *            @arg TIM_CKD_DIV1: TDTS = Tck_tim
 562:../inc/STM32F4xx_StdPeriph_Driver/src/stm32f4xx_tim.c ****   *            @arg TIM_CKD_DIV2: TDTS = 2*Tck_tim
 563:../inc/STM32F4xx_StdPeriph_Driver/src/stm32f4xx_tim.c ****   *            @arg TIM_CKD_DIV4: TDTS = 4*Tck_tim
 564:../inc/STM32F4xx_StdPeriph_Driver/src/stm32f4xx_tim.c ****   * @retval None
 565:../inc/STM32F4xx_StdPeriph_Driver/src/stm32f4xx_tim.c ****   */
 566:../inc/STM32F4xx_StdPeriph_Driver/src/stm32f4xx_tim.c **** void TIM_SetClockDivision(TIM_TypeDef* TIMx, uint16_t TIM_CKD)
 567:../inc/STM32F4xx_StdPeriph_Driver/src/stm32f4xx_tim.c **** {
 25521              		.loc 1 567 0
 25522              		.cfi_startproc
 25523              		@ args = 0, pretend = 0, frame = 8
 25524              		@ frame_needed = 1, uses_anonymous_args = 0
 25525              		@ link register save eliminated.
 25526 0000 80B4     		push	{r7}
 25527              	.LCFI39:
 25528              		.cfi_def_cfa_offset 4
 25529 0002 83B0     		sub	sp, sp, #12
 25530              	.LCFI40:
 25531              		.cfi_def_cfa_offset 16
 25532 0004 00AF     		add	r7, sp, #0
 25533              		.cfi_offset 7, -4
 25534              	.LCFI41:
 25535              		.cfi_def_cfa_register 7
 25536 0006 7860     		str	r0, [r7, #4]
 25537 0008 0B46     		mov	r3, r1
 25538 000a 7B80     		strh	r3, [r7, #2]	@ movhi
 568:../inc/STM32F4xx_StdPeriph_Driver/src/stm32f4xx_tim.c ****   /* Check the parameters */
 569:../inc/STM32F4xx_StdPeriph_Driver/src/stm32f4xx_tim.c ****   assert_param(IS_TIM_LIST1_PERIPH(TIMx));
 570:../inc/STM32F4xx_StdPeriph_Driver/src/stm32f4xx_tim.c ****   assert_param(IS_TIM_CKD_DIV(TIM_CKD));
 571:../inc/STM32F4xx_StdPeriph_Driver/src/stm32f4xx_tim.c **** 
 572:../inc/STM32F4xx_StdPeriph_Driver/src/stm32f4xx_tim.c ****   /* Reset the CKD Bits */
 573:../inc/STM32F4xx_StdPeriph_Driver/src/stm32f4xx_tim.c ****   TIMx->CR1 &= (uint16_t)(~TIM_CR1_CKD);
 25539              		.loc 1 573 0
 25540 000c 7B68     		ldr	r3, [r7, #4]
 25541 000e 1B88     		ldrh	r3, [r3, #0]	@ movhi
 25542 0010 9BB2     		uxth	r3, r3
 25543 0012 23F44073 		bic	r3, r3, #768
 25544 0016 9AB2     		uxth	r2, r3
 25545 0018 7B68     		ldr	r3, [r7, #4]
 25546 001a 1A80     		strh	r2, [r3, #0]	@ movhi
 574:../inc/STM32F4xx_StdPeriph_Driver/src/stm32f4xx_tim.c **** 
 575:../inc/STM32F4xx_StdPeriph_Driver/src/stm32f4xx_tim.c ****   /* Set the CKD value */
 576:../inc/STM32F4xx_StdPeriph_Driver/src/stm32f4xx_tim.c ****   TIMx->CR1 |= TIM_CKD;
 25547              		.loc 1 576 0
 25548 001c 7B68     		ldr	r3, [r7, #4]
 25549 001e 1B88     		ldrh	r3, [r3, #0]	@ movhi
 25550 0020 9AB2     		uxth	r2, r3
 25551 0022 7B88     		ldrh	r3, [r7, #2]	@ movhi
 25552 0024 42EA0303 		orr	r3, r2, r3
 25553 0028 9AB2     		uxth	r2, r3
 25554 002a 7B68     		ldr	r3, [r7, #4]
 25555 002c 1A80     		strh	r2, [r3, #0]	@ movhi
 577:../inc/STM32F4xx_StdPeriph_Driver/src/stm32f4xx_tim.c **** }
 25556              		.loc 1 577 0
 25557 002e 07F10C07 		add	r7, r7, #12
 25558 0032 BD46     		mov	sp, r7
 25559 0034 80BC     		pop	{r7}
 25560 0036 7047     		bx	lr
 25561              		.cfi_endproc
 25562              	.LFE123:
 25564              		.section	.text.TIM_Cmd,"ax",%progbits
 25565              		.align	2
 25566              		.global	TIM_Cmd
 25567              		.thumb
 25568              		.thumb_func
 25570              	TIM_Cmd:
 25571              	.LFB124:
 578:../inc/STM32F4xx_StdPeriph_Driver/src/stm32f4xx_tim.c **** 
 579:../inc/STM32F4xx_StdPeriph_Driver/src/stm32f4xx_tim.c **** /**
 580:../inc/STM32F4xx_StdPeriph_Driver/src/stm32f4xx_tim.c ****   * @brief  Enables or disables the specified TIM peripheral.
 581:../inc/STM32F4xx_StdPeriph_Driver/src/stm32f4xx_tim.c ****   * @param  TIMx: where x can be 1 to 14 to select the TIMx peripheral.
 582:../inc/STM32F4xx_StdPeriph_Driver/src/stm32f4xx_tim.c ****   * @param  NewState: new state of the TIMx peripheral.
 583:../inc/STM32F4xx_StdPeriph_Driver/src/stm32f4xx_tim.c ****   *          This parameter can be: ENABLE or DISABLE.
 584:../inc/STM32F4xx_StdPeriph_Driver/src/stm32f4xx_tim.c ****   * @retval None
 585:../inc/STM32F4xx_StdPeriph_Driver/src/stm32f4xx_tim.c ****   */
 586:../inc/STM32F4xx_StdPeriph_Driver/src/stm32f4xx_tim.c **** void TIM_Cmd(TIM_TypeDef* TIMx, FunctionalState NewState)
 587:../inc/STM32F4xx_StdPeriph_Driver/src/stm32f4xx_tim.c **** {
 25572              		.loc 1 587 0
 25573              		.cfi_startproc
 25574              		@ args = 0, pretend = 0, frame = 8
 25575              		@ frame_needed = 1, uses_anonymous_args = 0
 25576              		@ link register save eliminated.
 25577 0000 80B4     		push	{r7}
 25578              	.LCFI42:
 25579              		.cfi_def_cfa_offset 4
 25580 0002 83B0     		sub	sp, sp, #12
 25581              	.LCFI43:
 25582              		.cfi_def_cfa_offset 16
 25583 0004 00AF     		add	r7, sp, #0
 25584              		.cfi_offset 7, -4
 25585              	.LCFI44:
 25586              		.cfi_def_cfa_register 7
 25587 0006 7860     		str	r0, [r7, #4]
 25588 0008 0B46     		mov	r3, r1
 25589 000a FB70     		strb	r3, [r7, #3]
 588:../inc/STM32F4xx_StdPeriph_Driver/src/stm32f4xx_tim.c ****   /* Check the parameters */
 589:../inc/STM32F4xx_StdPeriph_Driver/src/stm32f4xx_tim.c ****   assert_param(IS_TIM_ALL_PERIPH(TIMx)); 
 590:../inc/STM32F4xx_StdPeriph_Driver/src/stm32f4xx_tim.c ****   assert_param(IS_FUNCTIONAL_STATE(NewState));
 591:../inc/STM32F4xx_StdPeriph_Driver/src/stm32f4xx_tim.c ****   
 592:../inc/STM32F4xx_StdPeriph_Driver/src/stm32f4xx_tim.c ****   if (NewState != DISABLE)
 25590              		.loc 1 592 0
 25591 000c FB78     		ldrb	r3, [r7, #3]	@ zero_extendqisi2
 25592 000e 002B     		cmp	r3, #0
 25593 0010 08D0     		beq	.L45
 593:../inc/STM32F4xx_StdPeriph_Driver/src/stm32f4xx_tim.c ****   {
 594:../inc/STM32F4xx_StdPeriph_Driver/src/stm32f4xx_tim.c ****     /* Enable the TIM Counter */
 595:../inc/STM32F4xx_StdPeriph_Driver/src/stm32f4xx_tim.c ****     TIMx->CR1 |= TIM_CR1_CEN;
 25594              		.loc 1 595 0
 25595 0012 7B68     		ldr	r3, [r7, #4]
 25596 0014 1B88     		ldrh	r3, [r3, #0]	@ movhi
 25597 0016 9BB2     		uxth	r3, r3
 25598 0018 43F00103 		orr	r3, r3, #1
 25599 001c 9AB2     		uxth	r2, r3
 25600 001e 7B68     		ldr	r3, [r7, #4]
 25601 0020 1A80     		strh	r2, [r3, #0]	@ movhi
 25602 0022 07E0     		b	.L44
 25603              	.L45:
 596:../inc/STM32F4xx_StdPeriph_Driver/src/stm32f4xx_tim.c ****   }
 597:../inc/STM32F4xx_StdPeriph_Driver/src/stm32f4xx_tim.c ****   else
 598:../inc/STM32F4xx_StdPeriph_Driver/src/stm32f4xx_tim.c ****   {
 599:../inc/STM32F4xx_StdPeriph_Driver/src/stm32f4xx_tim.c ****     /* Disable the TIM Counter */
 600:../inc/STM32F4xx_StdPeriph_Driver/src/stm32f4xx_tim.c ****     TIMx->CR1 &= (uint16_t)~TIM_CR1_CEN;
 25604              		.loc 1 600 0
 25605 0024 7B68     		ldr	r3, [r7, #4]
 25606 0026 1B88     		ldrh	r3, [r3, #0]	@ movhi
 25607 0028 9BB2     		uxth	r3, r3
 25608 002a 23F00103 		bic	r3, r3, #1
 25609 002e 9AB2     		uxth	r2, r3
 25610 0030 7B68     		ldr	r3, [r7, #4]
 25611 0032 1A80     		strh	r2, [r3, #0]	@ movhi
 25612              	.L44:
 601:../inc/STM32F4xx_StdPeriph_Driver/src/stm32f4xx_tim.c ****   }
 602:../inc/STM32F4xx_StdPeriph_Driver/src/stm32f4xx_tim.c **** }
 25613              		.loc 1 602 0
 25614 0034 07F10C07 		add	r7, r7, #12
 25615 0038 BD46     		mov	sp, r7
 25616 003a 80BC     		pop	{r7}
 25617 003c 7047     		bx	lr
 25618              		.cfi_endproc
 25619              	.LFE124:
 25621 003e 00BF     		.section	.text.TIM_OC1Init,"ax",%progbits
 25622              		.align	2
 25623              		.global	TIM_OC1Init
 25624              		.thumb
 25625              		.thumb_func
 25627              	TIM_OC1Init:
 25628              	.LFB125:
 603:../inc/STM32F4xx_StdPeriph_Driver/src/stm32f4xx_tim.c **** /**
 604:../inc/STM32F4xx_StdPeriph_Driver/src/stm32f4xx_tim.c ****   * @}
 605:../inc/STM32F4xx_StdPeriph_Driver/src/stm32f4xx_tim.c ****   */
 606:../inc/STM32F4xx_StdPeriph_Driver/src/stm32f4xx_tim.c **** 
 607:../inc/STM32F4xx_StdPeriph_Driver/src/stm32f4xx_tim.c **** /** @defgroup TIM_Group2 Output Compare management functions
 608:../inc/STM32F4xx_StdPeriph_Driver/src/stm32f4xx_tim.c ****  *  @brief    Output Compare management functions 
 609:../inc/STM32F4xx_StdPeriph_Driver/src/stm32f4xx_tim.c ****  *
 610:../inc/STM32F4xx_StdPeriph_Driver/src/stm32f4xx_tim.c **** @verbatim   
 611:../inc/STM32F4xx_StdPeriph_Driver/src/stm32f4xx_tim.c ****  ===============================================================================
 612:../inc/STM32F4xx_StdPeriph_Driver/src/stm32f4xx_tim.c ****                         Output Compare management functions
 613:../inc/STM32F4xx_StdPeriph_Driver/src/stm32f4xx_tim.c ****  ===============================================================================  
 614:../inc/STM32F4xx_StdPeriph_Driver/src/stm32f4xx_tim.c ****    
 615:../inc/STM32F4xx_StdPeriph_Driver/src/stm32f4xx_tim.c ****        ===================================================================      
 616:../inc/STM32F4xx_StdPeriph_Driver/src/stm32f4xx_tim.c ****               TIM Driver: how to use it in Output Compare Mode
 617:../inc/STM32F4xx_StdPeriph_Driver/src/stm32f4xx_tim.c ****        =================================================================== 
 618:../inc/STM32F4xx_StdPeriph_Driver/src/stm32f4xx_tim.c ****        To use the Timer in Output Compare mode, the following steps are mandatory:
 619:../inc/STM32F4xx_StdPeriph_Driver/src/stm32f4xx_tim.c ****        
 620:../inc/STM32F4xx_StdPeriph_Driver/src/stm32f4xx_tim.c ****        1. Enable TIM clock using RCC_APBxPeriphClockCmd(RCC_APBxPeriph_TIMx, ENABLE) function
 621:../inc/STM32F4xx_StdPeriph_Driver/src/stm32f4xx_tim.c ****        
 622:../inc/STM32F4xx_StdPeriph_Driver/src/stm32f4xx_tim.c ****        2. Configure the TIM pins by configuring the corresponding GPIO pins
 623:../inc/STM32F4xx_StdPeriph_Driver/src/stm32f4xx_tim.c ****        
 624:../inc/STM32F4xx_StdPeriph_Driver/src/stm32f4xx_tim.c ****        2. Configure the Time base unit as described in the first part of this driver, 
 625:../inc/STM32F4xx_StdPeriph_Driver/src/stm32f4xx_tim.c ****           if needed, else the Timer will run with the default configuration:
 626:../inc/STM32F4xx_StdPeriph_Driver/src/stm32f4xx_tim.c ****           - Autoreload value = 0xFFFF
 627:../inc/STM32F4xx_StdPeriph_Driver/src/stm32f4xx_tim.c ****           - Prescaler value = 0x0000
 628:../inc/STM32F4xx_StdPeriph_Driver/src/stm32f4xx_tim.c ****           - Counter mode = Up counting
 629:../inc/STM32F4xx_StdPeriph_Driver/src/stm32f4xx_tim.c ****           - Clock Division = TIM_CKD_DIV1
 630:../inc/STM32F4xx_StdPeriph_Driver/src/stm32f4xx_tim.c ****           
 631:../inc/STM32F4xx_StdPeriph_Driver/src/stm32f4xx_tim.c ****        3. Fill the TIM_OCInitStruct with the desired parameters including:
 632:../inc/STM32F4xx_StdPeriph_Driver/src/stm32f4xx_tim.c ****           - The TIM Output Compare mode: TIM_OCMode
 633:../inc/STM32F4xx_StdPeriph_Driver/src/stm32f4xx_tim.c ****           - TIM Output State: TIM_OutputState
 634:../inc/STM32F4xx_StdPeriph_Driver/src/stm32f4xx_tim.c ****           - TIM Pulse value: TIM_Pulse
 635:../inc/STM32F4xx_StdPeriph_Driver/src/stm32f4xx_tim.c ****           - TIM Output Compare Polarity : TIM_OCPolarity
 636:../inc/STM32F4xx_StdPeriph_Driver/src/stm32f4xx_tim.c ****        
 637:../inc/STM32F4xx_StdPeriph_Driver/src/stm32f4xx_tim.c ****        4. Call TIM_OCxInit(TIMx, &TIM_OCInitStruct) to configure the desired channel with the 
 638:../inc/STM32F4xx_StdPeriph_Driver/src/stm32f4xx_tim.c ****           corresponding configuration
 639:../inc/STM32F4xx_StdPeriph_Driver/src/stm32f4xx_tim.c ****        
 640:../inc/STM32F4xx_StdPeriph_Driver/src/stm32f4xx_tim.c ****        5. Call the TIM_Cmd(ENABLE) function to enable the TIM counter.
 641:../inc/STM32F4xx_StdPeriph_Driver/src/stm32f4xx_tim.c ****        
 642:../inc/STM32F4xx_StdPeriph_Driver/src/stm32f4xx_tim.c ****        Note1: All other functions can be used separately to modify, if needed,
 643:../inc/STM32F4xx_StdPeriph_Driver/src/stm32f4xx_tim.c ****               a specific feature of the Timer. 
 644:../inc/STM32F4xx_StdPeriph_Driver/src/stm32f4xx_tim.c ****           
 645:../inc/STM32F4xx_StdPeriph_Driver/src/stm32f4xx_tim.c ****        Note2: In case of PWM mode, this function is mandatory:
 646:../inc/STM32F4xx_StdPeriph_Driver/src/stm32f4xx_tim.c ****               TIM_OCxPreloadConfig(TIMx, TIM_OCPreload_ENABLE); 
 647:../inc/STM32F4xx_StdPeriph_Driver/src/stm32f4xx_tim.c ****               
 648:../inc/STM32F4xx_StdPeriph_Driver/src/stm32f4xx_tim.c ****        Note3: If the corresponding interrupt or DMA request are needed, the user should:
 649:../inc/STM32F4xx_StdPeriph_Driver/src/stm32f4xx_tim.c ****                 1. Enable the NVIC (or the DMA) to use the TIM interrupts (or DMA requests). 
 650:../inc/STM32F4xx_StdPeriph_Driver/src/stm32f4xx_tim.c ****                 2. Enable the corresponding interrupt (or DMA request) using the function 
 651:../inc/STM32F4xx_StdPeriph_Driver/src/stm32f4xx_tim.c ****                    TIM_ITConfig(TIMx, TIM_IT_CCx) (or TIM_DMA_Cmd(TIMx, TIM_DMA_CCx))   
 652:../inc/STM32F4xx_StdPeriph_Driver/src/stm32f4xx_tim.c **** 
 653:../inc/STM32F4xx_StdPeriph_Driver/src/stm32f4xx_tim.c **** @endverbatim
 654:../inc/STM32F4xx_StdPeriph_Driver/src/stm32f4xx_tim.c ****   * @{
 655:../inc/STM32F4xx_StdPeriph_Driver/src/stm32f4xx_tim.c ****   */
 656:../inc/STM32F4xx_StdPeriph_Driver/src/stm32f4xx_tim.c **** 
 657:../inc/STM32F4xx_StdPeriph_Driver/src/stm32f4xx_tim.c **** /**
 658:../inc/STM32F4xx_StdPeriph_Driver/src/stm32f4xx_tim.c ****   * @brief  Initializes the TIMx Channel1 according to the specified parameters in
 659:../inc/STM32F4xx_StdPeriph_Driver/src/stm32f4xx_tim.c ****   *         the TIM_OCInitStruct.
 660:../inc/STM32F4xx_StdPeriph_Driver/src/stm32f4xx_tim.c ****   * @param  TIMx: where x can be 1 to 14 except 6 and 7, to select the TIM peripheral.
 661:../inc/STM32F4xx_StdPeriph_Driver/src/stm32f4xx_tim.c ****   * @param  TIM_OCInitStruct: pointer to a TIM_OCInitTypeDef structure that contains
 662:../inc/STM32F4xx_StdPeriph_Driver/src/stm32f4xx_tim.c ****   *         the configuration information for the specified TIM peripheral.
 663:../inc/STM32F4xx_StdPeriph_Driver/src/stm32f4xx_tim.c ****   * @retval None
 664:../inc/STM32F4xx_StdPeriph_Driver/src/stm32f4xx_tim.c ****   */
 665:../inc/STM32F4xx_StdPeriph_Driver/src/stm32f4xx_tim.c **** void TIM_OC1Init(TIM_TypeDef* TIMx, TIM_OCInitTypeDef* TIM_OCInitStruct)
 666:../inc/STM32F4xx_StdPeriph_Driver/src/stm32f4xx_tim.c **** {
 25629              		.loc 1 666 0
 25630              		.cfi_startproc
 25631              		@ args = 0, pretend = 0, frame = 16
 25632              		@ frame_needed = 1, uses_anonymous_args = 0
 25633              		@ link register save eliminated.
 25634 0000 80B4     		push	{r7}
 25635              	.LCFI45:
 25636              		.cfi_def_cfa_offset 4
 25637 0002 85B0     		sub	sp, sp, #20
 25638              	.LCFI46:
 25639              		.cfi_def_cfa_offset 24
 25640 0004 00AF     		add	r7, sp, #0
 25641              		.cfi_offset 7, -4
 25642              	.LCFI47:
 25643              		.cfi_def_cfa_register 7
 25644 0006 7860     		str	r0, [r7, #4]
 25645 0008 3960     		str	r1, [r7, #0]
 667:../inc/STM32F4xx_StdPeriph_Driver/src/stm32f4xx_tim.c ****   uint16_t tmpccmrx = 0, tmpccer = 0, tmpcr2 = 0;
 25646              		.loc 1 667 0
 25647 000a 4FF00003 		mov	r3, #0
 25648 000e 7B81     		strh	r3, [r7, #10]	@ movhi
 25649 0010 4FF00003 		mov	r3, #0
 25650 0014 FB81     		strh	r3, [r7, #14]	@ movhi
 25651 0016 4FF00003 		mov	r3, #0
 25652 001a BB81     		strh	r3, [r7, #12]	@ movhi
 668:../inc/STM32F4xx_StdPeriph_Driver/src/stm32f4xx_tim.c ****    
 669:../inc/STM32F4xx_StdPeriph_Driver/src/stm32f4xx_tim.c ****   /* Check the parameters */
 670:../inc/STM32F4xx_StdPeriph_Driver/src/stm32f4xx_tim.c ****   assert_param(IS_TIM_LIST1_PERIPH(TIMx)); 
 671:../inc/STM32F4xx_StdPeriph_Driver/src/stm32f4xx_tim.c ****   assert_param(IS_TIM_OC_MODE(TIM_OCInitStruct->TIM_OCMode));
 672:../inc/STM32F4xx_StdPeriph_Driver/src/stm32f4xx_tim.c ****   assert_param(IS_TIM_OUTPUT_STATE(TIM_OCInitStruct->TIM_OutputState));
 673:../inc/STM32F4xx_StdPeriph_Driver/src/stm32f4xx_tim.c ****   assert_param(IS_TIM_OC_POLARITY(TIM_OCInitStruct->TIM_OCPolarity));   
 674:../inc/STM32F4xx_StdPeriph_Driver/src/stm32f4xx_tim.c **** 
 675:../inc/STM32F4xx_StdPeriph_Driver/src/stm32f4xx_tim.c ****   /* Disable the Channel 1: Reset the CC1E Bit */
 676:../inc/STM32F4xx_StdPeriph_Driver/src/stm32f4xx_tim.c ****   TIMx->CCER &= (uint16_t)~TIM_CCER_CC1E;
 25653              		.loc 1 676 0
 25654 001c 7B68     		ldr	r3, [r7, #4]
 25655 001e 1B8C     		ldrh	r3, [r3, #32]	@ movhi
 25656 0020 9BB2     		uxth	r3, r3
 25657 0022 23F00103 		bic	r3, r3, #1
 25658 0026 9AB2     		uxth	r2, r3
 25659 0028 7B68     		ldr	r3, [r7, #4]
 25660 002a 1A84     		strh	r2, [r3, #32]	@ movhi
 677:../inc/STM32F4xx_StdPeriph_Driver/src/stm32f4xx_tim.c ****   
 678:../inc/STM32F4xx_StdPeriph_Driver/src/stm32f4xx_tim.c ****   /* Get the TIMx CCER register value */
 679:../inc/STM32F4xx_StdPeriph_Driver/src/stm32f4xx_tim.c ****   tmpccer = TIMx->CCER;
 25661              		.loc 1 679 0
 25662 002c 7B68     		ldr	r3, [r7, #4]
 25663 002e 1B8C     		ldrh	r3, [r3, #32]	@ movhi
 25664 0030 FB81     		strh	r3, [r7, #14]	@ movhi
 680:../inc/STM32F4xx_StdPeriph_Driver/src/stm32f4xx_tim.c ****   /* Get the TIMx CR2 register value */
 681:../inc/STM32F4xx_StdPeriph_Driver/src/stm32f4xx_tim.c ****   tmpcr2 =  TIMx->CR2;
 25665              		.loc 1 681 0
 25666 0032 7B68     		ldr	r3, [r7, #4]
 25667 0034 9B88     		ldrh	r3, [r3, #4]	@ movhi
 25668 0036 BB81     		strh	r3, [r7, #12]	@ movhi
 682:../inc/STM32F4xx_StdPeriph_Driver/src/stm32f4xx_tim.c ****   
 683:../inc/STM32F4xx_StdPeriph_Driver/src/stm32f4xx_tim.c ****   /* Get the TIMx CCMR1 register value */
 684:../inc/STM32F4xx_StdPeriph_Driver/src/stm32f4xx_tim.c ****   tmpccmrx = TIMx->CCMR1;
 25669              		.loc 1 684 0
 25670 0038 7B68     		ldr	r3, [r7, #4]
 25671 003a 1B8B     		ldrh	r3, [r3, #24]	@ movhi
 25672 003c 7B81     		strh	r3, [r7, #10]	@ movhi
 685:../inc/STM32F4xx_StdPeriph_Driver/src/stm32f4xx_tim.c ****     
 686:../inc/STM32F4xx_StdPeriph_Driver/src/stm32f4xx_tim.c ****   /* Reset the Output Compare Mode Bits */
 687:../inc/STM32F4xx_StdPeriph_Driver/src/stm32f4xx_tim.c ****   tmpccmrx &= (uint16_t)~TIM_CCMR1_OC1M;
 25673              		.loc 1 687 0
 25674 003e 7B89     		ldrh	r3, [r7, #10]	@ movhi
 25675 0040 23F07003 		bic	r3, r3, #112
 25676 0044 7B81     		strh	r3, [r7, #10]	@ movhi
 688:../inc/STM32F4xx_StdPeriph_Driver/src/stm32f4xx_tim.c ****   tmpccmrx &= (uint16_t)~TIM_CCMR1_CC1S;
 25677              		.loc 1 688 0
 25678 0046 7B89     		ldrh	r3, [r7, #10]	@ movhi
 25679 0048 23F00303 		bic	r3, r3, #3
 25680 004c 7B81     		strh	r3, [r7, #10]	@ movhi
 689:../inc/STM32F4xx_StdPeriph_Driver/src/stm32f4xx_tim.c ****   /* Select the Output Compare Mode */
 690:../inc/STM32F4xx_StdPeriph_Driver/src/stm32f4xx_tim.c ****   tmpccmrx |= TIM_OCInitStruct->TIM_OCMode;
 25681              		.loc 1 690 0
 25682 004e 3B68     		ldr	r3, [r7, #0]
 25683 0050 1A88     		ldrh	r2, [r3, #0]
 25684 0052 7B89     		ldrh	r3, [r7, #10]	@ movhi
 25685 0054 42EA0303 		orr	r3, r2, r3
 25686 0058 7B81     		strh	r3, [r7, #10]	@ movhi
 691:../inc/STM32F4xx_StdPeriph_Driver/src/stm32f4xx_tim.c ****   
 692:../inc/STM32F4xx_StdPeriph_Driver/src/stm32f4xx_tim.c ****   /* Reset the Output Polarity level */
 693:../inc/STM32F4xx_StdPeriph_Driver/src/stm32f4xx_tim.c ****   tmpccer &= (uint16_t)~TIM_CCER_CC1P;
 25687              		.loc 1 693 0
 25688 005a FB89     		ldrh	r3, [r7, #14]	@ movhi
 25689 005c 23F00203 		bic	r3, r3, #2
 25690 0060 FB81     		strh	r3, [r7, #14]	@ movhi
 694:../inc/STM32F4xx_StdPeriph_Driver/src/stm32f4xx_tim.c ****   /* Set the Output Compare Polarity */
 695:../inc/STM32F4xx_StdPeriph_Driver/src/stm32f4xx_tim.c ****   tmpccer |= TIM_OCInitStruct->TIM_OCPolarity;
 25691              		.loc 1 695 0
 25692 0062 3B68     		ldr	r3, [r7, #0]
 25693 0064 9A89     		ldrh	r2, [r3, #12]
 25694 0066 FB89     		ldrh	r3, [r7, #14]	@ movhi
 25695 0068 42EA0303 		orr	r3, r2, r3
 25696 006c FB81     		strh	r3, [r7, #14]	@ movhi
 696:../inc/STM32F4xx_StdPeriph_Driver/src/stm32f4xx_tim.c ****   
 697:../inc/STM32F4xx_StdPeriph_Driver/src/stm32f4xx_tim.c ****   /* Set the Output State */
 698:../inc/STM32F4xx_StdPeriph_Driver/src/stm32f4xx_tim.c ****   tmpccer |= TIM_OCInitStruct->TIM_OutputState;
 25697              		.loc 1 698 0
 25698 006e 3B68     		ldr	r3, [r7, #0]
 25699 0070 5A88     		ldrh	r2, [r3, #2]
 25700 0072 FB89     		ldrh	r3, [r7, #14]	@ movhi
 25701 0074 42EA0303 		orr	r3, r2, r3
 25702 0078 FB81     		strh	r3, [r7, #14]	@ movhi
 699:../inc/STM32F4xx_StdPeriph_Driver/src/stm32f4xx_tim.c ****     
 700:../inc/STM32F4xx_StdPeriph_Driver/src/stm32f4xx_tim.c ****   if((TIMx == TIM1) || (TIMx == TIM8))
 25703              		.loc 1 700 0
 25704 007a 7A68     		ldr	r2, [r7, #4]
 25705 007c 204B     		ldr	r3, .L50
 25706 007e 9A42     		cmp	r2, r3
 25707 0080 03D0     		beq	.L48
 25708              		.loc 1 700 0 is_stmt 0 discriminator 1
 25709 0082 7A68     		ldr	r2, [r7, #4]
 25710 0084 1F4B     		ldr	r3, .L50+4
 25711 0086 9A42     		cmp	r2, r3
 25712 0088 27D1     		bne	.L49
 25713              	.L48:
 701:../inc/STM32F4xx_StdPeriph_Driver/src/stm32f4xx_tim.c ****   {
 702:../inc/STM32F4xx_StdPeriph_Driver/src/stm32f4xx_tim.c ****     assert_param(IS_TIM_OUTPUTN_STATE(TIM_OCInitStruct->TIM_OutputNState));
 703:../inc/STM32F4xx_StdPeriph_Driver/src/stm32f4xx_tim.c ****     assert_param(IS_TIM_OCN_POLARITY(TIM_OCInitStruct->TIM_OCNPolarity));
 704:../inc/STM32F4xx_StdPeriph_Driver/src/stm32f4xx_tim.c ****     assert_param(IS_TIM_OCNIDLE_STATE(TIM_OCInitStruct->TIM_OCNIdleState));
 705:../inc/STM32F4xx_StdPeriph_Driver/src/stm32f4xx_tim.c ****     assert_param(IS_TIM_OCIDLE_STATE(TIM_OCInitStruct->TIM_OCIdleState));
 706:../inc/STM32F4xx_StdPeriph_Driver/src/stm32f4xx_tim.c ****     
 707:../inc/STM32F4xx_StdPeriph_Driver/src/stm32f4xx_tim.c ****     /* Reset the Output N Polarity level */
 708:../inc/STM32F4xx_StdPeriph_Driver/src/stm32f4xx_tim.c ****     tmpccer &= (uint16_t)~TIM_CCER_CC1NP;
 25714              		.loc 1 708 0 is_stmt 1
 25715 008a FB89     		ldrh	r3, [r7, #14]	@ movhi
 25716 008c 23F00803 		bic	r3, r3, #8
 25717 0090 FB81     		strh	r3, [r7, #14]	@ movhi
 709:../inc/STM32F4xx_StdPeriph_Driver/src/stm32f4xx_tim.c ****     /* Set the Output N Polarity */
 710:../inc/STM32F4xx_StdPeriph_Driver/src/stm32f4xx_tim.c ****     tmpccer |= TIM_OCInitStruct->TIM_OCNPolarity;
 25718              		.loc 1 710 0
 25719 0092 3B68     		ldr	r3, [r7, #0]
 25720 0094 DA89     		ldrh	r2, [r3, #14]
 25721 0096 FB89     		ldrh	r3, [r7, #14]	@ movhi
 25722 0098 42EA0303 		orr	r3, r2, r3
 25723 009c FB81     		strh	r3, [r7, #14]	@ movhi
 711:../inc/STM32F4xx_StdPeriph_Driver/src/stm32f4xx_tim.c ****     /* Reset the Output N State */
 712:../inc/STM32F4xx_StdPeriph_Driver/src/stm32f4xx_tim.c ****     tmpccer &= (uint16_t)~TIM_CCER_CC1NE;
 25724              		.loc 1 712 0
 25725 009e FB89     		ldrh	r3, [r7, #14]	@ movhi
 25726 00a0 23F00403 		bic	r3, r3, #4
 25727 00a4 FB81     		strh	r3, [r7, #14]	@ movhi
 713:../inc/STM32F4xx_StdPeriph_Driver/src/stm32f4xx_tim.c ****     
 714:../inc/STM32F4xx_StdPeriph_Driver/src/stm32f4xx_tim.c ****     /* Set the Output N State */
 715:../inc/STM32F4xx_StdPeriph_Driver/src/stm32f4xx_tim.c ****     tmpccer |= TIM_OCInitStruct->TIM_OutputNState;
 25728              		.loc 1 715 0
 25729 00a6 3B68     		ldr	r3, [r7, #0]
 25730 00a8 9A88     		ldrh	r2, [r3, #4]
 25731 00aa FB89     		ldrh	r3, [r7, #14]	@ movhi
 25732 00ac 42EA0303 		orr	r3, r2, r3
 25733 00b0 FB81     		strh	r3, [r7, #14]	@ movhi
 716:../inc/STM32F4xx_StdPeriph_Driver/src/stm32f4xx_tim.c ****     /* Reset the Output Compare and Output Compare N IDLE State */
 717:../inc/STM32F4xx_StdPeriph_Driver/src/stm32f4xx_tim.c ****     tmpcr2 &= (uint16_t)~TIM_CR2_OIS1;
 25734              		.loc 1 717 0
 25735 00b2 BB89     		ldrh	r3, [r7, #12]	@ movhi
 25736 00b4 23F48073 		bic	r3, r3, #256
 25737 00b8 BB81     		strh	r3, [r7, #12]	@ movhi
 718:../inc/STM32F4xx_StdPeriph_Driver/src/stm32f4xx_tim.c ****     tmpcr2 &= (uint16_t)~TIM_CR2_OIS1N;
 25738              		.loc 1 718 0
 25739 00ba BB89     		ldrh	r3, [r7, #12]	@ movhi
 25740 00bc 23F40073 		bic	r3, r3, #512
 25741 00c0 BB81     		strh	r3, [r7, #12]	@ movhi
 719:../inc/STM32F4xx_StdPeriph_Driver/src/stm32f4xx_tim.c ****     /* Set the Output Idle state */
 720:../inc/STM32F4xx_StdPeriph_Driver/src/stm32f4xx_tim.c ****     tmpcr2 |= TIM_OCInitStruct->TIM_OCIdleState;
 25742              		.loc 1 720 0
 25743 00c2 3B68     		ldr	r3, [r7, #0]
 25744 00c4 1A8A     		ldrh	r2, [r3, #16]
 25745 00c6 BB89     		ldrh	r3, [r7, #12]	@ movhi
 25746 00c8 42EA0303 		orr	r3, r2, r3
 25747 00cc BB81     		strh	r3, [r7, #12]	@ movhi
 721:../inc/STM32F4xx_StdPeriph_Driver/src/stm32f4xx_tim.c ****     /* Set the Output N Idle state */
 722:../inc/STM32F4xx_StdPeriph_Driver/src/stm32f4xx_tim.c ****     tmpcr2 |= TIM_OCInitStruct->TIM_OCNIdleState;
 25748              		.loc 1 722 0
 25749 00ce 3B68     		ldr	r3, [r7, #0]
 25750 00d0 5A8A     		ldrh	r2, [r3, #18]
 25751 00d2 BB89     		ldrh	r3, [r7, #12]	@ movhi
 25752 00d4 42EA0303 		orr	r3, r2, r3
 25753 00d8 BB81     		strh	r3, [r7, #12]	@ movhi
 25754              	.L49:
 723:../inc/STM32F4xx_StdPeriph_Driver/src/stm32f4xx_tim.c ****   }
 724:../inc/STM32F4xx_StdPeriph_Driver/src/stm32f4xx_tim.c ****   /* Write to TIMx CR2 */
 725:../inc/STM32F4xx_StdPeriph_Driver/src/stm32f4xx_tim.c ****   TIMx->CR2 = tmpcr2;
 25755              		.loc 1 725 0
 25756 00da 7B68     		ldr	r3, [r7, #4]
 25757 00dc BA89     		ldrh	r2, [r7, #12]	@ movhi
 25758 00de 9A80     		strh	r2, [r3, #4]	@ movhi
 726:../inc/STM32F4xx_StdPeriph_Driver/src/stm32f4xx_tim.c ****   
 727:../inc/STM32F4xx_StdPeriph_Driver/src/stm32f4xx_tim.c ****   /* Write to TIMx CCMR1 */
 728:../inc/STM32F4xx_StdPeriph_Driver/src/stm32f4xx_tim.c ****   TIMx->CCMR1 = tmpccmrx;
 25759              		.loc 1 728 0
 25760 00e0 7B68     		ldr	r3, [r7, #4]
 25761 00e2 7A89     		ldrh	r2, [r7, #10]	@ movhi
 25762 00e4 1A83     		strh	r2, [r3, #24]	@ movhi
 729:../inc/STM32F4xx_StdPeriph_Driver/src/stm32f4xx_tim.c ****   
 730:../inc/STM32F4xx_StdPeriph_Driver/src/stm32f4xx_tim.c ****   /* Set the Capture Compare Register value */
 731:../inc/STM32F4xx_StdPeriph_Driver/src/stm32f4xx_tim.c ****   TIMx->CCR1 = TIM_OCInitStruct->TIM_Pulse;
 25763              		.loc 1 731 0
 25764 00e6 3B68     		ldr	r3, [r7, #0]
 25765 00e8 9A68     		ldr	r2, [r3, #8]
 25766 00ea 7B68     		ldr	r3, [r7, #4]
 25767 00ec 5A63     		str	r2, [r3, #52]
 732:../inc/STM32F4xx_StdPeriph_Driver/src/stm32f4xx_tim.c ****   
 733:../inc/STM32F4xx_StdPeriph_Driver/src/stm32f4xx_tim.c ****   /* Write to TIMx CCER */
 734:../inc/STM32F4xx_StdPeriph_Driver/src/stm32f4xx_tim.c ****   TIMx->CCER = tmpccer;
 25768              		.loc 1 734 0
 25769 00ee 7B68     		ldr	r3, [r7, #4]
 25770 00f0 FA89     		ldrh	r2, [r7, #14]	@ movhi
 25771 00f2 1A84     		strh	r2, [r3, #32]	@ movhi
 735:../inc/STM32F4xx_StdPeriph_Driver/src/stm32f4xx_tim.c **** }
 25772              		.loc 1 735 0
 25773 00f4 07F11407 		add	r7, r7, #20
 25774 00f8 BD46     		mov	sp, r7
 25775 00fa 80BC     		pop	{r7}
 25776 00fc 7047     		bx	lr
 25777              	.L51:
 25778 00fe 00BF     		.align	2
 25779              	.L50:
 25780 0100 00000140 		.word	1073807360
 25781 0104 00040140 		.word	1073808384
 25782              		.cfi_endproc
 25783              	.LFE125:
 25785              		.section	.text.TIM_OC2Init,"ax",%progbits
 25786              		.align	2
 25787              		.global	TIM_OC2Init
 25788              		.thumb
 25789              		.thumb_func
 25791              	TIM_OC2Init:
 25792              	.LFB126:
 736:../inc/STM32F4xx_StdPeriph_Driver/src/stm32f4xx_tim.c **** 
 737:../inc/STM32F4xx_StdPeriph_Driver/src/stm32f4xx_tim.c **** /**
 738:../inc/STM32F4xx_StdPeriph_Driver/src/stm32f4xx_tim.c ****   * @brief  Initializes the TIMx Channel2 according to the specified parameters 
 739:../inc/STM32F4xx_StdPeriph_Driver/src/stm32f4xx_tim.c ****   *         in the TIM_OCInitStruct.
 740:../inc/STM32F4xx_StdPeriph_Driver/src/stm32f4xx_tim.c ****   * @param  TIMx: where x can be 1, 2, 3, 4, 5, 8, 9 or 12 to select the TIM 
 741:../inc/STM32F4xx_StdPeriph_Driver/src/stm32f4xx_tim.c ****   *         peripheral.
 742:../inc/STM32F4xx_StdPeriph_Driver/src/stm32f4xx_tim.c ****   * @param  TIM_OCInitStruct: pointer to a TIM_OCInitTypeDef structure that contains
 743:../inc/STM32F4xx_StdPeriph_Driver/src/stm32f4xx_tim.c ****   *         the configuration information for the specified TIM peripheral.
 744:../inc/STM32F4xx_StdPeriph_Driver/src/stm32f4xx_tim.c ****   * @retval None
 745:../inc/STM32F4xx_StdPeriph_Driver/src/stm32f4xx_tim.c ****   */
 746:../inc/STM32F4xx_StdPeriph_Driver/src/stm32f4xx_tim.c **** void TIM_OC2Init(TIM_TypeDef* TIMx, TIM_OCInitTypeDef* TIM_OCInitStruct)
 747:../inc/STM32F4xx_StdPeriph_Driver/src/stm32f4xx_tim.c **** {
 25793              		.loc 1 747 0
 25794              		.cfi_startproc
 25795              		@ args = 0, pretend = 0, frame = 16
 25796              		@ frame_needed = 1, uses_anonymous_args = 0
 25797              		@ link register save eliminated.
 25798 0000 80B4     		push	{r7}
 25799              	.LCFI48:
 25800              		.cfi_def_cfa_offset 4
 25801 0002 85B0     		sub	sp, sp, #20
 25802              	.LCFI49:
 25803              		.cfi_def_cfa_offset 24
 25804 0004 00AF     		add	r7, sp, #0
 25805              		.cfi_offset 7, -4
 25806              	.LCFI50:
 25807              		.cfi_def_cfa_register 7
 25808 0006 7860     		str	r0, [r7, #4]
 25809 0008 3960     		str	r1, [r7, #0]
 748:../inc/STM32F4xx_StdPeriph_Driver/src/stm32f4xx_tim.c ****   uint16_t tmpccmrx = 0, tmpccer = 0, tmpcr2 = 0;
 25810              		.loc 1 748 0
 25811 000a 4FF00003 		mov	r3, #0
 25812 000e 7B81     		strh	r3, [r7, #10]	@ movhi
 25813 0010 4FF00003 		mov	r3, #0
 25814 0014 FB81     		strh	r3, [r7, #14]	@ movhi
 25815 0016 4FF00003 		mov	r3, #0
 25816 001a BB81     		strh	r3, [r7, #12]	@ movhi
 749:../inc/STM32F4xx_StdPeriph_Driver/src/stm32f4xx_tim.c ****    
 750:../inc/STM32F4xx_StdPeriph_Driver/src/stm32f4xx_tim.c ****   /* Check the parameters */
 751:../inc/STM32F4xx_StdPeriph_Driver/src/stm32f4xx_tim.c ****   assert_param(IS_TIM_LIST2_PERIPH(TIMx)); 
 752:../inc/STM32F4xx_StdPeriph_Driver/src/stm32f4xx_tim.c ****   assert_param(IS_TIM_OC_MODE(TIM_OCInitStruct->TIM_OCMode));
 753:../inc/STM32F4xx_StdPeriph_Driver/src/stm32f4xx_tim.c ****   assert_param(IS_TIM_OUTPUT_STATE(TIM_OCInitStruct->TIM_OutputState));
 754:../inc/STM32F4xx_StdPeriph_Driver/src/stm32f4xx_tim.c ****   assert_param(IS_TIM_OC_POLARITY(TIM_OCInitStruct->TIM_OCPolarity));   
 755:../inc/STM32F4xx_StdPeriph_Driver/src/stm32f4xx_tim.c **** 
 756:../inc/STM32F4xx_StdPeriph_Driver/src/stm32f4xx_tim.c ****   /* Disable the Channel 2: Reset the CC2E Bit */
 757:../inc/STM32F4xx_StdPeriph_Driver/src/stm32f4xx_tim.c ****   TIMx->CCER &= (uint16_t)~TIM_CCER_CC2E;
 25817              		.loc 1 757 0
 25818 001c 7B68     		ldr	r3, [r7, #4]
 25819 001e 1B8C     		ldrh	r3, [r3, #32]	@ movhi
 25820 0020 9BB2     		uxth	r3, r3
 25821 0022 23F01003 		bic	r3, r3, #16
 25822 0026 9AB2     		uxth	r2, r3
 25823 0028 7B68     		ldr	r3, [r7, #4]
 25824 002a 1A84     		strh	r2, [r3, #32]	@ movhi
 758:../inc/STM32F4xx_StdPeriph_Driver/src/stm32f4xx_tim.c ****   
 759:../inc/STM32F4xx_StdPeriph_Driver/src/stm32f4xx_tim.c ****   /* Get the TIMx CCER register value */  
 760:../inc/STM32F4xx_StdPeriph_Driver/src/stm32f4xx_tim.c ****   tmpccer = TIMx->CCER;
 25825              		.loc 1 760 0
 25826 002c 7B68     		ldr	r3, [r7, #4]
 25827 002e 1B8C     		ldrh	r3, [r3, #32]	@ movhi
 25828 0030 FB81     		strh	r3, [r7, #14]	@ movhi
 761:../inc/STM32F4xx_StdPeriph_Driver/src/stm32f4xx_tim.c ****   /* Get the TIMx CR2 register value */
 762:../inc/STM32F4xx_StdPeriph_Driver/src/stm32f4xx_tim.c ****   tmpcr2 =  TIMx->CR2;
 25829              		.loc 1 762 0
 25830 0032 7B68     		ldr	r3, [r7, #4]
 25831 0034 9B88     		ldrh	r3, [r3, #4]	@ movhi
 25832 0036 BB81     		strh	r3, [r7, #12]	@ movhi
 763:../inc/STM32F4xx_StdPeriph_Driver/src/stm32f4xx_tim.c ****   
 764:../inc/STM32F4xx_StdPeriph_Driver/src/stm32f4xx_tim.c ****   /* Get the TIMx CCMR1 register value */
 765:../inc/STM32F4xx_StdPeriph_Driver/src/stm32f4xx_tim.c ****   tmpccmrx = TIMx->CCMR1;
 25833              		.loc 1 765 0
 25834 0038 7B68     		ldr	r3, [r7, #4]
 25835 003a 1B8B     		ldrh	r3, [r3, #24]	@ movhi
 25836 003c 7B81     		strh	r3, [r7, #10]	@ movhi
 766:../inc/STM32F4xx_StdPeriph_Driver/src/stm32f4xx_tim.c ****     
 767:../inc/STM32F4xx_StdPeriph_Driver/src/stm32f4xx_tim.c ****   /* Reset the Output Compare mode and Capture/Compare selection Bits */
 768:../inc/STM32F4xx_StdPeriph_Driver/src/stm32f4xx_tim.c ****   tmpccmrx &= (uint16_t)~TIM_CCMR1_OC2M;
 25837              		.loc 1 768 0
 25838 003e 7B89     		ldrh	r3, [r7, #10]	@ movhi
 25839 0040 23F4E043 		bic	r3, r3, #28672
 25840 0044 7B81     		strh	r3, [r7, #10]	@ movhi
 769:../inc/STM32F4xx_StdPeriph_Driver/src/stm32f4xx_tim.c ****   tmpccmrx &= (uint16_t)~TIM_CCMR1_CC2S;
 25841              		.loc 1 769 0
 25842 0046 7B89     		ldrh	r3, [r7, #10]	@ movhi
 25843 0048 23F44073 		bic	r3, r3, #768
 25844 004c 7B81     		strh	r3, [r7, #10]	@ movhi
 770:../inc/STM32F4xx_StdPeriph_Driver/src/stm32f4xx_tim.c ****   
 771:../inc/STM32F4xx_StdPeriph_Driver/src/stm32f4xx_tim.c ****   /* Select the Output Compare Mode */
 772:../inc/STM32F4xx_StdPeriph_Driver/src/stm32f4xx_tim.c ****   tmpccmrx |= (uint16_t)(TIM_OCInitStruct->TIM_OCMode << 8);
 25845              		.loc 1 772 0
 25846 004e 3B68     		ldr	r3, [r7, #0]
 25847 0050 1B88     		ldrh	r3, [r3, #0]
 25848 0052 4FEA0323 		lsl	r3, r3, #8
 25849 0056 9AB2     		uxth	r2, r3
 25850 0058 7B89     		ldrh	r3, [r7, #10]	@ movhi
 25851 005a 42EA0303 		orr	r3, r2, r3
 25852 005e 7B81     		strh	r3, [r7, #10]	@ movhi
 773:../inc/STM32F4xx_StdPeriph_Driver/src/stm32f4xx_tim.c ****   
 774:../inc/STM32F4xx_StdPeriph_Driver/src/stm32f4xx_tim.c ****   /* Reset the Output Polarity level */
 775:../inc/STM32F4xx_StdPeriph_Driver/src/stm32f4xx_tim.c ****   tmpccer &= (uint16_t)~TIM_CCER_CC2P;
 25853              		.loc 1 775 0
 25854 0060 FB89     		ldrh	r3, [r7, #14]	@ movhi
 25855 0062 23F02003 		bic	r3, r3, #32
 25856 0066 FB81     		strh	r3, [r7, #14]	@ movhi
 776:../inc/STM32F4xx_StdPeriph_Driver/src/stm32f4xx_tim.c ****   /* Set the Output Compare Polarity */
 777:../inc/STM32F4xx_StdPeriph_Driver/src/stm32f4xx_tim.c ****   tmpccer |= (uint16_t)(TIM_OCInitStruct->TIM_OCPolarity << 4);
 25857              		.loc 1 777 0
 25858 0068 3B68     		ldr	r3, [r7, #0]
 25859 006a 9B89     		ldrh	r3, [r3, #12]
 25860 006c 4FEA0313 		lsl	r3, r3, #4
 25861 0070 9AB2     		uxth	r2, r3
 25862 0072 FB89     		ldrh	r3, [r7, #14]	@ movhi
 25863 0074 42EA0303 		orr	r3, r2, r3
 25864 0078 FB81     		strh	r3, [r7, #14]	@ movhi
 778:../inc/STM32F4xx_StdPeriph_Driver/src/stm32f4xx_tim.c ****   
 779:../inc/STM32F4xx_StdPeriph_Driver/src/stm32f4xx_tim.c ****   /* Set the Output State */
 780:../inc/STM32F4xx_StdPeriph_Driver/src/stm32f4xx_tim.c ****   tmpccer |= (uint16_t)(TIM_OCInitStruct->TIM_OutputState << 4);
 25865              		.loc 1 780 0
 25866 007a 3B68     		ldr	r3, [r7, #0]
 25867 007c 5B88     		ldrh	r3, [r3, #2]
 25868 007e 4FEA0313 		lsl	r3, r3, #4
 25869 0082 9AB2     		uxth	r2, r3
 25870 0084 FB89     		ldrh	r3, [r7, #14]	@ movhi
 25871 0086 42EA0303 		orr	r3, r2, r3
 25872 008a FB81     		strh	r3, [r7, #14]	@ movhi
 781:../inc/STM32F4xx_StdPeriph_Driver/src/stm32f4xx_tim.c ****     
 782:../inc/STM32F4xx_StdPeriph_Driver/src/stm32f4xx_tim.c ****   if((TIMx == TIM1) || (TIMx == TIM8))
 25873              		.loc 1 782 0
 25874 008c 7A68     		ldr	r2, [r7, #4]
 25875 008e 264B     		ldr	r3, .L55
 25876 0090 9A42     		cmp	r2, r3
 25877 0092 03D0     		beq	.L53
 25878              		.loc 1 782 0 is_stmt 0 discriminator 1
 25879 0094 7A68     		ldr	r2, [r7, #4]
 25880 0096 254B     		ldr	r3, .L55+4
 25881 0098 9A42     		cmp	r2, r3
 25882 009a 33D1     		bne	.L54
 25883              	.L53:
 783:../inc/STM32F4xx_StdPeriph_Driver/src/stm32f4xx_tim.c ****   {
 784:../inc/STM32F4xx_StdPeriph_Driver/src/stm32f4xx_tim.c ****     assert_param(IS_TIM_OUTPUTN_STATE(TIM_OCInitStruct->TIM_OutputNState));
 785:../inc/STM32F4xx_StdPeriph_Driver/src/stm32f4xx_tim.c ****     assert_param(IS_TIM_OCN_POLARITY(TIM_OCInitStruct->TIM_OCNPolarity));
 786:../inc/STM32F4xx_StdPeriph_Driver/src/stm32f4xx_tim.c ****     assert_param(IS_TIM_OCNIDLE_STATE(TIM_OCInitStruct->TIM_OCNIdleState));
 787:../inc/STM32F4xx_StdPeriph_Driver/src/stm32f4xx_tim.c ****     assert_param(IS_TIM_OCIDLE_STATE(TIM_OCInitStruct->TIM_OCIdleState));
 788:../inc/STM32F4xx_StdPeriph_Driver/src/stm32f4xx_tim.c ****     
 789:../inc/STM32F4xx_StdPeriph_Driver/src/stm32f4xx_tim.c ****     /* Reset the Output N Polarity level */
 790:../inc/STM32F4xx_StdPeriph_Driver/src/stm32f4xx_tim.c ****     tmpccer &= (uint16_t)~TIM_CCER_CC2NP;
 25884              		.loc 1 790 0 is_stmt 1
 25885 009c FB89     		ldrh	r3, [r7, #14]	@ movhi
 25886 009e 23F08003 		bic	r3, r3, #128
 25887 00a2 FB81     		strh	r3, [r7, #14]	@ movhi
 791:../inc/STM32F4xx_StdPeriph_Driver/src/stm32f4xx_tim.c ****     /* Set the Output N Polarity */
 792:../inc/STM32F4xx_StdPeriph_Driver/src/stm32f4xx_tim.c ****     tmpccer |= (uint16_t)(TIM_OCInitStruct->TIM_OCNPolarity << 4);
 25888              		.loc 1 792 0
 25889 00a4 3B68     		ldr	r3, [r7, #0]
 25890 00a6 DB89     		ldrh	r3, [r3, #14]
 25891 00a8 4FEA0313 		lsl	r3, r3, #4
 25892 00ac 9AB2     		uxth	r2, r3
 25893 00ae FB89     		ldrh	r3, [r7, #14]	@ movhi
 25894 00b0 42EA0303 		orr	r3, r2, r3
 25895 00b4 FB81     		strh	r3, [r7, #14]	@ movhi
 793:../inc/STM32F4xx_StdPeriph_Driver/src/stm32f4xx_tim.c ****     /* Reset the Output N State */
 794:../inc/STM32F4xx_StdPeriph_Driver/src/stm32f4xx_tim.c ****     tmpccer &= (uint16_t)~TIM_CCER_CC2NE;
 25896              		.loc 1 794 0
 25897 00b6 FB89     		ldrh	r3, [r7, #14]	@ movhi
 25898 00b8 23F04003 		bic	r3, r3, #64
 25899 00bc FB81     		strh	r3, [r7, #14]	@ movhi
 795:../inc/STM32F4xx_StdPeriph_Driver/src/stm32f4xx_tim.c ****     
 796:../inc/STM32F4xx_StdPeriph_Driver/src/stm32f4xx_tim.c ****     /* Set the Output N State */
 797:../inc/STM32F4xx_StdPeriph_Driver/src/stm32f4xx_tim.c ****     tmpccer |= (uint16_t)(TIM_OCInitStruct->TIM_OutputNState << 4);
 25900              		.loc 1 797 0
 25901 00be 3B68     		ldr	r3, [r7, #0]
 25902 00c0 9B88     		ldrh	r3, [r3, #4]
 25903 00c2 4FEA0313 		lsl	r3, r3, #4
 25904 00c6 9AB2     		uxth	r2, r3
 25905 00c8 FB89     		ldrh	r3, [r7, #14]	@ movhi
 25906 00ca 42EA0303 		orr	r3, r2, r3
 25907 00ce FB81     		strh	r3, [r7, #14]	@ movhi
 798:../inc/STM32F4xx_StdPeriph_Driver/src/stm32f4xx_tim.c ****     /* Reset the Output Compare and Output Compare N IDLE State */
 799:../inc/STM32F4xx_StdPeriph_Driver/src/stm32f4xx_tim.c ****     tmpcr2 &= (uint16_t)~TIM_CR2_OIS2;
 25908              		.loc 1 799 0
 25909 00d0 BB89     		ldrh	r3, [r7, #12]	@ movhi
 25910 00d2 23F48063 		bic	r3, r3, #1024
 25911 00d6 BB81     		strh	r3, [r7, #12]	@ movhi
 800:../inc/STM32F4xx_StdPeriph_Driver/src/stm32f4xx_tim.c ****     tmpcr2 &= (uint16_t)~TIM_CR2_OIS2N;
 25912              		.loc 1 800 0
 25913 00d8 BB89     		ldrh	r3, [r7, #12]	@ movhi
 25914 00da 23F40063 		bic	r3, r3, #2048
 25915 00de BB81     		strh	r3, [r7, #12]	@ movhi
 801:../inc/STM32F4xx_StdPeriph_Driver/src/stm32f4xx_tim.c ****     /* Set the Output Idle state */
 802:../inc/STM32F4xx_StdPeriph_Driver/src/stm32f4xx_tim.c ****     tmpcr2 |= (uint16_t)(TIM_OCInitStruct->TIM_OCIdleState << 2);
 25916              		.loc 1 802 0
 25917 00e0 3B68     		ldr	r3, [r7, #0]
 25918 00e2 1B8A     		ldrh	r3, [r3, #16]
 25919 00e4 4FEA8303 		lsl	r3, r3, #2
 25920 00e8 9AB2     		uxth	r2, r3
 25921 00ea BB89     		ldrh	r3, [r7, #12]	@ movhi
 25922 00ec 42EA0303 		orr	r3, r2, r3
 25923 00f0 BB81     		strh	r3, [r7, #12]	@ movhi
 803:../inc/STM32F4xx_StdPeriph_Driver/src/stm32f4xx_tim.c ****     /* Set the Output N Idle state */
 804:../inc/STM32F4xx_StdPeriph_Driver/src/stm32f4xx_tim.c ****     tmpcr2 |= (uint16_t)(TIM_OCInitStruct->TIM_OCNIdleState << 2);
 25924              		.loc 1 804 0
 25925 00f2 3B68     		ldr	r3, [r7, #0]
 25926 00f4 5B8A     		ldrh	r3, [r3, #18]
 25927 00f6 4FEA8303 		lsl	r3, r3, #2
 25928 00fa 9AB2     		uxth	r2, r3
 25929 00fc BB89     		ldrh	r3, [r7, #12]	@ movhi
 25930 00fe 42EA0303 		orr	r3, r2, r3
 25931 0102 BB81     		strh	r3, [r7, #12]	@ movhi
 25932              	.L54:
 805:../inc/STM32F4xx_StdPeriph_Driver/src/stm32f4xx_tim.c ****   }
 806:../inc/STM32F4xx_StdPeriph_Driver/src/stm32f4xx_tim.c ****   /* Write to TIMx CR2 */
 807:../inc/STM32F4xx_StdPeriph_Driver/src/stm32f4xx_tim.c ****   TIMx->CR2 = tmpcr2;
 25933              		.loc 1 807 0
 25934 0104 7B68     		ldr	r3, [r7, #4]
 25935 0106 BA89     		ldrh	r2, [r7, #12]	@ movhi
 25936 0108 9A80     		strh	r2, [r3, #4]	@ movhi
 808:../inc/STM32F4xx_StdPeriph_Driver/src/stm32f4xx_tim.c ****   
 809:../inc/STM32F4xx_StdPeriph_Driver/src/stm32f4xx_tim.c ****   /* Write to TIMx CCMR1 */
 810:../inc/STM32F4xx_StdPeriph_Driver/src/stm32f4xx_tim.c ****   TIMx->CCMR1 = tmpccmrx;
 25937              		.loc 1 810 0
 25938 010a 7B68     		ldr	r3, [r7, #4]
 25939 010c 7A89     		ldrh	r2, [r7, #10]	@ movhi
 25940 010e 1A83     		strh	r2, [r3, #24]	@ movhi
 811:../inc/STM32F4xx_StdPeriph_Driver/src/stm32f4xx_tim.c ****   
 812:../inc/STM32F4xx_StdPeriph_Driver/src/stm32f4xx_tim.c ****   /* Set the Capture Compare Register value */
 813:../inc/STM32F4xx_StdPeriph_Driver/src/stm32f4xx_tim.c ****   TIMx->CCR2 = TIM_OCInitStruct->TIM_Pulse;
 25941              		.loc 1 813 0
 25942 0110 3B68     		ldr	r3, [r7, #0]
 25943 0112 9A68     		ldr	r2, [r3, #8]
 25944 0114 7B68     		ldr	r3, [r7, #4]
 25945 0116 9A63     		str	r2, [r3, #56]
 814:../inc/STM32F4xx_StdPeriph_Driver/src/stm32f4xx_tim.c ****   
 815:../inc/STM32F4xx_StdPeriph_Driver/src/stm32f4xx_tim.c ****   /* Write to TIMx CCER */
 816:../inc/STM32F4xx_StdPeriph_Driver/src/stm32f4xx_tim.c ****   TIMx->CCER = tmpccer;
 25946              		.loc 1 816 0
 25947 0118 7B68     		ldr	r3, [r7, #4]
 25948 011a FA89     		ldrh	r2, [r7, #14]	@ movhi
 25949 011c 1A84     		strh	r2, [r3, #32]	@ movhi
 817:../inc/STM32F4xx_StdPeriph_Driver/src/stm32f4xx_tim.c **** }
 25950              		.loc 1 817 0
 25951 011e 07F11407 		add	r7, r7, #20
 25952 0122 BD46     		mov	sp, r7
 25953 0124 80BC     		pop	{r7}
 25954 0126 7047     		bx	lr
 25955              	.L56:
 25956              		.align	2
 25957              	.L55:
 25958 0128 00000140 		.word	1073807360
 25959 012c 00040140 		.word	1073808384
 25960              		.cfi_endproc
 25961              	.LFE126:
 25963              		.section	.text.TIM_OC3Init,"ax",%progbits
 25964              		.align	2
 25965              		.global	TIM_OC3Init
 25966              		.thumb
 25967              		.thumb_func
 25969              	TIM_OC3Init:
 25970              	.LFB127:
 818:../inc/STM32F4xx_StdPeriph_Driver/src/stm32f4xx_tim.c **** 
 819:../inc/STM32F4xx_StdPeriph_Driver/src/stm32f4xx_tim.c **** /**
 820:../inc/STM32F4xx_StdPeriph_Driver/src/stm32f4xx_tim.c ****   * @brief  Initializes the TIMx Channel3 according to the specified parameters
 821:../inc/STM32F4xx_StdPeriph_Driver/src/stm32f4xx_tim.c ****   *         in the TIM_OCInitStruct.
 822:../inc/STM32F4xx_StdPeriph_Driver/src/stm32f4xx_tim.c ****   * @param  TIMx: where x can be 1, 2, 3, 4, 5 or 8 to select the TIM peripheral.
 823:../inc/STM32F4xx_StdPeriph_Driver/src/stm32f4xx_tim.c ****   * @param  TIM_OCInitStruct: pointer to a TIM_OCInitTypeDef structure that contains
 824:../inc/STM32F4xx_StdPeriph_Driver/src/stm32f4xx_tim.c ****   *         the configuration information for the specified TIM peripheral.
 825:../inc/STM32F4xx_StdPeriph_Driver/src/stm32f4xx_tim.c ****   * @retval None
 826:../inc/STM32F4xx_StdPeriph_Driver/src/stm32f4xx_tim.c ****   */
 827:../inc/STM32F4xx_StdPeriph_Driver/src/stm32f4xx_tim.c **** void TIM_OC3Init(TIM_TypeDef* TIMx, TIM_OCInitTypeDef* TIM_OCInitStruct)
 828:../inc/STM32F4xx_StdPeriph_Driver/src/stm32f4xx_tim.c **** {
 25971              		.loc 1 828 0
 25972              		.cfi_startproc
 25973              		@ args = 0, pretend = 0, frame = 16
 25974              		@ frame_needed = 1, uses_anonymous_args = 0
 25975              		@ link register save eliminated.
 25976 0000 80B4     		push	{r7}
 25977              	.LCFI51:
 25978              		.cfi_def_cfa_offset 4
 25979 0002 85B0     		sub	sp, sp, #20
 25980              	.LCFI52:
 25981              		.cfi_def_cfa_offset 24
 25982 0004 00AF     		add	r7, sp, #0
 25983              		.cfi_offset 7, -4
 25984              	.LCFI53:
 25985              		.cfi_def_cfa_register 7
 25986 0006 7860     		str	r0, [r7, #4]
 25987 0008 3960     		str	r1, [r7, #0]
 829:../inc/STM32F4xx_StdPeriph_Driver/src/stm32f4xx_tim.c ****   uint16_t tmpccmrx = 0, tmpccer = 0, tmpcr2 = 0;
 25988              		.loc 1 829 0
 25989 000a 4FF00003 		mov	r3, #0
 25990 000e 7B81     		strh	r3, [r7, #10]	@ movhi
 25991 0010 4FF00003 		mov	r3, #0
 25992 0014 FB81     		strh	r3, [r7, #14]	@ movhi
 25993 0016 4FF00003 		mov	r3, #0
 25994 001a BB81     		strh	r3, [r7, #12]	@ movhi
 830:../inc/STM32F4xx_StdPeriph_Driver/src/stm32f4xx_tim.c ****    
 831:../inc/STM32F4xx_StdPeriph_Driver/src/stm32f4xx_tim.c ****   /* Check the parameters */
 832:../inc/STM32F4xx_StdPeriph_Driver/src/stm32f4xx_tim.c ****   assert_param(IS_TIM_LIST3_PERIPH(TIMx)); 
 833:../inc/STM32F4xx_StdPeriph_Driver/src/stm32f4xx_tim.c ****   assert_param(IS_TIM_OC_MODE(TIM_OCInitStruct->TIM_OCMode));
 834:../inc/STM32F4xx_StdPeriph_Driver/src/stm32f4xx_tim.c ****   assert_param(IS_TIM_OUTPUT_STATE(TIM_OCInitStruct->TIM_OutputState));
 835:../inc/STM32F4xx_StdPeriph_Driver/src/stm32f4xx_tim.c ****   assert_param(IS_TIM_OC_POLARITY(TIM_OCInitStruct->TIM_OCPolarity));   
 836:../inc/STM32F4xx_StdPeriph_Driver/src/stm32f4xx_tim.c **** 
 837:../inc/STM32F4xx_StdPeriph_Driver/src/stm32f4xx_tim.c ****   /* Disable the Channel 3: Reset the CC2E Bit */
 838:../inc/STM32F4xx_StdPeriph_Driver/src/stm32f4xx_tim.c ****   TIMx->CCER &= (uint16_t)~TIM_CCER_CC3E;
 25995              		.loc 1 838 0
 25996 001c 7B68     		ldr	r3, [r7, #4]
 25997 001e 1B8C     		ldrh	r3, [r3, #32]	@ movhi
 25998 0020 9BB2     		uxth	r3, r3
 25999 0022 23F48073 		bic	r3, r3, #256
 26000 0026 9AB2     		uxth	r2, r3
 26001 0028 7B68     		ldr	r3, [r7, #4]
 26002 002a 1A84     		strh	r2, [r3, #32]	@ movhi
 839:../inc/STM32F4xx_StdPeriph_Driver/src/stm32f4xx_tim.c ****   
 840:../inc/STM32F4xx_StdPeriph_Driver/src/stm32f4xx_tim.c ****   /* Get the TIMx CCER register value */
 841:../inc/STM32F4xx_StdPeriph_Driver/src/stm32f4xx_tim.c ****   tmpccer = TIMx->CCER;
 26003              		.loc 1 841 0
 26004 002c 7B68     		ldr	r3, [r7, #4]
 26005 002e 1B8C     		ldrh	r3, [r3, #32]	@ movhi
 26006 0030 FB81     		strh	r3, [r7, #14]	@ movhi
 842:../inc/STM32F4xx_StdPeriph_Driver/src/stm32f4xx_tim.c ****   /* Get the TIMx CR2 register value */
 843:../inc/STM32F4xx_StdPeriph_Driver/src/stm32f4xx_tim.c ****   tmpcr2 =  TIMx->CR2;
 26007              		.loc 1 843 0
 26008 0032 7B68     		ldr	r3, [r7, #4]
 26009 0034 9B88     		ldrh	r3, [r3, #4]	@ movhi
 26010 0036 BB81     		strh	r3, [r7, #12]	@ movhi
 844:../inc/STM32F4xx_StdPeriph_Driver/src/stm32f4xx_tim.c ****   
 845:../inc/STM32F4xx_StdPeriph_Driver/src/stm32f4xx_tim.c ****   /* Get the TIMx CCMR2 register value */
 846:../inc/STM32F4xx_StdPeriph_Driver/src/stm32f4xx_tim.c ****   tmpccmrx = TIMx->CCMR2;
 26011              		.loc 1 846 0
 26012 0038 7B68     		ldr	r3, [r7, #4]
 26013 003a 9B8B     		ldrh	r3, [r3, #28]	@ movhi
 26014 003c 7B81     		strh	r3, [r7, #10]	@ movhi
 847:../inc/STM32F4xx_StdPeriph_Driver/src/stm32f4xx_tim.c ****     
 848:../inc/STM32F4xx_StdPeriph_Driver/src/stm32f4xx_tim.c ****   /* Reset the Output Compare mode and Capture/Compare selection Bits */
 849:../inc/STM32F4xx_StdPeriph_Driver/src/stm32f4xx_tim.c ****   tmpccmrx &= (uint16_t)~TIM_CCMR2_OC3M;
 26015              		.loc 1 849 0
 26016 003e 7B89     		ldrh	r3, [r7, #10]	@ movhi
 26017 0040 23F07003 		bic	r3, r3, #112
 26018 0044 7B81     		strh	r3, [r7, #10]	@ movhi
 850:../inc/STM32F4xx_StdPeriph_Driver/src/stm32f4xx_tim.c ****   tmpccmrx &= (uint16_t)~TIM_CCMR2_CC3S;  
 26019              		.loc 1 850 0
 26020 0046 7B89     		ldrh	r3, [r7, #10]	@ movhi
 26021 0048 23F00303 		bic	r3, r3, #3
 26022 004c 7B81     		strh	r3, [r7, #10]	@ movhi
 851:../inc/STM32F4xx_StdPeriph_Driver/src/stm32f4xx_tim.c ****   /* Select the Output Compare Mode */
 852:../inc/STM32F4xx_StdPeriph_Driver/src/stm32f4xx_tim.c ****   tmpccmrx |= TIM_OCInitStruct->TIM_OCMode;
 26023              		.loc 1 852 0
 26024 004e 3B68     		ldr	r3, [r7, #0]
 26025 0050 1A88     		ldrh	r2, [r3, #0]
 26026 0052 7B89     		ldrh	r3, [r7, #10]	@ movhi
 26027 0054 42EA0303 		orr	r3, r2, r3
 26028 0058 7B81     		strh	r3, [r7, #10]	@ movhi
 853:../inc/STM32F4xx_StdPeriph_Driver/src/stm32f4xx_tim.c ****   
 854:../inc/STM32F4xx_StdPeriph_Driver/src/stm32f4xx_tim.c ****   /* Reset the Output Polarity level */
 855:../inc/STM32F4xx_StdPeriph_Driver/src/stm32f4xx_tim.c ****   tmpccer &= (uint16_t)~TIM_CCER_CC3P;
 26029              		.loc 1 855 0
 26030 005a FB89     		ldrh	r3, [r7, #14]	@ movhi
 26031 005c 23F40073 		bic	r3, r3, #512
 26032 0060 FB81     		strh	r3, [r7, #14]	@ movhi
 856:../inc/STM32F4xx_StdPeriph_Driver/src/stm32f4xx_tim.c ****   /* Set the Output Compare Polarity */
 857:../inc/STM32F4xx_StdPeriph_Driver/src/stm32f4xx_tim.c ****   tmpccer |= (uint16_t)(TIM_OCInitStruct->TIM_OCPolarity << 8);
 26033              		.loc 1 857 0
 26034 0062 3B68     		ldr	r3, [r7, #0]
 26035 0064 9B89     		ldrh	r3, [r3, #12]
 26036 0066 4FEA0323 		lsl	r3, r3, #8
 26037 006a 9AB2     		uxth	r2, r3
 26038 006c FB89     		ldrh	r3, [r7, #14]	@ movhi
 26039 006e 42EA0303 		orr	r3, r2, r3
 26040 0072 FB81     		strh	r3, [r7, #14]	@ movhi
 858:../inc/STM32F4xx_StdPeriph_Driver/src/stm32f4xx_tim.c ****   
 859:../inc/STM32F4xx_StdPeriph_Driver/src/stm32f4xx_tim.c ****   /* Set the Output State */
 860:../inc/STM32F4xx_StdPeriph_Driver/src/stm32f4xx_tim.c ****   tmpccer |= (uint16_t)(TIM_OCInitStruct->TIM_OutputState << 8);
 26041              		.loc 1 860 0
 26042 0074 3B68     		ldr	r3, [r7, #0]
 26043 0076 5B88     		ldrh	r3, [r3, #2]
 26044 0078 4FEA0323 		lsl	r3, r3, #8
 26045 007c 9AB2     		uxth	r2, r3
 26046 007e FB89     		ldrh	r3, [r7, #14]	@ movhi
 26047 0080 42EA0303 		orr	r3, r2, r3
 26048 0084 FB81     		strh	r3, [r7, #14]	@ movhi
 861:../inc/STM32F4xx_StdPeriph_Driver/src/stm32f4xx_tim.c ****     
 862:../inc/STM32F4xx_StdPeriph_Driver/src/stm32f4xx_tim.c ****   if((TIMx == TIM1) || (TIMx == TIM8))
 26049              		.loc 1 862 0
 26050 0086 7A68     		ldr	r2, [r7, #4]
 26051 0088 264B     		ldr	r3, .L60
 26052 008a 9A42     		cmp	r2, r3
 26053 008c 03D0     		beq	.L58
 26054              		.loc 1 862 0 is_stmt 0 discriminator 1
 26055 008e 7A68     		ldr	r2, [r7, #4]
 26056 0090 254B     		ldr	r3, .L60+4
 26057 0092 9A42     		cmp	r2, r3
 26058 0094 33D1     		bne	.L59
 26059              	.L58:
 863:../inc/STM32F4xx_StdPeriph_Driver/src/stm32f4xx_tim.c ****   {
 864:../inc/STM32F4xx_StdPeriph_Driver/src/stm32f4xx_tim.c ****     assert_param(IS_TIM_OUTPUTN_STATE(TIM_OCInitStruct->TIM_OutputNState));
 865:../inc/STM32F4xx_StdPeriph_Driver/src/stm32f4xx_tim.c ****     assert_param(IS_TIM_OCN_POLARITY(TIM_OCInitStruct->TIM_OCNPolarity));
 866:../inc/STM32F4xx_StdPeriph_Driver/src/stm32f4xx_tim.c ****     assert_param(IS_TIM_OCNIDLE_STATE(TIM_OCInitStruct->TIM_OCNIdleState));
 867:../inc/STM32F4xx_StdPeriph_Driver/src/stm32f4xx_tim.c ****     assert_param(IS_TIM_OCIDLE_STATE(TIM_OCInitStruct->TIM_OCIdleState));
 868:../inc/STM32F4xx_StdPeriph_Driver/src/stm32f4xx_tim.c ****     
 869:../inc/STM32F4xx_StdPeriph_Driver/src/stm32f4xx_tim.c ****     /* Reset the Output N Polarity level */
 870:../inc/STM32F4xx_StdPeriph_Driver/src/stm32f4xx_tim.c ****     tmpccer &= (uint16_t)~TIM_CCER_CC3NP;
 26060              		.loc 1 870 0 is_stmt 1
 26061 0096 FB89     		ldrh	r3, [r7, #14]	@ movhi
 26062 0098 23F40063 		bic	r3, r3, #2048
 26063 009c FB81     		strh	r3, [r7, #14]	@ movhi
 871:../inc/STM32F4xx_StdPeriph_Driver/src/stm32f4xx_tim.c ****     /* Set the Output N Polarity */
 872:../inc/STM32F4xx_StdPeriph_Driver/src/stm32f4xx_tim.c ****     tmpccer |= (uint16_t)(TIM_OCInitStruct->TIM_OCNPolarity << 8);
 26064              		.loc 1 872 0
 26065 009e 3B68     		ldr	r3, [r7, #0]
 26066 00a0 DB89     		ldrh	r3, [r3, #14]
 26067 00a2 4FEA0323 		lsl	r3, r3, #8
 26068 00a6 9AB2     		uxth	r2, r3
 26069 00a8 FB89     		ldrh	r3, [r7, #14]	@ movhi
 26070 00aa 42EA0303 		orr	r3, r2, r3
 26071 00ae FB81     		strh	r3, [r7, #14]	@ movhi
 873:../inc/STM32F4xx_StdPeriph_Driver/src/stm32f4xx_tim.c ****     /* Reset the Output N State */
 874:../inc/STM32F4xx_StdPeriph_Driver/src/stm32f4xx_tim.c ****     tmpccer &= (uint16_t)~TIM_CCER_CC3NE;
 26072              		.loc 1 874 0
 26073 00b0 FB89     		ldrh	r3, [r7, #14]	@ movhi
 26074 00b2 23F48063 		bic	r3, r3, #1024
 26075 00b6 FB81     		strh	r3, [r7, #14]	@ movhi
 875:../inc/STM32F4xx_StdPeriph_Driver/src/stm32f4xx_tim.c ****     
 876:../inc/STM32F4xx_StdPeriph_Driver/src/stm32f4xx_tim.c ****     /* Set the Output N State */
 877:../inc/STM32F4xx_StdPeriph_Driver/src/stm32f4xx_tim.c ****     tmpccer |= (uint16_t)(TIM_OCInitStruct->TIM_OutputNState << 8);
 26076              		.loc 1 877 0
 26077 00b8 3B68     		ldr	r3, [r7, #0]
 26078 00ba 9B88     		ldrh	r3, [r3, #4]
 26079 00bc 4FEA0323 		lsl	r3, r3, #8
 26080 00c0 9AB2     		uxth	r2, r3
 26081 00c2 FB89     		ldrh	r3, [r7, #14]	@ movhi
 26082 00c4 42EA0303 		orr	r3, r2, r3
 26083 00c8 FB81     		strh	r3, [r7, #14]	@ movhi
 878:../inc/STM32F4xx_StdPeriph_Driver/src/stm32f4xx_tim.c ****     /* Reset the Output Compare and Output Compare N IDLE State */
 879:../inc/STM32F4xx_StdPeriph_Driver/src/stm32f4xx_tim.c ****     tmpcr2 &= (uint16_t)~TIM_CR2_OIS3;
 26084              		.loc 1 879 0
 26085 00ca BB89     		ldrh	r3, [r7, #12]	@ movhi
 26086 00cc 23F48053 		bic	r3, r3, #4096
 26087 00d0 BB81     		strh	r3, [r7, #12]	@ movhi
 880:../inc/STM32F4xx_StdPeriph_Driver/src/stm32f4xx_tim.c ****     tmpcr2 &= (uint16_t)~TIM_CR2_OIS3N;
 26088              		.loc 1 880 0
 26089 00d2 BB89     		ldrh	r3, [r7, #12]	@ movhi
 26090 00d4 23F40053 		bic	r3, r3, #8192
 26091 00d8 BB81     		strh	r3, [r7, #12]	@ movhi
 881:../inc/STM32F4xx_StdPeriph_Driver/src/stm32f4xx_tim.c ****     /* Set the Output Idle state */
 882:../inc/STM32F4xx_StdPeriph_Driver/src/stm32f4xx_tim.c ****     tmpcr2 |= (uint16_t)(TIM_OCInitStruct->TIM_OCIdleState << 4);
 26092              		.loc 1 882 0
 26093 00da 3B68     		ldr	r3, [r7, #0]
 26094 00dc 1B8A     		ldrh	r3, [r3, #16]
 26095 00de 4FEA0313 		lsl	r3, r3, #4
 26096 00e2 9AB2     		uxth	r2, r3
 26097 00e4 BB89     		ldrh	r3, [r7, #12]	@ movhi
 26098 00e6 42EA0303 		orr	r3, r2, r3
 26099 00ea BB81     		strh	r3, [r7, #12]	@ movhi
 883:../inc/STM32F4xx_StdPeriph_Driver/src/stm32f4xx_tim.c ****     /* Set the Output N Idle state */
 884:../inc/STM32F4xx_StdPeriph_Driver/src/stm32f4xx_tim.c ****     tmpcr2 |= (uint16_t)(TIM_OCInitStruct->TIM_OCNIdleState << 4);
 26100              		.loc 1 884 0
 26101 00ec 3B68     		ldr	r3, [r7, #0]
 26102 00ee 5B8A     		ldrh	r3, [r3, #18]
 26103 00f0 4FEA0313 		lsl	r3, r3, #4
 26104 00f4 9AB2     		uxth	r2, r3
 26105 00f6 BB89     		ldrh	r3, [r7, #12]	@ movhi
 26106 00f8 42EA0303 		orr	r3, r2, r3
 26107 00fc BB81     		strh	r3, [r7, #12]	@ movhi
 26108              	.L59:
 885:../inc/STM32F4xx_StdPeriph_Driver/src/stm32f4xx_tim.c ****   }
 886:../inc/STM32F4xx_StdPeriph_Driver/src/stm32f4xx_tim.c ****   /* Write to TIMx CR2 */
 887:../inc/STM32F4xx_StdPeriph_Driver/src/stm32f4xx_tim.c ****   TIMx->CR2 = tmpcr2;
 26109              		.loc 1 887 0
 26110 00fe 7B68     		ldr	r3, [r7, #4]
 26111 0100 BA89     		ldrh	r2, [r7, #12]	@ movhi
 26112 0102 9A80     		strh	r2, [r3, #4]	@ movhi
 888:../inc/STM32F4xx_StdPeriph_Driver/src/stm32f4xx_tim.c ****   
 889:../inc/STM32F4xx_StdPeriph_Driver/src/stm32f4xx_tim.c ****   /* Write to TIMx CCMR2 */
 890:../inc/STM32F4xx_StdPeriph_Driver/src/stm32f4xx_tim.c ****   TIMx->CCMR2 = tmpccmrx;
 26113              		.loc 1 890 0
 26114 0104 7B68     		ldr	r3, [r7, #4]
 26115 0106 7A89     		ldrh	r2, [r7, #10]	@ movhi
 26116 0108 9A83     		strh	r2, [r3, #28]	@ movhi
 891:../inc/STM32F4xx_StdPeriph_Driver/src/stm32f4xx_tim.c ****   
 892:../inc/STM32F4xx_StdPeriph_Driver/src/stm32f4xx_tim.c ****   /* Set the Capture Compare Register value */
 893:../inc/STM32F4xx_StdPeriph_Driver/src/stm32f4xx_tim.c ****   TIMx->CCR3 = TIM_OCInitStruct->TIM_Pulse;
 26117              		.loc 1 893 0
 26118 010a 3B68     		ldr	r3, [r7, #0]
 26119 010c 9A68     		ldr	r2, [r3, #8]
 26120 010e 7B68     		ldr	r3, [r7, #4]
 26121 0110 DA63     		str	r2, [r3, #60]
 894:../inc/STM32F4xx_StdPeriph_Driver/src/stm32f4xx_tim.c ****   
 895:../inc/STM32F4xx_StdPeriph_Driver/src/stm32f4xx_tim.c ****   /* Write to TIMx CCER */
 896:../inc/STM32F4xx_StdPeriph_Driver/src/stm32f4xx_tim.c ****   TIMx->CCER = tmpccer;
 26122              		.loc 1 896 0
 26123 0112 7B68     		ldr	r3, [r7, #4]
 26124 0114 FA89     		ldrh	r2, [r7, #14]	@ movhi
 26125 0116 1A84     		strh	r2, [r3, #32]	@ movhi
 897:../inc/STM32F4xx_StdPeriph_Driver/src/stm32f4xx_tim.c **** }
 26126              		.loc 1 897 0
 26127 0118 07F11407 		add	r7, r7, #20
 26128 011c BD46     		mov	sp, r7
 26129 011e 80BC     		pop	{r7}
 26130 0120 7047     		bx	lr
 26131              	.L61:
 26132 0122 00BF     		.align	2
 26133              	.L60:
 26134 0124 00000140 		.word	1073807360
 26135 0128 00040140 		.word	1073808384
 26136              		.cfi_endproc
 26137              	.LFE127:
 26139              		.section	.text.TIM_OC4Init,"ax",%progbits
 26140              		.align	2
 26141              		.global	TIM_OC4Init
 26142              		.thumb
 26143              		.thumb_func
 26145              	TIM_OC4Init:
 26146              	.LFB128:
 898:../inc/STM32F4xx_StdPeriph_Driver/src/stm32f4xx_tim.c **** 
 899:../inc/STM32F4xx_StdPeriph_Driver/src/stm32f4xx_tim.c **** /**
 900:../inc/STM32F4xx_StdPeriph_Driver/src/stm32f4xx_tim.c ****   * @brief  Initializes the TIMx Channel4 according to the specified parameters
 901:../inc/STM32F4xx_StdPeriph_Driver/src/stm32f4xx_tim.c ****   *         in the TIM_OCInitStruct.
 902:../inc/STM32F4xx_StdPeriph_Driver/src/stm32f4xx_tim.c ****   * @param  TIMx: where x can be 1, 2, 3, 4, 5 or 8 to select the TIM peripheral.
 903:../inc/STM32F4xx_StdPeriph_Driver/src/stm32f4xx_tim.c ****   * @param  TIM_OCInitStruct: pointer to a TIM_OCInitTypeDef structure that contains
 904:../inc/STM32F4xx_StdPeriph_Driver/src/stm32f4xx_tim.c ****   *         the configuration information for the specified TIM peripheral.
 905:../inc/STM32F4xx_StdPeriph_Driver/src/stm32f4xx_tim.c ****   * @retval None
 906:../inc/STM32F4xx_StdPeriph_Driver/src/stm32f4xx_tim.c ****   */
 907:../inc/STM32F4xx_StdPeriph_Driver/src/stm32f4xx_tim.c **** void TIM_OC4Init(TIM_TypeDef* TIMx, TIM_OCInitTypeDef* TIM_OCInitStruct)
 908:../inc/STM32F4xx_StdPeriph_Driver/src/stm32f4xx_tim.c **** {
 26147              		.loc 1 908 0
 26148              		.cfi_startproc
 26149              		@ args = 0, pretend = 0, frame = 16
 26150              		@ frame_needed = 1, uses_anonymous_args = 0
 26151              		@ link register save eliminated.
 26152 0000 80B4     		push	{r7}
 26153              	.LCFI54:
 26154              		.cfi_def_cfa_offset 4
 26155 0002 85B0     		sub	sp, sp, #20
 26156              	.LCFI55:
 26157              		.cfi_def_cfa_offset 24
 26158 0004 00AF     		add	r7, sp, #0
 26159              		.cfi_offset 7, -4
 26160              	.LCFI56:
 26161              		.cfi_def_cfa_register 7
 26162 0006 7860     		str	r0, [r7, #4]
 26163 0008 3960     		str	r1, [r7, #0]
 909:../inc/STM32F4xx_StdPeriph_Driver/src/stm32f4xx_tim.c ****   uint16_t tmpccmrx = 0, tmpccer = 0, tmpcr2 = 0;
 26164              		.loc 1 909 0
 26165 000a 4FF00003 		mov	r3, #0
 26166 000e BB81     		strh	r3, [r7, #12]	@ movhi
 26167 0010 4FF00003 		mov	r3, #0
 26168 0014 7B81     		strh	r3, [r7, #10]	@ movhi
 26169 0016 4FF00003 		mov	r3, #0
 26170 001a FB81     		strh	r3, [r7, #14]	@ movhi
 910:../inc/STM32F4xx_StdPeriph_Driver/src/stm32f4xx_tim.c ****    
 911:../inc/STM32F4xx_StdPeriph_Driver/src/stm32f4xx_tim.c ****   /* Check the parameters */
 912:../inc/STM32F4xx_StdPeriph_Driver/src/stm32f4xx_tim.c ****   assert_param(IS_TIM_LIST3_PERIPH(TIMx)); 
 913:../inc/STM32F4xx_StdPeriph_Driver/src/stm32f4xx_tim.c ****   assert_param(IS_TIM_OC_MODE(TIM_OCInitStruct->TIM_OCMode));
 914:../inc/STM32F4xx_StdPeriph_Driver/src/stm32f4xx_tim.c ****   assert_param(IS_TIM_OUTPUT_STATE(TIM_OCInitStruct->TIM_OutputState));
 915:../inc/STM32F4xx_StdPeriph_Driver/src/stm32f4xx_tim.c ****   assert_param(IS_TIM_OC_POLARITY(TIM_OCInitStruct->TIM_OCPolarity));   
 916:../inc/STM32F4xx_StdPeriph_Driver/src/stm32f4xx_tim.c **** 
 917:../inc/STM32F4xx_StdPeriph_Driver/src/stm32f4xx_tim.c ****   /* Disable the Channel 4: Reset the CC4E Bit */
 918:../inc/STM32F4xx_StdPeriph_Driver/src/stm32f4xx_tim.c ****   TIMx->CCER &= (uint16_t)~TIM_CCER_CC4E;
 26171              		.loc 1 918 0
 26172 001c 7B68     		ldr	r3, [r7, #4]
 26173 001e 1B8C     		ldrh	r3, [r3, #32]	@ movhi
 26174 0020 9BB2     		uxth	r3, r3
 26175 0022 23F48053 		bic	r3, r3, #4096
 26176 0026 9AB2     		uxth	r2, r3
 26177 0028 7B68     		ldr	r3, [r7, #4]
 26178 002a 1A84     		strh	r2, [r3, #32]	@ movhi
 919:../inc/STM32F4xx_StdPeriph_Driver/src/stm32f4xx_tim.c ****   
 920:../inc/STM32F4xx_StdPeriph_Driver/src/stm32f4xx_tim.c ****   /* Get the TIMx CCER register value */
 921:../inc/STM32F4xx_StdPeriph_Driver/src/stm32f4xx_tim.c ****   tmpccer = TIMx->CCER;
 26179              		.loc 1 921 0
 26180 002c 7B68     		ldr	r3, [r7, #4]
 26181 002e 1B8C     		ldrh	r3, [r3, #32]	@ movhi
 26182 0030 7B81     		strh	r3, [r7, #10]	@ movhi
 922:../inc/STM32F4xx_StdPeriph_Driver/src/stm32f4xx_tim.c ****   /* Get the TIMx CR2 register value */
 923:../inc/STM32F4xx_StdPeriph_Driver/src/stm32f4xx_tim.c ****   tmpcr2 =  TIMx->CR2;
 26183              		.loc 1 923 0
 26184 0032 7B68     		ldr	r3, [r7, #4]
 26185 0034 9B88     		ldrh	r3, [r3, #4]	@ movhi
 26186 0036 FB81     		strh	r3, [r7, #14]	@ movhi
 924:../inc/STM32F4xx_StdPeriph_Driver/src/stm32f4xx_tim.c ****   
 925:../inc/STM32F4xx_StdPeriph_Driver/src/stm32f4xx_tim.c ****   /* Get the TIMx CCMR2 register value */
 926:../inc/STM32F4xx_StdPeriph_Driver/src/stm32f4xx_tim.c ****   tmpccmrx = TIMx->CCMR2;
 26187              		.loc 1 926 0
 26188 0038 7B68     		ldr	r3, [r7, #4]
 26189 003a 9B8B     		ldrh	r3, [r3, #28]	@ movhi
 26190 003c BB81     		strh	r3, [r7, #12]	@ movhi
 927:../inc/STM32F4xx_StdPeriph_Driver/src/stm32f4xx_tim.c ****     
 928:../inc/STM32F4xx_StdPeriph_Driver/src/stm32f4xx_tim.c ****   /* Reset the Output Compare mode and Capture/Compare selection Bits */
 929:../inc/STM32F4xx_StdPeriph_Driver/src/stm32f4xx_tim.c ****   tmpccmrx &= (uint16_t)~TIM_CCMR2_OC4M;
 26191              		.loc 1 929 0
 26192 003e BB89     		ldrh	r3, [r7, #12]	@ movhi
 26193 0040 23F4E043 		bic	r3, r3, #28672
 26194 0044 BB81     		strh	r3, [r7, #12]	@ movhi
 930:../inc/STM32F4xx_StdPeriph_Driver/src/stm32f4xx_tim.c ****   tmpccmrx &= (uint16_t)~TIM_CCMR2_CC4S;
 26195              		.loc 1 930 0
 26196 0046 BB89     		ldrh	r3, [r7, #12]	@ movhi
 26197 0048 23F44073 		bic	r3, r3, #768
 26198 004c BB81     		strh	r3, [r7, #12]	@ movhi
 931:../inc/STM32F4xx_StdPeriph_Driver/src/stm32f4xx_tim.c ****   
 932:../inc/STM32F4xx_StdPeriph_Driver/src/stm32f4xx_tim.c ****   /* Select the Output Compare Mode */
 933:../inc/STM32F4xx_StdPeriph_Driver/src/stm32f4xx_tim.c ****   tmpccmrx |= (uint16_t)(TIM_OCInitStruct->TIM_OCMode << 8);
 26199              		.loc 1 933 0
 26200 004e 3B68     		ldr	r3, [r7, #0]
 26201 0050 1B88     		ldrh	r3, [r3, #0]
 26202 0052 4FEA0323 		lsl	r3, r3, #8
 26203 0056 9AB2     		uxth	r2, r3
 26204 0058 BB89     		ldrh	r3, [r7, #12]	@ movhi
 26205 005a 42EA0303 		orr	r3, r2, r3
 26206 005e BB81     		strh	r3, [r7, #12]	@ movhi
 934:../inc/STM32F4xx_StdPeriph_Driver/src/stm32f4xx_tim.c ****   
 935:../inc/STM32F4xx_StdPeriph_Driver/src/stm32f4xx_tim.c ****   /* Reset the Output Polarity level */
 936:../inc/STM32F4xx_StdPeriph_Driver/src/stm32f4xx_tim.c ****   tmpccer &= (uint16_t)~TIM_CCER_CC4P;
 26207              		.loc 1 936 0
 26208 0060 7B89     		ldrh	r3, [r7, #10]	@ movhi
 26209 0062 23F40053 		bic	r3, r3, #8192
 26210 0066 7B81     		strh	r3, [r7, #10]	@ movhi
 937:../inc/STM32F4xx_StdPeriph_Driver/src/stm32f4xx_tim.c ****   /* Set the Output Compare Polarity */
 938:../inc/STM32F4xx_StdPeriph_Driver/src/stm32f4xx_tim.c ****   tmpccer |= (uint16_t)(TIM_OCInitStruct->TIM_OCPolarity << 12);
 26211              		.loc 1 938 0
 26212 0068 3B68     		ldr	r3, [r7, #0]
 26213 006a 9B89     		ldrh	r3, [r3, #12]
 26214 006c 4FEA0333 		lsl	r3, r3, #12
 26215 0070 9AB2     		uxth	r2, r3
 26216 0072 7B89     		ldrh	r3, [r7, #10]	@ movhi
 26217 0074 42EA0303 		orr	r3, r2, r3
 26218 0078 7B81     		strh	r3, [r7, #10]	@ movhi
 939:../inc/STM32F4xx_StdPeriph_Driver/src/stm32f4xx_tim.c ****   
 940:../inc/STM32F4xx_StdPeriph_Driver/src/stm32f4xx_tim.c ****   /* Set the Output State */
 941:../inc/STM32F4xx_StdPeriph_Driver/src/stm32f4xx_tim.c ****   tmpccer |= (uint16_t)(TIM_OCInitStruct->TIM_OutputState << 12);
 26219              		.loc 1 941 0
 26220 007a 3B68     		ldr	r3, [r7, #0]
 26221 007c 5B88     		ldrh	r3, [r3, #2]
 26222 007e 4FEA0333 		lsl	r3, r3, #12
 26223 0082 9AB2     		uxth	r2, r3
 26224 0084 7B89     		ldrh	r3, [r7, #10]	@ movhi
 26225 0086 42EA0303 		orr	r3, r2, r3
 26226 008a 7B81     		strh	r3, [r7, #10]	@ movhi
 942:../inc/STM32F4xx_StdPeriph_Driver/src/stm32f4xx_tim.c ****   
 943:../inc/STM32F4xx_StdPeriph_Driver/src/stm32f4xx_tim.c ****   if((TIMx == TIM1) || (TIMx == TIM8))
 26227              		.loc 1 943 0
 26228 008c 7A68     		ldr	r2, [r7, #4]
 26229 008e 134B     		ldr	r3, .L65
 26230 0090 9A42     		cmp	r2, r3
 26231 0092 03D0     		beq	.L63
 26232              		.loc 1 943 0 is_stmt 0 discriminator 1
 26233 0094 7A68     		ldr	r2, [r7, #4]
 26234 0096 124B     		ldr	r3, .L65+4
 26235 0098 9A42     		cmp	r2, r3
 26236 009a 0CD1     		bne	.L64
 26237              	.L63:
 944:../inc/STM32F4xx_StdPeriph_Driver/src/stm32f4xx_tim.c ****   {
 945:../inc/STM32F4xx_StdPeriph_Driver/src/stm32f4xx_tim.c ****     assert_param(IS_TIM_OCIDLE_STATE(TIM_OCInitStruct->TIM_OCIdleState));
 946:../inc/STM32F4xx_StdPeriph_Driver/src/stm32f4xx_tim.c ****     /* Reset the Output Compare IDLE State */
 947:../inc/STM32F4xx_StdPeriph_Driver/src/stm32f4xx_tim.c ****     tmpcr2 &=(uint16_t) ~TIM_CR2_OIS4;
 26238              		.loc 1 947 0 is_stmt 1
 26239 009c FB89     		ldrh	r3, [r7, #14]	@ movhi
 26240 009e 23F48043 		bic	r3, r3, #16384
 26241 00a2 FB81     		strh	r3, [r7, #14]	@ movhi
 948:../inc/STM32F4xx_StdPeriph_Driver/src/stm32f4xx_tim.c ****     /* Set the Output Idle state */
 949:../inc/STM32F4xx_StdPeriph_Driver/src/stm32f4xx_tim.c ****     tmpcr2 |= (uint16_t)(TIM_OCInitStruct->TIM_OCIdleState << 6);
 26242              		.loc 1 949 0
 26243 00a4 3B68     		ldr	r3, [r7, #0]
 26244 00a6 1B8A     		ldrh	r3, [r3, #16]
 26245 00a8 4FEA8313 		lsl	r3, r3, #6
 26246 00ac 9AB2     		uxth	r2, r3
 26247 00ae FB89     		ldrh	r3, [r7, #14]	@ movhi
 26248 00b0 42EA0303 		orr	r3, r2, r3
 26249 00b4 FB81     		strh	r3, [r7, #14]	@ movhi
 26250              	.L64:
 950:../inc/STM32F4xx_StdPeriph_Driver/src/stm32f4xx_tim.c ****   }
 951:../inc/STM32F4xx_StdPeriph_Driver/src/stm32f4xx_tim.c ****   /* Write to TIMx CR2 */
 952:../inc/STM32F4xx_StdPeriph_Driver/src/stm32f4xx_tim.c ****   TIMx->CR2 = tmpcr2;
 26251              		.loc 1 952 0
 26252 00b6 7B68     		ldr	r3, [r7, #4]
 26253 00b8 FA89     		ldrh	r2, [r7, #14]	@ movhi
 26254 00ba 9A80     		strh	r2, [r3, #4]	@ movhi
 953:../inc/STM32F4xx_StdPeriph_Driver/src/stm32f4xx_tim.c ****   
 954:../inc/STM32F4xx_StdPeriph_Driver/src/stm32f4xx_tim.c ****   /* Write to TIMx CCMR2 */  
 955:../inc/STM32F4xx_StdPeriph_Driver/src/stm32f4xx_tim.c ****   TIMx->CCMR2 = tmpccmrx;
 26255              		.loc 1 955 0
 26256 00bc 7B68     		ldr	r3, [r7, #4]
 26257 00be BA89     		ldrh	r2, [r7, #12]	@ movhi
 26258 00c0 9A83     		strh	r2, [r3, #28]	@ movhi
 956:../inc/STM32F4xx_StdPeriph_Driver/src/stm32f4xx_tim.c ****     
 957:../inc/STM32F4xx_StdPeriph_Driver/src/stm32f4xx_tim.c ****   /* Set the Capture Compare Register value */
 958:../inc/STM32F4xx_StdPeriph_Driver/src/stm32f4xx_tim.c ****   TIMx->CCR4 = TIM_OCInitStruct->TIM_Pulse;
 26259              		.loc 1 958 0
 26260 00c2 3B68     		ldr	r3, [r7, #0]
 26261 00c4 9A68     		ldr	r2, [r3, #8]
 26262 00c6 7B68     		ldr	r3, [r7, #4]
 26263 00c8 1A64     		str	r2, [r3, #64]
 959:../inc/STM32F4xx_StdPeriph_Driver/src/stm32f4xx_tim.c ****   
 960:../inc/STM32F4xx_StdPeriph_Driver/src/stm32f4xx_tim.c ****   /* Write to TIMx CCER */
 961:../inc/STM32F4xx_StdPeriph_Driver/src/stm32f4xx_tim.c ****   TIMx->CCER = tmpccer;
 26264              		.loc 1 961 0
 26265 00ca 7B68     		ldr	r3, [r7, #4]
 26266 00cc 7A89     		ldrh	r2, [r7, #10]	@ movhi
 26267 00ce 1A84     		strh	r2, [r3, #32]	@ movhi
 962:../inc/STM32F4xx_StdPeriph_Driver/src/stm32f4xx_tim.c **** }
 26268              		.loc 1 962 0
 26269 00d0 07F11407 		add	r7, r7, #20
 26270 00d4 BD46     		mov	sp, r7
 26271 00d6 80BC     		pop	{r7}
 26272 00d8 7047     		bx	lr
 26273              	.L66:
 26274 00da 00BF     		.align	2
 26275              	.L65:
 26276 00dc 00000140 		.word	1073807360
 26277 00e0 00040140 		.word	1073808384
 26278              		.cfi_endproc
 26279              	.LFE128:
 26281              		.section	.text.TIM_OCStructInit,"ax",%progbits
 26282              		.align	2
 26283              		.global	TIM_OCStructInit
 26284              		.thumb
 26285              		.thumb_func
 26287              	TIM_OCStructInit:
 26288              	.LFB129:
 963:../inc/STM32F4xx_StdPeriph_Driver/src/stm32f4xx_tim.c **** 
 964:../inc/STM32F4xx_StdPeriph_Driver/src/stm32f4xx_tim.c **** /**
 965:../inc/STM32F4xx_StdPeriph_Driver/src/stm32f4xx_tim.c ****   * @brief  Fills each TIM_OCInitStruct member with its default value.
 966:../inc/STM32F4xx_StdPeriph_Driver/src/stm32f4xx_tim.c ****   * @param  TIM_OCInitStruct: pointer to a TIM_OCInitTypeDef structure which will
 967:../inc/STM32F4xx_StdPeriph_Driver/src/stm32f4xx_tim.c ****   *         be initialized.
 968:../inc/STM32F4xx_StdPeriph_Driver/src/stm32f4xx_tim.c ****   * @retval None
 969:../inc/STM32F4xx_StdPeriph_Driver/src/stm32f4xx_tim.c ****   */
 970:../inc/STM32F4xx_StdPeriph_Driver/src/stm32f4xx_tim.c **** void TIM_OCStructInit(TIM_OCInitTypeDef* TIM_OCInitStruct)
 971:../inc/STM32F4xx_StdPeriph_Driver/src/stm32f4xx_tim.c **** {
 26289              		.loc 1 971 0
 26290              		.cfi_startproc
 26291              		@ args = 0, pretend = 0, frame = 8
 26292              		@ frame_needed = 1, uses_anonymous_args = 0
 26293              		@ link register save eliminated.
 26294 0000 80B4     		push	{r7}
 26295              	.LCFI57:
 26296              		.cfi_def_cfa_offset 4
 26297 0002 83B0     		sub	sp, sp, #12
 26298              	.LCFI58:
 26299              		.cfi_def_cfa_offset 16
 26300 0004 00AF     		add	r7, sp, #0
 26301              		.cfi_offset 7, -4
 26302              	.LCFI59:
 26303              		.cfi_def_cfa_register 7
 26304 0006 7860     		str	r0, [r7, #4]
 972:../inc/STM32F4xx_StdPeriph_Driver/src/stm32f4xx_tim.c ****   /* Set the default configuration */
 973:../inc/STM32F4xx_StdPeriph_Driver/src/stm32f4xx_tim.c ****   TIM_OCInitStruct->TIM_OCMode = TIM_OCMode_Timing;
 26305              		.loc 1 973 0
 26306 0008 7B68     		ldr	r3, [r7, #4]
 26307 000a 4FF00002 		mov	r2, #0
 26308 000e 1A80     		strh	r2, [r3, #0]	@ movhi
 974:../inc/STM32F4xx_StdPeriph_Driver/src/stm32f4xx_tim.c ****   TIM_OCInitStruct->TIM_OutputState = TIM_OutputState_Disable;
 26309              		.loc 1 974 0
 26310 0010 7B68     		ldr	r3, [r7, #4]
 26311 0012 4FF00002 		mov	r2, #0
 26312 0016 5A80     		strh	r2, [r3, #2]	@ movhi
 975:../inc/STM32F4xx_StdPeriph_Driver/src/stm32f4xx_tim.c ****   TIM_OCInitStruct->TIM_OutputNState = TIM_OutputNState_Disable;
 26313              		.loc 1 975 0
 26314 0018 7B68     		ldr	r3, [r7, #4]
 26315 001a 4FF00002 		mov	r2, #0
 26316 001e 9A80     		strh	r2, [r3, #4]	@ movhi
 976:../inc/STM32F4xx_StdPeriph_Driver/src/stm32f4xx_tim.c ****   TIM_OCInitStruct->TIM_Pulse = 0x00000000;
 26317              		.loc 1 976 0
 26318 0020 7B68     		ldr	r3, [r7, #4]
 26319 0022 4FF00002 		mov	r2, #0
 26320 0026 9A60     		str	r2, [r3, #8]
 977:../inc/STM32F4xx_StdPeriph_Driver/src/stm32f4xx_tim.c ****   TIM_OCInitStruct->TIM_OCPolarity = TIM_OCPolarity_High;
 26321              		.loc 1 977 0
 26322 0028 7B68     		ldr	r3, [r7, #4]
 26323 002a 4FF00002 		mov	r2, #0
 26324 002e 9A81     		strh	r2, [r3, #12]	@ movhi
 978:../inc/STM32F4xx_StdPeriph_Driver/src/stm32f4xx_tim.c ****   TIM_OCInitStruct->TIM_OCNPolarity = TIM_OCPolarity_High;
 26325              		.loc 1 978 0
 26326 0030 7B68     		ldr	r3, [r7, #4]
 26327 0032 4FF00002 		mov	r2, #0
 26328 0036 DA81     		strh	r2, [r3, #14]	@ movhi
 979:../inc/STM32F4xx_StdPeriph_Driver/src/stm32f4xx_tim.c ****   TIM_OCInitStruct->TIM_OCIdleState = TIM_OCIdleState_Reset;
 26329              		.loc 1 979 0
 26330 0038 7B68     		ldr	r3, [r7, #4]
 26331 003a 4FF00002 		mov	r2, #0
 26332 003e 1A82     		strh	r2, [r3, #16]	@ movhi
 980:../inc/STM32F4xx_StdPeriph_Driver/src/stm32f4xx_tim.c ****   TIM_OCInitStruct->TIM_OCNIdleState = TIM_OCNIdleState_Reset;
 26333              		.loc 1 980 0
 26334 0040 7B68     		ldr	r3, [r7, #4]
 26335 0042 4FF00002 		mov	r2, #0
 26336 0046 5A82     		strh	r2, [r3, #18]	@ movhi
 981:../inc/STM32F4xx_StdPeriph_Driver/src/stm32f4xx_tim.c **** }
 26337              		.loc 1 981 0
 26338 0048 07F10C07 		add	r7, r7, #12
 26339 004c BD46     		mov	sp, r7
 26340 004e 80BC     		pop	{r7}
 26341 0050 7047     		bx	lr
 26342              		.cfi_endproc
 26343              	.LFE129:
 26345 0052 00BF     		.section	.text.TIM_SelectOCxM,"ax",%progbits
 26346              		.align	2
 26347              		.global	TIM_SelectOCxM
 26348              		.thumb
 26349              		.thumb_func
 26351              	TIM_SelectOCxM:
 26352              	.LFB130:
 982:../inc/STM32F4xx_StdPeriph_Driver/src/stm32f4xx_tim.c **** 
 983:../inc/STM32F4xx_StdPeriph_Driver/src/stm32f4xx_tim.c **** /**
 984:../inc/STM32F4xx_StdPeriph_Driver/src/stm32f4xx_tim.c ****   * @brief  Selects the TIM Output Compare Mode.
 985:../inc/STM32F4xx_StdPeriph_Driver/src/stm32f4xx_tim.c ****   * @note   This function disables the selected channel before changing the Output
 986:../inc/STM32F4xx_StdPeriph_Driver/src/stm32f4xx_tim.c ****   *         Compare Mode. If needed, user has to enable this channel using
 987:../inc/STM32F4xx_StdPeriph_Driver/src/stm32f4xx_tim.c ****   *         TIM_CCxCmd() and TIM_CCxNCmd() functions.
 988:../inc/STM32F4xx_StdPeriph_Driver/src/stm32f4xx_tim.c ****   * @param  TIMx: where x can be 1 to 14 except 6 and 7, to select the TIM peripheral.
 989:../inc/STM32F4xx_StdPeriph_Driver/src/stm32f4xx_tim.c ****   * @param  TIM_Channel: specifies the TIM Channel
 990:../inc/STM32F4xx_StdPeriph_Driver/src/stm32f4xx_tim.c ****   *          This parameter can be one of the following values:
 991:../inc/STM32F4xx_StdPeriph_Driver/src/stm32f4xx_tim.c ****   *            @arg TIM_Channel_1: TIM Channel 1
 992:../inc/STM32F4xx_StdPeriph_Driver/src/stm32f4xx_tim.c ****   *            @arg TIM_Channel_2: TIM Channel 2
 993:../inc/STM32F4xx_StdPeriph_Driver/src/stm32f4xx_tim.c ****   *            @arg TIM_Channel_3: TIM Channel 3
 994:../inc/STM32F4xx_StdPeriph_Driver/src/stm32f4xx_tim.c ****   *            @arg TIM_Channel_4: TIM Channel 4
 995:../inc/STM32F4xx_StdPeriph_Driver/src/stm32f4xx_tim.c ****   * @param  TIM_OCMode: specifies the TIM Output Compare Mode.
 996:../inc/STM32F4xx_StdPeriph_Driver/src/stm32f4xx_tim.c ****   *           This parameter can be one of the following values:
 997:../inc/STM32F4xx_StdPeriph_Driver/src/stm32f4xx_tim.c ****   *            @arg TIM_OCMode_Timing
 998:../inc/STM32F4xx_StdPeriph_Driver/src/stm32f4xx_tim.c ****   *            @arg TIM_OCMode_Active
 999:../inc/STM32F4xx_StdPeriph_Driver/src/stm32f4xx_tim.c ****   *            @arg TIM_OCMode_Toggle
1000:../inc/STM32F4xx_StdPeriph_Driver/src/stm32f4xx_tim.c ****   *            @arg TIM_OCMode_PWM1
1001:../inc/STM32F4xx_StdPeriph_Driver/src/stm32f4xx_tim.c ****   *            @arg TIM_OCMode_PWM2
1002:../inc/STM32F4xx_StdPeriph_Driver/src/stm32f4xx_tim.c ****   *            @arg TIM_ForcedAction_Active
1003:../inc/STM32F4xx_StdPeriph_Driver/src/stm32f4xx_tim.c ****   *            @arg TIM_ForcedAction_InActive
1004:../inc/STM32F4xx_StdPeriph_Driver/src/stm32f4xx_tim.c ****   * @retval None
1005:../inc/STM32F4xx_StdPeriph_Driver/src/stm32f4xx_tim.c ****   */
1006:../inc/STM32F4xx_StdPeriph_Driver/src/stm32f4xx_tim.c **** void TIM_SelectOCxM(TIM_TypeDef* TIMx, uint16_t TIM_Channel, uint16_t TIM_OCMode)
1007:../inc/STM32F4xx_StdPeriph_Driver/src/stm32f4xx_tim.c **** {
 26353              		.loc 1 1007 0
 26354              		.cfi_startproc
 26355              		@ args = 0, pretend = 0, frame = 16
 26356              		@ frame_needed = 1, uses_anonymous_args = 0
 26357              		@ link register save eliminated.
 26358 0000 80B4     		push	{r7}
 26359              	.LCFI60:
 26360              		.cfi_def_cfa_offset 4
 26361 0002 85B0     		sub	sp, sp, #20
 26362              	.LCFI61:
 26363              		.cfi_def_cfa_offset 24
 26364 0004 00AF     		add	r7, sp, #0
 26365              		.cfi_offset 7, -4
 26366              	.LCFI62:
 26367              		.cfi_def_cfa_register 7
 26368 0006 7860     		str	r0, [r7, #4]
 26369 0008 1346     		mov	r3, r2
 26370 000a 0A46     		mov	r2, r1	@ movhi
 26371 000c 7A80     		strh	r2, [r7, #2]	@ movhi
 26372 000e 3B80     		strh	r3, [r7, #0]	@ movhi
1008:../inc/STM32F4xx_StdPeriph_Driver/src/stm32f4xx_tim.c ****   uint32_t tmp = 0;
 26373              		.loc 1 1008 0
 26374 0010 4FF00003 		mov	r3, #0
 26375 0014 FB60     		str	r3, [r7, #12]
1009:../inc/STM32F4xx_StdPeriph_Driver/src/stm32f4xx_tim.c ****   uint16_t tmp1 = 0;
 26376              		.loc 1 1009 0
 26377 0016 4FF00003 		mov	r3, #0
 26378 001a 7B81     		strh	r3, [r7, #10]	@ movhi
1010:../inc/STM32F4xx_StdPeriph_Driver/src/stm32f4xx_tim.c **** 
1011:../inc/STM32F4xx_StdPeriph_Driver/src/stm32f4xx_tim.c ****   /* Check the parameters */
1012:../inc/STM32F4xx_StdPeriph_Driver/src/stm32f4xx_tim.c ****   assert_param(IS_TIM_LIST1_PERIPH(TIMx));
1013:../inc/STM32F4xx_StdPeriph_Driver/src/stm32f4xx_tim.c ****   assert_param(IS_TIM_CHANNEL(TIM_Channel));
1014:../inc/STM32F4xx_StdPeriph_Driver/src/stm32f4xx_tim.c ****   assert_param(IS_TIM_OCM(TIM_OCMode));
1015:../inc/STM32F4xx_StdPeriph_Driver/src/stm32f4xx_tim.c **** 
1016:../inc/STM32F4xx_StdPeriph_Driver/src/stm32f4xx_tim.c ****   tmp = (uint32_t) TIMx;
 26379              		.loc 1 1016 0
 26380 001c 7B68     		ldr	r3, [r7, #4]
 26381 001e FB60     		str	r3, [r7, #12]
1017:../inc/STM32F4xx_StdPeriph_Driver/src/stm32f4xx_tim.c ****   tmp += CCMR_OFFSET;
 26382              		.loc 1 1017 0
 26383 0020 FB68     		ldr	r3, [r7, #12]
 26384 0022 03F11803 		add	r3, r3, #24
 26385 0026 FB60     		str	r3, [r7, #12]
1018:../inc/STM32F4xx_StdPeriph_Driver/src/stm32f4xx_tim.c **** 
1019:../inc/STM32F4xx_StdPeriph_Driver/src/stm32f4xx_tim.c ****   tmp1 = CCER_CCE_SET << (uint16_t)TIM_Channel;
 26386              		.loc 1 1019 0
 26387 0028 7B88     		ldrh	r3, [r7, #2]
 26388 002a 4FF00102 		mov	r2, #1
 26389 002e 02FA03F3 		lsl	r3, r2, r3
 26390 0032 7B81     		strh	r3, [r7, #10]	@ movhi
1020:../inc/STM32F4xx_StdPeriph_Driver/src/stm32f4xx_tim.c **** 
1021:../inc/STM32F4xx_StdPeriph_Driver/src/stm32f4xx_tim.c ****   /* Disable the Channel: Reset the CCxE Bit */
1022:../inc/STM32F4xx_StdPeriph_Driver/src/stm32f4xx_tim.c ****   TIMx->CCER &= (uint16_t) ~tmp1;
 26391              		.loc 1 1022 0
 26392 0034 7B68     		ldr	r3, [r7, #4]
 26393 0036 1B8C     		ldrh	r3, [r3, #32]	@ movhi
 26394 0038 9AB2     		uxth	r2, r3
 26395 003a 7B89     		ldrh	r3, [r7, #10]	@ movhi
 26396 003c 6FEA0303 		mvn	r3, r3
 26397 0040 9BB2     		uxth	r3, r3
 26398 0042 02EA0303 		and	r3, r2, r3
 26399 0046 9AB2     		uxth	r2, r3
 26400 0048 7B68     		ldr	r3, [r7, #4]
 26401 004a 1A84     		strh	r2, [r3, #32]	@ movhi
1023:../inc/STM32F4xx_StdPeriph_Driver/src/stm32f4xx_tim.c **** 
1024:../inc/STM32F4xx_StdPeriph_Driver/src/stm32f4xx_tim.c ****   if((TIM_Channel == TIM_Channel_1) ||(TIM_Channel == TIM_Channel_3))
 26402              		.loc 1 1024 0
 26403 004c 7B88     		ldrh	r3, [r7, #2]
 26404 004e 002B     		cmp	r3, #0
 26405 0050 02D0     		beq	.L69
 26406              		.loc 1 1024 0 is_stmt 0 discriminator 1
 26407 0052 7B88     		ldrh	r3, [r7, #2]
 26408 0054 082B     		cmp	r3, #8
 26409 0056 16D1     		bne	.L70
 26410              	.L69:
1025:../inc/STM32F4xx_StdPeriph_Driver/src/stm32f4xx_tim.c ****   {
1026:../inc/STM32F4xx_StdPeriph_Driver/src/stm32f4xx_tim.c ****     tmp += (TIM_Channel>>1);
 26411              		.loc 1 1026 0 is_stmt 1
 26412 0058 7B88     		ldrh	r3, [r7, #2]
 26413 005a 4FEA5303 		lsr	r3, r3, #1
 26414 005e 9BB2     		uxth	r3, r3
 26415 0060 FA68     		ldr	r2, [r7, #12]
 26416 0062 D318     		adds	r3, r2, r3
 26417 0064 FB60     		str	r3, [r7, #12]
1027:../inc/STM32F4xx_StdPeriph_Driver/src/stm32f4xx_tim.c **** 
1028:../inc/STM32F4xx_StdPeriph_Driver/src/stm32f4xx_tim.c ****     /* Reset the OCxM bits in the CCMRx register */
1029:../inc/STM32F4xx_StdPeriph_Driver/src/stm32f4xx_tim.c ****     *(__IO uint32_t *) tmp &= CCMR_OC13M_MASK;
 26418              		.loc 1 1029 0
 26419 0066 FA68     		ldr	r2, [r7, #12]
 26420 0068 FB68     		ldr	r3, [r7, #12]
 26421 006a 1968     		ldr	r1, [r3, #0]
 26422 006c 4FF68F73 		movw	r3, #65423
 26423 0070 01EA0303 		and	r3, r1, r3
 26424 0074 1360     		str	r3, [r2, #0]
1030:../inc/STM32F4xx_StdPeriph_Driver/src/stm32f4xx_tim.c ****    
1031:../inc/STM32F4xx_StdPeriph_Driver/src/stm32f4xx_tim.c ****     /* Configure the OCxM bits in the CCMRx register */
1032:../inc/STM32F4xx_StdPeriph_Driver/src/stm32f4xx_tim.c ****     *(__IO uint32_t *) tmp |= TIM_OCMode;
 26425              		.loc 1 1032 0
 26426 0076 FB68     		ldr	r3, [r7, #12]
 26427 0078 FA68     		ldr	r2, [r7, #12]
 26428 007a 1168     		ldr	r1, [r2, #0]
 26429 007c 3A88     		ldrh	r2, [r7, #0]
 26430 007e 41EA0202 		orr	r2, r1, r2
 26431 0082 1A60     		str	r2, [r3, #0]
 26432 0084 1BE0     		b	.L68
 26433              	.L70:
1033:../inc/STM32F4xx_StdPeriph_Driver/src/stm32f4xx_tim.c ****   }
1034:../inc/STM32F4xx_StdPeriph_Driver/src/stm32f4xx_tim.c ****   else
1035:../inc/STM32F4xx_StdPeriph_Driver/src/stm32f4xx_tim.c ****   {
1036:../inc/STM32F4xx_StdPeriph_Driver/src/stm32f4xx_tim.c ****     tmp += (uint16_t)(TIM_Channel - (uint16_t)4)>> (uint16_t)1;
 26434              		.loc 1 1036 0
 26435 0086 7B88     		ldrh	r3, [r7, #2]	@ movhi
 26436 0088 A3F10403 		sub	r3, r3, #4
 26437 008c 9BB2     		uxth	r3, r3
 26438 008e 4FEA5303 		lsr	r3, r3, #1
 26439 0092 9BB2     		uxth	r3, r3
 26440 0094 FA68     		ldr	r2, [r7, #12]
 26441 0096 D318     		adds	r3, r2, r3
 26442 0098 FB60     		str	r3, [r7, #12]
1037:../inc/STM32F4xx_StdPeriph_Driver/src/stm32f4xx_tim.c **** 
1038:../inc/STM32F4xx_StdPeriph_Driver/src/stm32f4xx_tim.c ****     /* Reset the OCxM bits in the CCMRx register */
1039:../inc/STM32F4xx_StdPeriph_Driver/src/stm32f4xx_tim.c ****     *(__IO uint32_t *) tmp &= CCMR_OC24M_MASK;
 26443              		.loc 1 1039 0
 26444 009a FA68     		ldr	r2, [r7, #12]
 26445 009c FB68     		ldr	r3, [r7, #12]
 26446 009e 1968     		ldr	r1, [r3, #0]
 26447 00a0 48F6FF73 		movw	r3, #36863
 26448 00a4 01EA0303 		and	r3, r1, r3
 26449 00a8 1360     		str	r3, [r2, #0]
1040:../inc/STM32F4xx_StdPeriph_Driver/src/stm32f4xx_tim.c ****     
1041:../inc/STM32F4xx_StdPeriph_Driver/src/stm32f4xx_tim.c ****     /* Configure the OCxM bits in the CCMRx register */
1042:../inc/STM32F4xx_StdPeriph_Driver/src/stm32f4xx_tim.c ****     *(__IO uint32_t *) tmp |= (uint16_t)(TIM_OCMode << 8);
 26450              		.loc 1 1042 0
 26451 00aa FB68     		ldr	r3, [r7, #12]
 26452 00ac FA68     		ldr	r2, [r7, #12]
 26453 00ae 1168     		ldr	r1, [r2, #0]
 26454 00b0 3A88     		ldrh	r2, [r7, #0]	@ movhi
 26455 00b2 4FEA0222 		lsl	r2, r2, #8
 26456 00b6 92B2     		uxth	r2, r2
 26457 00b8 41EA0202 		orr	r2, r1, r2
 26458 00bc 1A60     		str	r2, [r3, #0]
 26459              	.L68:
1043:../inc/STM32F4xx_StdPeriph_Driver/src/stm32f4xx_tim.c ****   }
1044:../inc/STM32F4xx_StdPeriph_Driver/src/stm32f4xx_tim.c **** }
 26460              		.loc 1 1044 0
 26461 00be 07F11407 		add	r7, r7, #20
 26462 00c2 BD46     		mov	sp, r7
 26463 00c4 80BC     		pop	{r7}
 26464 00c6 7047     		bx	lr
 26465              		.cfi_endproc
 26466              	.LFE130:
 26468              		.section	.text.TIM_SetCompare1,"ax",%progbits
 26469              		.align	2
 26470              		.global	TIM_SetCompare1
 26471              		.thumb
 26472              		.thumb_func
 26474              	TIM_SetCompare1:
 26475              	.LFB131:
1045:../inc/STM32F4xx_StdPeriph_Driver/src/stm32f4xx_tim.c **** 
1046:../inc/STM32F4xx_StdPeriph_Driver/src/stm32f4xx_tim.c **** /**
1047:../inc/STM32F4xx_StdPeriph_Driver/src/stm32f4xx_tim.c ****   * @brief  Sets the TIMx Capture Compare1 Register value
1048:../inc/STM32F4xx_StdPeriph_Driver/src/stm32f4xx_tim.c ****   * @param  TIMx: where x can be 1 to 14 except 6 and 7, to select the TIM peripheral.
1049:../inc/STM32F4xx_StdPeriph_Driver/src/stm32f4xx_tim.c ****   * @param  Compare1: specifies the Capture Compare1 register new value.
1050:../inc/STM32F4xx_StdPeriph_Driver/src/stm32f4xx_tim.c ****   * @retval None
1051:../inc/STM32F4xx_StdPeriph_Driver/src/stm32f4xx_tim.c ****   */
1052:../inc/STM32F4xx_StdPeriph_Driver/src/stm32f4xx_tim.c **** void TIM_SetCompare1(TIM_TypeDef* TIMx, uint32_t Compare1)
1053:../inc/STM32F4xx_StdPeriph_Driver/src/stm32f4xx_tim.c **** {
 26476              		.loc 1 1053 0
 26477              		.cfi_startproc
 26478              		@ args = 0, pretend = 0, frame = 8
 26479              		@ frame_needed = 1, uses_anonymous_args = 0
 26480              		@ link register save eliminated.
 26481 0000 80B4     		push	{r7}
 26482              	.LCFI63:
 26483              		.cfi_def_cfa_offset 4
 26484 0002 83B0     		sub	sp, sp, #12
 26485              	.LCFI64:
 26486              		.cfi_def_cfa_offset 16
 26487 0004 00AF     		add	r7, sp, #0
 26488              		.cfi_offset 7, -4
 26489              	.LCFI65:
 26490              		.cfi_def_cfa_register 7
 26491 0006 7860     		str	r0, [r7, #4]
 26492 0008 3960     		str	r1, [r7, #0]
1054:../inc/STM32F4xx_StdPeriph_Driver/src/stm32f4xx_tim.c ****   /* Check the parameters */
1055:../inc/STM32F4xx_StdPeriph_Driver/src/stm32f4xx_tim.c ****   assert_param(IS_TIM_LIST1_PERIPH(TIMx));
1056:../inc/STM32F4xx_StdPeriph_Driver/src/stm32f4xx_tim.c **** 
1057:../inc/STM32F4xx_StdPeriph_Driver/src/stm32f4xx_tim.c ****   /* Set the Capture Compare1 Register value */
1058:../inc/STM32F4xx_StdPeriph_Driver/src/stm32f4xx_tim.c ****   TIMx->CCR1 = Compare1;
 26493              		.loc 1 1058 0
 26494 000a 7B68     		ldr	r3, [r7, #4]
 26495 000c 3A68     		ldr	r2, [r7, #0]
 26496 000e 5A63     		str	r2, [r3, #52]
1059:../inc/STM32F4xx_StdPeriph_Driver/src/stm32f4xx_tim.c **** }
 26497              		.loc 1 1059 0
 26498 0010 07F10C07 		add	r7, r7, #12
 26499 0014 BD46     		mov	sp, r7
 26500 0016 80BC     		pop	{r7}
 26501 0018 7047     		bx	lr
 26502              		.cfi_endproc
 26503              	.LFE131:
 26505 001a 00BF     		.section	.text.TIM_SetCompare2,"ax",%progbits
 26506              		.align	2
 26507              		.global	TIM_SetCompare2
 26508              		.thumb
 26509              		.thumb_func
 26511              	TIM_SetCompare2:
 26512              	.LFB132:
1060:../inc/STM32F4xx_StdPeriph_Driver/src/stm32f4xx_tim.c **** 
1061:../inc/STM32F4xx_StdPeriph_Driver/src/stm32f4xx_tim.c **** /**
1062:../inc/STM32F4xx_StdPeriph_Driver/src/stm32f4xx_tim.c ****   * @brief  Sets the TIMx Capture Compare2 Register value
1063:../inc/STM32F4xx_StdPeriph_Driver/src/stm32f4xx_tim.c ****   * @param  TIMx: where x can be 1, 2, 3, 4, 5, 8, 9 or 12 to select the TIM 
1064:../inc/STM32F4xx_StdPeriph_Driver/src/stm32f4xx_tim.c ****   *         peripheral.
1065:../inc/STM32F4xx_StdPeriph_Driver/src/stm32f4xx_tim.c ****   * @param  Compare2: specifies the Capture Compare2 register new value.
1066:../inc/STM32F4xx_StdPeriph_Driver/src/stm32f4xx_tim.c ****   * @retval None
1067:../inc/STM32F4xx_StdPeriph_Driver/src/stm32f4xx_tim.c ****   */
1068:../inc/STM32F4xx_StdPeriph_Driver/src/stm32f4xx_tim.c **** void TIM_SetCompare2(TIM_TypeDef* TIMx, uint32_t Compare2)
1069:../inc/STM32F4xx_StdPeriph_Driver/src/stm32f4xx_tim.c **** {
 26513              		.loc 1 1069 0
 26514              		.cfi_startproc
 26515              		@ args = 0, pretend = 0, frame = 8
 26516              		@ frame_needed = 1, uses_anonymous_args = 0
 26517              		@ link register save eliminated.
 26518 0000 80B4     		push	{r7}
 26519              	.LCFI66:
 26520              		.cfi_def_cfa_offset 4
 26521 0002 83B0     		sub	sp, sp, #12
 26522              	.LCFI67:
 26523              		.cfi_def_cfa_offset 16
 26524 0004 00AF     		add	r7, sp, #0
 26525              		.cfi_offset 7, -4
 26526              	.LCFI68:
 26527              		.cfi_def_cfa_register 7
 26528 0006 7860     		str	r0, [r7, #4]
 26529 0008 3960     		str	r1, [r7, #0]
1070:../inc/STM32F4xx_StdPeriph_Driver/src/stm32f4xx_tim.c ****   /* Check the parameters */
1071:../inc/STM32F4xx_StdPeriph_Driver/src/stm32f4xx_tim.c ****   assert_param(IS_TIM_LIST2_PERIPH(TIMx));
1072:../inc/STM32F4xx_StdPeriph_Driver/src/stm32f4xx_tim.c **** 
1073:../inc/STM32F4xx_StdPeriph_Driver/src/stm32f4xx_tim.c ****   /* Set the Capture Compare2 Register value */
1074:../inc/STM32F4xx_StdPeriph_Driver/src/stm32f4xx_tim.c ****   TIMx->CCR2 = Compare2;
 26530              		.loc 1 1074 0
 26531 000a 7B68     		ldr	r3, [r7, #4]
 26532 000c 3A68     		ldr	r2, [r7, #0]
 26533 000e 9A63     		str	r2, [r3, #56]
1075:../inc/STM32F4xx_StdPeriph_Driver/src/stm32f4xx_tim.c **** }
 26534              		.loc 1 1075 0
 26535 0010 07F10C07 		add	r7, r7, #12
 26536 0014 BD46     		mov	sp, r7
 26537 0016 80BC     		pop	{r7}
 26538 0018 7047     		bx	lr
 26539              		.cfi_endproc
 26540              	.LFE132:
 26542 001a 00BF     		.section	.text.TIM_SetCompare3,"ax",%progbits
 26543              		.align	2
 26544              		.global	TIM_SetCompare3
 26545              		.thumb
 26546              		.thumb_func
 26548              	TIM_SetCompare3:
 26549              	.LFB133:
1076:../inc/STM32F4xx_StdPeriph_Driver/src/stm32f4xx_tim.c **** 
1077:../inc/STM32F4xx_StdPeriph_Driver/src/stm32f4xx_tim.c **** /**
1078:../inc/STM32F4xx_StdPeriph_Driver/src/stm32f4xx_tim.c ****   * @brief  Sets the TIMx Capture Compare3 Register value
1079:../inc/STM32F4xx_StdPeriph_Driver/src/stm32f4xx_tim.c ****   * @param  TIMx: where x can be 1, 2, 3, 4, 5 or 8 to select the TIM peripheral.
1080:../inc/STM32F4xx_StdPeriph_Driver/src/stm32f4xx_tim.c ****   * @param  Compare3: specifies the Capture Compare3 register new value.
1081:../inc/STM32F4xx_StdPeriph_Driver/src/stm32f4xx_tim.c ****   * @retval None
1082:../inc/STM32F4xx_StdPeriph_Driver/src/stm32f4xx_tim.c ****   */
1083:../inc/STM32F4xx_StdPeriph_Driver/src/stm32f4xx_tim.c **** void TIM_SetCompare3(TIM_TypeDef* TIMx, uint32_t Compare3)
1084:../inc/STM32F4xx_StdPeriph_Driver/src/stm32f4xx_tim.c **** {
 26550              		.loc 1 1084 0
 26551              		.cfi_startproc
 26552              		@ args = 0, pretend = 0, frame = 8
 26553              		@ frame_needed = 1, uses_anonymous_args = 0
 26554              		@ link register save eliminated.
 26555 0000 80B4     		push	{r7}
 26556              	.LCFI69:
 26557              		.cfi_def_cfa_offset 4
 26558 0002 83B0     		sub	sp, sp, #12
 26559              	.LCFI70:
 26560              		.cfi_def_cfa_offset 16
 26561 0004 00AF     		add	r7, sp, #0
 26562              		.cfi_offset 7, -4
 26563              	.LCFI71:
 26564              		.cfi_def_cfa_register 7
 26565 0006 7860     		str	r0, [r7, #4]
 26566 0008 3960     		str	r1, [r7, #0]
1085:../inc/STM32F4xx_StdPeriph_Driver/src/stm32f4xx_tim.c ****   /* Check the parameters */
1086:../inc/STM32F4xx_StdPeriph_Driver/src/stm32f4xx_tim.c ****   assert_param(IS_TIM_LIST3_PERIPH(TIMx));
1087:../inc/STM32F4xx_StdPeriph_Driver/src/stm32f4xx_tim.c **** 
1088:../inc/STM32F4xx_StdPeriph_Driver/src/stm32f4xx_tim.c ****   /* Set the Capture Compare3 Register value */
1089:../inc/STM32F4xx_StdPeriph_Driver/src/stm32f4xx_tim.c ****   TIMx->CCR3 = Compare3;
 26567              		.loc 1 1089 0
 26568 000a 7B68     		ldr	r3, [r7, #4]
 26569 000c 3A68     		ldr	r2, [r7, #0]
 26570 000e DA63     		str	r2, [r3, #60]
1090:../inc/STM32F4xx_StdPeriph_Driver/src/stm32f4xx_tim.c **** }
 26571              		.loc 1 1090 0
 26572 0010 07F10C07 		add	r7, r7, #12
 26573 0014 BD46     		mov	sp, r7
 26574 0016 80BC     		pop	{r7}
 26575 0018 7047     		bx	lr
 26576              		.cfi_endproc
 26577              	.LFE133:
 26579 001a 00BF     		.section	.text.TIM_SetCompare4,"ax",%progbits
 26580              		.align	2
 26581              		.global	TIM_SetCompare4
 26582              		.thumb
 26583              		.thumb_func
 26585              	TIM_SetCompare4:
 26586              	.LFB134:
1091:../inc/STM32F4xx_StdPeriph_Driver/src/stm32f4xx_tim.c **** 
1092:../inc/STM32F4xx_StdPeriph_Driver/src/stm32f4xx_tim.c **** /**
1093:../inc/STM32F4xx_StdPeriph_Driver/src/stm32f4xx_tim.c ****   * @brief  Sets the TIMx Capture Compare4 Register value
1094:../inc/STM32F4xx_StdPeriph_Driver/src/stm32f4xx_tim.c ****   * @param  TIMx: where x can be 1, 2, 3, 4, 5 or 8 to select the TIM peripheral.
1095:../inc/STM32F4xx_StdPeriph_Driver/src/stm32f4xx_tim.c ****   * @param  Compare4: specifies the Capture Compare4 register new value.
1096:../inc/STM32F4xx_StdPeriph_Driver/src/stm32f4xx_tim.c ****   * @retval None
1097:../inc/STM32F4xx_StdPeriph_Driver/src/stm32f4xx_tim.c ****   */
1098:../inc/STM32F4xx_StdPeriph_Driver/src/stm32f4xx_tim.c **** void TIM_SetCompare4(TIM_TypeDef* TIMx, uint32_t Compare4)
1099:../inc/STM32F4xx_StdPeriph_Driver/src/stm32f4xx_tim.c **** {
 26587              		.loc 1 1099 0
 26588              		.cfi_startproc
 26589              		@ args = 0, pretend = 0, frame = 8
 26590              		@ frame_needed = 1, uses_anonymous_args = 0
 26591              		@ link register save eliminated.
 26592 0000 80B4     		push	{r7}
 26593              	.LCFI72:
 26594              		.cfi_def_cfa_offset 4
 26595 0002 83B0     		sub	sp, sp, #12
 26596              	.LCFI73:
 26597              		.cfi_def_cfa_offset 16
 26598 0004 00AF     		add	r7, sp, #0
 26599              		.cfi_offset 7, -4
 26600              	.LCFI74:
 26601              		.cfi_def_cfa_register 7
 26602 0006 7860     		str	r0, [r7, #4]
 26603 0008 3960     		str	r1, [r7, #0]
1100:../inc/STM32F4xx_StdPeriph_Driver/src/stm32f4xx_tim.c ****   /* Check the parameters */
1101:../inc/STM32F4xx_StdPeriph_Driver/src/stm32f4xx_tim.c ****   assert_param(IS_TIM_LIST3_PERIPH(TIMx));
1102:../inc/STM32F4xx_StdPeriph_Driver/src/stm32f4xx_tim.c **** 
1103:../inc/STM32F4xx_StdPeriph_Driver/src/stm32f4xx_tim.c ****   /* Set the Capture Compare4 Register value */
1104:../inc/STM32F4xx_StdPeriph_Driver/src/stm32f4xx_tim.c ****   TIMx->CCR4 = Compare4;
 26604              		.loc 1 1104 0
 26605 000a 7B68     		ldr	r3, [r7, #4]
 26606 000c 3A68     		ldr	r2, [r7, #0]
 26607 000e 1A64     		str	r2, [r3, #64]
1105:../inc/STM32F4xx_StdPeriph_Driver/src/stm32f4xx_tim.c **** }
 26608              		.loc 1 1105 0
 26609 0010 07F10C07 		add	r7, r7, #12
 26610 0014 BD46     		mov	sp, r7
 26611 0016 80BC     		pop	{r7}
 26612 0018 7047     		bx	lr
 26613              		.cfi_endproc
 26614              	.LFE134:
 26616 001a 00BF     		.section	.text.TIM_ForcedOC1Config,"ax",%progbits
 26617              		.align	2
 26618              		.global	TIM_ForcedOC1Config
 26619              		.thumb
 26620              		.thumb_func
 26622              	TIM_ForcedOC1Config:
 26623              	.LFB135:
1106:../inc/STM32F4xx_StdPeriph_Driver/src/stm32f4xx_tim.c **** 
1107:../inc/STM32F4xx_StdPeriph_Driver/src/stm32f4xx_tim.c **** /**
1108:../inc/STM32F4xx_StdPeriph_Driver/src/stm32f4xx_tim.c ****   * @brief  Forces the TIMx output 1 waveform to active or inactive level.
1109:../inc/STM32F4xx_StdPeriph_Driver/src/stm32f4xx_tim.c ****   * @param  TIMx: where x can be 1 to 14 except 6 and 7, to select the TIM peripheral.
1110:../inc/STM32F4xx_StdPeriph_Driver/src/stm32f4xx_tim.c ****   * @param  TIM_ForcedAction: specifies the forced Action to be set to the output waveform.
1111:../inc/STM32F4xx_StdPeriph_Driver/src/stm32f4xx_tim.c ****   *          This parameter can be one of the following values:
1112:../inc/STM32F4xx_StdPeriph_Driver/src/stm32f4xx_tim.c ****   *            @arg TIM_ForcedAction_Active: Force active level on OC1REF
1113:../inc/STM32F4xx_StdPeriph_Driver/src/stm32f4xx_tim.c ****   *            @arg TIM_ForcedAction_InActive: Force inactive level on OC1REF.
1114:../inc/STM32F4xx_StdPeriph_Driver/src/stm32f4xx_tim.c ****   * @retval None
1115:../inc/STM32F4xx_StdPeriph_Driver/src/stm32f4xx_tim.c ****   */
1116:../inc/STM32F4xx_StdPeriph_Driver/src/stm32f4xx_tim.c **** void TIM_ForcedOC1Config(TIM_TypeDef* TIMx, uint16_t TIM_ForcedAction)
1117:../inc/STM32F4xx_StdPeriph_Driver/src/stm32f4xx_tim.c **** {
 26624              		.loc 1 1117 0
 26625              		.cfi_startproc
 26626              		@ args = 0, pretend = 0, frame = 16
 26627              		@ frame_needed = 1, uses_anonymous_args = 0
 26628              		@ link register save eliminated.
 26629 0000 80B4     		push	{r7}
 26630              	.LCFI75:
 26631              		.cfi_def_cfa_offset 4
 26632 0002 85B0     		sub	sp, sp, #20
 26633              	.LCFI76:
 26634              		.cfi_def_cfa_offset 24
 26635 0004 00AF     		add	r7, sp, #0
 26636              		.cfi_offset 7, -4
 26637              	.LCFI77:
 26638              		.cfi_def_cfa_register 7
 26639 0006 7860     		str	r0, [r7, #4]
 26640 0008 0B46     		mov	r3, r1
 26641 000a 7B80     		strh	r3, [r7, #2]	@ movhi
1118:../inc/STM32F4xx_StdPeriph_Driver/src/stm32f4xx_tim.c ****   uint16_t tmpccmr1 = 0;
 26642              		.loc 1 1118 0
 26643 000c 4FF00003 		mov	r3, #0
 26644 0010 FB81     		strh	r3, [r7, #14]	@ movhi
1119:../inc/STM32F4xx_StdPeriph_Driver/src/stm32f4xx_tim.c **** 
1120:../inc/STM32F4xx_StdPeriph_Driver/src/stm32f4xx_tim.c ****   /* Check the parameters */
1121:../inc/STM32F4xx_StdPeriph_Driver/src/stm32f4xx_tim.c ****   assert_param(IS_TIM_LIST1_PERIPH(TIMx));
1122:../inc/STM32F4xx_StdPeriph_Driver/src/stm32f4xx_tim.c ****   assert_param(IS_TIM_FORCED_ACTION(TIM_ForcedAction));
1123:../inc/STM32F4xx_StdPeriph_Driver/src/stm32f4xx_tim.c ****   tmpccmr1 = TIMx->CCMR1;
 26645              		.loc 1 1123 0
 26646 0012 7B68     		ldr	r3, [r7, #4]
 26647 0014 1B8B     		ldrh	r3, [r3, #24]	@ movhi
 26648 0016 FB81     		strh	r3, [r7, #14]	@ movhi
1124:../inc/STM32F4xx_StdPeriph_Driver/src/stm32f4xx_tim.c **** 
1125:../inc/STM32F4xx_StdPeriph_Driver/src/stm32f4xx_tim.c ****   /* Reset the OC1M Bits */
1126:../inc/STM32F4xx_StdPeriph_Driver/src/stm32f4xx_tim.c ****   tmpccmr1 &= (uint16_t)~TIM_CCMR1_OC1M;
 26649              		.loc 1 1126 0
 26650 0018 FB89     		ldrh	r3, [r7, #14]	@ movhi
 26651 001a 23F07003 		bic	r3, r3, #112
 26652 001e FB81     		strh	r3, [r7, #14]	@ movhi
1127:../inc/STM32F4xx_StdPeriph_Driver/src/stm32f4xx_tim.c **** 
1128:../inc/STM32F4xx_StdPeriph_Driver/src/stm32f4xx_tim.c ****   /* Configure The Forced output Mode */
1129:../inc/STM32F4xx_StdPeriph_Driver/src/stm32f4xx_tim.c ****   tmpccmr1 |= TIM_ForcedAction;
 26653              		.loc 1 1129 0
 26654 0020 FA89     		ldrh	r2, [r7, #14]	@ movhi
 26655 0022 7B88     		ldrh	r3, [r7, #2]	@ movhi
 26656 0024 42EA0303 		orr	r3, r2, r3
 26657 0028 FB81     		strh	r3, [r7, #14]	@ movhi
1130:../inc/STM32F4xx_StdPeriph_Driver/src/stm32f4xx_tim.c **** 
1131:../inc/STM32F4xx_StdPeriph_Driver/src/stm32f4xx_tim.c ****   /* Write to TIMx CCMR1 register */
1132:../inc/STM32F4xx_StdPeriph_Driver/src/stm32f4xx_tim.c ****   TIMx->CCMR1 = tmpccmr1;
 26658              		.loc 1 1132 0
 26659 002a 7B68     		ldr	r3, [r7, #4]
 26660 002c FA89     		ldrh	r2, [r7, #14]	@ movhi
 26661 002e 1A83     		strh	r2, [r3, #24]	@ movhi
1133:../inc/STM32F4xx_StdPeriph_Driver/src/stm32f4xx_tim.c **** }
 26662              		.loc 1 1133 0
 26663 0030 07F11407 		add	r7, r7, #20
 26664 0034 BD46     		mov	sp, r7
 26665 0036 80BC     		pop	{r7}
 26666 0038 7047     		bx	lr
 26667              		.cfi_endproc
 26668              	.LFE135:
 26670 003a 00BF     		.section	.text.TIM_ForcedOC2Config,"ax",%progbits
 26671              		.align	2
 26672              		.global	TIM_ForcedOC2Config
 26673              		.thumb
 26674              		.thumb_func
 26676              	TIM_ForcedOC2Config:
 26677              	.LFB136:
1134:../inc/STM32F4xx_StdPeriph_Driver/src/stm32f4xx_tim.c **** 
1135:../inc/STM32F4xx_StdPeriph_Driver/src/stm32f4xx_tim.c **** /**
1136:../inc/STM32F4xx_StdPeriph_Driver/src/stm32f4xx_tim.c ****   * @brief  Forces the TIMx output 2 waveform to active or inactive level.
1137:../inc/STM32F4xx_StdPeriph_Driver/src/stm32f4xx_tim.c ****   * @param  TIMx: where x can be  1, 2, 3, 4, 5, 8, 9 or 12 to select the TIM 
1138:../inc/STM32F4xx_StdPeriph_Driver/src/stm32f4xx_tim.c ****   *         peripheral.
1139:../inc/STM32F4xx_StdPeriph_Driver/src/stm32f4xx_tim.c ****   * @param  TIM_ForcedAction: specifies the forced Action to be set to the output waveform.
1140:../inc/STM32F4xx_StdPeriph_Driver/src/stm32f4xx_tim.c ****   *          This parameter can be one of the following values:
1141:../inc/STM32F4xx_StdPeriph_Driver/src/stm32f4xx_tim.c ****   *            @arg TIM_ForcedAction_Active: Force active level on OC2REF
1142:../inc/STM32F4xx_StdPeriph_Driver/src/stm32f4xx_tim.c ****   *            @arg TIM_ForcedAction_InActive: Force inactive level on OC2REF.
1143:../inc/STM32F4xx_StdPeriph_Driver/src/stm32f4xx_tim.c ****   * @retval None
1144:../inc/STM32F4xx_StdPeriph_Driver/src/stm32f4xx_tim.c ****   */
1145:../inc/STM32F4xx_StdPeriph_Driver/src/stm32f4xx_tim.c **** void TIM_ForcedOC2Config(TIM_TypeDef* TIMx, uint16_t TIM_ForcedAction)
1146:../inc/STM32F4xx_StdPeriph_Driver/src/stm32f4xx_tim.c **** {
 26678              		.loc 1 1146 0
 26679              		.cfi_startproc
 26680              		@ args = 0, pretend = 0, frame = 16
 26681              		@ frame_needed = 1, uses_anonymous_args = 0
 26682              		@ link register save eliminated.
 26683 0000 80B4     		push	{r7}
 26684              	.LCFI78:
 26685              		.cfi_def_cfa_offset 4
 26686 0002 85B0     		sub	sp, sp, #20
 26687              	.LCFI79:
 26688              		.cfi_def_cfa_offset 24
 26689 0004 00AF     		add	r7, sp, #0
 26690              		.cfi_offset 7, -4
 26691              	.LCFI80:
 26692              		.cfi_def_cfa_register 7
 26693 0006 7860     		str	r0, [r7, #4]
 26694 0008 0B46     		mov	r3, r1
 26695 000a 7B80     		strh	r3, [r7, #2]	@ movhi
1147:../inc/STM32F4xx_StdPeriph_Driver/src/stm32f4xx_tim.c ****   uint16_t tmpccmr1 = 0;
 26696              		.loc 1 1147 0
 26697 000c 4FF00003 		mov	r3, #0
 26698 0010 FB81     		strh	r3, [r7, #14]	@ movhi
1148:../inc/STM32F4xx_StdPeriph_Driver/src/stm32f4xx_tim.c **** 
1149:../inc/STM32F4xx_StdPeriph_Driver/src/stm32f4xx_tim.c ****   /* Check the parameters */
1150:../inc/STM32F4xx_StdPeriph_Driver/src/stm32f4xx_tim.c ****   assert_param(IS_TIM_LIST2_PERIPH(TIMx));
1151:../inc/STM32F4xx_StdPeriph_Driver/src/stm32f4xx_tim.c ****   assert_param(IS_TIM_FORCED_ACTION(TIM_ForcedAction));
1152:../inc/STM32F4xx_StdPeriph_Driver/src/stm32f4xx_tim.c ****   tmpccmr1 = TIMx->CCMR1;
 26699              		.loc 1 1152 0
 26700 0012 7B68     		ldr	r3, [r7, #4]
 26701 0014 1B8B     		ldrh	r3, [r3, #24]	@ movhi
 26702 0016 FB81     		strh	r3, [r7, #14]	@ movhi
1153:../inc/STM32F4xx_StdPeriph_Driver/src/stm32f4xx_tim.c **** 
1154:../inc/STM32F4xx_StdPeriph_Driver/src/stm32f4xx_tim.c ****   /* Reset the OC2M Bits */
1155:../inc/STM32F4xx_StdPeriph_Driver/src/stm32f4xx_tim.c ****   tmpccmr1 &= (uint16_t)~TIM_CCMR1_OC2M;
 26703              		.loc 1 1155 0
 26704 0018 FB89     		ldrh	r3, [r7, #14]	@ movhi
 26705 001a 23F4E043 		bic	r3, r3, #28672
 26706 001e FB81     		strh	r3, [r7, #14]	@ movhi
1156:../inc/STM32F4xx_StdPeriph_Driver/src/stm32f4xx_tim.c **** 
1157:../inc/STM32F4xx_StdPeriph_Driver/src/stm32f4xx_tim.c ****   /* Configure The Forced output Mode */
1158:../inc/STM32F4xx_StdPeriph_Driver/src/stm32f4xx_tim.c ****   tmpccmr1 |= (uint16_t)(TIM_ForcedAction << 8);
 26707              		.loc 1 1158 0
 26708 0020 7B88     		ldrh	r3, [r7, #2]	@ movhi
 26709 0022 4FEA0323 		lsl	r3, r3, #8
 26710 0026 9AB2     		uxth	r2, r3
 26711 0028 FB89     		ldrh	r3, [r7, #14]	@ movhi
 26712 002a 42EA0303 		orr	r3, r2, r3
 26713 002e FB81     		strh	r3, [r7, #14]	@ movhi
1159:../inc/STM32F4xx_StdPeriph_Driver/src/stm32f4xx_tim.c **** 
1160:../inc/STM32F4xx_StdPeriph_Driver/src/stm32f4xx_tim.c ****   /* Write to TIMx CCMR1 register */
1161:../inc/STM32F4xx_StdPeriph_Driver/src/stm32f4xx_tim.c ****   TIMx->CCMR1 = tmpccmr1;
 26714              		.loc 1 1161 0
 26715 0030 7B68     		ldr	r3, [r7, #4]
 26716 0032 FA89     		ldrh	r2, [r7, #14]	@ movhi
 26717 0034 1A83     		strh	r2, [r3, #24]	@ movhi
1162:../inc/STM32F4xx_StdPeriph_Driver/src/stm32f4xx_tim.c **** }
 26718              		.loc 1 1162 0
 26719 0036 07F11407 		add	r7, r7, #20
 26720 003a BD46     		mov	sp, r7
 26721 003c 80BC     		pop	{r7}
 26722 003e 7047     		bx	lr
 26723              		.cfi_endproc
 26724              	.LFE136:
 26726              		.section	.text.TIM_ForcedOC3Config,"ax",%progbits
 26727              		.align	2
 26728              		.global	TIM_ForcedOC3Config
 26729              		.thumb
 26730              		.thumb_func
 26732              	TIM_ForcedOC3Config:
 26733              	.LFB137:
1163:../inc/STM32F4xx_StdPeriph_Driver/src/stm32f4xx_tim.c **** 
1164:../inc/STM32F4xx_StdPeriph_Driver/src/stm32f4xx_tim.c **** /**
1165:../inc/STM32F4xx_StdPeriph_Driver/src/stm32f4xx_tim.c ****   * @brief  Forces the TIMx output 3 waveform to active or inactive level.
1166:../inc/STM32F4xx_StdPeriph_Driver/src/stm32f4xx_tim.c ****   * @param  TIMx: where x can be  1, 2, 3, 4, 5 or 8 to select the TIM peripheral.
1167:../inc/STM32F4xx_StdPeriph_Driver/src/stm32f4xx_tim.c ****   * @param  TIM_ForcedAction: specifies the forced Action to be set to the output waveform.
1168:../inc/STM32F4xx_StdPeriph_Driver/src/stm32f4xx_tim.c ****   *          This parameter can be one of the following values:
1169:../inc/STM32F4xx_StdPeriph_Driver/src/stm32f4xx_tim.c ****   *            @arg TIM_ForcedAction_Active: Force active level on OC3REF
1170:../inc/STM32F4xx_StdPeriph_Driver/src/stm32f4xx_tim.c ****   *            @arg TIM_ForcedAction_InActive: Force inactive level on OC3REF.
1171:../inc/STM32F4xx_StdPeriph_Driver/src/stm32f4xx_tim.c ****   * @retval None
1172:../inc/STM32F4xx_StdPeriph_Driver/src/stm32f4xx_tim.c ****   */
1173:../inc/STM32F4xx_StdPeriph_Driver/src/stm32f4xx_tim.c **** void TIM_ForcedOC3Config(TIM_TypeDef* TIMx, uint16_t TIM_ForcedAction)
1174:../inc/STM32F4xx_StdPeriph_Driver/src/stm32f4xx_tim.c **** {
 26734              		.loc 1 1174 0
 26735              		.cfi_startproc
 26736              		@ args = 0, pretend = 0, frame = 16
 26737              		@ frame_needed = 1, uses_anonymous_args = 0
 26738              		@ link register save eliminated.
 26739 0000 80B4     		push	{r7}
 26740              	.LCFI81:
 26741              		.cfi_def_cfa_offset 4
 26742 0002 85B0     		sub	sp, sp, #20
 26743              	.LCFI82:
 26744              		.cfi_def_cfa_offset 24
 26745 0004 00AF     		add	r7, sp, #0
 26746              		.cfi_offset 7, -4
 26747              	.LCFI83:
 26748              		.cfi_def_cfa_register 7
 26749 0006 7860     		str	r0, [r7, #4]
 26750 0008 0B46     		mov	r3, r1
 26751 000a 7B80     		strh	r3, [r7, #2]	@ movhi
1175:../inc/STM32F4xx_StdPeriph_Driver/src/stm32f4xx_tim.c ****   uint16_t tmpccmr2 = 0;
 26752              		.loc 1 1175 0
 26753 000c 4FF00003 		mov	r3, #0
 26754 0010 FB81     		strh	r3, [r7, #14]	@ movhi
1176:../inc/STM32F4xx_StdPeriph_Driver/src/stm32f4xx_tim.c **** 
1177:../inc/STM32F4xx_StdPeriph_Driver/src/stm32f4xx_tim.c ****   /* Check the parameters */
1178:../inc/STM32F4xx_StdPeriph_Driver/src/stm32f4xx_tim.c ****   assert_param(IS_TIM_LIST3_PERIPH(TIMx));
1179:../inc/STM32F4xx_StdPeriph_Driver/src/stm32f4xx_tim.c ****   assert_param(IS_TIM_FORCED_ACTION(TIM_ForcedAction));
1180:../inc/STM32F4xx_StdPeriph_Driver/src/stm32f4xx_tim.c **** 
1181:../inc/STM32F4xx_StdPeriph_Driver/src/stm32f4xx_tim.c ****   tmpccmr2 = TIMx->CCMR2;
 26755              		.loc 1 1181 0
 26756 0012 7B68     		ldr	r3, [r7, #4]
 26757 0014 9B8B     		ldrh	r3, [r3, #28]	@ movhi
 26758 0016 FB81     		strh	r3, [r7, #14]	@ movhi
1182:../inc/STM32F4xx_StdPeriph_Driver/src/stm32f4xx_tim.c **** 
1183:../inc/STM32F4xx_StdPeriph_Driver/src/stm32f4xx_tim.c ****   /* Reset the OC1M Bits */
1184:../inc/STM32F4xx_StdPeriph_Driver/src/stm32f4xx_tim.c ****   tmpccmr2 &= (uint16_t)~TIM_CCMR2_OC3M;
 26759              		.loc 1 1184 0
 26760 0018 FB89     		ldrh	r3, [r7, #14]	@ movhi
 26761 001a 23F07003 		bic	r3, r3, #112
 26762 001e FB81     		strh	r3, [r7, #14]	@ movhi
1185:../inc/STM32F4xx_StdPeriph_Driver/src/stm32f4xx_tim.c **** 
1186:../inc/STM32F4xx_StdPeriph_Driver/src/stm32f4xx_tim.c ****   /* Configure The Forced output Mode */
1187:../inc/STM32F4xx_StdPeriph_Driver/src/stm32f4xx_tim.c ****   tmpccmr2 |= TIM_ForcedAction;
 26763              		.loc 1 1187 0
 26764 0020 FA89     		ldrh	r2, [r7, #14]	@ movhi
 26765 0022 7B88     		ldrh	r3, [r7, #2]	@ movhi
 26766 0024 42EA0303 		orr	r3, r2, r3
 26767 0028 FB81     		strh	r3, [r7, #14]	@ movhi
1188:../inc/STM32F4xx_StdPeriph_Driver/src/stm32f4xx_tim.c **** 
1189:../inc/STM32F4xx_StdPeriph_Driver/src/stm32f4xx_tim.c ****   /* Write to TIMx CCMR2 register */
1190:../inc/STM32F4xx_StdPeriph_Driver/src/stm32f4xx_tim.c ****   TIMx->CCMR2 = tmpccmr2;
 26768              		.loc 1 1190 0
 26769 002a 7B68     		ldr	r3, [r7, #4]
 26770 002c FA89     		ldrh	r2, [r7, #14]	@ movhi
 26771 002e 9A83     		strh	r2, [r3, #28]	@ movhi
1191:../inc/STM32F4xx_StdPeriph_Driver/src/stm32f4xx_tim.c **** }
 26772              		.loc 1 1191 0
 26773 0030 07F11407 		add	r7, r7, #20
 26774 0034 BD46     		mov	sp, r7
 26775 0036 80BC     		pop	{r7}
 26776 0038 7047     		bx	lr
 26777              		.cfi_endproc
 26778              	.LFE137:
 26780 003a 00BF     		.section	.text.TIM_ForcedOC4Config,"ax",%progbits
 26781              		.align	2
 26782              		.global	TIM_ForcedOC4Config
 26783              		.thumb
 26784              		.thumb_func
 26786              	TIM_ForcedOC4Config:
 26787              	.LFB138:
1192:../inc/STM32F4xx_StdPeriph_Driver/src/stm32f4xx_tim.c **** 
1193:../inc/STM32F4xx_StdPeriph_Driver/src/stm32f4xx_tim.c **** /**
1194:../inc/STM32F4xx_StdPeriph_Driver/src/stm32f4xx_tim.c ****   * @brief  Forces the TIMx output 4 waveform to active or inactive level.
1195:../inc/STM32F4xx_StdPeriph_Driver/src/stm32f4xx_tim.c ****   * @param  TIMx: where x can be  1, 2, 3, 4, 5 or 8 to select the TIM peripheral.
1196:../inc/STM32F4xx_StdPeriph_Driver/src/stm32f4xx_tim.c ****   * @param  TIM_ForcedAction: specifies the forced Action to be set to the output waveform.
1197:../inc/STM32F4xx_StdPeriph_Driver/src/stm32f4xx_tim.c ****   *          This parameter can be one of the following values:
1198:../inc/STM32F4xx_StdPeriph_Driver/src/stm32f4xx_tim.c ****   *            @arg TIM_ForcedAction_Active: Force active level on OC4REF
1199:../inc/STM32F4xx_StdPeriph_Driver/src/stm32f4xx_tim.c ****   *            @arg TIM_ForcedAction_InActive: Force inactive level on OC4REF.
1200:../inc/STM32F4xx_StdPeriph_Driver/src/stm32f4xx_tim.c ****   * @retval None
1201:../inc/STM32F4xx_StdPeriph_Driver/src/stm32f4xx_tim.c ****   */
1202:../inc/STM32F4xx_StdPeriph_Driver/src/stm32f4xx_tim.c **** void TIM_ForcedOC4Config(TIM_TypeDef* TIMx, uint16_t TIM_ForcedAction)
1203:../inc/STM32F4xx_StdPeriph_Driver/src/stm32f4xx_tim.c **** {
 26788              		.loc 1 1203 0
 26789              		.cfi_startproc
 26790              		@ args = 0, pretend = 0, frame = 16
 26791              		@ frame_needed = 1, uses_anonymous_args = 0
 26792              		@ link register save eliminated.
 26793 0000 80B4     		push	{r7}
 26794              	.LCFI84:
 26795              		.cfi_def_cfa_offset 4
 26796 0002 85B0     		sub	sp, sp, #20
 26797              	.LCFI85:
 26798              		.cfi_def_cfa_offset 24
 26799 0004 00AF     		add	r7, sp, #0
 26800              		.cfi_offset 7, -4
 26801              	.LCFI86:
 26802              		.cfi_def_cfa_register 7
 26803 0006 7860     		str	r0, [r7, #4]
 26804 0008 0B46     		mov	r3, r1
 26805 000a 7B80     		strh	r3, [r7, #2]	@ movhi
1204:../inc/STM32F4xx_StdPeriph_Driver/src/stm32f4xx_tim.c ****   uint16_t tmpccmr2 = 0;
 26806              		.loc 1 1204 0
 26807 000c 4FF00003 		mov	r3, #0
 26808 0010 FB81     		strh	r3, [r7, #14]	@ movhi
1205:../inc/STM32F4xx_StdPeriph_Driver/src/stm32f4xx_tim.c **** 
1206:../inc/STM32F4xx_StdPeriph_Driver/src/stm32f4xx_tim.c ****   /* Check the parameters */
1207:../inc/STM32F4xx_StdPeriph_Driver/src/stm32f4xx_tim.c ****   assert_param(IS_TIM_LIST3_PERIPH(TIMx));
1208:../inc/STM32F4xx_StdPeriph_Driver/src/stm32f4xx_tim.c ****   assert_param(IS_TIM_FORCED_ACTION(TIM_ForcedAction));
1209:../inc/STM32F4xx_StdPeriph_Driver/src/stm32f4xx_tim.c ****   tmpccmr2 = TIMx->CCMR2;
 26809              		.loc 1 1209 0
 26810 0012 7B68     		ldr	r3, [r7, #4]
 26811 0014 9B8B     		ldrh	r3, [r3, #28]	@ movhi
 26812 0016 FB81     		strh	r3, [r7, #14]	@ movhi
1210:../inc/STM32F4xx_StdPeriph_Driver/src/stm32f4xx_tim.c **** 
1211:../inc/STM32F4xx_StdPeriph_Driver/src/stm32f4xx_tim.c ****   /* Reset the OC2M Bits */
1212:../inc/STM32F4xx_StdPeriph_Driver/src/stm32f4xx_tim.c ****   tmpccmr2 &= (uint16_t)~TIM_CCMR2_OC4M;
 26813              		.loc 1 1212 0
 26814 0018 FB89     		ldrh	r3, [r7, #14]	@ movhi
 26815 001a 23F4E043 		bic	r3, r3, #28672
 26816 001e FB81     		strh	r3, [r7, #14]	@ movhi
1213:../inc/STM32F4xx_StdPeriph_Driver/src/stm32f4xx_tim.c **** 
1214:../inc/STM32F4xx_StdPeriph_Driver/src/stm32f4xx_tim.c ****   /* Configure The Forced output Mode */
1215:../inc/STM32F4xx_StdPeriph_Driver/src/stm32f4xx_tim.c ****   tmpccmr2 |= (uint16_t)(TIM_ForcedAction << 8);
 26817              		.loc 1 1215 0
 26818 0020 7B88     		ldrh	r3, [r7, #2]	@ movhi
 26819 0022 4FEA0323 		lsl	r3, r3, #8
 26820 0026 9AB2     		uxth	r2, r3
 26821 0028 FB89     		ldrh	r3, [r7, #14]	@ movhi
 26822 002a 42EA0303 		orr	r3, r2, r3
 26823 002e FB81     		strh	r3, [r7, #14]	@ movhi
1216:../inc/STM32F4xx_StdPeriph_Driver/src/stm32f4xx_tim.c **** 
1217:../inc/STM32F4xx_StdPeriph_Driver/src/stm32f4xx_tim.c ****   /* Write to TIMx CCMR2 register */
1218:../inc/STM32F4xx_StdPeriph_Driver/src/stm32f4xx_tim.c ****   TIMx->CCMR2 = tmpccmr2;
 26824              		.loc 1 1218 0
 26825 0030 7B68     		ldr	r3, [r7, #4]
 26826 0032 FA89     		ldrh	r2, [r7, #14]	@ movhi
 26827 0034 9A83     		strh	r2, [r3, #28]	@ movhi
1219:../inc/STM32F4xx_StdPeriph_Driver/src/stm32f4xx_tim.c **** }
 26828              		.loc 1 1219 0
 26829 0036 07F11407 		add	r7, r7, #20
 26830 003a BD46     		mov	sp, r7
 26831 003c 80BC     		pop	{r7}
 26832 003e 7047     		bx	lr
 26833              		.cfi_endproc
 26834              	.LFE138:
 26836              		.section	.text.TIM_OC1PreloadConfig,"ax",%progbits
 26837              		.align	2
 26838              		.global	TIM_OC1PreloadConfig
 26839              		.thumb
 26840              		.thumb_func
 26842              	TIM_OC1PreloadConfig:
 26843              	.LFB139:
1220:../inc/STM32F4xx_StdPeriph_Driver/src/stm32f4xx_tim.c **** 
1221:../inc/STM32F4xx_StdPeriph_Driver/src/stm32f4xx_tim.c **** /**
1222:../inc/STM32F4xx_StdPeriph_Driver/src/stm32f4xx_tim.c ****   * @brief  Enables or disables the TIMx peripheral Preload register on CCR1.
1223:../inc/STM32F4xx_StdPeriph_Driver/src/stm32f4xx_tim.c ****   * @param  TIMx: where x can be 1 to 14 except 6 and 7, to select the TIM peripheral.
1224:../inc/STM32F4xx_StdPeriph_Driver/src/stm32f4xx_tim.c ****   * @param  TIM_OCPreload: new state of the TIMx peripheral Preload register
1225:../inc/STM32F4xx_StdPeriph_Driver/src/stm32f4xx_tim.c ****   *          This parameter can be one of the following values:
1226:../inc/STM32F4xx_StdPeriph_Driver/src/stm32f4xx_tim.c ****   *            @arg TIM_OCPreload_Enable
1227:../inc/STM32F4xx_StdPeriph_Driver/src/stm32f4xx_tim.c ****   *            @arg TIM_OCPreload_Disable
1228:../inc/STM32F4xx_StdPeriph_Driver/src/stm32f4xx_tim.c ****   * @retval None
1229:../inc/STM32F4xx_StdPeriph_Driver/src/stm32f4xx_tim.c ****   */
1230:../inc/STM32F4xx_StdPeriph_Driver/src/stm32f4xx_tim.c **** void TIM_OC1PreloadConfig(TIM_TypeDef* TIMx, uint16_t TIM_OCPreload)
1231:../inc/STM32F4xx_StdPeriph_Driver/src/stm32f4xx_tim.c **** {
 26844              		.loc 1 1231 0
 26845              		.cfi_startproc
 26846              		@ args = 0, pretend = 0, frame = 16
 26847              		@ frame_needed = 1, uses_anonymous_args = 0
 26848              		@ link register save eliminated.
 26849 0000 80B4     		push	{r7}
 26850              	.LCFI87:
 26851              		.cfi_def_cfa_offset 4
 26852 0002 85B0     		sub	sp, sp, #20
 26853              	.LCFI88:
 26854              		.cfi_def_cfa_offset 24
 26855 0004 00AF     		add	r7, sp, #0
 26856              		.cfi_offset 7, -4
 26857              	.LCFI89:
 26858              		.cfi_def_cfa_register 7
 26859 0006 7860     		str	r0, [r7, #4]
 26860 0008 0B46     		mov	r3, r1
 26861 000a 7B80     		strh	r3, [r7, #2]	@ movhi
1232:../inc/STM32F4xx_StdPeriph_Driver/src/stm32f4xx_tim.c ****   uint16_t tmpccmr1 = 0;
 26862              		.loc 1 1232 0
 26863 000c 4FF00003 		mov	r3, #0
 26864 0010 FB81     		strh	r3, [r7, #14]	@ movhi
1233:../inc/STM32F4xx_StdPeriph_Driver/src/stm32f4xx_tim.c **** 
1234:../inc/STM32F4xx_StdPeriph_Driver/src/stm32f4xx_tim.c ****   /* Check the parameters */
1235:../inc/STM32F4xx_StdPeriph_Driver/src/stm32f4xx_tim.c ****   assert_param(IS_TIM_LIST1_PERIPH(TIMx));
1236:../inc/STM32F4xx_StdPeriph_Driver/src/stm32f4xx_tim.c ****   assert_param(IS_TIM_OCPRELOAD_STATE(TIM_OCPreload));
1237:../inc/STM32F4xx_StdPeriph_Driver/src/stm32f4xx_tim.c **** 
1238:../inc/STM32F4xx_StdPeriph_Driver/src/stm32f4xx_tim.c ****   tmpccmr1 = TIMx->CCMR1;
 26865              		.loc 1 1238 0
 26866 0012 7B68     		ldr	r3, [r7, #4]
 26867 0014 1B8B     		ldrh	r3, [r3, #24]	@ movhi
 26868 0016 FB81     		strh	r3, [r7, #14]	@ movhi
1239:../inc/STM32F4xx_StdPeriph_Driver/src/stm32f4xx_tim.c **** 
1240:../inc/STM32F4xx_StdPeriph_Driver/src/stm32f4xx_tim.c ****   /* Reset the OC1PE Bit */
1241:../inc/STM32F4xx_StdPeriph_Driver/src/stm32f4xx_tim.c ****   tmpccmr1 &= (uint16_t)(~TIM_CCMR1_OC1PE);
 26869              		.loc 1 1241 0
 26870 0018 FB89     		ldrh	r3, [r7, #14]	@ movhi
 26871 001a 23F00803 		bic	r3, r3, #8
 26872 001e FB81     		strh	r3, [r7, #14]	@ movhi
1242:../inc/STM32F4xx_StdPeriph_Driver/src/stm32f4xx_tim.c **** 
1243:../inc/STM32F4xx_StdPeriph_Driver/src/stm32f4xx_tim.c ****   /* Enable or Disable the Output Compare Preload feature */
1244:../inc/STM32F4xx_StdPeriph_Driver/src/stm32f4xx_tim.c ****   tmpccmr1 |= TIM_OCPreload;
 26873              		.loc 1 1244 0
 26874 0020 FA89     		ldrh	r2, [r7, #14]	@ movhi
 26875 0022 7B88     		ldrh	r3, [r7, #2]	@ movhi
 26876 0024 42EA0303 		orr	r3, r2, r3
 26877 0028 FB81     		strh	r3, [r7, #14]	@ movhi
1245:../inc/STM32F4xx_StdPeriph_Driver/src/stm32f4xx_tim.c **** 
1246:../inc/STM32F4xx_StdPeriph_Driver/src/stm32f4xx_tim.c ****   /* Write to TIMx CCMR1 register */
1247:../inc/STM32F4xx_StdPeriph_Driver/src/stm32f4xx_tim.c ****   TIMx->CCMR1 = tmpccmr1;
 26878              		.loc 1 1247 0
 26879 002a 7B68     		ldr	r3, [r7, #4]
 26880 002c FA89     		ldrh	r2, [r7, #14]	@ movhi
 26881 002e 1A83     		strh	r2, [r3, #24]	@ movhi
1248:../inc/STM32F4xx_StdPeriph_Driver/src/stm32f4xx_tim.c **** }
 26882              		.loc 1 1248 0
 26883 0030 07F11407 		add	r7, r7, #20
 26884 0034 BD46     		mov	sp, r7
 26885 0036 80BC     		pop	{r7}
 26886 0038 7047     		bx	lr
 26887              		.cfi_endproc
 26888              	.LFE139:
 26890 003a 00BF     		.section	.text.TIM_OC2PreloadConfig,"ax",%progbits
 26891              		.align	2
 26892              		.global	TIM_OC2PreloadConfig
 26893              		.thumb
 26894              		.thumb_func
 26896              	TIM_OC2PreloadConfig:
 26897              	.LFB140:
1249:../inc/STM32F4xx_StdPeriph_Driver/src/stm32f4xx_tim.c **** 
1250:../inc/STM32F4xx_StdPeriph_Driver/src/stm32f4xx_tim.c **** /**
1251:../inc/STM32F4xx_StdPeriph_Driver/src/stm32f4xx_tim.c ****   * @brief  Enables or disables the TIMx peripheral Preload register on CCR2.
1252:../inc/STM32F4xx_StdPeriph_Driver/src/stm32f4xx_tim.c ****   * @param  TIMx: where x can be  1, 2, 3, 4, 5, 8, 9 or 12 to select the TIM 
1253:../inc/STM32F4xx_StdPeriph_Driver/src/stm32f4xx_tim.c ****   *         peripheral.
1254:../inc/STM32F4xx_StdPeriph_Driver/src/stm32f4xx_tim.c ****   * @param  TIM_OCPreload: new state of the TIMx peripheral Preload register
1255:../inc/STM32F4xx_StdPeriph_Driver/src/stm32f4xx_tim.c ****   *          This parameter can be one of the following values:
1256:../inc/STM32F4xx_StdPeriph_Driver/src/stm32f4xx_tim.c ****   *            @arg TIM_OCPreload_Enable
1257:../inc/STM32F4xx_StdPeriph_Driver/src/stm32f4xx_tim.c ****   *            @arg TIM_OCPreload_Disable
1258:../inc/STM32F4xx_StdPeriph_Driver/src/stm32f4xx_tim.c ****   * @retval None
1259:../inc/STM32F4xx_StdPeriph_Driver/src/stm32f4xx_tim.c ****   */
1260:../inc/STM32F4xx_StdPeriph_Driver/src/stm32f4xx_tim.c **** void TIM_OC2PreloadConfig(TIM_TypeDef* TIMx, uint16_t TIM_OCPreload)
1261:../inc/STM32F4xx_StdPeriph_Driver/src/stm32f4xx_tim.c **** {
 26898              		.loc 1 1261 0
 26899              		.cfi_startproc
 26900              		@ args = 0, pretend = 0, frame = 16
 26901              		@ frame_needed = 1, uses_anonymous_args = 0
 26902              		@ link register save eliminated.
 26903 0000 80B4     		push	{r7}
 26904              	.LCFI90:
 26905              		.cfi_def_cfa_offset 4
 26906 0002 85B0     		sub	sp, sp, #20
 26907              	.LCFI91:
 26908              		.cfi_def_cfa_offset 24
 26909 0004 00AF     		add	r7, sp, #0
 26910              		.cfi_offset 7, -4
 26911              	.LCFI92:
 26912              		.cfi_def_cfa_register 7
 26913 0006 7860     		str	r0, [r7, #4]
 26914 0008 0B46     		mov	r3, r1
 26915 000a 7B80     		strh	r3, [r7, #2]	@ movhi
1262:../inc/STM32F4xx_StdPeriph_Driver/src/stm32f4xx_tim.c ****   uint16_t tmpccmr1 = 0;
 26916              		.loc 1 1262 0
 26917 000c 4FF00003 		mov	r3, #0
 26918 0010 FB81     		strh	r3, [r7, #14]	@ movhi
1263:../inc/STM32F4xx_StdPeriph_Driver/src/stm32f4xx_tim.c **** 
1264:../inc/STM32F4xx_StdPeriph_Driver/src/stm32f4xx_tim.c ****   /* Check the parameters */
1265:../inc/STM32F4xx_StdPeriph_Driver/src/stm32f4xx_tim.c ****   assert_param(IS_TIM_LIST2_PERIPH(TIMx));
1266:../inc/STM32F4xx_StdPeriph_Driver/src/stm32f4xx_tim.c ****   assert_param(IS_TIM_OCPRELOAD_STATE(TIM_OCPreload));
1267:../inc/STM32F4xx_StdPeriph_Driver/src/stm32f4xx_tim.c **** 
1268:../inc/STM32F4xx_StdPeriph_Driver/src/stm32f4xx_tim.c ****   tmpccmr1 = TIMx->CCMR1;
 26919              		.loc 1 1268 0
 26920 0012 7B68     		ldr	r3, [r7, #4]
 26921 0014 1B8B     		ldrh	r3, [r3, #24]	@ movhi
 26922 0016 FB81     		strh	r3, [r7, #14]	@ movhi
1269:../inc/STM32F4xx_StdPeriph_Driver/src/stm32f4xx_tim.c **** 
1270:../inc/STM32F4xx_StdPeriph_Driver/src/stm32f4xx_tim.c ****   /* Reset the OC2PE Bit */
1271:../inc/STM32F4xx_StdPeriph_Driver/src/stm32f4xx_tim.c ****   tmpccmr1 &= (uint16_t)(~TIM_CCMR1_OC2PE);
 26923              		.loc 1 1271 0
 26924 0018 FB89     		ldrh	r3, [r7, #14]	@ movhi
 26925 001a 23F40063 		bic	r3, r3, #2048
 26926 001e FB81     		strh	r3, [r7, #14]	@ movhi
1272:../inc/STM32F4xx_StdPeriph_Driver/src/stm32f4xx_tim.c **** 
1273:../inc/STM32F4xx_StdPeriph_Driver/src/stm32f4xx_tim.c ****   /* Enable or Disable the Output Compare Preload feature */
1274:../inc/STM32F4xx_StdPeriph_Driver/src/stm32f4xx_tim.c ****   tmpccmr1 |= (uint16_t)(TIM_OCPreload << 8);
 26927              		.loc 1 1274 0
 26928 0020 7B88     		ldrh	r3, [r7, #2]	@ movhi
 26929 0022 4FEA0323 		lsl	r3, r3, #8
 26930 0026 9AB2     		uxth	r2, r3
 26931 0028 FB89     		ldrh	r3, [r7, #14]	@ movhi
 26932 002a 42EA0303 		orr	r3, r2, r3
 26933 002e FB81     		strh	r3, [r7, #14]	@ movhi
1275:../inc/STM32F4xx_StdPeriph_Driver/src/stm32f4xx_tim.c **** 
1276:../inc/STM32F4xx_StdPeriph_Driver/src/stm32f4xx_tim.c ****   /* Write to TIMx CCMR1 register */
1277:../inc/STM32F4xx_StdPeriph_Driver/src/stm32f4xx_tim.c ****   TIMx->CCMR1 = tmpccmr1;
 26934              		.loc 1 1277 0
 26935 0030 7B68     		ldr	r3, [r7, #4]
 26936 0032 FA89     		ldrh	r2, [r7, #14]	@ movhi
 26937 0034 1A83     		strh	r2, [r3, #24]	@ movhi
1278:../inc/STM32F4xx_StdPeriph_Driver/src/stm32f4xx_tim.c **** }
 26938              		.loc 1 1278 0
 26939 0036 07F11407 		add	r7, r7, #20
 26940 003a BD46     		mov	sp, r7
 26941 003c 80BC     		pop	{r7}
 26942 003e 7047     		bx	lr
 26943              		.cfi_endproc
 26944              	.LFE140:
 26946              		.section	.text.TIM_OC3PreloadConfig,"ax",%progbits
 26947              		.align	2
 26948              		.global	TIM_OC3PreloadConfig
 26949              		.thumb
 26950              		.thumb_func
 26952              	TIM_OC3PreloadConfig:
 26953              	.LFB141:
1279:../inc/STM32F4xx_StdPeriph_Driver/src/stm32f4xx_tim.c **** 
1280:../inc/STM32F4xx_StdPeriph_Driver/src/stm32f4xx_tim.c **** /**
1281:../inc/STM32F4xx_StdPeriph_Driver/src/stm32f4xx_tim.c ****   * @brief  Enables or disables the TIMx peripheral Preload register on CCR3.
1282:../inc/STM32F4xx_StdPeriph_Driver/src/stm32f4xx_tim.c ****   * @param  TIMx: where x can be  1, 2, 3, 4, 5 or 8 to select the TIM peripheral.
1283:../inc/STM32F4xx_StdPeriph_Driver/src/stm32f4xx_tim.c ****   * @param  TIM_OCPreload: new state of the TIMx peripheral Preload register
1284:../inc/STM32F4xx_StdPeriph_Driver/src/stm32f4xx_tim.c ****   *          This parameter can be one of the following values:
1285:../inc/STM32F4xx_StdPeriph_Driver/src/stm32f4xx_tim.c ****   *            @arg TIM_OCPreload_Enable
1286:../inc/STM32F4xx_StdPeriph_Driver/src/stm32f4xx_tim.c ****   *            @arg TIM_OCPreload_Disable
1287:../inc/STM32F4xx_StdPeriph_Driver/src/stm32f4xx_tim.c ****   * @retval None
1288:../inc/STM32F4xx_StdPeriph_Driver/src/stm32f4xx_tim.c ****   */
1289:../inc/STM32F4xx_StdPeriph_Driver/src/stm32f4xx_tim.c **** void TIM_OC3PreloadConfig(TIM_TypeDef* TIMx, uint16_t TIM_OCPreload)
1290:../inc/STM32F4xx_StdPeriph_Driver/src/stm32f4xx_tim.c **** {
 26954              		.loc 1 1290 0
 26955              		.cfi_startproc
 26956              		@ args = 0, pretend = 0, frame = 16
 26957              		@ frame_needed = 1, uses_anonymous_args = 0
 26958              		@ link register save eliminated.
 26959 0000 80B4     		push	{r7}
 26960              	.LCFI93:
 26961              		.cfi_def_cfa_offset 4
 26962 0002 85B0     		sub	sp, sp, #20
 26963              	.LCFI94:
 26964              		.cfi_def_cfa_offset 24
 26965 0004 00AF     		add	r7, sp, #0
 26966              		.cfi_offset 7, -4
 26967              	.LCFI95:
 26968              		.cfi_def_cfa_register 7
 26969 0006 7860     		str	r0, [r7, #4]
 26970 0008 0B46     		mov	r3, r1
 26971 000a 7B80     		strh	r3, [r7, #2]	@ movhi
1291:../inc/STM32F4xx_StdPeriph_Driver/src/stm32f4xx_tim.c ****   uint16_t tmpccmr2 = 0;
 26972              		.loc 1 1291 0
 26973 000c 4FF00003 		mov	r3, #0
 26974 0010 FB81     		strh	r3, [r7, #14]	@ movhi
1292:../inc/STM32F4xx_StdPeriph_Driver/src/stm32f4xx_tim.c **** 
1293:../inc/STM32F4xx_StdPeriph_Driver/src/stm32f4xx_tim.c ****   /* Check the parameters */
1294:../inc/STM32F4xx_StdPeriph_Driver/src/stm32f4xx_tim.c ****   assert_param(IS_TIM_LIST3_PERIPH(TIMx));
1295:../inc/STM32F4xx_StdPeriph_Driver/src/stm32f4xx_tim.c ****   assert_param(IS_TIM_OCPRELOAD_STATE(TIM_OCPreload));
1296:../inc/STM32F4xx_StdPeriph_Driver/src/stm32f4xx_tim.c **** 
1297:../inc/STM32F4xx_StdPeriph_Driver/src/stm32f4xx_tim.c ****   tmpccmr2 = TIMx->CCMR2;
 26975              		.loc 1 1297 0
 26976 0012 7B68     		ldr	r3, [r7, #4]
 26977 0014 9B8B     		ldrh	r3, [r3, #28]	@ movhi
 26978 0016 FB81     		strh	r3, [r7, #14]	@ movhi
1298:../inc/STM32F4xx_StdPeriph_Driver/src/stm32f4xx_tim.c **** 
1299:../inc/STM32F4xx_StdPeriph_Driver/src/stm32f4xx_tim.c ****   /* Reset the OC3PE Bit */
1300:../inc/STM32F4xx_StdPeriph_Driver/src/stm32f4xx_tim.c ****   tmpccmr2 &= (uint16_t)(~TIM_CCMR2_OC3PE);
 26979              		.loc 1 1300 0
 26980 0018 FB89     		ldrh	r3, [r7, #14]	@ movhi
 26981 001a 23F00803 		bic	r3, r3, #8
 26982 001e FB81     		strh	r3, [r7, #14]	@ movhi
1301:../inc/STM32F4xx_StdPeriph_Driver/src/stm32f4xx_tim.c **** 
1302:../inc/STM32F4xx_StdPeriph_Driver/src/stm32f4xx_tim.c ****   /* Enable or Disable the Output Compare Preload feature */
1303:../inc/STM32F4xx_StdPeriph_Driver/src/stm32f4xx_tim.c ****   tmpccmr2 |= TIM_OCPreload;
 26983              		.loc 1 1303 0
 26984 0020 FA89     		ldrh	r2, [r7, #14]	@ movhi
 26985 0022 7B88     		ldrh	r3, [r7, #2]	@ movhi
 26986 0024 42EA0303 		orr	r3, r2, r3
 26987 0028 FB81     		strh	r3, [r7, #14]	@ movhi
1304:../inc/STM32F4xx_StdPeriph_Driver/src/stm32f4xx_tim.c **** 
1305:../inc/STM32F4xx_StdPeriph_Driver/src/stm32f4xx_tim.c ****   /* Write to TIMx CCMR2 register */
1306:../inc/STM32F4xx_StdPeriph_Driver/src/stm32f4xx_tim.c ****   TIMx->CCMR2 = tmpccmr2;
 26988              		.loc 1 1306 0
 26989 002a 7B68     		ldr	r3, [r7, #4]
 26990 002c FA89     		ldrh	r2, [r7, #14]	@ movhi
 26991 002e 9A83     		strh	r2, [r3, #28]	@ movhi
1307:../inc/STM32F4xx_StdPeriph_Driver/src/stm32f4xx_tim.c **** }
 26992              		.loc 1 1307 0
 26993 0030 07F11407 		add	r7, r7, #20
 26994 0034 BD46     		mov	sp, r7
 26995 0036 80BC     		pop	{r7}
 26996 0038 7047     		bx	lr
 26997              		.cfi_endproc
 26998              	.LFE141:
 27000 003a 00BF     		.section	.text.TIM_OC4PreloadConfig,"ax",%progbits
 27001              		.align	2
 27002              		.global	TIM_OC4PreloadConfig
 27003              		.thumb
 27004              		.thumb_func
 27006              	TIM_OC4PreloadConfig:
 27007              	.LFB142:
1308:../inc/STM32F4xx_StdPeriph_Driver/src/stm32f4xx_tim.c **** 
1309:../inc/STM32F4xx_StdPeriph_Driver/src/stm32f4xx_tim.c **** /**
1310:../inc/STM32F4xx_StdPeriph_Driver/src/stm32f4xx_tim.c ****   * @brief  Enables or disables the TIMx peripheral Preload register on CCR4.
1311:../inc/STM32F4xx_StdPeriph_Driver/src/stm32f4xx_tim.c ****   * @param  TIMx: where x can be  1, 2, 3, 4, 5 or 8 to select the TIM peripheral.
1312:../inc/STM32F4xx_StdPeriph_Driver/src/stm32f4xx_tim.c ****   * @param  TIM_OCPreload: new state of the TIMx peripheral Preload register
1313:../inc/STM32F4xx_StdPeriph_Driver/src/stm32f4xx_tim.c ****   *          This parameter can be one of the following values:
1314:../inc/STM32F4xx_StdPeriph_Driver/src/stm32f4xx_tim.c ****   *            @arg TIM_OCPreload_Enable
1315:../inc/STM32F4xx_StdPeriph_Driver/src/stm32f4xx_tim.c ****   *            @arg TIM_OCPreload_Disable
1316:../inc/STM32F4xx_StdPeriph_Driver/src/stm32f4xx_tim.c ****   * @retval None
1317:../inc/STM32F4xx_StdPeriph_Driver/src/stm32f4xx_tim.c ****   */
1318:../inc/STM32F4xx_StdPeriph_Driver/src/stm32f4xx_tim.c **** void TIM_OC4PreloadConfig(TIM_TypeDef* TIMx, uint16_t TIM_OCPreload)
1319:../inc/STM32F4xx_StdPeriph_Driver/src/stm32f4xx_tim.c **** {
 27008              		.loc 1 1319 0
 27009              		.cfi_startproc
 27010              		@ args = 0, pretend = 0, frame = 16
 27011              		@ frame_needed = 1, uses_anonymous_args = 0
 27012              		@ link register save eliminated.
 27013 0000 80B4     		push	{r7}
 27014              	.LCFI96:
 27015              		.cfi_def_cfa_offset 4
 27016 0002 85B0     		sub	sp, sp, #20
 27017              	.LCFI97:
 27018              		.cfi_def_cfa_offset 24
 27019 0004 00AF     		add	r7, sp, #0
 27020              		.cfi_offset 7, -4
 27021              	.LCFI98:
 27022              		.cfi_def_cfa_register 7
 27023 0006 7860     		str	r0, [r7, #4]
 27024 0008 0B46     		mov	r3, r1
 27025 000a 7B80     		strh	r3, [r7, #2]	@ movhi
1320:../inc/STM32F4xx_StdPeriph_Driver/src/stm32f4xx_tim.c ****   uint16_t tmpccmr2 = 0;
 27026              		.loc 1 1320 0
 27027 000c 4FF00003 		mov	r3, #0
 27028 0010 FB81     		strh	r3, [r7, #14]	@ movhi
1321:../inc/STM32F4xx_StdPeriph_Driver/src/stm32f4xx_tim.c **** 
1322:../inc/STM32F4xx_StdPeriph_Driver/src/stm32f4xx_tim.c ****   /* Check the parameters */
1323:../inc/STM32F4xx_StdPeriph_Driver/src/stm32f4xx_tim.c ****   assert_param(IS_TIM_LIST3_PERIPH(TIMx));
1324:../inc/STM32F4xx_StdPeriph_Driver/src/stm32f4xx_tim.c ****   assert_param(IS_TIM_OCPRELOAD_STATE(TIM_OCPreload));
1325:../inc/STM32F4xx_StdPeriph_Driver/src/stm32f4xx_tim.c **** 
1326:../inc/STM32F4xx_StdPeriph_Driver/src/stm32f4xx_tim.c ****   tmpccmr2 = TIMx->CCMR2;
 27029              		.loc 1 1326 0
 27030 0012 7B68     		ldr	r3, [r7, #4]
 27031 0014 9B8B     		ldrh	r3, [r3, #28]	@ movhi
 27032 0016 FB81     		strh	r3, [r7, #14]	@ movhi
1327:../inc/STM32F4xx_StdPeriph_Driver/src/stm32f4xx_tim.c **** 
1328:../inc/STM32F4xx_StdPeriph_Driver/src/stm32f4xx_tim.c ****   /* Reset the OC4PE Bit */
1329:../inc/STM32F4xx_StdPeriph_Driver/src/stm32f4xx_tim.c ****   tmpccmr2 &= (uint16_t)(~TIM_CCMR2_OC4PE);
 27033              		.loc 1 1329 0
 27034 0018 FB89     		ldrh	r3, [r7, #14]	@ movhi
 27035 001a 23F40063 		bic	r3, r3, #2048
 27036 001e FB81     		strh	r3, [r7, #14]	@ movhi
1330:../inc/STM32F4xx_StdPeriph_Driver/src/stm32f4xx_tim.c **** 
1331:../inc/STM32F4xx_StdPeriph_Driver/src/stm32f4xx_tim.c ****   /* Enable or Disable the Output Compare Preload feature */
1332:../inc/STM32F4xx_StdPeriph_Driver/src/stm32f4xx_tim.c ****   tmpccmr2 |= (uint16_t)(TIM_OCPreload << 8);
 27037              		.loc 1 1332 0
 27038 0020 7B88     		ldrh	r3, [r7, #2]	@ movhi
 27039 0022 4FEA0323 		lsl	r3, r3, #8
 27040 0026 9AB2     		uxth	r2, r3
 27041 0028 FB89     		ldrh	r3, [r7, #14]	@ movhi
 27042 002a 42EA0303 		orr	r3, r2, r3
 27043 002e FB81     		strh	r3, [r7, #14]	@ movhi
1333:../inc/STM32F4xx_StdPeriph_Driver/src/stm32f4xx_tim.c **** 
1334:../inc/STM32F4xx_StdPeriph_Driver/src/stm32f4xx_tim.c ****   /* Write to TIMx CCMR2 register */
1335:../inc/STM32F4xx_StdPeriph_Driver/src/stm32f4xx_tim.c ****   TIMx->CCMR2 = tmpccmr2;
 27044              		.loc 1 1335 0
 27045 0030 7B68     		ldr	r3, [r7, #4]
 27046 0032 FA89     		ldrh	r2, [r7, #14]	@ movhi
 27047 0034 9A83     		strh	r2, [r3, #28]	@ movhi
1336:../inc/STM32F4xx_StdPeriph_Driver/src/stm32f4xx_tim.c **** }
 27048              		.loc 1 1336 0
 27049 0036 07F11407 		add	r7, r7, #20
 27050 003a BD46     		mov	sp, r7
 27051 003c 80BC     		pop	{r7}
 27052 003e 7047     		bx	lr
 27053              		.cfi_endproc
 27054              	.LFE142:
 27056              		.section	.text.TIM_OC1FastConfig,"ax",%progbits
 27057              		.align	2
 27058              		.global	TIM_OC1FastConfig
 27059              		.thumb
 27060              		.thumb_func
 27062              	TIM_OC1FastConfig:
 27063              	.LFB143:
1337:../inc/STM32F4xx_StdPeriph_Driver/src/stm32f4xx_tim.c **** 
1338:../inc/STM32F4xx_StdPeriph_Driver/src/stm32f4xx_tim.c **** /**
1339:../inc/STM32F4xx_StdPeriph_Driver/src/stm32f4xx_tim.c ****   * @brief  Configures the TIMx Output Compare 1 Fast feature.
1340:../inc/STM32F4xx_StdPeriph_Driver/src/stm32f4xx_tim.c ****   * @param  TIMx: where x can be 1 to 14 except 6 and 7, to select the TIM peripheral.
1341:../inc/STM32F4xx_StdPeriph_Driver/src/stm32f4xx_tim.c ****   * @param  TIM_OCFast: new state of the Output Compare Fast Enable Bit.
1342:../inc/STM32F4xx_StdPeriph_Driver/src/stm32f4xx_tim.c ****   *          This parameter can be one of the following values:
1343:../inc/STM32F4xx_StdPeriph_Driver/src/stm32f4xx_tim.c ****   *            @arg TIM_OCFast_Enable: TIM output compare fast enable
1344:../inc/STM32F4xx_StdPeriph_Driver/src/stm32f4xx_tim.c ****   *            @arg TIM_OCFast_Disable: TIM output compare fast disable
1345:../inc/STM32F4xx_StdPeriph_Driver/src/stm32f4xx_tim.c ****   * @retval None
1346:../inc/STM32F4xx_StdPeriph_Driver/src/stm32f4xx_tim.c ****   */
1347:../inc/STM32F4xx_StdPeriph_Driver/src/stm32f4xx_tim.c **** void TIM_OC1FastConfig(TIM_TypeDef* TIMx, uint16_t TIM_OCFast)
1348:../inc/STM32F4xx_StdPeriph_Driver/src/stm32f4xx_tim.c **** {
 27064              		.loc 1 1348 0
 27065              		.cfi_startproc
 27066              		@ args = 0, pretend = 0, frame = 16
 27067              		@ frame_needed = 1, uses_anonymous_args = 0
 27068              		@ link register save eliminated.
 27069 0000 80B4     		push	{r7}
 27070              	.LCFI99:
 27071              		.cfi_def_cfa_offset 4
 27072 0002 85B0     		sub	sp, sp, #20
 27073              	.LCFI100:
 27074              		.cfi_def_cfa_offset 24
 27075 0004 00AF     		add	r7, sp, #0
 27076              		.cfi_offset 7, -4
 27077              	.LCFI101:
 27078              		.cfi_def_cfa_register 7
 27079 0006 7860     		str	r0, [r7, #4]
 27080 0008 0B46     		mov	r3, r1
 27081 000a 7B80     		strh	r3, [r7, #2]	@ movhi
1349:../inc/STM32F4xx_StdPeriph_Driver/src/stm32f4xx_tim.c ****   uint16_t tmpccmr1 = 0;
 27082              		.loc 1 1349 0
 27083 000c 4FF00003 		mov	r3, #0
 27084 0010 FB81     		strh	r3, [r7, #14]	@ movhi
1350:../inc/STM32F4xx_StdPeriph_Driver/src/stm32f4xx_tim.c **** 
1351:../inc/STM32F4xx_StdPeriph_Driver/src/stm32f4xx_tim.c ****   /* Check the parameters */
1352:../inc/STM32F4xx_StdPeriph_Driver/src/stm32f4xx_tim.c ****   assert_param(IS_TIM_LIST1_PERIPH(TIMx));
1353:../inc/STM32F4xx_StdPeriph_Driver/src/stm32f4xx_tim.c ****   assert_param(IS_TIM_OCFAST_STATE(TIM_OCFast));
1354:../inc/STM32F4xx_StdPeriph_Driver/src/stm32f4xx_tim.c **** 
1355:../inc/STM32F4xx_StdPeriph_Driver/src/stm32f4xx_tim.c ****   /* Get the TIMx CCMR1 register value */
1356:../inc/STM32F4xx_StdPeriph_Driver/src/stm32f4xx_tim.c ****   tmpccmr1 = TIMx->CCMR1;
 27085              		.loc 1 1356 0
 27086 0012 7B68     		ldr	r3, [r7, #4]
 27087 0014 1B8B     		ldrh	r3, [r3, #24]	@ movhi
 27088 0016 FB81     		strh	r3, [r7, #14]	@ movhi
1357:../inc/STM32F4xx_StdPeriph_Driver/src/stm32f4xx_tim.c **** 
1358:../inc/STM32F4xx_StdPeriph_Driver/src/stm32f4xx_tim.c ****   /* Reset the OC1FE Bit */
1359:../inc/STM32F4xx_StdPeriph_Driver/src/stm32f4xx_tim.c ****   tmpccmr1 &= (uint16_t)~TIM_CCMR1_OC1FE;
 27089              		.loc 1 1359 0
 27090 0018 FB89     		ldrh	r3, [r7, #14]	@ movhi
 27091 001a 23F00403 		bic	r3, r3, #4
 27092 001e FB81     		strh	r3, [r7, #14]	@ movhi
1360:../inc/STM32F4xx_StdPeriph_Driver/src/stm32f4xx_tim.c **** 
1361:../inc/STM32F4xx_StdPeriph_Driver/src/stm32f4xx_tim.c ****   /* Enable or Disable the Output Compare Fast Bit */
1362:../inc/STM32F4xx_StdPeriph_Driver/src/stm32f4xx_tim.c ****   tmpccmr1 |= TIM_OCFast;
 27093              		.loc 1 1362 0
 27094 0020 FA89     		ldrh	r2, [r7, #14]	@ movhi
 27095 0022 7B88     		ldrh	r3, [r7, #2]	@ movhi
 27096 0024 42EA0303 		orr	r3, r2, r3
 27097 0028 FB81     		strh	r3, [r7, #14]	@ movhi
1363:../inc/STM32F4xx_StdPeriph_Driver/src/stm32f4xx_tim.c **** 
1364:../inc/STM32F4xx_StdPeriph_Driver/src/stm32f4xx_tim.c ****   /* Write to TIMx CCMR1 */
1365:../inc/STM32F4xx_StdPeriph_Driver/src/stm32f4xx_tim.c ****   TIMx->CCMR1 = tmpccmr1;
 27098              		.loc 1 1365 0
 27099 002a 7B68     		ldr	r3, [r7, #4]
 27100 002c FA89     		ldrh	r2, [r7, #14]	@ movhi
 27101 002e 1A83     		strh	r2, [r3, #24]	@ movhi
1366:../inc/STM32F4xx_StdPeriph_Driver/src/stm32f4xx_tim.c **** }
 27102              		.loc 1 1366 0
 27103 0030 07F11407 		add	r7, r7, #20
 27104 0034 BD46     		mov	sp, r7
 27105 0036 80BC     		pop	{r7}
 27106 0038 7047     		bx	lr
 27107              		.cfi_endproc
 27108              	.LFE143:
 27110 003a 00BF     		.section	.text.TIM_OC2FastConfig,"ax",%progbits
 27111              		.align	2
 27112              		.global	TIM_OC2FastConfig
 27113              		.thumb
 27114              		.thumb_func
 27116              	TIM_OC2FastConfig:
 27117              	.LFB144:
1367:../inc/STM32F4xx_StdPeriph_Driver/src/stm32f4xx_tim.c **** 
1368:../inc/STM32F4xx_StdPeriph_Driver/src/stm32f4xx_tim.c **** /**
1369:../inc/STM32F4xx_StdPeriph_Driver/src/stm32f4xx_tim.c ****   * @brief  Configures the TIMx Output Compare 2 Fast feature.
1370:../inc/STM32F4xx_StdPeriph_Driver/src/stm32f4xx_tim.c ****   * @param  TIMx: where x can be  1, 2, 3, 4, 5, 8, 9 or 12 to select the TIM 
1371:../inc/STM32F4xx_StdPeriph_Driver/src/stm32f4xx_tim.c ****   *         peripheral.
1372:../inc/STM32F4xx_StdPeriph_Driver/src/stm32f4xx_tim.c ****   * @param  TIM_OCFast: new state of the Output Compare Fast Enable Bit.
1373:../inc/STM32F4xx_StdPeriph_Driver/src/stm32f4xx_tim.c ****   *          This parameter can be one of the following values:
1374:../inc/STM32F4xx_StdPeriph_Driver/src/stm32f4xx_tim.c ****   *            @arg TIM_OCFast_Enable: TIM output compare fast enable
1375:../inc/STM32F4xx_StdPeriph_Driver/src/stm32f4xx_tim.c ****   *            @arg TIM_OCFast_Disable: TIM output compare fast disable
1376:../inc/STM32F4xx_StdPeriph_Driver/src/stm32f4xx_tim.c ****   * @retval None
1377:../inc/STM32F4xx_StdPeriph_Driver/src/stm32f4xx_tim.c ****   */
1378:../inc/STM32F4xx_StdPeriph_Driver/src/stm32f4xx_tim.c **** void TIM_OC2FastConfig(TIM_TypeDef* TIMx, uint16_t TIM_OCFast)
1379:../inc/STM32F4xx_StdPeriph_Driver/src/stm32f4xx_tim.c **** {
 27118              		.loc 1 1379 0
 27119              		.cfi_startproc
 27120              		@ args = 0, pretend = 0, frame = 16
 27121              		@ frame_needed = 1, uses_anonymous_args = 0
 27122              		@ link register save eliminated.
 27123 0000 80B4     		push	{r7}
 27124              	.LCFI102:
 27125              		.cfi_def_cfa_offset 4
 27126 0002 85B0     		sub	sp, sp, #20
 27127              	.LCFI103:
 27128              		.cfi_def_cfa_offset 24
 27129 0004 00AF     		add	r7, sp, #0
 27130              		.cfi_offset 7, -4
 27131              	.LCFI104:
 27132              		.cfi_def_cfa_register 7
 27133 0006 7860     		str	r0, [r7, #4]
 27134 0008 0B46     		mov	r3, r1
 27135 000a 7B80     		strh	r3, [r7, #2]	@ movhi
1380:../inc/STM32F4xx_StdPeriph_Driver/src/stm32f4xx_tim.c ****   uint16_t tmpccmr1 = 0;
 27136              		.loc 1 1380 0
 27137 000c 4FF00003 		mov	r3, #0
 27138 0010 FB81     		strh	r3, [r7, #14]	@ movhi
1381:../inc/STM32F4xx_StdPeriph_Driver/src/stm32f4xx_tim.c **** 
1382:../inc/STM32F4xx_StdPeriph_Driver/src/stm32f4xx_tim.c ****   /* Check the parameters */
1383:../inc/STM32F4xx_StdPeriph_Driver/src/stm32f4xx_tim.c ****   assert_param(IS_TIM_LIST2_PERIPH(TIMx));
1384:../inc/STM32F4xx_StdPeriph_Driver/src/stm32f4xx_tim.c ****   assert_param(IS_TIM_OCFAST_STATE(TIM_OCFast));
1385:../inc/STM32F4xx_StdPeriph_Driver/src/stm32f4xx_tim.c **** 
1386:../inc/STM32F4xx_StdPeriph_Driver/src/stm32f4xx_tim.c ****   /* Get the TIMx CCMR1 register value */
1387:../inc/STM32F4xx_StdPeriph_Driver/src/stm32f4xx_tim.c ****   tmpccmr1 = TIMx->CCMR1;
 27139              		.loc 1 1387 0
 27140 0012 7B68     		ldr	r3, [r7, #4]
 27141 0014 1B8B     		ldrh	r3, [r3, #24]	@ movhi
 27142 0016 FB81     		strh	r3, [r7, #14]	@ movhi
1388:../inc/STM32F4xx_StdPeriph_Driver/src/stm32f4xx_tim.c **** 
1389:../inc/STM32F4xx_StdPeriph_Driver/src/stm32f4xx_tim.c ****   /* Reset the OC2FE Bit */
1390:../inc/STM32F4xx_StdPeriph_Driver/src/stm32f4xx_tim.c ****   tmpccmr1 &= (uint16_t)(~TIM_CCMR1_OC2FE);
 27143              		.loc 1 1390 0
 27144 0018 FB89     		ldrh	r3, [r7, #14]	@ movhi
 27145 001a 23F48063 		bic	r3, r3, #1024
 27146 001e FB81     		strh	r3, [r7, #14]	@ movhi
1391:../inc/STM32F4xx_StdPeriph_Driver/src/stm32f4xx_tim.c **** 
1392:../inc/STM32F4xx_StdPeriph_Driver/src/stm32f4xx_tim.c ****   /* Enable or Disable the Output Compare Fast Bit */
1393:../inc/STM32F4xx_StdPeriph_Driver/src/stm32f4xx_tim.c ****   tmpccmr1 |= (uint16_t)(TIM_OCFast << 8);
 27147              		.loc 1 1393 0
 27148 0020 7B88     		ldrh	r3, [r7, #2]	@ movhi
 27149 0022 4FEA0323 		lsl	r3, r3, #8
 27150 0026 9AB2     		uxth	r2, r3
 27151 0028 FB89     		ldrh	r3, [r7, #14]	@ movhi
 27152 002a 42EA0303 		orr	r3, r2, r3
 27153 002e FB81     		strh	r3, [r7, #14]	@ movhi
1394:../inc/STM32F4xx_StdPeriph_Driver/src/stm32f4xx_tim.c **** 
1395:../inc/STM32F4xx_StdPeriph_Driver/src/stm32f4xx_tim.c ****   /* Write to TIMx CCMR1 */
1396:../inc/STM32F4xx_StdPeriph_Driver/src/stm32f4xx_tim.c ****   TIMx->CCMR1 = tmpccmr1;
 27154              		.loc 1 1396 0
 27155 0030 7B68     		ldr	r3, [r7, #4]
 27156 0032 FA89     		ldrh	r2, [r7, #14]	@ movhi
 27157 0034 1A83     		strh	r2, [r3, #24]	@ movhi
1397:../inc/STM32F4xx_StdPeriph_Driver/src/stm32f4xx_tim.c **** }
 27158              		.loc 1 1397 0
 27159 0036 07F11407 		add	r7, r7, #20
 27160 003a BD46     		mov	sp, r7
 27161 003c 80BC     		pop	{r7}
 27162 003e 7047     		bx	lr
 27163              		.cfi_endproc
 27164              	.LFE144:
 27166              		.section	.text.TIM_OC3FastConfig,"ax",%progbits
 27167              		.align	2
 27168              		.global	TIM_OC3FastConfig
 27169              		.thumb
 27170              		.thumb_func
 27172              	TIM_OC3FastConfig:
 27173              	.LFB145:
1398:../inc/STM32F4xx_StdPeriph_Driver/src/stm32f4xx_tim.c **** 
1399:../inc/STM32F4xx_StdPeriph_Driver/src/stm32f4xx_tim.c **** /**
1400:../inc/STM32F4xx_StdPeriph_Driver/src/stm32f4xx_tim.c ****   * @brief  Configures the TIMx Output Compare 3 Fast feature.
1401:../inc/STM32F4xx_StdPeriph_Driver/src/stm32f4xx_tim.c ****   * @param  TIMx: where x can be  1, 2, 3, 4, 5 or 8 to select the TIM peripheral.
1402:../inc/STM32F4xx_StdPeriph_Driver/src/stm32f4xx_tim.c ****   * @param  TIM_OCFast: new state of the Output Compare Fast Enable Bit.
1403:../inc/STM32F4xx_StdPeriph_Driver/src/stm32f4xx_tim.c ****   *          This parameter can be one of the following values:
1404:../inc/STM32F4xx_StdPeriph_Driver/src/stm32f4xx_tim.c ****   *            @arg TIM_OCFast_Enable: TIM output compare fast enable
1405:../inc/STM32F4xx_StdPeriph_Driver/src/stm32f4xx_tim.c ****   *            @arg TIM_OCFast_Disable: TIM output compare fast disable
1406:../inc/STM32F4xx_StdPeriph_Driver/src/stm32f4xx_tim.c ****   * @retval None
1407:../inc/STM32F4xx_StdPeriph_Driver/src/stm32f4xx_tim.c ****   */
1408:../inc/STM32F4xx_StdPeriph_Driver/src/stm32f4xx_tim.c **** void TIM_OC3FastConfig(TIM_TypeDef* TIMx, uint16_t TIM_OCFast)
1409:../inc/STM32F4xx_StdPeriph_Driver/src/stm32f4xx_tim.c **** {
 27174              		.loc 1 1409 0
 27175              		.cfi_startproc
 27176              		@ args = 0, pretend = 0, frame = 16
 27177              		@ frame_needed = 1, uses_anonymous_args = 0
 27178              		@ link register save eliminated.
 27179 0000 80B4     		push	{r7}
 27180              	.LCFI105:
 27181              		.cfi_def_cfa_offset 4
 27182 0002 85B0     		sub	sp, sp, #20
 27183              	.LCFI106:
 27184              		.cfi_def_cfa_offset 24
 27185 0004 00AF     		add	r7, sp, #0
 27186              		.cfi_offset 7, -4
 27187              	.LCFI107:
 27188              		.cfi_def_cfa_register 7
 27189 0006 7860     		str	r0, [r7, #4]
 27190 0008 0B46     		mov	r3, r1
 27191 000a 7B80     		strh	r3, [r7, #2]	@ movhi
1410:../inc/STM32F4xx_StdPeriph_Driver/src/stm32f4xx_tim.c ****   uint16_t tmpccmr2 = 0;
 27192              		.loc 1 1410 0
 27193 000c 4FF00003 		mov	r3, #0
 27194 0010 FB81     		strh	r3, [r7, #14]	@ movhi
1411:../inc/STM32F4xx_StdPeriph_Driver/src/stm32f4xx_tim.c ****   
1412:../inc/STM32F4xx_StdPeriph_Driver/src/stm32f4xx_tim.c ****   /* Check the parameters */
1413:../inc/STM32F4xx_StdPeriph_Driver/src/stm32f4xx_tim.c ****   assert_param(IS_TIM_LIST3_PERIPH(TIMx));
1414:../inc/STM32F4xx_StdPeriph_Driver/src/stm32f4xx_tim.c ****   assert_param(IS_TIM_OCFAST_STATE(TIM_OCFast));
1415:../inc/STM32F4xx_StdPeriph_Driver/src/stm32f4xx_tim.c **** 
1416:../inc/STM32F4xx_StdPeriph_Driver/src/stm32f4xx_tim.c ****   /* Get the TIMx CCMR2 register value */
1417:../inc/STM32F4xx_StdPeriph_Driver/src/stm32f4xx_tim.c ****   tmpccmr2 = TIMx->CCMR2;
 27195              		.loc 1 1417 0
 27196 0012 7B68     		ldr	r3, [r7, #4]
 27197 0014 9B8B     		ldrh	r3, [r3, #28]	@ movhi
 27198 0016 FB81     		strh	r3, [r7, #14]	@ movhi
1418:../inc/STM32F4xx_StdPeriph_Driver/src/stm32f4xx_tim.c **** 
1419:../inc/STM32F4xx_StdPeriph_Driver/src/stm32f4xx_tim.c ****   /* Reset the OC3FE Bit */
1420:../inc/STM32F4xx_StdPeriph_Driver/src/stm32f4xx_tim.c ****   tmpccmr2 &= (uint16_t)~TIM_CCMR2_OC3FE;
 27199              		.loc 1 1420 0
 27200 0018 FB89     		ldrh	r3, [r7, #14]	@ movhi
 27201 001a 23F00403 		bic	r3, r3, #4
 27202 001e FB81     		strh	r3, [r7, #14]	@ movhi
1421:../inc/STM32F4xx_StdPeriph_Driver/src/stm32f4xx_tim.c **** 
1422:../inc/STM32F4xx_StdPeriph_Driver/src/stm32f4xx_tim.c ****   /* Enable or Disable the Output Compare Fast Bit */
1423:../inc/STM32F4xx_StdPeriph_Driver/src/stm32f4xx_tim.c ****   tmpccmr2 |= TIM_OCFast;
 27203              		.loc 1 1423 0
 27204 0020 FA89     		ldrh	r2, [r7, #14]	@ movhi
 27205 0022 7B88     		ldrh	r3, [r7, #2]	@ movhi
 27206 0024 42EA0303 		orr	r3, r2, r3
 27207 0028 FB81     		strh	r3, [r7, #14]	@ movhi
1424:../inc/STM32F4xx_StdPeriph_Driver/src/stm32f4xx_tim.c **** 
1425:../inc/STM32F4xx_StdPeriph_Driver/src/stm32f4xx_tim.c ****   /* Write to TIMx CCMR2 */
1426:../inc/STM32F4xx_StdPeriph_Driver/src/stm32f4xx_tim.c ****   TIMx->CCMR2 = tmpccmr2;
 27208              		.loc 1 1426 0
 27209 002a 7B68     		ldr	r3, [r7, #4]
 27210 002c FA89     		ldrh	r2, [r7, #14]	@ movhi
 27211 002e 9A83     		strh	r2, [r3, #28]	@ movhi
1427:../inc/STM32F4xx_StdPeriph_Driver/src/stm32f4xx_tim.c **** }
 27212              		.loc 1 1427 0
 27213 0030 07F11407 		add	r7, r7, #20
 27214 0034 BD46     		mov	sp, r7
 27215 0036 80BC     		pop	{r7}
 27216 0038 7047     		bx	lr
 27217              		.cfi_endproc
 27218              	.LFE145:
 27220 003a 00BF     		.section	.text.TIM_OC4FastConfig,"ax",%progbits
 27221              		.align	2
 27222              		.global	TIM_OC4FastConfig
 27223              		.thumb
 27224              		.thumb_func
 27226              	TIM_OC4FastConfig:
 27227              	.LFB146:
1428:../inc/STM32F4xx_StdPeriph_Driver/src/stm32f4xx_tim.c **** 
1429:../inc/STM32F4xx_StdPeriph_Driver/src/stm32f4xx_tim.c **** /**
1430:../inc/STM32F4xx_StdPeriph_Driver/src/stm32f4xx_tim.c ****   * @brief  Configures the TIMx Output Compare 4 Fast feature.
1431:../inc/STM32F4xx_StdPeriph_Driver/src/stm32f4xx_tim.c ****   * @param  TIMx: where x can be  1, 2, 3, 4, 5 or 8 to select the TIM peripheral.
1432:../inc/STM32F4xx_StdPeriph_Driver/src/stm32f4xx_tim.c ****   * @param  TIM_OCFast: new state of the Output Compare Fast Enable Bit.
1433:../inc/STM32F4xx_StdPeriph_Driver/src/stm32f4xx_tim.c ****   *          This parameter can be one of the following values:
1434:../inc/STM32F4xx_StdPeriph_Driver/src/stm32f4xx_tim.c ****   *            @arg TIM_OCFast_Enable: TIM output compare fast enable
1435:../inc/STM32F4xx_StdPeriph_Driver/src/stm32f4xx_tim.c ****   *            @arg TIM_OCFast_Disable: TIM output compare fast disable
1436:../inc/STM32F4xx_StdPeriph_Driver/src/stm32f4xx_tim.c ****   * @retval None
1437:../inc/STM32F4xx_StdPeriph_Driver/src/stm32f4xx_tim.c ****   */
1438:../inc/STM32F4xx_StdPeriph_Driver/src/stm32f4xx_tim.c **** void TIM_OC4FastConfig(TIM_TypeDef* TIMx, uint16_t TIM_OCFast)
1439:../inc/STM32F4xx_StdPeriph_Driver/src/stm32f4xx_tim.c **** {
 27228              		.loc 1 1439 0
 27229              		.cfi_startproc
 27230              		@ args = 0, pretend = 0, frame = 16
 27231              		@ frame_needed = 1, uses_anonymous_args = 0
 27232              		@ link register save eliminated.
 27233 0000 80B4     		push	{r7}
 27234              	.LCFI108:
 27235              		.cfi_def_cfa_offset 4
 27236 0002 85B0     		sub	sp, sp, #20
 27237              	.LCFI109:
 27238              		.cfi_def_cfa_offset 24
 27239 0004 00AF     		add	r7, sp, #0
 27240              		.cfi_offset 7, -4
 27241              	.LCFI110:
 27242              		.cfi_def_cfa_register 7
 27243 0006 7860     		str	r0, [r7, #4]
 27244 0008 0B46     		mov	r3, r1
 27245 000a 7B80     		strh	r3, [r7, #2]	@ movhi
1440:../inc/STM32F4xx_StdPeriph_Driver/src/stm32f4xx_tim.c ****   uint16_t tmpccmr2 = 0;
 27246              		.loc 1 1440 0
 27247 000c 4FF00003 		mov	r3, #0
 27248 0010 FB81     		strh	r3, [r7, #14]	@ movhi
1441:../inc/STM32F4xx_StdPeriph_Driver/src/stm32f4xx_tim.c **** 
1442:../inc/STM32F4xx_StdPeriph_Driver/src/stm32f4xx_tim.c ****   /* Check the parameters */
1443:../inc/STM32F4xx_StdPeriph_Driver/src/stm32f4xx_tim.c ****   assert_param(IS_TIM_LIST3_PERIPH(TIMx));
1444:../inc/STM32F4xx_StdPeriph_Driver/src/stm32f4xx_tim.c ****   assert_param(IS_TIM_OCFAST_STATE(TIM_OCFast));
1445:../inc/STM32F4xx_StdPeriph_Driver/src/stm32f4xx_tim.c **** 
1446:../inc/STM32F4xx_StdPeriph_Driver/src/stm32f4xx_tim.c ****   /* Get the TIMx CCMR2 register value */
1447:../inc/STM32F4xx_StdPeriph_Driver/src/stm32f4xx_tim.c ****   tmpccmr2 = TIMx->CCMR2;
 27249              		.loc 1 1447 0
 27250 0012 7B68     		ldr	r3, [r7, #4]
 27251 0014 9B8B     		ldrh	r3, [r3, #28]	@ movhi
 27252 0016 FB81     		strh	r3, [r7, #14]	@ movhi
1448:../inc/STM32F4xx_StdPeriph_Driver/src/stm32f4xx_tim.c **** 
1449:../inc/STM32F4xx_StdPeriph_Driver/src/stm32f4xx_tim.c ****   /* Reset the OC4FE Bit */
1450:../inc/STM32F4xx_StdPeriph_Driver/src/stm32f4xx_tim.c ****   tmpccmr2 &= (uint16_t)(~TIM_CCMR2_OC4FE);
 27253              		.loc 1 1450 0
 27254 0018 FB89     		ldrh	r3, [r7, #14]	@ movhi
 27255 001a 23F48063 		bic	r3, r3, #1024
 27256 001e FB81     		strh	r3, [r7, #14]	@ movhi
1451:../inc/STM32F4xx_StdPeriph_Driver/src/stm32f4xx_tim.c **** 
1452:../inc/STM32F4xx_StdPeriph_Driver/src/stm32f4xx_tim.c ****   /* Enable or Disable the Output Compare Fast Bit */
1453:../inc/STM32F4xx_StdPeriph_Driver/src/stm32f4xx_tim.c ****   tmpccmr2 |= (uint16_t)(TIM_OCFast << 8);
 27257              		.loc 1 1453 0
 27258 0020 7B88     		ldrh	r3, [r7, #2]	@ movhi
 27259 0022 4FEA0323 		lsl	r3, r3, #8
 27260 0026 9AB2     		uxth	r2, r3
 27261 0028 FB89     		ldrh	r3, [r7, #14]	@ movhi
 27262 002a 42EA0303 		orr	r3, r2, r3
 27263 002e FB81     		strh	r3, [r7, #14]	@ movhi
1454:../inc/STM32F4xx_StdPeriph_Driver/src/stm32f4xx_tim.c **** 
1455:../inc/STM32F4xx_StdPeriph_Driver/src/stm32f4xx_tim.c ****   /* Write to TIMx CCMR2 */
1456:../inc/STM32F4xx_StdPeriph_Driver/src/stm32f4xx_tim.c ****   TIMx->CCMR2 = tmpccmr2;
 27264              		.loc 1 1456 0
 27265 0030 7B68     		ldr	r3, [r7, #4]
 27266 0032 FA89     		ldrh	r2, [r7, #14]	@ movhi
 27267 0034 9A83     		strh	r2, [r3, #28]	@ movhi
1457:../inc/STM32F4xx_StdPeriph_Driver/src/stm32f4xx_tim.c **** }
 27268              		.loc 1 1457 0
 27269 0036 07F11407 		add	r7, r7, #20
 27270 003a BD46     		mov	sp, r7
 27271 003c 80BC     		pop	{r7}
 27272 003e 7047     		bx	lr
 27273              		.cfi_endproc
 27274              	.LFE146:
 27276              		.section	.text.TIM_ClearOC1Ref,"ax",%progbits
 27277              		.align	2
 27278              		.global	TIM_ClearOC1Ref
 27279              		.thumb
 27280              		.thumb_func
 27282              	TIM_ClearOC1Ref:
 27283              	.LFB147:
1458:../inc/STM32F4xx_StdPeriph_Driver/src/stm32f4xx_tim.c **** 
1459:../inc/STM32F4xx_StdPeriph_Driver/src/stm32f4xx_tim.c **** /**
1460:../inc/STM32F4xx_StdPeriph_Driver/src/stm32f4xx_tim.c ****   * @brief  Clears or safeguards the OCREF1 signal on an external event
1461:../inc/STM32F4xx_StdPeriph_Driver/src/stm32f4xx_tim.c ****   * @param  TIMx: where x can be 1 to 14 except 6 and 7, to select the TIM peripheral.
