   1              		.syntax unified
   2              		.cpu cortex-m4
   3              		.fpu softvfp
   4              		.eabi_attribute 20, 1
   5              		.eabi_attribute 21, 1
   6              		.eabi_attribute 23, 3
   7              		.eabi_attribute 24, 1
   8              		.eabi_attribute 25, 1
   9              		.eabi_attribute 26, 1
  10              		.eabi_attribute 30, 6
  11              		.eabi_attribute 18, 4
  12              		.thumb
  13              		.file	"lis302dl.c"
  23              	.Ltext0:
  24              		.file 1 "../src/lis302dl.c"
 24582              		.align	2
 24583              		.global	LIS302DL_Init
 24584              		.thumb
 24585              		.thumb_func
 24587              	LIS302DL_Init:
 24588              	.LFB110:
   1:../src/lis302dl.c **** #include "lis302dl.h"
   2:../src/lis302dl.c **** #include "stm32f4xx_rcc.h"
   3:../src/lis302dl.c **** 
   4:../src/lis302dl.c **** static uint8_t LIS302DL_SendByte(uint8_t byte);
   5:../src/lis302dl.c **** static uint8_t LIS302DL_GetByte(void);
   6:../src/lis302dl.c **** static void LIS302DL_Read(uint8_t REG, uint8_t *DATA, uint8_t count);
   7:../src/lis302dl.c **** static void LIS302DL_Write(uint8_t REG, uint8_t *DATA, uint8_t count);
   8:../src/lis302dl.c **** 
   9:../src/lis302dl.c **** void LIS302DL_Init() {
 24589              		.loc 1 9 0
 24590              		.cfi_startproc
 24591              		@ args = 0, pretend = 0, frame = 8
 24592              		@ frame_needed = 1, uses_anonymous_args = 0
 24593 0000 80B5     		push	{r7, lr}
 24594              	.LCFI0:
 24595              		.cfi_def_cfa_offset 8
 24596 0002 82B0     		sub	sp, sp, #8
 24597              	.LCFI1:
 24598              		.cfi_def_cfa_offset 16
 24599 0004 00AF     		add	r7, sp, #0
 24600              		.cfi_offset 14, -4
 24601              		.cfi_offset 7, -8
 24602              	.LCFI2:
 24603              		.cfi_def_cfa_register 7
  10:../src/lis302dl.c ****     GPIO_SetBits(GPIOE, GPIO_Pin_3);
 24604              		.loc 1 10 0
 24605 0006 0D48     		ldr	r0, .L2
 24606 0008 4FF00801 		mov	r1, #8
 24607 000c FFF7FEFF 		bl	GPIO_SetBits
  11:../src/lis302dl.c ****     uint8_t reg = 0x47;
 24608              		.loc 1 11 0
 24609 0010 4FF04703 		mov	r3, #71
 24610 0014 FB71     		strb	r3, [r7, #7]
  12:../src/lis302dl.c ****     LIS302DL_Write(0x20, &reg, 1);
 24611              		.loc 1 12 0
 24612 0016 07F10703 		add	r3, r7, #7
 24613 001a 4FF02000 		mov	r0, #32
 24614 001e 1946     		mov	r1, r3
 24615 0020 4FF00102 		mov	r2, #1
 24616 0024 FFF7FEFF 		bl	LIS302DL_Write
  13:../src/lis302dl.c ****     GPIO_ResetBits(GPIOE, GPIO_Pin_3);
 24617              		.loc 1 13 0
 24618 0028 0448     		ldr	r0, .L2
 24619 002a 4FF00801 		mov	r1, #8
 24620 002e FFF7FEFF 		bl	GPIO_ResetBits
  14:../src/lis302dl.c **** }
 24621              		.loc 1 14 0
 24622 0032 07F10807 		add	r7, r7, #8
 24623 0036 BD46     		mov	sp, r7
 24624 0038 80BD     		pop	{r7, pc}
 24625              	.L3:
 24626 003a 00BF     		.align	2
 24627              	.L2:
 24628 003c 00100240 		.word	1073876992
 24629              		.cfi_endproc
 24630              	.LFE110:
 24632              		.section	.text.LIS302DL_ReadACC,"ax",%progbits
 24633              		.align	2
 24634              		.global	LIS302DL_ReadACC
 24635              		.thumb
 24636              		.thumb_func
 24638              	LIS302DL_ReadACC:
 24639              	.LFB111:
  15:../src/lis302dl.c **** 
  16:../src/lis302dl.c **** void LIS302DL_ReadACC(int32_t *out) {
 24640              		.loc 1 16 0
 24641              		.cfi_startproc
 24642              		@ args = 0, pretend = 0, frame = 24
 24643              		@ frame_needed = 1, uses_anonymous_args = 0
 24644 0000 80B5     		push	{r7, lr}
 24645              	.LCFI3:
 24646              		.cfi_def_cfa_offset 8
 24647 0002 86B0     		sub	sp, sp, #24
 24648              	.LCFI4:
 24649              		.cfi_def_cfa_offset 32
 24650 0004 00AF     		add	r7, sp, #0
 24651              		.cfi_offset 14, -4
 24652              		.cfi_offset 7, -8
 24653              	.LCFI5:
 24654              		.cfi_def_cfa_register 7
 24655 0006 7860     		str	r0, [r7, #4]
  17:../src/lis302dl.c ****     uint8_t buffer[6];
  18:../src/lis302dl.c ****     LIS302DL_Read(0x29, buffer, 6);
 24656              		.loc 1 18 0
 24657 0008 07F10C03 		add	r3, r7, #12
 24658 000c 4FF02900 		mov	r0, #41
 24659 0010 1946     		mov	r1, r3
 24660 0012 4FF00602 		mov	r2, #6
 24661 0016 FFF7FEFF 		bl	LIS302DL_Read
 24662              	.LBB2:
  19:../src/lis302dl.c **** 
  20:../src/lis302dl.c ****     for (int i = 0; i < 3; i++) {
 24663              		.loc 1 20 0
 24664 001a 4FF00003 		mov	r3, #0
 24665 001e 7B61     		str	r3, [r7, #20]
 24666 0020 1AE0     		b	.L5
 24667              	.L6:
  21:../src/lis302dl.c ****         *out = (int32_t) (72 * (int8_t) buffer[2 * i]);
 24668              		.loc 1 21 0 discriminator 2
 24669 0022 7B69     		ldr	r3, [r7, #20]
 24670 0024 4FEA4303 		lsl	r3, r3, #1
 24671 0028 07F11802 		add	r2, r7, #24
 24672 002c D318     		adds	r3, r2, r3
 24673 002e 13F80C3C 		ldrb	r3, [r3, #-12]	@ zero_extendqisi2
 24674 0032 DBB2     		uxtb	r3, r3
 24675 0034 5AB2     		sxtb	r2, r3
 24676 0036 1346     		mov	r3, r2
 24677 0038 4FEAC303 		lsl	r3, r3, #3
 24678 003c 9B18     		adds	r3, r3, r2
 24679 003e 4FEAC303 		lsl	r3, r3, #3
 24680 0042 1A46     		mov	r2, r3
 24681 0044 7B68     		ldr	r3, [r7, #4]
 24682 0046 1A60     		str	r2, [r3, #0]
  22:../src/lis302dl.c ****         out++;
 24683              		.loc 1 22 0 discriminator 2
 24684 0048 7B68     		ldr	r3, [r7, #4]
 24685 004a 03F10403 		add	r3, r3, #4
 24686 004e 7B60     		str	r3, [r7, #4]
  20:../src/lis302dl.c ****     for (int i = 0; i < 3; i++) {
 24687              		.loc 1 20 0 discriminator 2
 24688 0050 7B69     		ldr	r3, [r7, #20]
 24689 0052 03F10103 		add	r3, r3, #1
 24690 0056 7B61     		str	r3, [r7, #20]
 24691              	.L5:
  20:../src/lis302dl.c ****     for (int i = 0; i < 3; i++) {
 24692              		.loc 1 20 0 is_stmt 0 discriminator 1
 24693 0058 7B69     		ldr	r3, [r7, #20]
 24694 005a 022B     		cmp	r3, #2
 24695 005c E1DD     		ble	.L6
 24696              	.LBE2:
  23:../src/lis302dl.c ****     }
  24:../src/lis302dl.c **** }
 24697              		.loc 1 24 0 is_stmt 1
 24698 005e 07F11807 		add	r7, r7, #24
 24699 0062 BD46     		mov	sp, r7
 24700 0064 80BD     		pop	{r7, pc}
 24701              		.cfi_endproc
 24702              	.LFE111:
 24704 0066 00BF     		.section	.text.LIS302DL_ReadACCY,"ax",%progbits
 24705              		.align	2
 24706              		.global	LIS302DL_ReadACCY
 24707              		.thumb
 24708              		.thumb_func
 24710              	LIS302DL_ReadACCY:
 24711              	.LFB112:
  25:../src/lis302dl.c **** 
  26:../src/lis302dl.c **** void LIS302DL_ReadACCY(int8_t* out) {
 24712              		.loc 1 26 0
 24713              		.cfi_startproc
 24714              		@ args = 0, pretend = 0, frame = 16
 24715              		@ frame_needed = 1, uses_anonymous_args = 0
 24716 0000 80B5     		push	{r7, lr}
 24717              	.LCFI6:
 24718              		.cfi_def_cfa_offset 8
 24719 0002 84B0     		sub	sp, sp, #16
 24720              	.LCFI7:
 24721              		.cfi_def_cfa_offset 24
 24722 0004 00AF     		add	r7, sp, #0
 24723              		.cfi_offset 14, -4
 24724              		.cfi_offset 7, -8
 24725              	.LCFI8:
 24726              		.cfi_def_cfa_register 7
 24727 0006 7860     		str	r0, [r7, #4]
  27:../src/lis302dl.c ****     uint8_t buffer;
  28:../src/lis302dl.c ****     LIS302DL_Read(0x2B, &buffer, 1);
 24728              		.loc 1 28 0
 24729 0008 07F10F03 		add	r3, r7, #15
 24730 000c 4FF02B00 		mov	r0, #43
 24731 0010 1946     		mov	r1, r3
 24732 0012 4FF00102 		mov	r2, #1
 24733 0016 FFF7FEFF 		bl	LIS302DL_Read
  29:../src/lis302dl.c **** 
  30:../src/lis302dl.c ****     *out = buffer;
 24734              		.loc 1 30 0
 24735 001a FB7B     		ldrb	r3, [r7, #15]	@ zero_extendqisi2
 24736 001c DAB2     		uxtb	r2, r3
 24737 001e 7B68     		ldr	r3, [r7, #4]
 24738 0020 1A70     		strb	r2, [r3, #0]
  31:../src/lis302dl.c **** }
 24739              		.loc 1 31 0
 24740 0022 07F11007 		add	r7, r7, #16
 24741 0026 BD46     		mov	sp, r7
 24742 0028 80BD     		pop	{r7, pc}
 24743              		.cfi_endproc
 24744              	.LFE112:
 24746 002a 00BF     		.section	.text.LIS302DL_ReadACCX,"ax",%progbits
 24747              		.align	2
 24748              		.global	LIS302DL_ReadACCX
 24749              		.thumb
 24750              		.thumb_func
 24752              	LIS302DL_ReadACCX:
 24753              	.LFB113:
  32:../src/lis302dl.c **** 
  33:../src/lis302dl.c **** 
  34:../src/lis302dl.c **** void LIS302DL_ReadACCX(int8_t* out) {
 24754              		.loc 1 34 0
 24755              		.cfi_startproc
 24756              		@ args = 0, pretend = 0, frame = 16
 24757              		@ frame_needed = 1, uses_anonymous_args = 0
 24758 0000 80B5     		push	{r7, lr}
 24759              	.LCFI9:
 24760              		.cfi_def_cfa_offset 8
 24761 0002 84B0     		sub	sp, sp, #16
 24762              	.LCFI10:
 24763              		.cfi_def_cfa_offset 24
 24764 0004 00AF     		add	r7, sp, #0
 24765              		.cfi_offset 14, -4
 24766              		.cfi_offset 7, -8
 24767              	.LCFI11:
 24768              		.cfi_def_cfa_register 7
 24769 0006 7860     		str	r0, [r7, #4]
  35:../src/lis302dl.c ****     uint8_t buffer;
  36:../src/lis302dl.c ****     LIS302DL_Read(0x29, &buffer, 1);
 24770              		.loc 1 36 0
 24771 0008 07F10F03 		add	r3, r7, #15
 24772 000c 4FF02900 		mov	r0, #41
 24773 0010 1946     		mov	r1, r3
 24774 0012 4FF00102 		mov	r2, #1
 24775 0016 FFF7FEFF 		bl	LIS302DL_Read
  37:../src/lis302dl.c **** 
  38:../src/lis302dl.c ****     *out = buffer;
 24776              		.loc 1 38 0
 24777 001a FB7B     		ldrb	r3, [r7, #15]	@ zero_extendqisi2
 24778 001c DAB2     		uxtb	r2, r3
 24779 001e 7B68     		ldr	r3, [r7, #4]
 24780 0020 1A70     		strb	r2, [r3, #0]
  39:../src/lis302dl.c **** }
 24781              		.loc 1 39 0
 24782 0022 07F11007 		add	r7, r7, #16
 24783 0026 BD46     		mov	sp, r7
 24784 0028 80BD     		pop	{r7, pc}
 24785              		.cfi_endproc
 24786              	.LFE113:
 24788 002a 00BF     		.section	.text.LIS302DL_getSatus,"ax",%progbits
 24789              		.align	2
 24790              		.global	LIS302DL_getSatus
 24791              		.thumb
 24792              		.thumb_func
 24794              	LIS302DL_getSatus:
 24795              	.LFB114:
  40:../src/lis302dl.c **** 
  41:../src/lis302dl.c **** void LIS302DL_getSatus(uint8_t *out) {
 24796              		.loc 1 41 0
 24797              		.cfi_startproc
 24798              		@ args = 0, pretend = 0, frame = 8
 24799              		@ frame_needed = 1, uses_anonymous_args = 0
 24800 0000 80B5     		push	{r7, lr}
 24801              	.LCFI12:
 24802              		.cfi_def_cfa_offset 8
 24803 0002 82B0     		sub	sp, sp, #8
 24804              	.LCFI13:
 24805              		.cfi_def_cfa_offset 16
 24806 0004 00AF     		add	r7, sp, #0
 24807              		.cfi_offset 14, -4
 24808              		.cfi_offset 7, -8
 24809              	.LCFI14:
 24810              		.cfi_def_cfa_register 7
 24811 0006 7860     		str	r0, [r7, #4]
  42:../src/lis302dl.c ****     LIS302DL_Read(0x27, out, 1);
 24812              		.loc 1 42 0
 24813 0008 4FF02700 		mov	r0, #39
 24814 000c 7968     		ldr	r1, [r7, #4]
 24815 000e 4FF00102 		mov	r2, #1
 24816 0012 FFF7FEFF 		bl	LIS302DL_Read
  43:../src/lis302dl.c **** }
 24817              		.loc 1 43 0
 24818 0016 07F10807 		add	r7, r7, #8
 24819 001a BD46     		mov	sp, r7
 24820 001c 80BD     		pop	{r7, pc}
 24821              		.cfi_endproc
 24822              	.LFE114:
 24824 001e 00BF     		.section	.text.LIS302DL_SendByte,"ax",%progbits
 24825              		.align	2
 24826              		.thumb
 24827              		.thumb_func
 24829              	LIS302DL_SendByte:
 24830              	.LFB115:
  44:../src/lis302dl.c **** 
  45:../src/lis302dl.c **** static uint8_t LIS302DL_SendByte(uint8_t byte) {
 24831              		.loc 1 45 0
 24832              		.cfi_startproc
 24833              		@ args = 0, pretend = 0, frame = 16
 24834              		@ frame_needed = 1, uses_anonymous_args = 0
 24835 0000 80B5     		push	{r7, lr}
 24836              	.LCFI15:
 24837              		.cfi_def_cfa_offset 8
 24838 0002 84B0     		sub	sp, sp, #16
 24839              	.LCFI16:
 24840              		.cfi_def_cfa_offset 24
 24841 0004 00AF     		add	r7, sp, #0
 24842              		.cfi_offset 14, -4
 24843              		.cfi_offset 7, -8
 24844              	.LCFI17:
 24845              		.cfi_def_cfa_register 7
 24846 0006 0346     		mov	r3, r0
 24847 0008 FB71     		strb	r3, [r7, #7]
  46:../src/lis302dl.c ****     uint32_t LIS302DLTimeout = LIS302DL_FLAG_TIMEOUT;
 24848              		.loc 1 46 0
 24849 000a 4FF48053 		mov	r3, #4096
 24850 000e FB60     		str	r3, [r7, #12]
  47:../src/lis302dl.c **** 
  48:../src/lis302dl.c ****     while (SPI_I2S_GetFlagStatus(SPI1, SPI_FLAG_TXE) == RESET) {
 24851              		.loc 1 48 0
 24852 0010 0EE0     		b	.L11
 24853              	.L13:
  49:../src/lis302dl.c ****         if ((LIS302DLTimeout--) == 0)
 24854              		.loc 1 49 0
 24855 0012 FB68     		ldr	r3, [r7, #12]
 24856 0014 002B     		cmp	r3, #0
 24857 0016 14BF     		ite	ne
 24858 0018 0023     		movne	r3, #0
 24859 001a 0123     		moveq	r3, #1
 24860 001c DBB2     		uxtb	r3, r3
 24861 001e FA68     		ldr	r2, [r7, #12]
 24862 0020 02F1FF32 		add	r2, r2, #-1
 24863 0024 FA60     		str	r2, [r7, #12]
 24864 0026 002B     		cmp	r3, #0
 24865 0028 02D0     		beq	.L11
  50:../src/lis302dl.c ****             return 0x00;
 24866              		.loc 1 50 0
 24867 002a 4FF00003 		mov	r3, #0
 24868 002e 10E0     		b	.L12
 24869              	.L11:
  48:../src/lis302dl.c ****     while (SPI_I2S_GetFlagStatus(SPI1, SPI_FLAG_TXE) == RESET) {
 24870              		.loc 1 48 0 discriminator 1
 24871 0030 0A48     		ldr	r0, .L14
 24872 0032 4FF00201 		mov	r1, #2
 24873 0036 FFF7FEFF 		bl	SPI_I2S_GetFlagStatus
 24874 003a 0346     		mov	r3, r0
 24875 003c 002B     		cmp	r3, #0
 24876 003e E8D0     		beq	.L13
  51:../src/lis302dl.c ****     }
  52:../src/lis302dl.c **** 
  53:../src/lis302dl.c ****     // Send a Byte through the SPI peripheral
  54:../src/lis302dl.c ****     SPI_I2S_SendData(SPI1, byte);
 24877              		.loc 1 54 0
 24878 0040 FB79     		ldrb	r3, [r7, #7]	@ zero_extendqisi2
 24879 0042 9BB2     		uxth	r3, r3
 24880 0044 0548     		ldr	r0, .L14
 24881 0046 1946     		mov	r1, r3
 24882 0048 FFF7FEFF 		bl	SPI_I2S_SendData
  55:../src/lis302dl.c **** 
  56:../src/lis302dl.c ****     return LIS302DL_GetByte();
 24883              		.loc 1 56 0
 24884 004c FFF7FEFF 		bl	LIS302DL_GetByte
 24885 0050 0346     		mov	r3, r0
 24886              	.L12:
  57:../src/lis302dl.c **** }
 24887              		.loc 1 57 0
 24888 0052 1846     		mov	r0, r3
 24889 0054 07F11007 		add	r7, r7, #16
 24890 0058 BD46     		mov	sp, r7
 24891 005a 80BD     		pop	{r7, pc}
 24892              	.L15:
 24893              		.align	2
 24894              	.L14:
 24895 005c 00300140 		.word	1073819648
 24896              		.cfi_endproc
 24897              	.LFE115:
 24899              		.section	.text.LIS302DL_GetByte,"ax",%progbits
 24900              		.align	2
 24901              		.thumb
 24902              		.thumb_func
 24904              	LIS302DL_GetByte:
 24905              	.LFB116:
  58:../src/lis302dl.c **** 
  59:../src/lis302dl.c **** static uint8_t LIS302DL_GetByte() {
 24906              		.loc 1 59 0
 24907              		.cfi_startproc
 24908              		@ args = 0, pretend = 0, frame = 8
 24909              		@ frame_needed = 1, uses_anonymous_args = 0
 24910 0000 80B5     		push	{r7, lr}
 24911              	.LCFI18:
 24912              		.cfi_def_cfa_offset 8
 24913 0002 82B0     		sub	sp, sp, #8
 24914              	.LCFI19:
 24915              		.cfi_def_cfa_offset 16
 24916 0004 00AF     		add	r7, sp, #0
 24917              		.cfi_offset 14, -4
 24918              		.cfi_offset 7, -8
 24919              	.LCFI20:
 24920              		.cfi_def_cfa_register 7
  60:../src/lis302dl.c ****     uint32_t LIS302DLTimeout = LIS302DL_FLAG_TIMEOUT;
 24921              		.loc 1 60 0
 24922 0006 4FF48053 		mov	r3, #4096
 24923 000a 7B60     		str	r3, [r7, #4]
  61:../src/lis302dl.c ****     /* Wait to receive a Byte */
  62:../src/lis302dl.c ****     LIS302DLTimeout = LIS302DL_FLAG_TIMEOUT;
 24924              		.loc 1 62 0
 24925 000c 4FF48053 		mov	r3, #4096
 24926 0010 7B60     		str	r3, [r7, #4]
  63:../src/lis302dl.c ****     while (SPI_I2S_GetFlagStatus(SPI1, SPI_FLAG_RXNE) == RESET) {
 24927              		.loc 1 63 0
 24928 0012 0EE0     		b	.L17
 24929              	.L19:
  64:../src/lis302dl.c ****         if ((LIS302DLTimeout--) == 0)
 24930              		.loc 1 64 0
 24931 0014 7B68     		ldr	r3, [r7, #4]
 24932 0016 002B     		cmp	r3, #0
 24933 0018 14BF     		ite	ne
 24934 001a 0023     		movne	r3, #0
 24935 001c 0123     		moveq	r3, #1
 24936 001e DBB2     		uxtb	r3, r3
 24937 0020 7A68     		ldr	r2, [r7, #4]
 24938 0022 02F1FF32 		add	r2, r2, #-1
 24939 0026 7A60     		str	r2, [r7, #4]
 24940 0028 002B     		cmp	r3, #0
 24941 002a 02D0     		beq	.L17
  65:../src/lis302dl.c ****             return 0x00;
 24942              		.loc 1 65 0
 24943 002c 4FF00003 		mov	r3, #0
 24944 0030 0CE0     		b	.L18
 24945              	.L17:
  63:../src/lis302dl.c ****     while (SPI_I2S_GetFlagStatus(SPI1, SPI_FLAG_RXNE) == RESET) {
 24946              		.loc 1 63 0 discriminator 1
 24947 0032 0948     		ldr	r0, .L20
 24948 0034 4FF00101 		mov	r1, #1
 24949 0038 FFF7FEFF 		bl	SPI_I2S_GetFlagStatus
 24950 003c 0346     		mov	r3, r0
 24951 003e 002B     		cmp	r3, #0
 24952 0040 E8D0     		beq	.L19
  66:../src/lis302dl.c ****     }
  67:../src/lis302dl.c **** 
  68:../src/lis302dl.c ****     /* Return the Byte read from the SPI bus */
  69:../src/lis302dl.c ****     return (uint8_t) SPI_I2S_ReceiveData(SPI1);
 24953              		.loc 1 69 0
 24954 0042 0548     		ldr	r0, .L20
 24955 0044 FFF7FEFF 		bl	SPI_I2S_ReceiveData
 24956 0048 0346     		mov	r3, r0
 24957 004a DBB2     		uxtb	r3, r3
 24958              	.L18:
  70:../src/lis302dl.c **** }
 24959              		.loc 1 70 0
 24960 004c 1846     		mov	r0, r3
 24961 004e 07F10807 		add	r7, r7, #8
 24962 0052 BD46     		mov	sp, r7
 24963 0054 80BD     		pop	{r7, pc}
 24964              	.L21:
 24965 0056 00BF     		.align	2
 24966              	.L20:
 24967 0058 00300140 		.word	1073819648
 24968              		.cfi_endproc
 24969              	.LFE116:
 24971              		.section	.text.LIS302DL_Write,"ax",%progbits
 24972              		.align	2
 24973              		.thumb
 24974              		.thumb_func
 24976              	LIS302DL_Write:
 24977              	.LFB117:
  71:../src/lis302dl.c **** 
  72:../src/lis302dl.c **** static void LIS302DL_Write(uint8_t REG, uint8_t *DATA, uint8_t count) {
 24978              		.loc 1 72 0
 24979              		.cfi_startproc
 24980              		@ args = 0, pretend = 0, frame = 24
 24981              		@ frame_needed = 1, uses_anonymous_args = 0
 24982 0000 80B5     		push	{r7, lr}
 24983              	.LCFI21:
 24984              		.cfi_def_cfa_offset 8
 24985 0002 86B0     		sub	sp, sp, #24
 24986              	.LCFI22:
 24987              		.cfi_def_cfa_offset 32
 24988 0004 00AF     		add	r7, sp, #0
 24989              		.cfi_offset 14, -4
 24990              		.cfi_offset 7, -8
 24991              	.LCFI23:
 24992              		.cfi_def_cfa_register 7
 24993 0006 B960     		str	r1, [r7, #8]
 24994 0008 1346     		mov	r3, r2
 24995 000a 0246     		mov	r2, r0
 24996 000c FA73     		strb	r2, [r7, #15]
 24997 000e FB71     		strb	r3, [r7, #7]
  73:../src/lis302dl.c ****     GPIO_ResetBits(GPIOE, GPIO_Pin_3);
 24998              		.loc 1 73 0
 24999 0010 1348     		ldr	r0, .L25
 25000 0012 4FF00801 		mov	r1, #8
 25001 0016 FFF7FEFF 		bl	GPIO_ResetBits
  74:../src/lis302dl.c ****     LIS302DL_SendByte(REG);
 25002              		.loc 1 74 0
 25003 001a FB7B     		ldrb	r3, [r7, #15]	@ zero_extendqisi2
 25004 001c 1846     		mov	r0, r3
 25005 001e FFF7FEFF 		bl	LIS302DL_SendByte
 25006              	.LBB3:
  75:../src/lis302dl.c ****     for (int i = 0; i < count; i++) {
 25007              		.loc 1 75 0
 25008 0022 4FF00003 		mov	r3, #0
 25009 0026 7B61     		str	r3, [r7, #20]
 25010 0028 0CE0     		b	.L23
 25011              	.L24:
  76:../src/lis302dl.c ****         LIS302DL_SendByte(*DATA);
 25012              		.loc 1 76 0 discriminator 2
 25013 002a BB68     		ldr	r3, [r7, #8]
 25014 002c 1B78     		ldrb	r3, [r3, #0]	@ zero_extendqisi2
 25015 002e 1846     		mov	r0, r3
 25016 0030 FFF7FEFF 		bl	LIS302DL_SendByte
  77:../src/lis302dl.c ****         DATA++;
 25017              		.loc 1 77 0 discriminator 2
 25018 0034 BB68     		ldr	r3, [r7, #8]
 25019 0036 03F10103 		add	r3, r3, #1
 25020 003a BB60     		str	r3, [r7, #8]
  75:../src/lis302dl.c ****     for (int i = 0; i < count; i++) {
 25021              		.loc 1 75 0 discriminator 2
 25022 003c 7B69     		ldr	r3, [r7, #20]
 25023 003e 03F10103 		add	r3, r3, #1
 25024 0042 7B61     		str	r3, [r7, #20]
 25025              	.L23:
  75:../src/lis302dl.c ****     for (int i = 0; i < count; i++) {
 25026              		.loc 1 75 0 is_stmt 0 discriminator 1
 25027 0044 FA79     		ldrb	r2, [r7, #7]	@ zero_extendqisi2
 25028 0046 7B69     		ldr	r3, [r7, #20]
 25029 0048 9A42     		cmp	r2, r3
 25030 004a EEDC     		bgt	.L24
 25031              	.LBE3:
  78:../src/lis302dl.c ****     }
  79:../src/lis302dl.c ****     GPIO_SetBits(GPIOE, GPIO_Pin_3);
 25032              		.loc 1 79 0 is_stmt 1
 25033 004c 0448     		ldr	r0, .L25
 25034 004e 4FF00801 		mov	r1, #8
 25035 0052 FFF7FEFF 		bl	GPIO_SetBits
  80:../src/lis302dl.c **** }
 25036              		.loc 1 80 0
 25037 0056 07F11807 		add	r7, r7, #24
 25038 005a BD46     		mov	sp, r7
 25039 005c 80BD     		pop	{r7, pc}
 25040              	.L26:
 25041 005e 00BF     		.align	2
 25042              	.L25:
 25043 0060 00100240 		.word	1073876992
 25044              		.cfi_endproc
 25045              	.LFE117:
 25047              		.section	.text.LIS302DL_Read,"ax",%progbits
 25048              		.align	2
 25049              		.thumb
 25050              		.thumb_func
 25052              	LIS302DL_Read:
 25053              	.LFB118:
  81:../src/lis302dl.c **** 
  82:../src/lis302dl.c **** static void LIS302DL_Read(uint8_t REG, uint8_t *DATA, uint8_t count) {
 25054              		.loc 1 82 0
 25055              		.cfi_startproc
 25056              		@ args = 0, pretend = 0, frame = 24
 25057              		@ frame_needed = 1, uses_anonymous_args = 0
 25058 0000 80B5     		push	{r7, lr}
 25059              	.LCFI24:
 25060              		.cfi_def_cfa_offset 8
 25061 0002 86B0     		sub	sp, sp, #24
 25062              	.LCFI25:
 25063              		.cfi_def_cfa_offset 32
 25064 0004 00AF     		add	r7, sp, #0
 25065              		.cfi_offset 14, -4
 25066              		.cfi_offset 7, -8
 25067              	.LCFI26:
 25068              		.cfi_def_cfa_register 7
 25069 0006 B960     		str	r1, [r7, #8]
 25070 0008 1346     		mov	r3, r2
 25071 000a 0246     		mov	r2, r0
 25072 000c FA73     		strb	r2, [r7, #15]
 25073 000e FB71     		strb	r3, [r7, #7]
  83:../src/lis302dl.c ****     GPIO_ResetBits(GPIOE, GPIO_Pin_3);
 25074              		.loc 1 83 0
 25075 0010 1A48     		ldr	r0, .L31
 25076 0012 4FF00801 		mov	r1, #8
 25077 0016 FFF7FEFF 		bl	GPIO_ResetBits
  84:../src/lis302dl.c ****     REG |= 0x80;
 25078              		.loc 1 84 0
 25079 001a FB7B     		ldrb	r3, [r7, #15]
 25080 001c 63F07F03 		orn	r3, r3, #127
 25081 0020 FB73     		strb	r3, [r7, #15]
  85:../src/lis302dl.c ****     if (count > 1) {
 25082              		.loc 1 85 0
 25083 0022 FB79     		ldrb	r3, [r7, #7]	@ zero_extendqisi2
 25084 0024 012B     		cmp	r3, #1
 25085 0026 03D9     		bls	.L28
  86:../src/lis302dl.c ****         REG |= 0x40;
 25086              		.loc 1 86 0
 25087 0028 FB7B     		ldrb	r3, [r7, #15]
 25088 002a 43F04003 		orr	r3, r3, #64
 25089 002e FB73     		strb	r3, [r7, #15]
 25090              	.L28:
  87:../src/lis302dl.c ****     }
  88:../src/lis302dl.c ****     LIS302DL_SendByte(REG);
 25091              		.loc 1 88 0
 25092 0030 FB7B     		ldrb	r3, [r7, #15]	@ zero_extendqisi2
 25093 0032 1846     		mov	r0, r3
 25094 0034 FFF7FEFF 		bl	LIS302DL_SendByte
 25095              	.LBB4:
  89:../src/lis302dl.c ****     for (uint8_t i = 0; i < count; i++) {
 25096              		.loc 1 89 0
 25097 0038 4FF00003 		mov	r3, #0
 25098 003c FB75     		strb	r3, [r7, #23]
 25099 003e 0FE0     		b	.L29
 25100              	.L30:
  90:../src/lis302dl.c ****         *DATA = LIS302DL_SendByte((uint8_t) 0x00);
 25101              		.loc 1 90 0 discriminator 2
 25102 0040 4FF00000 		mov	r0, #0
 25103 0044 FFF7FEFF 		bl	LIS302DL_SendByte
 25104 0048 0346     		mov	r3, r0
 25105 004a 1A46     		mov	r2, r3
 25106 004c BB68     		ldr	r3, [r7, #8]
 25107 004e 1A70     		strb	r2, [r3, #0]
  91:../src/lis302dl.c ****         DATA++;
 25108              		.loc 1 91 0 discriminator 2
 25109 0050 BB68     		ldr	r3, [r7, #8]
 25110 0052 03F10103 		add	r3, r3, #1
 25111 0056 BB60     		str	r3, [r7, #8]
  89:../src/lis302dl.c ****     for (uint8_t i = 0; i < count; i++) {
 25112              		.loc 1 89 0 discriminator 2
 25113 0058 FB7D     		ldrb	r3, [r7, #23]
 25114 005a 03F10103 		add	r3, r3, #1
 25115 005e FB75     		strb	r3, [r7, #23]
 25116              	.L29:
  89:../src/lis302dl.c ****     for (uint8_t i = 0; i < count; i++) {
 25117              		.loc 1 89 0 is_stmt 0 discriminator 1
 25118 0060 FA7D     		ldrb	r2, [r7, #23]	@ zero_extendqisi2
 25119 0062 FB79     		ldrb	r3, [r7, #7]	@ zero_extendqisi2
 25120 0064 9A42     		cmp	r2, r3
 25121 0066 EBD3     		bcc	.L30
 25122              	.LBE4:
  92:../src/lis302dl.c ****     }
  93:../src/lis302dl.c **** 
  94:../src/lis302dl.c ****     GPIO_SetBits(GPIOE, GPIO_Pin_3);
 25123              		.loc 1 94 0 is_stmt 1
 25124 0068 0448     		ldr	r0, .L31
 25125 006a 4FF00801 		mov	r1, #8
 25126 006e FFF7FEFF 		bl	GPIO_SetBits
  95:../src/lis302dl.c **** }
 25127              		.loc 1 95 0
 25128 0072 07F11807 		add	r7, r7, #24
 25129 0076 BD46     		mov	sp, r7
 25130 0078 80BD     		pop	{r7, pc}
 25131              	.L32:
 25132 007a 00BF     		.align	2
 25133              	.L31:
 25134 007c 00100240 		.word	1073876992
 25135              		.cfi_endproc
 25136              	.LFE118:
 25138              		.text
 25139              	.Letext0: