   1              		.syntax unified
   2              		.cpu cortex-m4
   3              		.fpu softvfp
   4              		.eabi_attribute 20, 1
   5              		.eabi_attribute 21, 1
   6              		.eabi_attribute 23, 3
   7              		.eabi_attribute 24, 1
   8              		.eabi_attribute 25, 1
   9              		.eabi_attribute 26, 1
  10              		.eabi_attribute 30, 6
  11              		.eabi_attribute 18, 4
  12              		.thumb
  13              		.file	"stm32f4xx_it.c"
  23              	.Ltext0:
  24              		.file 1 "../src/stm32f4xx_it.c"
 25433              		.align	2
 25434              		.global	NMI_Handler
 25435              		.thumb
 25436              		.thumb_func
 25438              	NMI_Handler:
 25439              	.LFB110:
   1:../src/stm32f4xx_it.c **** /**
   2:../src/stm32f4xx_it.c ****   ******************************************************************************
   3:../src/stm32f4xx_it.c ****   * @file    stm32f4xx_it.c
   4:../src/stm32f4xx_it.c ****   * @author  MCD Application Team
   5:../src/stm32f4xx_it.c ****   * @version V1.0.0
   6:../src/stm32f4xx_it.c ****   * @date    19-September-2011
   7:../src/stm32f4xx_it.c ****   * @brief   Main Interrupt Service Routines.
   8:../src/stm32f4xx_it.c ****   *          This file provides all exceptions handler and peripherals interrupt
   9:../src/stm32f4xx_it.c ****   *          service routine.
  10:../src/stm32f4xx_it.c ****   ******************************************************************************
  11:../src/stm32f4xx_it.c ****   * @attention
  12:../src/stm32f4xx_it.c ****   *
  13:../src/stm32f4xx_it.c ****   * THE PRESENT FIRMWARE WHICH IS FOR GUIDANCE ONLY AIMS AT PROVIDING CUSTOMERS
  14:../src/stm32f4xx_it.c ****   * WITH CODING INFORMATION REGARDING THEIR PRODUCTS IN ORDER FOR THEM TO SAVE
  15:../src/stm32f4xx_it.c ****   * TIME. AS A RESULT, STMICROELECTRONICS SHALL NOT BE HELD LIABLE FOR ANY
  16:../src/stm32f4xx_it.c ****   * DIRECT, INDIRECT OR CONSEQUENTIAL DAMAGES WITH RESPECT TO ANY CLAIMS ARISING
  17:../src/stm32f4xx_it.c ****   * FROM THE CONTENT OF SUCH FIRMWARE AND/OR THE USE MADE BY CUSTOMERS OF THE
  18:../src/stm32f4xx_it.c ****   * CODING INFORMATION CONTAINED HEREIN IN CONNECTION WITH THEIR PRODUCTS.
  19:../src/stm32f4xx_it.c ****   *
  20:../src/stm32f4xx_it.c ****   * <h2><center>&copy; COPYRIGHT 2011 STMicroelectronics</center></h2>
  21:../src/stm32f4xx_it.c ****   ******************************************************************************
  22:../src/stm32f4xx_it.c ****   */ 
  23:../src/stm32f4xx_it.c **** 
  24:../src/stm32f4xx_it.c **** /* Includes ------------------------------------------------------------------*/
  25:../src/stm32f4xx_it.c **** #include "stm32f4xx_it.h"
  26:../src/stm32f4xx_it.c **** #include "periph_init.h"
  27:../src/stm32f4xx_it.c **** #include "usb_core.h"
  28:../src/stm32f4xx_it.c **** #include "usbd_core.h"
  29:../src/stm32f4xx_it.c **** #include "stm32f4_discovery.h"
  30:../src/stm32f4xx_it.c **** #include "usbd_cdc_core.h"
  31:../src/stm32f4xx_it.c **** #include "usbd_cdc_vcp.h"
  32:../src/stm32f4xx_it.c **** 
  33:../src/stm32f4xx_it.c **** /* Private typedef -----------------------------------------------------------*/
  34:../src/stm32f4xx_it.c **** /* Private define ------------------------------------------------------------*/
  35:../src/stm32f4xx_it.c **** /* Private macro -------------------------------------------------------------*/
  36:../src/stm32f4xx_it.c **** /* Private variables ---------------------------------------------------------*/
  37:../src/stm32f4xx_it.c **** /* Private function prototypes -----------------------------------------------*/
  38:../src/stm32f4xx_it.c **** extern USB_OTG_CORE_HANDLE           USB_OTG_dev;
  39:../src/stm32f4xx_it.c **** extern uint32_t USBD_OTG_ISR_Handler (USB_OTG_CORE_HANDLE *pdev);
  40:../src/stm32f4xx_it.c **** extern CDC_IF_Prop_TypeDef  VCP_fops;
  41:../src/stm32f4xx_it.c **** 
  42:../src/stm32f4xx_it.c **** /******************************************************************************/
  43:../src/stm32f4xx_it.c **** /*            Cortex-M3 Processor Exceptions Handlers                         */
  44:../src/stm32f4xx_it.c **** /******************************************************************************/
  45:../src/stm32f4xx_it.c **** 
  46:../src/stm32f4xx_it.c **** /**
  47:../src/stm32f4xx_it.c ****   * @brief   This function handles NMI exception.
  48:../src/stm32f4xx_it.c ****   * @param  None
  49:../src/stm32f4xx_it.c ****   * @retval None
  50:../src/stm32f4xx_it.c ****   */
  51:../src/stm32f4xx_it.c **** void NMI_Handler(void)
  52:../src/stm32f4xx_it.c **** {
 25440              		.loc 1 52 0
 25441              		.cfi_startproc
 25442              		@ args = 0, pretend = 0, frame = 0
 25443              		@ frame_needed = 1, uses_anonymous_args = 0
 25444              		@ link register save eliminated.
 25445 0000 80B4     		push	{r7}
 25446              	.LCFI0:
 25447              		.cfi_def_cfa_offset 4
 25448 0002 00AF     		add	r7, sp, #0
 25449              		.cfi_offset 7, -4
 25450              	.LCFI1:
 25451              		.cfi_def_cfa_register 7
  53:../src/stm32f4xx_it.c **** }
 25452              		.loc 1 53 0
 25453 0004 BD46     		mov	sp, r7
 25454 0006 80BC     		pop	{r7}
 25455 0008 7047     		bx	lr
 25456              		.cfi_endproc
 25457              	.LFE110:
 25459 000a 00BF     		.section	.text.HardFault_Handler,"ax",%progbits
 25460              		.align	2
 25461              		.global	HardFault_Handler
 25462              		.thumb
 25463              		.thumb_func
 25465              	HardFault_Handler:
 25466              	.LFB111:
  54:../src/stm32f4xx_it.c **** 
  55:../src/stm32f4xx_it.c **** /**
  56:../src/stm32f4xx_it.c ****   * @brief  This function handles Hard Fault exception.
  57:../src/stm32f4xx_it.c ****   * @param  None
  58:../src/stm32f4xx_it.c ****   * @retval None
  59:../src/stm32f4xx_it.c ****   */
  60:../src/stm32f4xx_it.c **** void HardFault_Handler(void)
  61:../src/stm32f4xx_it.c **** {
 25467              		.loc 1 61 0
 25468              		.cfi_startproc
 25469              		@ args = 0, pretend = 0, frame = 0
 25470              		@ frame_needed = 1, uses_anonymous_args = 0
 25471              		@ link register save eliminated.
 25472 0000 80B4     		push	{r7}
 25473              	.LCFI2:
 25474              		.cfi_def_cfa_offset 4
 25475 0002 00AF     		add	r7, sp, #0
 25476              		.cfi_offset 7, -4
 25477              	.LCFI3:
 25478              		.cfi_def_cfa_register 7
 25479              	.L3:
  62:../src/stm32f4xx_it.c ****   /* Go to infinite loop when Hard Fault exception occurs */
  63:../src/stm32f4xx_it.c ****   while (1)
  64:../src/stm32f4xx_it.c ****   {
  65:../src/stm32f4xx_it.c ****   }
 25480              		.loc 1 65 0 discriminator 1
 25481 0004 FEE7     		b	.L3
 25482              		.cfi_endproc
 25483              	.LFE111:
 25485 0006 00BF     		.section	.text.MemManage_Handler,"ax",%progbits
 25486              		.align	2
 25487              		.global	MemManage_Handler
 25488              		.thumb
 25489              		.thumb_func
 25491              	MemManage_Handler:
 25492              	.LFB112:
  66:../src/stm32f4xx_it.c **** }
  67:../src/stm32f4xx_it.c **** 
  68:../src/stm32f4xx_it.c **** /**
  69:../src/stm32f4xx_it.c ****   * @brief  This function handles Memory Manage exception.
  70:../src/stm32f4xx_it.c ****   * @param  None
  71:../src/stm32f4xx_it.c ****   * @retval None
  72:../src/stm32f4xx_it.c ****   */
  73:../src/stm32f4xx_it.c **** void MemManage_Handler(void)
  74:../src/stm32f4xx_it.c **** {
 25493              		.loc 1 74 0
 25494              		.cfi_startproc
 25495              		@ args = 0, pretend = 0, frame = 0
 25496              		@ frame_needed = 1, uses_anonymous_args = 0
 25497              		@ link register save eliminated.
 25498 0000 80B4     		push	{r7}
 25499              	.LCFI4:
 25500              		.cfi_def_cfa_offset 4
 25501 0002 00AF     		add	r7, sp, #0
 25502              		.cfi_offset 7, -4
 25503              	.LCFI5:
 25504              		.cfi_def_cfa_register 7
 25505              	.L5:
  75:../src/stm32f4xx_it.c ****   /* Go to infinite loop when Memory Manage exception occurs */
  76:../src/stm32f4xx_it.c ****   while (1)
  77:../src/stm32f4xx_it.c ****   {
  78:../src/stm32f4xx_it.c ****   }
 25506              		.loc 1 78 0 discriminator 1
 25507 0004 FEE7     		b	.L5
 25508              		.cfi_endproc
 25509              	.LFE112:
 25511 0006 00BF     		.section	.text.BusFault_Handler,"ax",%progbits
 25512              		.align	2
 25513              		.global	BusFault_Handler
 25514              		.thumb
 25515              		.thumb_func
 25517              	BusFault_Handler:
 25518              	.LFB113:
  79:../src/stm32f4xx_it.c **** }
  80:../src/stm32f4xx_it.c **** 
  81:../src/stm32f4xx_it.c **** /**
  82:../src/stm32f4xx_it.c ****   * @brief  This function handles Bus Fault exception.
  83:../src/stm32f4xx_it.c ****   * @param  None
  84:../src/stm32f4xx_it.c ****   * @retval None
  85:../src/stm32f4xx_it.c ****   */
  86:../src/stm32f4xx_it.c **** void BusFault_Handler(void)
  87:../src/stm32f4xx_it.c **** {
 25519              		.loc 1 87 0
 25520              		.cfi_startproc
 25521              		@ args = 0, pretend = 0, frame = 0
 25522              		@ frame_needed = 1, uses_anonymous_args = 0
 25523              		@ link register save eliminated.
 25524 0000 80B4     		push	{r7}
 25525              	.LCFI6:
 25526              		.cfi_def_cfa_offset 4
 25527 0002 00AF     		add	r7, sp, #0
 25528              		.cfi_offset 7, -4
 25529              	.LCFI7:
 25530              		.cfi_def_cfa_register 7
 25531              	.L7:
  88:../src/stm32f4xx_it.c ****   /* Go to infinite loop when Bus Fault exception occurs */
  89:../src/stm32f4xx_it.c ****   while (1)
  90:../src/stm32f4xx_it.c ****   {
  91:../src/stm32f4xx_it.c ****   }
 25532              		.loc 1 91 0 discriminator 1
 25533 0004 FEE7     		b	.L7
 25534              		.cfi_endproc
 25535              	.LFE113:
 25537 0006 00BF     		.section	.text.UsageFault_Handler,"ax",%progbits
 25538              		.align	2
 25539              		.global	UsageFault_Handler
 25540              		.thumb
 25541              		.thumb_func
 25543              	UsageFault_Handler:
 25544              	.LFB114:
  92:../src/stm32f4xx_it.c **** }
  93:../src/stm32f4xx_it.c **** 
  94:../src/stm32f4xx_it.c **** /**
  95:../src/stm32f4xx_it.c ****   * @brief  This function handles Usage Fault exception.
  96:../src/stm32f4xx_it.c ****   * @param  None
  97:../src/stm32f4xx_it.c ****   * @retval None
  98:../src/stm32f4xx_it.c ****   */
  99:../src/stm32f4xx_it.c **** void UsageFault_Handler(void)
 100:../src/stm32f4xx_it.c **** {
 25545              		.loc 1 100 0
 25546              		.cfi_startproc
 25547              		@ args = 0, pretend = 0, frame = 0
 25548              		@ frame_needed = 1, uses_anonymous_args = 0
 25549              		@ link register save eliminated.
 25550 0000 80B4     		push	{r7}
 25551              	.LCFI8:
 25552              		.cfi_def_cfa_offset 4
 25553 0002 00AF     		add	r7, sp, #0
 25554              		.cfi_offset 7, -4
 25555              	.LCFI9:
 25556              		.cfi_def_cfa_register 7
 25557              	.L9:
 101:../src/stm32f4xx_it.c ****   /* Go to infinite loop when Usage Fault exception occurs */
 102:../src/stm32f4xx_it.c ****   while (1)
 103:../src/stm32f4xx_it.c ****   {
 104:../src/stm32f4xx_it.c ****   }
 25558              		.loc 1 104 0 discriminator 1
 25559 0004 FEE7     		b	.L9
 25560              		.cfi_endproc
 25561              	.LFE114:
 25563 0006 00BF     		.section	.text.SVC_Handler,"ax",%progbits
 25564              		.align	2
 25565              		.global	SVC_Handler
 25566              		.thumb
 25567              		.thumb_func
 25569              	SVC_Handler:
 25570              	.LFB115:
 105:../src/stm32f4xx_it.c **** }
 106:../src/stm32f4xx_it.c **** 
 107:../src/stm32f4xx_it.c **** /**
 108:../src/stm32f4xx_it.c ****   * @brief  This function handles SVCall exception.
 109:../src/stm32f4xx_it.c ****   * @param  None
 110:../src/stm32f4xx_it.c ****   * @retval None
 111:../src/stm32f4xx_it.c ****   */
 112:../src/stm32f4xx_it.c **** void SVC_Handler(void)
 113:../src/stm32f4xx_it.c **** {
 25571              		.loc 1 113 0
 25572              		.cfi_startproc
 25573              		@ args = 0, pretend = 0, frame = 0
 25574              		@ frame_needed = 1, uses_anonymous_args = 0
 25575              		@ link register save eliminated.
 25576 0000 80B4     		push	{r7}
 25577              	.LCFI10:
 25578              		.cfi_def_cfa_offset 4
 25579 0002 00AF     		add	r7, sp, #0
 25580              		.cfi_offset 7, -4
 25581              	.LCFI11:
 25582              		.cfi_def_cfa_register 7
 114:../src/stm32f4xx_it.c **** }
 25583              		.loc 1 114 0
 25584 0004 BD46     		mov	sp, r7
 25585 0006 80BC     		pop	{r7}
 25586 0008 7047     		bx	lr
 25587              		.cfi_endproc
 25588              	.LFE115:
 25590 000a 00BF     		.section	.text.DebugMon_Handler,"ax",%progbits
 25591              		.align	2
 25592              		.global	DebugMon_Handler
 25593              		.thumb
 25594              		.thumb_func
 25596              	DebugMon_Handler:
 25597              	.LFB116:
 115:../src/stm32f4xx_it.c **** 
 116:../src/stm32f4xx_it.c **** /**
 117:../src/stm32f4xx_it.c ****   * @brief  This function handles Debug Monitor exception.
 118:../src/stm32f4xx_it.c ****   * @param  None
 119:../src/stm32f4xx_it.c ****   * @retval None
 120:../src/stm32f4xx_it.c ****   */
 121:../src/stm32f4xx_it.c **** void DebugMon_Handler(void)
 122:../src/stm32f4xx_it.c **** {
 25598              		.loc 1 122 0
 25599              		.cfi_startproc
 25600              		@ args = 0, pretend = 0, frame = 0
 25601              		@ frame_needed = 1, uses_anonymous_args = 0
 25602              		@ link register save eliminated.
 25603 0000 80B4     		push	{r7}
 25604              	.LCFI12:
 25605              		.cfi_def_cfa_offset 4
 25606 0002 00AF     		add	r7, sp, #0
 25607              		.cfi_offset 7, -4
 25608              	.LCFI13:
 25609              		.cfi_def_cfa_register 7
 123:../src/stm32f4xx_it.c **** }
 25610              		.loc 1 123 0
 25611 0004 BD46     		mov	sp, r7
 25612 0006 80BC     		pop	{r7}
 25613 0008 7047     		bx	lr
 25614              		.cfi_endproc
 25615              	.LFE116:
 25617 000a 00BF     		.section	.text.PendSV_Handler,"ax",%progbits
 25618              		.align	2
 25619              		.global	PendSV_Handler
 25620              		.thumb
 25621              		.thumb_func
 25623              	PendSV_Handler:
 25624              	.LFB117:
 124:../src/stm32f4xx_it.c **** 
 125:../src/stm32f4xx_it.c **** /**
 126:../src/stm32f4xx_it.c ****   * @brief  This function handles PendSVC exception.
 127:../src/stm32f4xx_it.c ****   * @param  None
 128:../src/stm32f4xx_it.c ****   * @retval None
 129:../src/stm32f4xx_it.c ****   */
 130:../src/stm32f4xx_it.c **** void PendSV_Handler(void)
 131:../src/stm32f4xx_it.c **** {
 25625              		.loc 1 131 0
 25626              		.cfi_startproc
 25627              		@ args = 0, pretend = 0, frame = 0
 25628              		@ frame_needed = 1, uses_anonymous_args = 0
 25629              		@ link register save eliminated.
 25630 0000 80B4     		push	{r7}
 25631              	.LCFI14:
 25632              		.cfi_def_cfa_offset 4
 25633 0002 00AF     		add	r7, sp, #0
 25634              		.cfi_offset 7, -4
 25635              	.LCFI15:
 25636              		.cfi_def_cfa_register 7
 132:../src/stm32f4xx_it.c **** }
 25637              		.loc 1 132 0
 25638 0004 BD46     		mov	sp, r7
 25639 0006 80BC     		pop	{r7}
 25640 0008 7047     		bx	lr
 25641              		.cfi_endproc
 25642              	.LFE117:
 25644 000a 00BF     		.section	.text.SysTick_Handler,"ax",%progbits
 25645              		.align	2
 25646              		.global	SysTick_Handler
 25647              		.thumb
 25648              		.thumb_func
 25650              	SysTick_Handler:
 25651              	.LFB118:
 133:../src/stm32f4xx_it.c **** 
 134:../src/stm32f4xx_it.c **** /**
 135:../src/stm32f4xx_it.c ****   * @brief  This function handles SysTick Handler.
 136:../src/stm32f4xx_it.c ****   * @param  None
 137:../src/stm32f4xx_it.c ****   * @retval None
 138:../src/stm32f4xx_it.c ****   */
 139:../src/stm32f4xx_it.c **** void SysTick_Handler(void)
 140:../src/stm32f4xx_it.c **** {
 25652              		.loc 1 140 0
 25653              		.cfi_startproc
 25654              		@ args = 0, pretend = 0, frame = 0
 25655              		@ frame_needed = 1, uses_anonymous_args = 0
 25656              		@ link register save eliminated.
 25657 0000 80B4     		push	{r7}
 25658              	.LCFI16:
 25659              		.cfi_def_cfa_offset 4
 25660 0002 00AF     		add	r7, sp, #0
 25661              		.cfi_offset 7, -4
 25662              	.LCFI17:
 25663              		.cfi_def_cfa_register 7
 141:../src/stm32f4xx_it.c ****     SysTime++;
 25664              		.loc 1 141 0
 25665 0004 044B     		ldr	r3, .L14
 25666 0006 1B68     		ldr	r3, [r3, #0]
 25667 0008 03F10102 		add	r2, r3, #1
 25668 000c 024B     		ldr	r3, .L14
 25669 000e 1A60     		str	r2, [r3, #0]
 142:../src/stm32f4xx_it.c **** }
 25670              		.loc 1 142 0
 25671 0010 BD46     		mov	sp, r7
 25672 0012 80BC     		pop	{r7}
 25673 0014 7047     		bx	lr
 25674              	.L15:
 25675 0016 00BF     		.align	2
 25676              	.L14:
 25677 0018 00000000 		.word	SysTime
 25678              		.cfi_endproc
 25679              	.LFE118:
 25681              		.section	.rodata
 25682              		.align	2
 25683              	.LC0:
 25684 0000 48656C6C 		.ascii	"Hello world\012\000"
 25684      6F20776F 
 25684      726C640A 
 25684      00
 25685 000d 000000   		.section	.text.EXTI0_IRQHandler,"ax",%progbits
 25686              		.align	2
 25687              		.global	EXTI0_IRQHandler
 25688              		.thumb
 25689              		.thumb_func
 25691              	EXTI0_IRQHandler:
 25692              	.LFB119:
 143:../src/stm32f4xx_it.c **** 
 144:../src/stm32f4xx_it.c **** /******************************************************************************/
 145:../src/stm32f4xx_it.c **** /*                 STM32Fxxx Peripherals Interrupt Handlers                   */
 146:../src/stm32f4xx_it.c **** /*  Add here the Interrupt Handler for the used peripheral(s) (PPP), for the  */
 147:../src/stm32f4xx_it.c **** /*  available peripheral interrupt handler's name please refer to the startup */
 148:../src/stm32f4xx_it.c **** /*  file (startup_stm32fxxx.s).                                               */
 149:../src/stm32f4xx_it.c **** /******************************************************************************/
 150:../src/stm32f4xx_it.c **** 
 151:../src/stm32f4xx_it.c **** /**
 152:../src/stm32f4xx_it.c ****   * @brief  This function handles PPP interrupt request.
 153:../src/stm32f4xx_it.c ****   * @param  None
 154:../src/stm32f4xx_it.c ****   * @retval None
 155:../src/stm32f4xx_it.c ****   */
 156:../src/stm32f4xx_it.c **** /*void PPP_IRQHandler(void)
 157:../src/stm32f4xx_it.c **** {
 158:../src/stm32f4xx_it.c **** }*/
 159:../src/stm32f4xx_it.c **** 
 160:../src/stm32f4xx_it.c **** /**
 161:../src/stm32f4xx_it.c ****   * @brief  This function handles EXTI0_IRQ Handler.
 162:../src/stm32f4xx_it.c ****   * @param  None
 163:../src/stm32f4xx_it.c ****   * @retval None
 164:../src/stm32f4xx_it.c ****   */
 165:../src/stm32f4xx_it.c **** void EXTI0_IRQHandler(void)
 166:../src/stm32f4xx_it.c **** {
 25693              		.loc 1 166 0
 25694              		.cfi_startproc
 25695              		@ args = 0, pretend = 0, frame = 16
 25696              		@ frame_needed = 1, uses_anonymous_args = 0
 25697 0000 80B5     		push	{r7, lr}
 25698              	.LCFI18:
 25699              		.cfi_def_cfa_offset 8
 25700 0002 84B0     		sub	sp, sp, #16
 25701              	.LCFI19:
 25702              		.cfi_def_cfa_offset 24
 25703 0004 00AF     		add	r7, sp, #0
 25704              		.cfi_offset 14, -4
 25705              		.cfi_offset 7, -8
 25706              	.LCFI20:
 25707              		.cfi_def_cfa_register 7
 167:../src/stm32f4xx_it.c ****   uint8_t test[12] = "Hello world\n";
 25708              		.loc 1 167 0
 25709 0006 0B4A     		ldr	r2, .L17
 25710 0008 07F10403 		add	r3, r7, #4
 25711 000c 07CA     		ldmia	r2, {r0, r1, r2}
 25712 000e 83E80700 		stmia	r3, {r0, r1, r2}
 168:../src/stm32f4xx_it.c ****   
 169:../src/stm32f4xx_it.c ****   APP_FOPS.pIf_DataTx(&test[0],12);
 25713              		.loc 1 169 0
 25714 0012 094B     		ldr	r3, .L17+4
 25715 0014 DB68     		ldr	r3, [r3, #12]
 25716 0016 07F10402 		add	r2, r7, #4
 25717 001a 1046     		mov	r0, r2
 25718 001c 4FF00C01 		mov	r1, #12
 25719 0020 9847     		blx	r3
 170:../src/stm32f4xx_it.c ****   /* Clear the EXTI line pending bit */
 171:../src/stm32f4xx_it.c ****   EXTI_ClearITPendingBit(USER_BUTTON_EXTI_LINE);
 25720              		.loc 1 171 0
 25721 0022 4FF00100 		mov	r0, #1
 25722 0026 FFF7FEFF 		bl	EXTI_ClearITPendingBit
 172:../src/stm32f4xx_it.c **** }
 25723              		.loc 1 172 0
 25724 002a 07F11007 		add	r7, r7, #16
 25725 002e BD46     		mov	sp, r7
 25726 0030 80BD     		pop	{r7, pc}
 25727              	.L18:
 25728 0032 00BF     		.align	2
 25729              	.L17:
 25730 0034 00000000 		.word	.LC0
 25731 0038 00000000 		.word	VCP_fops
 25732              		.cfi_endproc
 25733              	.LFE119:
 25735              		.section	.text.OTG_FS_WKUP_IRQHandler,"ax",%progbits
 25736              		.align	2
 25737              		.global	OTG_FS_WKUP_IRQHandler
 25738              		.thumb
 25739              		.thumb_func
 25741              	OTG_FS_WKUP_IRQHandler:
 25742              	.LFB120:
 173:../src/stm32f4xx_it.c **** 
 174:../src/stm32f4xx_it.c **** /**
 175:../src/stm32f4xx_it.c ****   * @brief  This function handles EXTI15_10_IRQ Handler.
 176:../src/stm32f4xx_it.c ****   * @param  None
 177:../src/stm32f4xx_it.c ****   * @retval None
 178:../src/stm32f4xx_it.c ****   */
 179:../src/stm32f4xx_it.c **** void OTG_FS_WKUP_IRQHandler(void)
 180:../src/stm32f4xx_it.c **** {
 25743              		.loc 1 180 0
 25744              		.cfi_startproc
 25745              		@ args = 0, pretend = 0, frame = 0
 25746              		@ frame_needed = 1, uses_anonymous_args = 0
 25747 0000 80B5     		push	{r7, lr}
 25748              	.LCFI21:
 25749              		.cfi_def_cfa_offset 8
 25750 0002 00AF     		add	r7, sp, #0
 25751              		.cfi_offset 14, -4
 25752              		.cfi_offset 7, -8
 25753              	.LCFI22:
 25754              		.cfi_def_cfa_register 7
 181:../src/stm32f4xx_it.c ****   if(USB_OTG_dev.cfg.low_power)
 25755              		.loc 1 181 0
 25756 0004 094B     		ldr	r3, .L21
 25757 0006 9B7A     		ldrb	r3, [r3, #10]	@ zero_extendqisi2
 25758 0008 002B     		cmp	r3, #0
 25759 000a 0AD0     		beq	.L20
 182:../src/stm32f4xx_it.c ****   {
 183:../src/stm32f4xx_it.c **** 	/* Reset SLEEPDEEP and SLEEPONEXIT bits */
 184:../src/stm32f4xx_it.c **** 	SCB->SCR &= (uint32_t)~((uint32_t)(SCB_SCR_SLEEPDEEP_Msk | SCB_SCR_SLEEPONEXIT_Msk));
 25760              		.loc 1 184 0
 25761 000c 084B     		ldr	r3, .L21+4
 25762 000e 084A     		ldr	r2, .L21+4
 25763 0010 1269     		ldr	r2, [r2, #16]
 25764 0012 22F00602 		bic	r2, r2, #6
 25765 0016 1A61     		str	r2, [r3, #16]
 185:../src/stm32f4xx_it.c **** 
 186:../src/stm32f4xx_it.c **** 	/* After wake-up from sleep mode, reconfigure the system clock */
 187:../src/stm32f4xx_it.c **** 	SystemInit();
 25766              		.loc 1 187 0
 25767 0018 FFF7FEFF 		bl	SystemInit
 188:../src/stm32f4xx_it.c ****     USB_OTG_UngateClock(&USB_OTG_dev);
 25768              		.loc 1 188 0
 25769 001c 0348     		ldr	r0, .L21
 25770 001e FFF7FEFF 		bl	USB_OTG_UngateClock
 25771              	.L20:
 189:../src/stm32f4xx_it.c ****   }
 190:../src/stm32f4xx_it.c ****   EXTI_ClearITPendingBit(EXTI_Line18);
 25772              		.loc 1 190 0
 25773 0022 4FF48020 		mov	r0, #262144
 25774 0026 FFF7FEFF 		bl	EXTI_ClearITPendingBit
 191:../src/stm32f4xx_it.c **** }
 25775              		.loc 1 191 0
 25776 002a 80BD     		pop	{r7, pc}
 25777              	.L22:
 25778              		.align	2
 25779              	.L21:
 25780 002c 00000000 		.word	USB_OTG_dev
 25781 0030 00ED00E0 		.word	-536810240
 25782              		.cfi_endproc
 25783              	.LFE120:
 25785              		.section	.text.OTG_FS_IRQHandler,"ax",%progbits
 25786              		.align	2
 25787              		.global	OTG_FS_IRQHandler
 25788              		.thumb
 25789              		.thumb_func
 25791              	OTG_FS_IRQHandler:
 25792              	.LFB121:
 192:../src/stm32f4xx_it.c **** 
 193:../src/stm32f4xx_it.c **** /**
 194:../src/stm32f4xx_it.c ****   * @brief  This function handles OTG_HS Handler.
 195:../src/stm32f4xx_it.c ****   * @param  None
 196:../src/stm32f4xx_it.c ****   * @retval None
 197:../src/stm32f4xx_it.c ****   */
 198:../src/stm32f4xx_it.c **** void OTG_FS_IRQHandler(void)
 199:../src/stm32f4xx_it.c **** {
 25793              		.loc 1 199 0
 25794              		.cfi_startproc
 25795              		@ args = 0, pretend = 0, frame = 0
 25796              		@ frame_needed = 1, uses_anonymous_args = 0
 25797 0000 80B5     		push	{r7, lr}
 25798              	.LCFI23:
 25799              		.cfi_def_cfa_offset 8
 25800 0002 00AF     		add	r7, sp, #0
 25801              		.cfi_offset 14, -4
 25802              		.cfi_offset 7, -8
 25803              	.LCFI24:
 25804              		.cfi_def_cfa_register 7
 200:../src/stm32f4xx_it.c ****   USBD_OTG_ISR_Handler (&USB_OTG_dev);
 25805              		.loc 1 200 0
 25806 0004 0148     		ldr	r0, .L24
 25807 0006 FFF7FEFF 		bl	USBD_OTG_ISR_Handler
 201:../src/stm32f4xx_it.c **** }
 25808              		.loc 1 201 0
 25809 000a 80BD     		pop	{r7, pc}
 25810              	.L25:
 25811              		.align	2
 25812              	.L24:
 25813 000c 00000000 		.word	USB_OTG_dev
 25814              		.cfi_endproc
 25815              	.LFE121:
 25817              		.text
 25818              	.Letext0: