   1              		.syntax unified
   2              		.cpu cortex-m4
   3              		.fpu softvfp
   4              		.eabi_attribute 20, 1
   5              		.eabi_attribute 21, 1
   6              		.eabi_attribute 23, 3
   7              		.eabi_attribute 24, 1
   8              		.eabi_attribute 25, 1
   9              		.eabi_attribute 26, 1
  10              		.eabi_attribute 30, 6
  11              		.eabi_attribute 18, 4
  12              		.thumb
  13              		.file	"stm32f4_discovery.c"
  23              	.Ltext0:
  24              		.file 1 "../src/stm32f4_discovery.c"
 24643              		.align	2
 24646              	GPIO_PORT:
 24647 0000 000C0240 		.word	1073875968
 24648 0004 000C0240 		.word	1073875968
 24649 0008 000C0240 		.word	1073875968
 24650 000c 000C0240 		.word	1073875968
 24651              		.global	GPIO_PIN
 24652              		.section	.rodata.GPIO_PIN,"a",%progbits
 24653              		.align	2
 24656              	GPIO_PIN:
 24657 0000 0010     		.short	4096
 24658 0002 0020     		.short	8192
 24659 0004 0040     		.short	16384
 24660 0006 0080     		.short	-32768
 24661              		.global	GPIO_CLK
 24662              		.section	.rodata.GPIO_CLK,"a",%progbits
 24663              		.align	2
 24666              	GPIO_CLK:
 24667 0000 08000000 		.word	8
 24668 0004 08000000 		.word	8
 24669 0008 08000000 		.word	8
 24670 000c 08000000 		.word	8
 24671              		.global	BUTTON_PORT
 24672              		.section	.data.BUTTON_PORT,"aw",%progbits
 24673              		.align	2
 24676              	BUTTON_PORT:
 24677 0000 00000240 		.word	1073872896
 24678              		.global	BUTTON_PIN
 24679              		.section	.rodata.BUTTON_PIN,"a",%progbits
 24680              		.align	2
 24683              	BUTTON_PIN:
 24684 0000 0100     		.short	1
 24685              		.global	BUTTON_CLK
 24686 0002 0000     		.section	.rodata.BUTTON_CLK,"a",%progbits
 24687              		.align	2
 24690              	BUTTON_CLK:
 24691 0000 01000000 		.word	1
 24692              		.global	BUTTON_EXTI_LINE
 24693              		.section	.rodata.BUTTON_EXTI_LINE,"a",%progbits
 24694              		.align	2
 24697              	BUTTON_EXTI_LINE:
 24698 0000 0100     		.short	1
 24699              		.global	BUTTON_PORT_SOURCE
 24700 0002 0000     		.section	.rodata.BUTTON_PORT_SOURCE,"a",%progbits
 24701              		.align	2
 24704              	BUTTON_PORT_SOURCE:
 24705 0000 00       		.space	1
 24706              		.global	BUTTON_PIN_SOURCE
 24707 0001 000000   		.section	.rodata.BUTTON_PIN_SOURCE,"a",%progbits
 24708              		.align	2
 24711              	BUTTON_PIN_SOURCE:
 24712 0000 00       		.space	1
 24713              		.global	BUTTON_IRQn
 24714 0001 000000   		.section	.rodata.BUTTON_IRQn,"a",%progbits
 24715              		.align	2
 24718              	BUTTON_IRQn:
 24719 0000 06       		.byte	6
 24720              		.comm	NVIC_InitStructure,4,4
 24721 0001 000000   		.section	.text.STM_EVAL_LEDInit,"ax",%progbits
 24722              		.align	2
 24723              		.global	STM_EVAL_LEDInit
 24724              		.thumb
 24725              		.thumb_func
 24727              	STM_EVAL_LEDInit:
 24728              	.LFB110:
   1:../src/stm32f4_discovery.c **** /**
   2:../src/stm32f4_discovery.c ****   ******************************************************************************
   3:../src/stm32f4_discovery.c ****   * @file    stm32f4_discovery.c
   4:../src/stm32f4_discovery.c ****   * @author  MCD Application Team
   5:../src/stm32f4_discovery.c ****   * @version V1.1.0
   6:../src/stm32f4_discovery.c ****   * @date    28-October-2011
   7:../src/stm32f4_discovery.c ****   * @brief   This file provides set of firmware functions to manage Leds and
   8:../src/stm32f4_discovery.c ****   *          push-button available on STM32F4-Discovery Kit from STMicroelectronics.
   9:../src/stm32f4_discovery.c ****   ******************************************************************************
  10:../src/stm32f4_discovery.c ****   * @attention
  11:../src/stm32f4_discovery.c ****   *
  12:../src/stm32f4_discovery.c ****   * THE PRESENT FIRMWARE WHICH IS FOR GUIDANCE ONLY AIMS AT PROVIDING CUSTOMERS
  13:../src/stm32f4_discovery.c ****   * WITH CODING INFORMATION REGARDING THEIR PRODUCTS IN ORDER FOR THEM TO SAVE
  14:../src/stm32f4_discovery.c ****   * TIME. AS A RESULT, STMICROELECTRONICS SHALL NOT BE HELD LIABLE FOR ANY
  15:../src/stm32f4_discovery.c ****   * DIRECT, INDIRECT OR CONSEQUENTIAL DAMAGES WITH RESPECT TO ANY CLAIMS ARISING
  16:../src/stm32f4_discovery.c ****   * FROM THE CONTENT OF SUCH FIRMWARE AND/OR THE USE MADE BY CUSTOMERS OF THE
  17:../src/stm32f4_discovery.c ****   * CODING INFORMATION CONTAINED HEREIN IN CONNECTION WITH THEIR PRODUCTS.
  18:../src/stm32f4_discovery.c ****   *
  19:../src/stm32f4_discovery.c ****   * <h2><center>&copy; COPYRIGHT 2011 STMicroelectronics</center></h2>
  20:../src/stm32f4_discovery.c ****   ******************************************************************************
  21:../src/stm32f4_discovery.c ****   */ 
  22:../src/stm32f4_discovery.c ****   
  23:../src/stm32f4_discovery.c **** /* Includes ------------------------------------------------------------------*/
  24:../src/stm32f4_discovery.c **** #include "stm32f4_discovery.h"
  25:../src/stm32f4_discovery.c **** 
  26:../src/stm32f4_discovery.c **** /** @addtogroup Utilities
  27:../src/stm32f4_discovery.c ****   * @{
  28:../src/stm32f4_discovery.c ****   */ 
  29:../src/stm32f4_discovery.c **** 
  30:../src/stm32f4_discovery.c **** /** @addtogroup STM32F4_DISCOVERY
  31:../src/stm32f4_discovery.c ****   * @{
  32:../src/stm32f4_discovery.c ****   */   
  33:../src/stm32f4_discovery.c ****     
  34:../src/stm32f4_discovery.c **** /** @defgroup STM32F4_DISCOVERY_LOW_LEVEL 
  35:../src/stm32f4_discovery.c ****   * @brief This file provides set of firmware functions to manage Leds and push-button
  36:../src/stm32f4_discovery.c ****   *        available on STM32F4-Discovery Kit from STMicroelectronics.
  37:../src/stm32f4_discovery.c ****   * @{
  38:../src/stm32f4_discovery.c ****   */ 
  39:../src/stm32f4_discovery.c **** 
  40:../src/stm32f4_discovery.c **** /** @defgroup STM32F4_DISCOVERY_LOW_LEVEL_Private_TypesDefinitions
  41:../src/stm32f4_discovery.c ****   * @{
  42:../src/stm32f4_discovery.c ****   */ 
  43:../src/stm32f4_discovery.c **** /**
  44:../src/stm32f4_discovery.c ****   * @}
  45:../src/stm32f4_discovery.c ****   */ 
  46:../src/stm32f4_discovery.c **** 
  47:../src/stm32f4_discovery.c **** 
  48:../src/stm32f4_discovery.c **** /** @defgroup STM32F4_DISCOVERY_LOW_LEVEL_Private_Defines
  49:../src/stm32f4_discovery.c ****   * @{
  50:../src/stm32f4_discovery.c ****   */ 
  51:../src/stm32f4_discovery.c **** /**
  52:../src/stm32f4_discovery.c ****   * @}
  53:../src/stm32f4_discovery.c ****   */ 
  54:../src/stm32f4_discovery.c **** 
  55:../src/stm32f4_discovery.c **** 
  56:../src/stm32f4_discovery.c **** /** @defgroup STM32F4_DISCOVERY_LOW_LEVEL_Private_Macros
  57:../src/stm32f4_discovery.c ****   * @{
  58:../src/stm32f4_discovery.c ****   */ 
  59:../src/stm32f4_discovery.c **** /**
  60:../src/stm32f4_discovery.c ****   * @}
  61:../src/stm32f4_discovery.c ****   */ 
  62:../src/stm32f4_discovery.c **** 
  63:../src/stm32f4_discovery.c **** 
  64:../src/stm32f4_discovery.c **** /** @defgroup STM32F4_DISCOVERY_LOW_LEVEL_Private_Variables
  65:../src/stm32f4_discovery.c ****   * @{
  66:../src/stm32f4_discovery.c ****   */ 
  67:../src/stm32f4_discovery.c **** GPIO_TypeDef* GPIO_PORT[LEDn] = {LED4_GPIO_PORT, LED3_GPIO_PORT, LED5_GPIO_PORT,
  68:../src/stm32f4_discovery.c ****                                  LED6_GPIO_PORT};
  69:../src/stm32f4_discovery.c **** const uint16_t GPIO_PIN[LEDn] = {LED4_PIN, LED3_PIN, LED5_PIN,
  70:../src/stm32f4_discovery.c ****                                  LED6_PIN};
  71:../src/stm32f4_discovery.c **** const uint32_t GPIO_CLK[LEDn] = {LED4_GPIO_CLK, LED3_GPIO_CLK, LED5_GPIO_CLK,
  72:../src/stm32f4_discovery.c ****                                  LED6_GPIO_CLK};
  73:../src/stm32f4_discovery.c **** 
  74:../src/stm32f4_discovery.c **** GPIO_TypeDef* BUTTON_PORT[BUTTONn] = {USER_BUTTON_GPIO_PORT }; 
  75:../src/stm32f4_discovery.c **** 
  76:../src/stm32f4_discovery.c **** const uint16_t BUTTON_PIN[BUTTONn] = {USER_BUTTON_PIN }; 
  77:../src/stm32f4_discovery.c **** 
  78:../src/stm32f4_discovery.c **** const uint32_t BUTTON_CLK[BUTTONn] = {USER_BUTTON_GPIO_CLK };
  79:../src/stm32f4_discovery.c **** 
  80:../src/stm32f4_discovery.c **** const uint16_t BUTTON_EXTI_LINE[BUTTONn] = {USER_BUTTON_EXTI_LINE };
  81:../src/stm32f4_discovery.c **** 
  82:../src/stm32f4_discovery.c **** const uint8_t BUTTON_PORT_SOURCE[BUTTONn] = {USER_BUTTON_EXTI_PORT_SOURCE};
  83:../src/stm32f4_discovery.c **** 								 
  84:../src/stm32f4_discovery.c **** const uint8_t BUTTON_PIN_SOURCE[BUTTONn] = {USER_BUTTON_EXTI_PIN_SOURCE }; 
  85:../src/stm32f4_discovery.c **** const uint8_t BUTTON_IRQn[BUTTONn] = {USER_BUTTON_EXTI_IRQn };
  86:../src/stm32f4_discovery.c **** 
  87:../src/stm32f4_discovery.c **** NVIC_InitTypeDef   NVIC_InitStructure;
  88:../src/stm32f4_discovery.c **** 
  89:../src/stm32f4_discovery.c **** /**
  90:../src/stm32f4_discovery.c ****   * @}
  91:../src/stm32f4_discovery.c ****   */ 
  92:../src/stm32f4_discovery.c **** 
  93:../src/stm32f4_discovery.c **** 
  94:../src/stm32f4_discovery.c **** /** @defgroup STM32F4_DISCOVERY_LOW_LEVEL_Private_FunctionPrototypes
  95:../src/stm32f4_discovery.c ****   * @{
  96:../src/stm32f4_discovery.c ****   */ 
  97:../src/stm32f4_discovery.c **** 
  98:../src/stm32f4_discovery.c **** /**
  99:../src/stm32f4_discovery.c ****   * @}
 100:../src/stm32f4_discovery.c ****   */ 
 101:../src/stm32f4_discovery.c **** 
 102:../src/stm32f4_discovery.c **** /** @defgroup STM32F4_DISCOVERY_LOW_LEVEL_Private_Functions
 103:../src/stm32f4_discovery.c ****   * @{
 104:../src/stm32f4_discovery.c ****   */ 
 105:../src/stm32f4_discovery.c **** 
 106:../src/stm32f4_discovery.c **** /**
 107:../src/stm32f4_discovery.c ****   * @brief  Configures LED GPIO.
 108:../src/stm32f4_discovery.c ****   * @param  Led: Specifies the Led to be configured. 
 109:../src/stm32f4_discovery.c ****   *   This parameter can be one of following parameters:
 110:../src/stm32f4_discovery.c ****   *     @arg LED4
 111:../src/stm32f4_discovery.c ****   *     @arg LED3
 112:../src/stm32f4_discovery.c ****   *     @arg LED5
 113:../src/stm32f4_discovery.c ****   *     @arg LED6
 114:../src/stm32f4_discovery.c ****   * @retval None
 115:../src/stm32f4_discovery.c ****   */
 116:../src/stm32f4_discovery.c **** void STM_EVAL_LEDInit(Led_TypeDef Led)
 117:../src/stm32f4_discovery.c **** {
 24729              		.loc 1 117 0
 24730              		.cfi_startproc
 24731              		@ args = 0, pretend = 0, frame = 16
 24732              		@ frame_needed = 1, uses_anonymous_args = 0
 24733 0000 80B5     		push	{r7, lr}
 24734              	.LCFI0:
 24735              		.cfi_def_cfa_offset 8
 24736 0002 84B0     		sub	sp, sp, #16
 24737              	.LCFI1:
 24738              		.cfi_def_cfa_offset 24
 24739 0004 00AF     		add	r7, sp, #0
 24740              		.cfi_offset 14, -4
 24741              		.cfi_offset 7, -8
 24742              	.LCFI2:
 24743              		.cfi_def_cfa_register 7
 24744 0006 0346     		mov	r3, r0
 24745 0008 FB71     		strb	r3, [r7, #7]
 118:../src/stm32f4_discovery.c ****   GPIO_InitTypeDef  GPIO_InitStructure;
 119:../src/stm32f4_discovery.c ****   
 120:../src/stm32f4_discovery.c ****   /* Enable the GPIO_LED Clock */
 121:../src/stm32f4_discovery.c ****   RCC_AHB1PeriphClockCmd(GPIO_CLK[Led], ENABLE);
 24746              		.loc 1 121 0
 24747 000a FA79     		ldrb	r2, [r7, #7]	@ zero_extendqisi2
 24748 000c 134B     		ldr	r3, .L2
 24749 000e 53F82230 		ldr	r3, [r3, r2, lsl #2]
 24750 0012 1846     		mov	r0, r3
 24751 0014 4FF00101 		mov	r1, #1
 24752 0018 FFF7FEFF 		bl	RCC_AHB1PeriphClockCmd
 122:../src/stm32f4_discovery.c **** 
 123:../src/stm32f4_discovery.c ****   /* Configure the GPIO_LED pin */
 124:../src/stm32f4_discovery.c ****   GPIO_InitStructure.GPIO_Pin = GPIO_PIN[Led];
 24753              		.loc 1 124 0
 24754 001c FA79     		ldrb	r2, [r7, #7]	@ zero_extendqisi2
 24755 001e 104B     		ldr	r3, .L2+4
 24756 0020 33F81230 		ldrh	r3, [r3, r2, lsl #1]
 24757 0024 BB60     		str	r3, [r7, #8]
 125:../src/stm32f4_discovery.c ****   GPIO_InitStructure.GPIO_Mode = GPIO_Mode_OUT;
 24758              		.loc 1 125 0
 24759 0026 4FF00103 		mov	r3, #1
 24760 002a 3B73     		strb	r3, [r7, #12]
 126:../src/stm32f4_discovery.c ****   GPIO_InitStructure.GPIO_OType = GPIO_OType_PP;
 24761              		.loc 1 126 0
 24762 002c 4FF00003 		mov	r3, #0
 24763 0030 BB73     		strb	r3, [r7, #14]
 127:../src/stm32f4_discovery.c ****   GPIO_InitStructure.GPIO_PuPd = GPIO_PuPd_UP;
 24764              		.loc 1 127 0
 24765 0032 4FF00103 		mov	r3, #1
 24766 0036 FB73     		strb	r3, [r7, #15]
 128:../src/stm32f4_discovery.c ****   GPIO_InitStructure.GPIO_Speed = GPIO_Speed_50MHz;
 24767              		.loc 1 128 0
 24768 0038 4FF00203 		mov	r3, #2
 24769 003c 7B73     		strb	r3, [r7, #13]
 129:../src/stm32f4_discovery.c ****   GPIO_Init(GPIO_PORT[Led], &GPIO_InitStructure);
 24770              		.loc 1 129 0
 24771 003e FA79     		ldrb	r2, [r7, #7]	@ zero_extendqisi2
 24772 0040 084B     		ldr	r3, .L2+8
 24773 0042 53F82220 		ldr	r2, [r3, r2, lsl #2]
 24774 0046 07F10803 		add	r3, r7, #8
 24775 004a 1046     		mov	r0, r2
 24776 004c 1946     		mov	r1, r3
 24777 004e FFF7FEFF 		bl	GPIO_Init
 130:../src/stm32f4_discovery.c **** }
 24778              		.loc 1 130 0
 24779 0052 07F11007 		add	r7, r7, #16
 24780 0056 BD46     		mov	sp, r7
 24781 0058 80BD     		pop	{r7, pc}
 24782              	.L3:
 24783 005a 00BF     		.align	2
 24784              	.L2:
 24785 005c 00000000 		.word	GPIO_CLK
 24786 0060 00000000 		.word	GPIO_PIN
 24787 0064 00000000 		.word	GPIO_PORT
 24788              		.cfi_endproc
 24789              	.LFE110:
 24791              		.section	.text.STM_EVAL_LEDOn,"ax",%progbits
 24792              		.align	2
 24793              		.global	STM_EVAL_LEDOn
 24794              		.thumb
 24795              		.thumb_func
 24797              	STM_EVAL_LEDOn:
 24798              	.LFB111:
 131:../src/stm32f4_discovery.c **** 
 132:../src/stm32f4_discovery.c **** /**
 133:../src/stm32f4_discovery.c ****   * @brief  Turns selected LED On.
 134:../src/stm32f4_discovery.c ****   * @param  Led: Specifies the Led to be set on. 
 135:../src/stm32f4_discovery.c ****   *   This parameter can be one of following parameters:
 136:../src/stm32f4_discovery.c ****   *     @arg LED4
 137:../src/stm32f4_discovery.c ****   *     @arg LED3
 138:../src/stm32f4_discovery.c ****   *     @arg LED5
 139:../src/stm32f4_discovery.c ****   *     @arg LED6  
 140:../src/stm32f4_discovery.c ****   * @retval None
 141:../src/stm32f4_discovery.c ****   */
 142:../src/stm32f4_discovery.c **** void STM_EVAL_LEDOn(Led_TypeDef Led)
 143:../src/stm32f4_discovery.c **** {
 24799              		.loc 1 143 0
 24800              		.cfi_startproc
 24801              		@ args = 0, pretend = 0, frame = 8
 24802              		@ frame_needed = 1, uses_anonymous_args = 0
 24803              		@ link register save eliminated.
 24804 0000 80B4     		push	{r7}
 24805              	.LCFI3:
 24806              		.cfi_def_cfa_offset 4
 24807 0002 83B0     		sub	sp, sp, #12
 24808              	.LCFI4:
 24809              		.cfi_def_cfa_offset 16
 24810 0004 00AF     		add	r7, sp, #0
 24811              		.cfi_offset 7, -4
 24812              	.LCFI5:
 24813              		.cfi_def_cfa_register 7
 24814 0006 0346     		mov	r3, r0
 24815 0008 FB71     		strb	r3, [r7, #7]
 144:../src/stm32f4_discovery.c ****   GPIO_PORT[Led]->BSRRL = GPIO_PIN[Led];
 24816              		.loc 1 144 0
 24817 000a FA79     		ldrb	r2, [r7, #7]	@ zero_extendqisi2
 24818 000c 064B     		ldr	r3, .L5
 24819 000e 53F82230 		ldr	r3, [r3, r2, lsl #2]
 24820 0012 F979     		ldrb	r1, [r7, #7]	@ zero_extendqisi2
 24821 0014 054A     		ldr	r2, .L5+4
 24822 0016 32F81120 		ldrh	r2, [r2, r1, lsl #1]
 24823 001a 1A83     		strh	r2, [r3, #24]	@ movhi
 145:../src/stm32f4_discovery.c **** }
 24824              		.loc 1 145 0
 24825 001c 07F10C07 		add	r7, r7, #12
 24826 0020 BD46     		mov	sp, r7
 24827 0022 80BC     		pop	{r7}
 24828 0024 7047     		bx	lr
 24829              	.L6:
 24830 0026 00BF     		.align	2
 24831              	.L5:
 24832 0028 00000000 		.word	GPIO_PORT
 24833 002c 00000000 		.word	GPIO_PIN
 24834              		.cfi_endproc
 24835              	.LFE111:
 24837              		.section	.text.STM_EVAL_LEDOff,"ax",%progbits
 24838              		.align	2
 24839              		.global	STM_EVAL_LEDOff
 24840              		.thumb
 24841              		.thumb_func
 24843              	STM_EVAL_LEDOff:
 24844              	.LFB112:
 146:../src/stm32f4_discovery.c **** 
 147:../src/stm32f4_discovery.c **** /**
 148:../src/stm32f4_discovery.c ****   * @brief  Turns selected LED Off.
 149:../src/stm32f4_discovery.c ****   * @param  Led: Specifies the Led to be set off. 
 150:../src/stm32f4_discovery.c ****   *   This parameter can be one of following parameters:
 151:../src/stm32f4_discovery.c ****   *     @arg LED4
 152:../src/stm32f4_discovery.c ****   *     @arg LED3
 153:../src/stm32f4_discovery.c ****   *     @arg LED5
 154:../src/stm32f4_discovery.c ****   *     @arg LED6 
 155:../src/stm32f4_discovery.c ****   * @retval None
 156:../src/stm32f4_discovery.c ****   */
 157:../src/stm32f4_discovery.c **** void STM_EVAL_LEDOff(Led_TypeDef Led)
 158:../src/stm32f4_discovery.c **** {
 24845              		.loc 1 158 0
 24846              		.cfi_startproc
 24847              		@ args = 0, pretend = 0, frame = 8
 24848              		@ frame_needed = 1, uses_anonymous_args = 0
 24849              		@ link register save eliminated.
 24850 0000 80B4     		push	{r7}
 24851              	.LCFI6:
 24852              		.cfi_def_cfa_offset 4
 24853 0002 83B0     		sub	sp, sp, #12
 24854              	.LCFI7:
 24855              		.cfi_def_cfa_offset 16
 24856 0004 00AF     		add	r7, sp, #0
 24857              		.cfi_offset 7, -4
 24858              	.LCFI8:
 24859              		.cfi_def_cfa_register 7
 24860 0006 0346     		mov	r3, r0
 24861 0008 FB71     		strb	r3, [r7, #7]
 159:../src/stm32f4_discovery.c ****   GPIO_PORT[Led]->BSRRH = GPIO_PIN[Led];  
 24862              		.loc 1 159 0
 24863 000a FA79     		ldrb	r2, [r7, #7]	@ zero_extendqisi2
 24864 000c 064B     		ldr	r3, .L8
 24865 000e 53F82230 		ldr	r3, [r3, r2, lsl #2]
 24866 0012 F979     		ldrb	r1, [r7, #7]	@ zero_extendqisi2
 24867 0014 054A     		ldr	r2, .L8+4
 24868 0016 32F81120 		ldrh	r2, [r2, r1, lsl #1]
 24869 001a 5A83     		strh	r2, [r3, #26]	@ movhi
 160:../src/stm32f4_discovery.c **** }
 24870              		.loc 1 160 0
 24871 001c 07F10C07 		add	r7, r7, #12
 24872 0020 BD46     		mov	sp, r7
 24873 0022 80BC     		pop	{r7}
 24874 0024 7047     		bx	lr
 24875              	.L9:
 24876 0026 00BF     		.align	2
 24877              	.L8:
 24878 0028 00000000 		.word	GPIO_PORT
 24879 002c 00000000 		.word	GPIO_PIN
 24880              		.cfi_endproc
 24881              	.LFE112:
 24883              		.section	.text.STM_EVAL_LEDToggle,"ax",%progbits
 24884              		.align	2
 24885              		.global	STM_EVAL_LEDToggle
 24886              		.thumb
 24887              		.thumb_func
 24889              	STM_EVAL_LEDToggle:
 24890              	.LFB113:
 161:../src/stm32f4_discovery.c **** 
 162:../src/stm32f4_discovery.c **** /**
 163:../src/stm32f4_discovery.c ****   * @brief  Toggles the selected LED.
 164:../src/stm32f4_discovery.c ****   * @param  Led: Specifies the Led to be toggled. 
 165:../src/stm32f4_discovery.c ****   *   This parameter can be one of following parameters:
 166:../src/stm32f4_discovery.c ****   *     @arg LED4
 167:../src/stm32f4_discovery.c ****   *     @arg LED3
 168:../src/stm32f4_discovery.c ****   *     @arg LED5
 169:../src/stm32f4_discovery.c ****   *     @arg LED6  
 170:../src/stm32f4_discovery.c ****   * @retval None
 171:../src/stm32f4_discovery.c ****   */
 172:../src/stm32f4_discovery.c **** void STM_EVAL_LEDToggle(Led_TypeDef Led)
 173:../src/stm32f4_discovery.c **** {
 24891              		.loc 1 173 0
 24892              		.cfi_startproc
 24893              		@ args = 0, pretend = 0, frame = 8
 24894              		@ frame_needed = 1, uses_anonymous_args = 0
 24895              		@ link register save eliminated.
 24896 0000 80B4     		push	{r7}
 24897              	.LCFI9:
 24898              		.cfi_def_cfa_offset 4
 24899 0002 83B0     		sub	sp, sp, #12
 24900              	.LCFI10:
 24901              		.cfi_def_cfa_offset 16
 24902 0004 00AF     		add	r7, sp, #0
 24903              		.cfi_offset 7, -4
 24904              	.LCFI11:
 24905              		.cfi_def_cfa_register 7
 24906 0006 0346     		mov	r3, r0
 24907 0008 FB71     		strb	r3, [r7, #7]
 174:../src/stm32f4_discovery.c ****   GPIO_PORT[Led]->ODR ^= GPIO_PIN[Led];
 24908              		.loc 1 174 0
 24909 000a FA79     		ldrb	r2, [r7, #7]	@ zero_extendqisi2
 24910 000c 094B     		ldr	r3, .L11
 24911 000e 53F82230 		ldr	r3, [r3, r2, lsl #2]
 24912 0012 F979     		ldrb	r1, [r7, #7]	@ zero_extendqisi2
 24913 0014 074A     		ldr	r2, .L11
 24914 0016 52F82120 		ldr	r2, [r2, r1, lsl #2]
 24915 001a 5169     		ldr	r1, [r2, #20]
 24916 001c F879     		ldrb	r0, [r7, #7]	@ zero_extendqisi2
 24917 001e 064A     		ldr	r2, .L11+4
 24918 0020 32F81020 		ldrh	r2, [r2, r0, lsl #1]
 24919 0024 81EA0202 		eor	r2, r1, r2
 24920 0028 5A61     		str	r2, [r3, #20]
 175:../src/stm32f4_discovery.c **** }
 24921              		.loc 1 175 0
 24922 002a 07F10C07 		add	r7, r7, #12
 24923 002e BD46     		mov	sp, r7
 24924 0030 80BC     		pop	{r7}
 24925 0032 7047     		bx	lr
 24926              	.L12:
 24927              		.align	2
 24928              	.L11:
 24929 0034 00000000 		.word	GPIO_PORT
 24930 0038 00000000 		.word	GPIO_PIN
 24931              		.cfi_endproc
 24932              	.LFE113:
 24934              		.section	.text.STM_EVAL_PBInit,"ax",%progbits
 24935              		.align	2
 24936              		.global	STM_EVAL_PBInit
 24937              		.thumb
 24938              		.thumb_func
 24940              	STM_EVAL_PBInit:
 24941              	.LFB114:
 176:../src/stm32f4_discovery.c **** 
 177:../src/stm32f4_discovery.c **** /**
 178:../src/stm32f4_discovery.c ****   * @brief  Configures Button GPIO and EXTI Line.
 179:../src/stm32f4_discovery.c ****   * @param  Button: Specifies the Button to be configured.
 180:../src/stm32f4_discovery.c ****   *   This parameter should be: BUTTON_USER
 181:../src/stm32f4_discovery.c ****   * @param  Button_Mode: Specifies Button mode.
 182:../src/stm32f4_discovery.c ****   *   This parameter can be one of following parameters:   
 183:../src/stm32f4_discovery.c ****   *     @arg BUTTON_MODE_GPIO: Button will be used as simple IO 
 184:../src/stm32f4_discovery.c ****   *     @arg BUTTON_MODE_EXTI: Button will be connected to EXTI line with interrupt
 185:../src/stm32f4_discovery.c ****   *                            generation capability  
 186:../src/stm32f4_discovery.c ****   * @retval None
 187:../src/stm32f4_discovery.c ****   */
 188:../src/stm32f4_discovery.c **** void STM_EVAL_PBInit(Button_TypeDef Button, ButtonMode_TypeDef Button_Mode)
 189:../src/stm32f4_discovery.c **** {
 24942              		.loc 1 189 0
 24943              		.cfi_startproc
 24944              		@ args = 0, pretend = 0, frame = 32
 24945              		@ frame_needed = 1, uses_anonymous_args = 0
 24946 0000 80B5     		push	{r7, lr}
 24947              	.LCFI12:
 24948              		.cfi_def_cfa_offset 8
 24949 0002 88B0     		sub	sp, sp, #32
 24950              	.LCFI13:
 24951              		.cfi_def_cfa_offset 40
 24952 0004 00AF     		add	r7, sp, #0
 24953              		.cfi_offset 14, -4
 24954              		.cfi_offset 7, -8
 24955              	.LCFI14:
 24956              		.cfi_def_cfa_register 7
 24957 0006 0246     		mov	r2, r0
 24958 0008 0B46     		mov	r3, r1
 24959 000a FA71     		strb	r2, [r7, #7]
 24960 000c BB71     		strb	r3, [r7, #6]
 190:../src/stm32f4_discovery.c ****   GPIO_InitTypeDef GPIO_InitStructure;
 191:../src/stm32f4_discovery.c ****   EXTI_InitTypeDef EXTI_InitStructure;
 192:../src/stm32f4_discovery.c ****   NVIC_InitTypeDef NVIC_InitStructure;
 193:../src/stm32f4_discovery.c **** 
 194:../src/stm32f4_discovery.c ****   /* Enable the BUTTON Clock */
 195:../src/stm32f4_discovery.c ****   RCC_AHB1PeriphClockCmd(BUTTON_CLK[Button], ENABLE);
 24961              		.loc 1 195 0
 24962 000e FA79     		ldrb	r2, [r7, #7]	@ zero_extendqisi2
 24963 0010 2C4B     		ldr	r3, .L15
 24964 0012 53F82230 		ldr	r3, [r3, r2, lsl #2]
 24965 0016 1846     		mov	r0, r3
 24966 0018 4FF00101 		mov	r1, #1
 24967 001c FFF7FEFF 		bl	RCC_AHB1PeriphClockCmd
 196:../src/stm32f4_discovery.c ****   RCC_APB2PeriphClockCmd(RCC_APB2Periph_SYSCFG, ENABLE);
 24968              		.loc 1 196 0
 24969 0020 4FF48040 		mov	r0, #16384
 24970 0024 4FF00101 		mov	r1, #1
 24971 0028 FFF7FEFF 		bl	RCC_APB2PeriphClockCmd
 197:../src/stm32f4_discovery.c **** 
 198:../src/stm32f4_discovery.c ****   /* Configure Button pin as input */
 199:../src/stm32f4_discovery.c ****   GPIO_InitStructure.GPIO_Mode = GPIO_Mode_IN;
 24972              		.loc 1 199 0
 24973 002c 4FF00003 		mov	r3, #0
 24974 0030 3B77     		strb	r3, [r7, #28]
 200:../src/stm32f4_discovery.c ****   GPIO_InitStructure.GPIO_PuPd = GPIO_PuPd_NOPULL;
 24975              		.loc 1 200 0
 24976 0032 4FF00003 		mov	r3, #0
 24977 0036 FB77     		strb	r3, [r7, #31]
 201:../src/stm32f4_discovery.c ****   GPIO_InitStructure.GPIO_Pin = BUTTON_PIN[Button];
 24978              		.loc 1 201 0
 24979 0038 FA79     		ldrb	r2, [r7, #7]	@ zero_extendqisi2
 24980 003a 234B     		ldr	r3, .L15+4
 24981 003c 33F81230 		ldrh	r3, [r3, r2, lsl #1]
 24982 0040 BB61     		str	r3, [r7, #24]
 202:../src/stm32f4_discovery.c ****   GPIO_Init(BUTTON_PORT[Button], &GPIO_InitStructure);
 24983              		.loc 1 202 0
 24984 0042 FA79     		ldrb	r2, [r7, #7]	@ zero_extendqisi2
 24985 0044 214B     		ldr	r3, .L15+8
 24986 0046 53F82220 		ldr	r2, [r3, r2, lsl #2]
 24987 004a 07F11803 		add	r3, r7, #24
 24988 004e 1046     		mov	r0, r2
 24989 0050 1946     		mov	r1, r3
 24990 0052 FFF7FEFF 		bl	GPIO_Init
 203:../src/stm32f4_discovery.c **** 
 204:../src/stm32f4_discovery.c ****   if (Button_Mode == BUTTON_MODE_EXTI)
 24991              		.loc 1 204 0
 24992 0056 BB79     		ldrb	r3, [r7, #6]	@ zero_extendqisi2
 24993 0058 012B     		cmp	r3, #1
 24994 005a 2ED1     		bne	.L13
 205:../src/stm32f4_discovery.c ****   {
 206:../src/stm32f4_discovery.c ****     /* Connect Button EXTI Line to Button GPIO Pin */
 207:../src/stm32f4_discovery.c ****     SYSCFG_EXTILineConfig(BUTTON_PORT_SOURCE[Button], BUTTON_PIN_SOURCE[Button]);
 24995              		.loc 1 207 0
 24996 005c FB79     		ldrb	r3, [r7, #7]	@ zero_extendqisi2
 24997 005e 1C4A     		ldr	r2, .L15+12
 24998 0060 D25C     		ldrb	r2, [r2, r3]	@ zero_extendqisi2
 24999 0062 FB79     		ldrb	r3, [r7, #7]	@ zero_extendqisi2
 25000 0064 1B49     		ldr	r1, .L15+16
 25001 0066 CB5C     		ldrb	r3, [r1, r3]	@ zero_extendqisi2
 25002 0068 1046     		mov	r0, r2
 25003 006a 1946     		mov	r1, r3
 25004 006c FFF7FEFF 		bl	SYSCFG_EXTILineConfig
 208:../src/stm32f4_discovery.c **** 
 209:../src/stm32f4_discovery.c ****     /* Configure Button EXTI line */
 210:../src/stm32f4_discovery.c ****     EXTI_InitStructure.EXTI_Line = BUTTON_EXTI_LINE[Button];
 25005              		.loc 1 210 0
 25006 0070 FA79     		ldrb	r2, [r7, #7]	@ zero_extendqisi2
 25007 0072 194B     		ldr	r3, .L15+20
 25008 0074 33F81230 		ldrh	r3, [r3, r2, lsl #1]
 25009 0078 3B61     		str	r3, [r7, #16]
 211:../src/stm32f4_discovery.c ****     EXTI_InitStructure.EXTI_Mode = EXTI_Mode_Interrupt;
 25010              		.loc 1 211 0
 25011 007a 4FF00003 		mov	r3, #0
 25012 007e 3B75     		strb	r3, [r7, #20]
 212:../src/stm32f4_discovery.c ****     EXTI_InitStructure.EXTI_Trigger = EXTI_Trigger_Rising;  
 25013              		.loc 1 212 0
 25014 0080 4FF00803 		mov	r3, #8
 25015 0084 7B75     		strb	r3, [r7, #21]
 213:../src/stm32f4_discovery.c ****     EXTI_InitStructure.EXTI_LineCmd = ENABLE;
 25016              		.loc 1 213 0
 25017 0086 4FF00103 		mov	r3, #1
 25018 008a BB75     		strb	r3, [r7, #22]
 214:../src/stm32f4_discovery.c ****     EXTI_Init(&EXTI_InitStructure);
 25019              		.loc 1 214 0
 25020 008c 07F11003 		add	r3, r7, #16
 25021 0090 1846     		mov	r0, r3
 25022 0092 FFF7FEFF 		bl	EXTI_Init
 215:../src/stm32f4_discovery.c **** 
 216:../src/stm32f4_discovery.c ****     /* Enable and set Button EXTI Interrupt to the lowest priority */
 217:../src/stm32f4_discovery.c ****     NVIC_InitStructure.NVIC_IRQChannel = BUTTON_IRQn[Button];
 25023              		.loc 1 217 0
 25024 0096 FB79     		ldrb	r3, [r7, #7]	@ zero_extendqisi2
 25025 0098 104A     		ldr	r2, .L15+24
 25026 009a D35C     		ldrb	r3, [r2, r3]	@ zero_extendqisi2
 25027 009c 3B73     		strb	r3, [r7, #12]
 218:../src/stm32f4_discovery.c ****     NVIC_InitStructure.NVIC_IRQChannelPreemptionPriority = 0x0F;
 25028              		.loc 1 218 0
 25029 009e 4FF00F03 		mov	r3, #15
 25030 00a2 7B73     		strb	r3, [r7, #13]
 219:../src/stm32f4_discovery.c ****     NVIC_InitStructure.NVIC_IRQChannelSubPriority = 0x0F;
 25031              		.loc 1 219 0
 25032 00a4 4FF00F03 		mov	r3, #15
 25033 00a8 BB73     		strb	r3, [r7, #14]
 220:../src/stm32f4_discovery.c ****     NVIC_InitStructure.NVIC_IRQChannelCmd = ENABLE;
 25034              		.loc 1 220 0
 25035 00aa 4FF00103 		mov	r3, #1
 25036 00ae FB73     		strb	r3, [r7, #15]
 221:../src/stm32f4_discovery.c **** 
 222:../src/stm32f4_discovery.c ****     NVIC_Init(&NVIC_InitStructure); 
 25037              		.loc 1 222 0
 25038 00b0 07F10C03 		add	r3, r7, #12
 25039 00b4 1846     		mov	r0, r3
 25040 00b6 FFF7FEFF 		bl	NVIC_Init
 25041              	.L13:
 223:../src/stm32f4_discovery.c ****   }
 224:../src/stm32f4_discovery.c **** }
 25042              		.loc 1 224 0
 25043 00ba 07F12007 		add	r7, r7, #32
 25044 00be BD46     		mov	sp, r7
 25045 00c0 80BD     		pop	{r7, pc}
 25046              	.L16:
 25047 00c2 00BF     		.align	2
 25048              	.L15:
 25049 00c4 00000000 		.word	BUTTON_CLK
 25050 00c8 00000000 		.word	BUTTON_PIN
 25051 00cc 00000000 		.word	BUTTON_PORT
 25052 00d0 00000000 		.word	BUTTON_PORT_SOURCE
 25053 00d4 00000000 		.word	BUTTON_PIN_SOURCE
 25054 00d8 00000000 		.word	BUTTON_EXTI_LINE
 25055 00dc 00000000 		.word	BUTTON_IRQn
 25056              		.cfi_endproc
 25057              	.LFE114:
 25059              		.section	.text.STM_EVAL_PBGetState,"ax",%progbits
 25060              		.align	2
 25061              		.global	STM_EVAL_PBGetState
 25062              		.thumb
 25063              		.thumb_func
 25065              	STM_EVAL_PBGetState:
 25066              	.LFB115:
 225:../src/stm32f4_discovery.c **** 
 226:../src/stm32f4_discovery.c **** /**
 227:../src/stm32f4_discovery.c ****   * @brief  Returns the selected Button state.
 228:../src/stm32f4_discovery.c ****   * @param  Button: Specifies the Button to be checked.
 229:../src/stm32f4_discovery.c ****   *   This parameter should be: BUTTON_USER  
 230:../src/stm32f4_discovery.c ****   * @retval The Button GPIO pin value.
 231:../src/stm32f4_discovery.c ****   */
 232:../src/stm32f4_discovery.c **** uint32_t STM_EVAL_PBGetState(Button_TypeDef Button)
 233:../src/stm32f4_discovery.c **** {
 25067              		.loc 1 233 0
 25068              		.cfi_startproc
 25069              		@ args = 0, pretend = 0, frame = 8
 25070              		@ frame_needed = 1, uses_anonymous_args = 0
 25071 0000 80B5     		push	{r7, lr}
 25072              	.LCFI15:
 25073              		.cfi_def_cfa_offset 8
 25074 0002 82B0     		sub	sp, sp, #8
 25075              	.LCFI16:
 25076              		.cfi_def_cfa_offset 16
 25077 0004 00AF     		add	r7, sp, #0
 25078              		.cfi_offset 14, -4
 25079              		.cfi_offset 7, -8
 25080              	.LCFI17:
 25081              		.cfi_def_cfa_register 7
 25082 0006 0346     		mov	r3, r0
 25083 0008 FB71     		strb	r3, [r7, #7]
 234:../src/stm32f4_discovery.c ****   return GPIO_ReadInputDataBit(BUTTON_PORT[Button], BUTTON_PIN[Button]);
 25084              		.loc 1 234 0
 25085 000a FA79     		ldrb	r2, [r7, #7]	@ zero_extendqisi2
 25086 000c 084B     		ldr	r3, .L18
 25087 000e 53F82220 		ldr	r2, [r3, r2, lsl #2]
 25088 0012 F979     		ldrb	r1, [r7, #7]	@ zero_extendqisi2
 25089 0014 074B     		ldr	r3, .L18+4
 25090 0016 33F81130 		ldrh	r3, [r3, r1, lsl #1]
 25091 001a 1046     		mov	r0, r2
 25092 001c 1946     		mov	r1, r3
 25093 001e FFF7FEFF 		bl	GPIO_ReadInputDataBit
 25094 0022 0346     		mov	r3, r0
 235:../src/stm32f4_discovery.c **** }
 25095              		.loc 1 235 0
 25096 0024 1846     		mov	r0, r3
 25097 0026 07F10807 		add	r7, r7, #8
 25098 002a BD46     		mov	sp, r7
 25099 002c 80BD     		pop	{r7, pc}
 25100              	.L19:
 25101 002e 00BF     		.align	2
 25102              	.L18:
 25103 0030 00000000 		.word	BUTTON_PORT
 25104 0034 00000000 		.word	BUTTON_PIN
 25105              		.cfi_endproc
 25106              	.LFE115:
 25108              		.text
 25109              	.Letext0: