   1              		.syntax unified
   2              		.cpu cortex-m4
   3              		.fpu softvfp
   4              		.eabi_attribute 20, 1
   5              		.eabi_attribute 21, 1
   6              		.eabi_attribute 23, 3
   7              		.eabi_attribute 24, 1
   8              		.eabi_attribute 25, 1
   9              		.eabi_attribute 26, 1
  10              		.eabi_attribute 30, 6
  11              		.eabi_attribute 18, 4
  12              		.thumb
  13              		.file	"usbd_cdc_vcp.c"
  23              	.Ltext0:
  24              		.file 1 "../src/usbd_cdc_vcp.c"
 25399              		.align	2
 25402              	VCP_fops:
 25403 0000 00000000 		.word	VCP_Init
 25404 0004 00000000 		.word	VCP_DeInit
 25405 0008 00000000 		.word	VCP_Ctrl
 25406 000c 00000000 		.word	VCP_DataTx
 25407 0010 00000000 		.word	VCP_DataRx
 25408              		.section	.text.VCP_Init,"ax",%progbits
 25409              		.align	2
 25410              		.thumb
 25411              		.thumb_func
 25413              	VCP_Init:
 25414              	.LFB110:
   1:../src/usbd_cdc_vcp.c **** /**
   2:../src/usbd_cdc_vcp.c ****   ******************************************************************************
   3:../src/usbd_cdc_vcp.c ****   * @file    usbd_cdc_vcp.c
   4:../src/usbd_cdc_vcp.c ****   * @author  MCD Application Team
   5:../src/usbd_cdc_vcp.c ****   * @version V1.0.0
   6:../src/usbd_cdc_vcp.c ****   * @date    22-July-2011
   7:../src/usbd_cdc_vcp.c ****   * @brief   Generic media access Layer.
   8:../src/usbd_cdc_vcp.c ****   ******************************************************************************
   9:../src/usbd_cdc_vcp.c ****   * @attention
  10:../src/usbd_cdc_vcp.c ****   *
  11:../src/usbd_cdc_vcp.c ****   * THE PRESENT FIRMWARE WHICH IS FOR GUIDANCE ONLY AIMS AT PROVIDING CUSTOMERS
  12:../src/usbd_cdc_vcp.c ****   * WITH CODING INFORMATION REGARDING THEIR PRODUCTS IN ORDER FOR THEM TO SAVE
  13:../src/usbd_cdc_vcp.c ****   * TIME. AS A RESULT, STMICROELECTRONICS SHALL NOT BE HELD LIABLE FOR ANY
  14:../src/usbd_cdc_vcp.c ****   * DIRECT, INDIRECT OR CONSEQUENTIAL DAMAGES WITH RESPECT TO ANY CLAIMS ARISING
  15:../src/usbd_cdc_vcp.c ****   * FROM THE CONTENT OF SUCH FIRMWARE AND/OR THE USE MADE BY CUSTOMERS OF THE
  16:../src/usbd_cdc_vcp.c ****   * CODING INFORMATION CONTAINED HEREIN IN CONNECTION WITH THEIR PRODUCTS.
  17:../src/usbd_cdc_vcp.c ****   *
  18:../src/usbd_cdc_vcp.c ****   * <h2><center>&copy; COPYRIGHT 2011 STMicroelectronics</center></h2>
  19:../src/usbd_cdc_vcp.c ****   ******************************************************************************
  20:../src/usbd_cdc_vcp.c ****   */ 
  21:../src/usbd_cdc_vcp.c **** 
  22:../src/usbd_cdc_vcp.c **** #ifdef USB_OTG_HS_INTERNAL_DMA_ENABLED 
  23:../src/usbd_cdc_vcp.c **** #pragma     data_alignment = 4 
  24:../src/usbd_cdc_vcp.c **** #endif /* USB_OTG_HS_INTERNAL_DMA_ENABLED */
  25:../src/usbd_cdc_vcp.c **** 
  26:../src/usbd_cdc_vcp.c **** /* Includes ------------------------------------------------------------------*/
  27:../src/usbd_cdc_vcp.c **** #include "usbd_cdc_vcp.h"
  28:../src/usbd_cdc_vcp.c **** #include "usbd_cdc_core.h"
  29:../src/usbd_cdc_vcp.c **** #include "stm32f4_discovery.h"
  30:../src/usbd_cdc_vcp.c **** #include "stm32f4xx_tim.h"
  31:../src/usbd_cdc_vcp.c **** 
  32:../src/usbd_cdc_vcp.c **** /* Private typedef -----------------------------------------------------------*/
  33:../src/usbd_cdc_vcp.c **** /* Private define ------------------------------------------------------------*/
  34:../src/usbd_cdc_vcp.c **** /* Private macro -------------------------------------------------------------*/
  35:../src/usbd_cdc_vcp.c **** /* Private variables ---------------------------------------------------------*/
  36:../src/usbd_cdc_vcp.c **** USART_InitTypeDef USART_InitStructure;
  37:../src/usbd_cdc_vcp.c **** 
  38:../src/usbd_cdc_vcp.c **** /* These are external variables imported from CDC core to be used for IN 
  39:../src/usbd_cdc_vcp.c ****    transfer management. */
  40:../src/usbd_cdc_vcp.c **** extern uint8_t  APP_Rx_Buffer []; /* Write CDC received data in this buffer.
  41:../src/usbd_cdc_vcp.c ****                                      These data will be sent over USB IN endpoint
  42:../src/usbd_cdc_vcp.c ****                                      in the CDC core functions. */
  43:../src/usbd_cdc_vcp.c **** extern uint32_t APP_Rx_ptr_in;    /* Increment this pointer or roll it back to
  44:../src/usbd_cdc_vcp.c ****                                      start address when writing received data
  45:../src/usbd_cdc_vcp.c ****                                      in the buffer APP_Rx_Buffer. */
  46:../src/usbd_cdc_vcp.c **** 
  47:../src/usbd_cdc_vcp.c **** /* Private function prototypes -----------------------------------------------*/
  48:../src/usbd_cdc_vcp.c **** static uint16_t VCP_Init     (void);
  49:../src/usbd_cdc_vcp.c **** static uint16_t VCP_DeInit   (void);
  50:../src/usbd_cdc_vcp.c **** static uint16_t VCP_Ctrl     (uint32_t Cmd, uint8_t* Buf, uint32_t Len);
  51:../src/usbd_cdc_vcp.c **** static uint16_t VCP_DataTx   (uint8_t* Buf, uint32_t Len);
  52:../src/usbd_cdc_vcp.c **** static uint16_t VCP_DataRx   (uint8_t* Buf, uint32_t Len);
  53:../src/usbd_cdc_vcp.c **** 
  54:../src/usbd_cdc_vcp.c **** 
  55:../src/usbd_cdc_vcp.c **** //ï¿½ï¿½ï¿½ï¿½ï¿½ ï¿½ï¿½ï¿½ ï¿½ï¿½ï¿½ï¿½ï¿½ï¿½ ï¿½ï¿½ usbd_cdc_core.c
  56:../src/usbd_cdc_vcp.c **** CDC_IF_Prop_TypeDef VCP_fops = 
  57:../src/usbd_cdc_vcp.c **** {
  58:../src/usbd_cdc_vcp.c ****   VCP_Init,
  59:../src/usbd_cdc_vcp.c ****   VCP_DeInit,
  60:../src/usbd_cdc_vcp.c ****   VCP_Ctrl,
  61:../src/usbd_cdc_vcp.c ****   VCP_DataTx,
  62:../src/usbd_cdc_vcp.c ****   VCP_DataRx
  63:../src/usbd_cdc_vcp.c **** };
  64:../src/usbd_cdc_vcp.c **** 
  65:../src/usbd_cdc_vcp.c **** /* Private functions ---------------------------------------------------------*/
  66:../src/usbd_cdc_vcp.c **** /**
  67:../src/usbd_cdc_vcp.c ****   * @brief  VCP_Init
  68:../src/usbd_cdc_vcp.c ****   *         Initializes the Media on the STM32
  69:../src/usbd_cdc_vcp.c ****   * @param  None
  70:../src/usbd_cdc_vcp.c ****   * @retval Result of the opeartion (USBD_OK in all cases)
  71:../src/usbd_cdc_vcp.c ****   */
  72:../src/usbd_cdc_vcp.c **** static uint16_t VCP_Init(void)
  73:../src/usbd_cdc_vcp.c **** {
 25415              		.loc 1 73 0
 25416              		.cfi_startproc
 25417              		@ args = 0, pretend = 0, frame = 0
 25418              		@ frame_needed = 1, uses_anonymous_args = 0
 25419              		@ link register save eliminated.
 25420 0000 80B4     		push	{r7}
 25421              	.LCFI0:
 25422              		.cfi_def_cfa_offset 4
 25423 0002 00AF     		add	r7, sp, #0
 25424              		.cfi_offset 7, -4
 25425              	.LCFI1:
 25426              		.cfi_def_cfa_register 7
  74:../src/usbd_cdc_vcp.c ****     Data_get = 0;
 25427              		.loc 1 74 0
 25428 0004 044B     		ldr	r3, .L2
 25429 0006 4FF00002 		mov	r2, #0
 25430 000a 1A70     		strb	r2, [r3, #0]
  75:../src/usbd_cdc_vcp.c ****   return USBD_OK;
 25431              		.loc 1 75 0
 25432 000c 4FF00003 		mov	r3, #0
  76:../src/usbd_cdc_vcp.c **** }
 25433              		.loc 1 76 0
 25434 0010 1846     		mov	r0, r3
 25435 0012 BD46     		mov	sp, r7
 25436 0014 80BC     		pop	{r7}
 25437 0016 7047     		bx	lr
 25438              	.L3:
 25439              		.align	2
 25440              	.L2:
 25441 0018 00000000 		.word	Data_get
 25442              		.cfi_endproc
 25443              	.LFE110:
 25445              		.section	.text.VCP_DeInit,"ax",%progbits
 25446              		.align	2
 25447              		.thumb
 25448              		.thumb_func
 25450              	VCP_DeInit:
 25451              	.LFB111:
  77:../src/usbd_cdc_vcp.c **** 
  78:../src/usbd_cdc_vcp.c **** /**
  79:../src/usbd_cdc_vcp.c ****   * @brief  VCP_DeInit
  80:../src/usbd_cdc_vcp.c ****   *         DeInitializes the Media on the STM32
  81:../src/usbd_cdc_vcp.c ****   * @param  None
  82:../src/usbd_cdc_vcp.c ****   * @retval Result of the opeartion (USBD_OK in all cases)
  83:../src/usbd_cdc_vcp.c ****   */
  84:../src/usbd_cdc_vcp.c **** static uint16_t VCP_DeInit(void)
  85:../src/usbd_cdc_vcp.c **** {
 25452              		.loc 1 85 0
 25453              		.cfi_startproc
 25454              		@ args = 0, pretend = 0, frame = 0
 25455              		@ frame_needed = 1, uses_anonymous_args = 0
 25456              		@ link register save eliminated.
 25457 0000 80B4     		push	{r7}
 25458              	.LCFI2:
 25459              		.cfi_def_cfa_offset 4
 25460 0002 00AF     		add	r7, sp, #0
 25461              		.cfi_offset 7, -4
 25462              	.LCFI3:
 25463              		.cfi_def_cfa_register 7
  86:../src/usbd_cdc_vcp.c ****   return USBD_OK;
 25464              		.loc 1 86 0
 25465 0004 4FF00003 		mov	r3, #0
  87:../src/usbd_cdc_vcp.c **** }
 25466              		.loc 1 87 0
 25467 0008 1846     		mov	r0, r3
 25468 000a BD46     		mov	sp, r7
 25469 000c 80BC     		pop	{r7}
 25470 000e 7047     		bx	lr
 25471              		.cfi_endproc
 25472              	.LFE111:
 25474              		.section	.text.VCP_Ctrl,"ax",%progbits
 25475              		.align	2
 25476              		.thumb
 25477              		.thumb_func
 25479              	VCP_Ctrl:
 25480              	.LFB112:
  88:../src/usbd_cdc_vcp.c **** 
  89:../src/usbd_cdc_vcp.c **** 
  90:../src/usbd_cdc_vcp.c **** /**
  91:../src/usbd_cdc_vcp.c ****   * @brief  VCP_Ctrl
  92:../src/usbd_cdc_vcp.c ****   *         Manage the CDC class requests
  93:../src/usbd_cdc_vcp.c ****   * @param  Cmd: Command code            
  94:../src/usbd_cdc_vcp.c ****   * @param  Buf: Buffer containing command data (request parameters)
  95:../src/usbd_cdc_vcp.c ****   * @param  Len: Number of data to be sent (in bytes)
  96:../src/usbd_cdc_vcp.c ****   * @retval Result of the opeartion (USBD_OK in all cases)
  97:../src/usbd_cdc_vcp.c ****   */
  98:../src/usbd_cdc_vcp.c **** static uint16_t VCP_Ctrl (uint32_t Cmd, uint8_t* Buf, uint32_t Len)
  99:../src/usbd_cdc_vcp.c **** { 
 25481              		.loc 1 99 0
 25482              		.cfi_startproc
 25483              		@ args = 0, pretend = 0, frame = 16
 25484              		@ frame_needed = 1, uses_anonymous_args = 0
 25485              		@ link register save eliminated.
 25486 0000 80B4     		push	{r7}
 25487              	.LCFI4:
 25488              		.cfi_def_cfa_offset 4
 25489 0002 85B0     		sub	sp, sp, #20
 25490              	.LCFI5:
 25491              		.cfi_def_cfa_offset 24
 25492 0004 00AF     		add	r7, sp, #0
 25493              		.cfi_offset 7, -4
 25494              	.LCFI6:
 25495              		.cfi_def_cfa_register 7
 25496 0006 F860     		str	r0, [r7, #12]
 25497 0008 B960     		str	r1, [r7, #8]
 25498 000a 7A60     		str	r2, [r7, #4]
 100:../src/usbd_cdc_vcp.c ****   switch (Cmd)
 25499              		.loc 1 100 0
 25500 000c FB68     		ldr	r3, [r7, #12]
 25501 000e 232B     		cmp	r3, #35
 25502 0010 4AD8     		bhi	.L18
 25503 0012 01A2     		adr	r2, .L16
 25504 0014 52F823F0 		ldr	pc, [r2, r3, lsl #2]
 25505              		.align	2
 25506              	.L16:
 25507 0018 A9000000 		.word	.L18+1
 25508 001c A9000000 		.word	.L18+1
 25509 0020 A9000000 		.word	.L18+1
 25510 0024 A9000000 		.word	.L18+1
 25511 0028 A9000000 		.word	.L18+1
 25512 002c A9000000 		.word	.L18+1
 25513 0030 A9000000 		.word	.L18+1
 25514 0034 A9000000 		.word	.L18+1
 25515 0038 A9000000 		.word	.L18+1
 25516 003c A9000000 		.word	.L18+1
 25517 0040 A9000000 		.word	.L18+1
 25518 0044 A9000000 		.word	.L18+1
 25519 0048 A9000000 		.word	.L18+1
 25520 004c A9000000 		.word	.L18+1
 25521 0050 A9000000 		.word	.L18+1
 25522 0054 A9000000 		.word	.L18+1
 25523 0058 A9000000 		.word	.L18+1
 25524 005c A9000000 		.word	.L18+1
 25525 0060 A9000000 		.word	.L18+1
 25526 0064 A9000000 		.word	.L18+1
 25527 0068 A9000000 		.word	.L18+1
 25528 006c A9000000 		.word	.L18+1
 25529 0070 A9000000 		.word	.L18+1
 25530 0074 A9000000 		.word	.L18+1
 25531 0078 A9000000 		.word	.L18+1
 25532 007c A9000000 		.word	.L18+1
 25533 0080 A9000000 		.word	.L18+1
 25534 0084 A9000000 		.word	.L18+1
 25535 0088 A9000000 		.word	.L18+1
 25536 008c A9000000 		.word	.L18+1
 25537 0090 A9000000 		.word	.L18+1
 25538 0094 A9000000 		.word	.L18+1
 25539 0098 A9000000 		.word	.L18+1
 25540 009c A9000000 		.word	.L18+1
 25541 00a0 A9000000 		.word	.L18+1
 25542 00a4 A9000000 		.word	.L18+1
 25543              	.L18:
 101:../src/usbd_cdc_vcp.c ****   {
 102:../src/usbd_cdc_vcp.c ****   case SEND_ENCAPSULATED_COMMAND:
 103:../src/usbd_cdc_vcp.c ****     /* Not  needed for this driver */
 104:../src/usbd_cdc_vcp.c ****     break;
 105:../src/usbd_cdc_vcp.c **** 
 106:../src/usbd_cdc_vcp.c ****   case GET_ENCAPSULATED_RESPONSE:
 107:../src/usbd_cdc_vcp.c ****     /* Not  needed for this driver */
 108:../src/usbd_cdc_vcp.c ****     break;
 109:../src/usbd_cdc_vcp.c **** 
 110:../src/usbd_cdc_vcp.c ****   case SET_COMM_FEATURE:
 111:../src/usbd_cdc_vcp.c ****     /* Not  needed for this driver */
 112:../src/usbd_cdc_vcp.c ****     break;
 113:../src/usbd_cdc_vcp.c **** 
 114:../src/usbd_cdc_vcp.c ****   case GET_COMM_FEATURE:
 115:../src/usbd_cdc_vcp.c ****     /* Not  needed for this driver */
 116:../src/usbd_cdc_vcp.c ****     break;
 117:../src/usbd_cdc_vcp.c **** 
 118:../src/usbd_cdc_vcp.c ****   case CLEAR_COMM_FEATURE:
 119:../src/usbd_cdc_vcp.c ****     /* Not  needed for this driver */
 120:../src/usbd_cdc_vcp.c ****     break;
 121:../src/usbd_cdc_vcp.c **** 
 122:../src/usbd_cdc_vcp.c ****   case SET_LINE_CODING://ï¿½ï¿½ï¿½ï¿½ï¿½ï¿½ï¿½ ï¿½ï¿½ï¿½ï¿½ï¿½ï¿½ï¿½ï¿½ï¿½ ï¿½ï¿½ï¿½ï¿½ï¿½ï¿½ï¿½ï¿½
 123:../src/usbd_cdc_vcp.c ****     //ï¿½ï¿½ï¿½ ï¿½ï¿½ï¿½ï¿½ï¿½ï¿½ï¿½ ï¿½ï¿½ï¿½ï¿½ï¿½ï¿½ï¿½ï¿½ï¿½ï¿½ï¿½, ï¿½ï¿½ï¿½ï¿½ ï¿½ï¿½ ï¿½ï¿½
 124:../src/usbd_cdc_vcp.c ****     break;
 125:../src/usbd_cdc_vcp.c **** 
 126:../src/usbd_cdc_vcp.c ****   case GET_LINE_CODING://ï¿½ï¿½ï¿½ï¿½ï¿½ï¿½ï¿½ ï¿½ï¿½ï¿½ï¿½ï¿½ï¿½ï¿½ ï¿½ï¿½ï¿½ï¿½ï¿½ï¿½ï¿½ï¿½ï¿½ ï¿
 127:../src/usbd_cdc_vcp.c ****     break;
 128:../src/usbd_cdc_vcp.c **** 
 129:../src/usbd_cdc_vcp.c ****   case SET_CONTROL_LINE_STATE:
 130:../src/usbd_cdc_vcp.c ****     /* Not  needed for this driver */
 131:../src/usbd_cdc_vcp.c ****     break;
 132:../src/usbd_cdc_vcp.c **** 
 133:../src/usbd_cdc_vcp.c ****   case SEND_BREAK:
 134:../src/usbd_cdc_vcp.c ****     /* Not  needed for this driver */
 135:../src/usbd_cdc_vcp.c ****     break;    
 136:../src/usbd_cdc_vcp.c ****     
 137:../src/usbd_cdc_vcp.c ****   default:
 138:../src/usbd_cdc_vcp.c ****     break;
 25544              		.loc 1 138 0
 25545 00a8 00BF     		nop
 25546              	.L17:
 139:../src/usbd_cdc_vcp.c ****   }
 140:../src/usbd_cdc_vcp.c **** 
 141:../src/usbd_cdc_vcp.c ****   return USBD_OK;
 25547              		.loc 1 141 0
 25548 00aa 4FF00003 		mov	r3, #0
 142:../src/usbd_cdc_vcp.c **** }
 25549              		.loc 1 142 0
 25550 00ae 1846     		mov	r0, r3
 25551 00b0 07F11407 		add	r7, r7, #20
 25552 00b4 BD46     		mov	sp, r7
 25553 00b6 80BC     		pop	{r7}
 25554 00b8 7047     		bx	lr
 25555              		.cfi_endproc
 25556              	.LFE112:
 25558 00ba 00BF     		.section	.text.VCP_DataTx,"ax",%progbits
 25559              		.align	2
 25560              		.thumb
 25561              		.thumb_func
 25563              	VCP_DataTx:
 25564              	.LFB113:
 143:../src/usbd_cdc_vcp.c **** 
 144:../src/usbd_cdc_vcp.c **** /**
 145:../src/usbd_cdc_vcp.c ****   * @brief  VCP_DataTx
 146:../src/usbd_cdc_vcp.c ****   *         CDC received data to be send over USB IN endpoint are managed in 
 147:../src/usbd_cdc_vcp.c ****   *         this function.
 148:../src/usbd_cdc_vcp.c ****   * @param  Buf: Buffer of data to be sent
 149:../src/usbd_cdc_vcp.c ****   * @param  Len: Number of data to be sent (in bytes)
 150:../src/usbd_cdc_vcp.c ****   * @retval Result of the opeartion: USBD_OK if all operations are OK else VCP_FAIL
 151:../src/usbd_cdc_vcp.c ****   */
 152:../src/usbd_cdc_vcp.c **** static uint16_t VCP_DataTx (uint8_t* Buf, uint32_t Len)
 153:../src/usbd_cdc_vcp.c **** {
 25565              		.loc 1 153 0
 25566              		.cfi_startproc
 25567              		@ args = 0, pretend = 0, frame = 16
 25568              		@ frame_needed = 1, uses_anonymous_args = 0
 25569              		@ link register save eliminated.
 25570 0000 80B4     		push	{r7}
 25571              	.LCFI7:
 25572              		.cfi_def_cfa_offset 4
 25573 0002 85B0     		sub	sp, sp, #20
 25574              	.LCFI8:
 25575              		.cfi_def_cfa_offset 24
 25576 0004 00AF     		add	r7, sp, #0
 25577              		.cfi_offset 7, -4
 25578              	.LCFI9:
 25579              		.cfi_def_cfa_register 7
 25580 0006 7860     		str	r0, [r7, #4]
 25581 0008 3960     		str	r1, [r7, #0]
 154:../src/usbd_cdc_vcp.c **** 	uint32_t i;
 155:../src/usbd_cdc_vcp.c **** 	//loop through buffer
 156:../src/usbd_cdc_vcp.c **** 	for( i = 0; i < Len; i++ )
 25582              		.loc 1 156 0
 25583 000a 4FF00003 		mov	r3, #0
 25584 000e FB60     		str	r3, [r7, #12]
 25585 0010 1AE0     		b	.L20
 25586              	.L22:
 157:../src/usbd_cdc_vcp.c **** 	{
 158:../src/usbd_cdc_vcp.c **** 		APP_Rx_Buffer[APP_Rx_ptr_in] = (uint8_t) Buf[i];
 25587              		.loc 1 158 0
 25588 0012 134B     		ldr	r3, .L23
 25589 0014 1B68     		ldr	r3, [r3, #0]
 25590 0016 7968     		ldr	r1, [r7, #4]
 25591 0018 FA68     		ldr	r2, [r7, #12]
 25592 001a 8A18     		adds	r2, r1, r2
 25593 001c 1178     		ldrb	r1, [r2, #0]	@ zero_extendqisi2
 25594 001e 114A     		ldr	r2, .L23+4
 25595 0020 D154     		strb	r1, [r2, r3]
 159:../src/usbd_cdc_vcp.c **** 		//increase pointer value
 160:../src/usbd_cdc_vcp.c **** 		APP_Rx_ptr_in++;
 25596              		.loc 1 160 0
 25597 0022 0F4B     		ldr	r3, .L23
 25598 0024 1B68     		ldr	r3, [r3, #0]
 25599 0026 03F10102 		add	r2, r3, #1
 25600 002a 0D4B     		ldr	r3, .L23
 25601 002c 1A60     		str	r2, [r3, #0]
 161:../src/usbd_cdc_vcp.c **** 		/* To avoid buffer overflow */
 162:../src/usbd_cdc_vcp.c **** 		if(APP_Rx_ptr_in == APP_RX_DATA_SIZE)
 25602              		.loc 1 162 0
 25603 002e 0C4B     		ldr	r3, .L23
 25604 0030 1B68     		ldr	r3, [r3, #0]
 25605 0032 B3F5006F 		cmp	r3, #2048
 25606 0036 03D1     		bne	.L21
 163:../src/usbd_cdc_vcp.c **** 		{
 164:../src/usbd_cdc_vcp.c **** 			APP_Rx_ptr_in = 0;
 25607              		.loc 1 164 0
 25608 0038 094B     		ldr	r3, .L23
 25609 003a 4FF00002 		mov	r2, #0
 25610 003e 1A60     		str	r2, [r3, #0]
 25611              	.L21:
 156:../src/usbd_cdc_vcp.c **** 	for( i = 0; i < Len; i++ )
 25612              		.loc 1 156 0
 25613 0040 FB68     		ldr	r3, [r7, #12]
 25614 0042 03F10103 		add	r3, r3, #1
 25615 0046 FB60     		str	r3, [r7, #12]
 25616              	.L20:
 156:../src/usbd_cdc_vcp.c **** 	for( i = 0; i < Len; i++ )
 25617              		.loc 1 156 0 is_stmt 0 discriminator 1
 25618 0048 FA68     		ldr	r2, [r7, #12]
 25619 004a 3B68     		ldr	r3, [r7, #0]
 25620 004c 9A42     		cmp	r2, r3
 25621 004e E0D3     		bcc	.L22
 165:../src/usbd_cdc_vcp.c **** 		}
 166:../src/usbd_cdc_vcp.c **** 	}
 167:../src/usbd_cdc_vcp.c ****         
 168:../src/usbd_cdc_vcp.c **** 	return USBD_OK;
 25622              		.loc 1 168 0 is_stmt 1
 25623 0050 4FF00003 		mov	r3, #0
 169:../src/usbd_cdc_vcp.c **** }
 25624              		.loc 1 169 0
 25625 0054 1846     		mov	r0, r3
 25626 0056 07F11407 		add	r7, r7, #20
 25627 005a BD46     		mov	sp, r7
 25628 005c 80BC     		pop	{r7}
 25629 005e 7047     		bx	lr
 25630              	.L24:
 25631              		.align	2
 25632              	.L23:
 25633 0060 00000000 		.word	APP_Rx_ptr_in
 25634 0064 00000000 		.word	APP_Rx_Buffer
 25635              		.cfi_endproc
 25636              	.LFE113:
 25638              		.section	.text.VCP_DataRx,"ax",%progbits
 25639              		.align	2
 25640              		.thumb
 25641              		.thumb_func
 25643              	VCP_DataRx:
 25644              	.LFB114:
 170:../src/usbd_cdc_vcp.c **** 
 171:../src/usbd_cdc_vcp.c **** /**
 172:../src/usbd_cdc_vcp.c ****   * @brief  VCP_DataRx
 173:../src/usbd_cdc_vcp.c ****   *         Data received over USB OUT endpoint are sent over CDC interface 
 174:../src/usbd_cdc_vcp.c ****   *         through this function.
 175:../src/usbd_cdc_vcp.c ****   *           
 176:../src/usbd_cdc_vcp.c ****   *         @note
 177:../src/usbd_cdc_vcp.c ****   *         This function will block any OUT packet reception on USB endpoint 
 178:../src/usbd_cdc_vcp.c ****   *         untill exiting this function. If you exit this function before transfer
 179:../src/usbd_cdc_vcp.c ****   *         is complete on CDC interface (ie. using DMA controller) it will result 
 180:../src/usbd_cdc_vcp.c ****   *         in receiving more data while previous ones are still not sent.
 181:../src/usbd_cdc_vcp.c ****   *                 
 182:../src/usbd_cdc_vcp.c ****   * @param  Buf: Buffer of data to be received
 183:../src/usbd_cdc_vcp.c ****   * @param  Len: Number of data received (in bytes)
 184:../src/usbd_cdc_vcp.c ****   * @retval Result of the opeartion: USBD_OK if all operations are OK else VCP_FAIL
 185:../src/usbd_cdc_vcp.c ****   */
 186:../src/usbd_cdc_vcp.c **** static uint16_t VCP_DataRx (uint8_t* Buf, uint32_t Len)
 187:../src/usbd_cdc_vcp.c **** {
 25645              		.loc 1 187 0
 25646              		.cfi_startproc
 25647              		@ args = 0, pretend = 0, frame = 16
 25648              		@ frame_needed = 1, uses_anonymous_args = 0
 25649              		@ link register save eliminated.
 25650 0000 80B4     		push	{r7}
 25651              	.LCFI10:
 25652              		.cfi_def_cfa_offset 4
 25653 0002 85B0     		sub	sp, sp, #20
 25654              	.LCFI11:
 25655              		.cfi_def_cfa_offset 24
 25656 0004 00AF     		add	r7, sp, #0
 25657              		.cfi_offset 7, -4
 25658              	.LCFI12:
 25659              		.cfi_def_cfa_register 7
 25660 0006 7860     		str	r0, [r7, #4]
 25661 0008 3960     		str	r1, [r7, #0]
 25662              	.LBB2:
 188:../src/usbd_cdc_vcp.c ****     //VCP_DataTx(Buf, Len);
 189:../src/usbd_cdc_vcp.c **** 
 190:../src/usbd_cdc_vcp.c ****     for (uint32_t i =0 ; i < Len; i++) {
 25663              		.loc 1 190 0
 25664 000a 4FF00003 		mov	r3, #0
 25665 000e FB60     		str	r3, [r7, #12]
 25666 0010 0BE0     		b	.L26
 25667              	.L27:
 191:../src/usbd_cdc_vcp.c ****         Data_buf[i] = Buf[i];
 25668              		.loc 1 191 0 discriminator 2
 25669 0012 7A68     		ldr	r2, [r7, #4]
 25670 0014 FB68     		ldr	r3, [r7, #12]
 25671 0016 D318     		adds	r3, r2, r3
 25672 0018 1A78     		ldrb	r2, [r3, #0]	@ zero_extendqisi2
 25673 001a 0C49     		ldr	r1, .L28
 25674 001c FB68     		ldr	r3, [r7, #12]
 25675 001e CB18     		adds	r3, r1, r3
 25676 0020 1A70     		strb	r2, [r3, #0]
 190:../src/usbd_cdc_vcp.c ****     for (uint32_t i =0 ; i < Len; i++) {
 25677              		.loc 1 190 0 discriminator 2
 25678 0022 FB68     		ldr	r3, [r7, #12]
 25679 0024 03F10103 		add	r3, r3, #1
 25680 0028 FB60     		str	r3, [r7, #12]
 25681              	.L26:
 190:../src/usbd_cdc_vcp.c ****     for (uint32_t i =0 ; i < Len; i++) {
 25682              		.loc 1 190 0 is_stmt 0 discriminator 1
 25683 002a FA68     		ldr	r2, [r7, #12]
 25684 002c 3B68     		ldr	r3, [r7, #0]
 25685 002e 9A42     		cmp	r2, r3
 25686 0030 EFD3     		bcc	.L27
 25687              	.LBE2:
 192:../src/usbd_cdc_vcp.c ****     }
 193:../src/usbd_cdc_vcp.c ****     Data_get = 1;
 25688              		.loc 1 193 0 is_stmt 1
 25689 0032 074B     		ldr	r3, .L28+4
 25690 0034 4FF00102 		mov	r2, #1
 25691 0038 1A70     		strb	r2, [r3, #0]
 194:../src/usbd_cdc_vcp.c **** 
 195:../src/usbd_cdc_vcp.c **** 	return USBD_OK;
 25692              		.loc 1 195 0
 25693 003a 4FF00003 		mov	r3, #0
 196:../src/usbd_cdc_vcp.c **** }
 25694              		.loc 1 196 0
 25695 003e 1846     		mov	r0, r3
 25696 0040 07F11407 		add	r7, r7, #20
 25697 0044 BD46     		mov	sp, r7
 25698 0046 80BC     		pop	{r7}
 25699 0048 7047     		bx	lr
 25700              	.L29:
 25701 004a 00BF     		.align	2
 25702              	.L28:
 25703 004c 00000000 		.word	Data_buf
 25704 0050 00000000 		.word	Data_get
 25705              		.cfi_endproc
 25706              	.LFE114:
 25708              		.text
 25709              	.Letext0: