   1              		.syntax unified
   2              		.cpu cortex-m4
   3              		.fpu softvfp
   4              		.eabi_attribute 20, 1
   5              		.eabi_attribute 21, 1
   6              		.eabi_attribute 23, 3
   7              		.eabi_attribute 24, 1
   8              		.eabi_attribute 25, 1
   9              		.eabi_attribute 26, 1
  10              		.eabi_attribute 30, 6
  11              		.eabi_attribute 18, 4
  12              		.thumb
  13              		.file	"usbd_usr.c"
  23              	.Ltext0:
  24              		.file 1 "../src/usbd_usr.c"
 25304              		.align	2
 25307              	USR_cb:
 25308 0000 00000000 		.word	USBD_USR_Init
 25309 0004 00000000 		.word	USBD_USR_DeviceReset
 25310 0008 00000000 		.word	USBD_USR_DeviceConfigured
 25311 000c 00000000 		.word	USBD_USR_DeviceSuspended
 25312 0010 00000000 		.word	USBD_USR_DeviceResumed
 25313 0014 00000000 		.word	USBD_USR_DeviceConnected
 25314 0018 00000000 		.word	USBD_USR_DeviceDisconnected
 25315              		.section	.text.USBD_USR_Init,"ax",%progbits
 25316              		.align	2
 25317              		.global	USBD_USR_Init
 25318              		.thumb
 25319              		.thumb_func
 25321              	USBD_USR_Init:
 25322              	.LFB110:
   1:../src/usbd_usr.c **** /**
   2:../src/usbd_usr.c ****   ******************************************************************************
   3:../src/usbd_usr.c ****   * @file    usbd_usr.c
   4:../src/usbd_usr.c ****   * @author  MCD Application Team
   5:../src/usbd_usr.c ****   * @version V1.0.0
   6:../src/usbd_usr.c ****   * @date    19-September-2011
   7:../src/usbd_usr.c ****   * @brief   This file includes the user application layer
   8:../src/usbd_usr.c ****   ******************************************************************************
   9:../src/usbd_usr.c ****   * @attention
  10:../src/usbd_usr.c ****   *
  11:../src/usbd_usr.c ****   * THE PRESENT FIRMWARE WHICH IS FOR GUIDANCE ONLY AIMS AT PROVIDING CUSTOMERS
  12:../src/usbd_usr.c ****   * WITH CODING INFORMATION REGARDING THEIR PRODUCTS IN ORDER FOR THEM TO SAVE
  13:../src/usbd_usr.c ****   * TIME. AS A RESULT, STMICROELECTRONICS SHALL NOT BE HELD LIABLE FOR ANY
  14:../src/usbd_usr.c ****   * DIRECT, INDIRECT OR CONSEQUENTIAL DAMAGES WITH RESPECT TO ANY CLAIMS ARISING
  15:../src/usbd_usr.c ****   * FROM THE CONTENT OF SUCH FIRMWARE AND/OR THE USE MADE BY CUSTOMERS OF THE
  16:../src/usbd_usr.c ****   * CODING INFORMATION CONTAINED HEREIN IN CONNECTION WITH THEIR PRODUCTS.
  17:../src/usbd_usr.c ****   *
  18:../src/usbd_usr.c ****   * <h2><center>&copy; COPYRIGHT 2011 STMicroelectronics</center></h2>
  19:../src/usbd_usr.c ****   ******************************************************************************
  20:../src/usbd_usr.c ****   */ 
  21:../src/usbd_usr.c **** 
  22:../src/usbd_usr.c **** /* Includes ------------------------------------------------------------------*/
  23:../src/usbd_usr.c **** #include "usbd_usr.h"
  24:../src/usbd_usr.c **** #include "usbd_ioreq.h"
  25:../src/usbd_usr.c **** 
  26:../src/usbd_usr.c **** 
  27:../src/usbd_usr.c **** /** @addtogroup STM32_USB_OTG_DEVICE_LIBRARY
  28:../src/usbd_usr.c **** * @{
  29:../src/usbd_usr.c **** */
  30:../src/usbd_usr.c **** 
  31:../src/usbd_usr.c **** /** @defgroup USBD_USR 
  32:../src/usbd_usr.c **** * @brief    This file includes the user application layer
  33:../src/usbd_usr.c **** * @{
  34:../src/usbd_usr.c **** */ 
  35:../src/usbd_usr.c **** 
  36:../src/usbd_usr.c **** /** @defgroup USBD_USR_Private_TypesDefinitions
  37:../src/usbd_usr.c **** * @{
  38:../src/usbd_usr.c **** */ 
  39:../src/usbd_usr.c **** /**
  40:../src/usbd_usr.c **** * @}
  41:../src/usbd_usr.c **** */ 
  42:../src/usbd_usr.c **** 
  43:../src/usbd_usr.c **** 
  44:../src/usbd_usr.c **** /** @defgroup USBD_USR_Private_Defines
  45:../src/usbd_usr.c **** * @{
  46:../src/usbd_usr.c **** */ 
  47:../src/usbd_usr.c **** /**
  48:../src/usbd_usr.c **** * @}
  49:../src/usbd_usr.c **** */ 
  50:../src/usbd_usr.c **** 
  51:../src/usbd_usr.c **** 
  52:../src/usbd_usr.c **** /** @defgroup USBD_USR_Private_Macros
  53:../src/usbd_usr.c **** * @{
  54:../src/usbd_usr.c **** */ 
  55:../src/usbd_usr.c **** /**
  56:../src/usbd_usr.c **** * @}
  57:../src/usbd_usr.c **** */ 
  58:../src/usbd_usr.c **** 
  59:../src/usbd_usr.c **** 
  60:../src/usbd_usr.c **** /** @defgroup USBD_USR_Private_Variables
  61:../src/usbd_usr.c **** * @{
  62:../src/usbd_usr.c **** */ 
  63:../src/usbd_usr.c **** 
  64:../src/usbd_usr.c **** USBD_Usr_cb_TypeDef USR_cb =
  65:../src/usbd_usr.c **** {
  66:../src/usbd_usr.c ****   USBD_USR_Init,
  67:../src/usbd_usr.c ****   USBD_USR_DeviceReset,
  68:../src/usbd_usr.c ****   USBD_USR_DeviceConfigured,
  69:../src/usbd_usr.c ****   USBD_USR_DeviceSuspended,
  70:../src/usbd_usr.c ****   USBD_USR_DeviceResumed,
  71:../src/usbd_usr.c ****   
  72:../src/usbd_usr.c ****   USBD_USR_DeviceConnected,
  73:../src/usbd_usr.c ****   USBD_USR_DeviceDisconnected,  
  74:../src/usbd_usr.c ****   
  75:../src/usbd_usr.c ****   
  76:../src/usbd_usr.c **** };
  77:../src/usbd_usr.c **** 
  78:../src/usbd_usr.c **** 
  79:../src/usbd_usr.c **** 
  80:../src/usbd_usr.c **** /**
  81:../src/usbd_usr.c **** * @}
  82:../src/usbd_usr.c **** */
  83:../src/usbd_usr.c **** 
  84:../src/usbd_usr.c **** /** @defgroup USBD_USR_Private_Constants
  85:../src/usbd_usr.c **** * @{
  86:../src/usbd_usr.c **** */ 
  87:../src/usbd_usr.c **** 
  88:../src/usbd_usr.c **** /**
  89:../src/usbd_usr.c **** * @}
  90:../src/usbd_usr.c **** */
  91:../src/usbd_usr.c **** 
  92:../src/usbd_usr.c **** 
  93:../src/usbd_usr.c **** 
  94:../src/usbd_usr.c **** /** @defgroup USBD_USR_Private_FunctionPrototypes
  95:../src/usbd_usr.c **** * @{
  96:../src/usbd_usr.c **** */ 
  97:../src/usbd_usr.c **** /**
  98:../src/usbd_usr.c **** * @}
  99:../src/usbd_usr.c **** */ 
 100:../src/usbd_usr.c **** 
 101:../src/usbd_usr.c **** 
 102:../src/usbd_usr.c **** /** @defgroup USBD_USR_Private_Functions
 103:../src/usbd_usr.c **** * @{
 104:../src/usbd_usr.c **** */ 
 105:../src/usbd_usr.c **** 
 106:../src/usbd_usr.c **** /**
 107:../src/usbd_usr.c **** * @brief  USBD_USR_Init 
 108:../src/usbd_usr.c **** * @param  None
 109:../src/usbd_usr.c **** * @retval None
 110:../src/usbd_usr.c **** */
 111:../src/usbd_usr.c **** void USBD_USR_Init(void)
 112:../src/usbd_usr.c **** {
 25323              		.loc 1 112 0
 25324              		.cfi_startproc
 25325              		@ args = 0, pretend = 0, frame = 0
 25326              		@ frame_needed = 1, uses_anonymous_args = 0
 25327 0000 80B5     		push	{r7, lr}
 25328              	.LCFI0:
 25329              		.cfi_def_cfa_offset 8
 25330 0002 00AF     		add	r7, sp, #0
 25331              		.cfi_offset 14, -4
 25332              		.cfi_offset 7, -8
 25333              	.LCFI1:
 25334              		.cfi_def_cfa_register 7
 113:../src/usbd_usr.c ****     TIM_SetCompare2(TIM4, 1000);
 25335              		.loc 1 113 0
 25336 0004 0248     		ldr	r0, .L2
 25337 0006 4FF47A71 		mov	r1, #1000
 25338 000a FFF7FEFF 		bl	TIM_SetCompare2
 114:../src/usbd_usr.c **** }
 25339              		.loc 1 114 0
 25340 000e 80BD     		pop	{r7, pc}
 25341              	.L3:
 25342              		.align	2
 25343              	.L2:
 25344 0010 00080040 		.word	1073743872
 25345              		.cfi_endproc
 25346              	.LFE110:
 25348              		.section	.text.USBD_USR_DeviceReset,"ax",%progbits
 25349              		.align	2
 25350              		.global	USBD_USR_DeviceReset
 25351              		.thumb
 25352              		.thumb_func
 25354              	USBD_USR_DeviceReset:
 25355              	.LFB111:
 115:../src/usbd_usr.c **** 
 116:../src/usbd_usr.c **** /**
 117:../src/usbd_usr.c **** * @brief  USBD_USR_DeviceReset 
 118:../src/usbd_usr.c **** * @param  speed : device speed
 119:../src/usbd_usr.c **** * @retval None
 120:../src/usbd_usr.c **** */
 121:../src/usbd_usr.c **** void USBD_USR_DeviceReset(uint8_t speed )
 122:../src/usbd_usr.c **** {
 25356              		.loc 1 122 0
 25357              		.cfi_startproc
 25358              		@ args = 0, pretend = 0, frame = 8
 25359              		@ frame_needed = 1, uses_anonymous_args = 0
 25360 0000 80B5     		push	{r7, lr}
 25361              	.LCFI2:
 25362              		.cfi_def_cfa_offset 8
 25363 0002 82B0     		sub	sp, sp, #8
 25364              	.LCFI3:
 25365              		.cfi_def_cfa_offset 16
 25366 0004 00AF     		add	r7, sp, #0
 25367              		.cfi_offset 14, -4
 25368              		.cfi_offset 7, -8
 25369              	.LCFI4:
 25370              		.cfi_def_cfa_register 7
 25371 0006 0346     		mov	r3, r0
 25372 0008 FB71     		strb	r3, [r7, #7]
 123:../src/usbd_usr.c ****     USBD_USR_DEVICE_CONFIGURED = RESET;
 25373              		.loc 1 123 0
 25374 000a 094B     		ldr	r3, .L10
 25375 000c 4FF00002 		mov	r2, #0
 25376 0010 1A70     		strb	r2, [r3, #0]
 124:../src/usbd_usr.c ****     TIM_SetCompare3(TIM4, 0);
 25377              		.loc 1 124 0
 25378 0012 0848     		ldr	r0, .L10+4
 25379 0014 4FF00001 		mov	r1, #0
 25380 0018 FFF7FEFF 		bl	TIM_SetCompare3
 125:../src/usbd_usr.c ****  switch (speed)
 25381              		.loc 1 125 0
 25382 001c FB79     		ldrb	r3, [r7, #7]	@ zero_extendqisi2
 25383 001e 002B     		cmp	r3, #0
 25384 0020 01D0     		beq	.L9
 25385 0022 012B     		cmp	r3, #1
 126:../src/usbd_usr.c ****  {
 127:../src/usbd_usr.c ****    case USB_OTG_SPEED_HIGH: 
 128:../src/usbd_usr.c ****      break;
 129:../src/usbd_usr.c **** 
 130:../src/usbd_usr.c ****   case USB_OTG_SPEED_FULL: 
 131:../src/usbd_usr.c ****      break;
 25386              		.loc 1 131 0
 25387 0024 00E0     		b	.L4
 25388              	.L9:
 128:../src/usbd_usr.c ****      break;
 25389              		.loc 1 128 0
 25390 0026 00BF     		nop
 25391              	.L4:
 132:../src/usbd_usr.c ****  default:
 133:../src/usbd_usr.c ****      break;
 134:../src/usbd_usr.c ****      
 135:../src/usbd_usr.c ****  }
 136:../src/usbd_usr.c **** }
 25392              		.loc 1 136 0
 25393 0028 07F10807 		add	r7, r7, #8
 25394 002c BD46     		mov	sp, r7
 25395 002e 80BD     		pop	{r7, pc}
 25396              	.L11:
 25397              		.align	2
 25398              	.L10:
 25399 0030 00000000 		.word	USBD_USR_DEVICE_CONFIGURED
 25400 0034 00080040 		.word	1073743872
 25401              		.cfi_endproc
 25402              	.LFE111:
 25404              		.section	.text.USBD_USR_DeviceConfigured,"ax",%progbits
 25405              		.align	2
 25406              		.global	USBD_USR_DeviceConfigured
 25407              		.thumb
 25408              		.thumb_func
 25410              	USBD_USR_DeviceConfigured:
 25411              	.LFB112:
 137:../src/usbd_usr.c **** 
 138:../src/usbd_usr.c **** 
 139:../src/usbd_usr.c **** /**
 140:../src/usbd_usr.c **** * @brief  USBD_USR_DeviceConfigured
 141:../src/usbd_usr.c **** *         Displays the message on LCD on device configuration Event
 142:../src/usbd_usr.c **** * @param  None
 143:../src/usbd_usr.c **** * @retval Staus
 144:../src/usbd_usr.c **** */
 145:../src/usbd_usr.c **** void USBD_USR_DeviceConfigured (void)
 146:../src/usbd_usr.c **** {
 25412              		.loc 1 146 0
 25413              		.cfi_startproc
 25414              		@ args = 0, pretend = 0, frame = 0
 25415              		@ frame_needed = 1, uses_anonymous_args = 0
 25416 0000 80B5     		push	{r7, lr}
 25417              	.LCFI5:
 25418              		.cfi_def_cfa_offset 8
 25419 0002 00AF     		add	r7, sp, #0
 25420              		.cfi_offset 14, -4
 25421              		.cfi_offset 7, -8
 25422              	.LCFI6:
 25423              		.cfi_def_cfa_register 7
 147:../src/usbd_usr.c ****     USBD_USR_DEVICE_CONFIGURED = SET;
 25424              		.loc 1 147 0
 25425 0004 044B     		ldr	r3, .L13
 25426 0006 4FF00102 		mov	r2, #1
 25427 000a 1A70     		strb	r2, [r3, #0]
 148:../src/usbd_usr.c ****     TIM_SetCompare3(TIM4, 1000);
 25428              		.loc 1 148 0
 25429 000c 0348     		ldr	r0, .L13+4
 25430 000e 4FF47A71 		mov	r1, #1000
 25431 0012 FFF7FEFF 		bl	TIM_SetCompare3
 149:../src/usbd_usr.c **** }
 25432              		.loc 1 149 0
 25433 0016 80BD     		pop	{r7, pc}
 25434              	.L14:
 25435              		.align	2
 25436              	.L13:
 25437 0018 00000000 		.word	USBD_USR_DEVICE_CONFIGURED
 25438 001c 00080040 		.word	1073743872
 25439              		.cfi_endproc
 25440              	.LFE112:
 25442              		.section	.text.USBD_USR_DeviceConnected,"ax",%progbits
 25443              		.align	2
 25444              		.global	USBD_USR_DeviceConnected
 25445              		.thumb
 25446              		.thumb_func
 25448              	USBD_USR_DeviceConnected:
 25449              	.LFB113:
 150:../src/usbd_usr.c **** 
 151:../src/usbd_usr.c **** 
 152:../src/usbd_usr.c **** /**
 153:../src/usbd_usr.c **** * @brief  USBD_USR_DeviceConnected
 154:../src/usbd_usr.c **** *         Displays the message on LCD on device connection Event
 155:../src/usbd_usr.c **** * @param  None
 156:../src/usbd_usr.c **** * @retval Staus
 157:../src/usbd_usr.c **** */
 158:../src/usbd_usr.c **** void USBD_USR_DeviceConnected (void)
 159:../src/usbd_usr.c **** {
 25450              		.loc 1 159 0
 25451              		.cfi_startproc
 25452              		@ args = 0, pretend = 0, frame = 0
 25453              		@ frame_needed = 1, uses_anonymous_args = 0
 25454 0000 80B5     		push	{r7, lr}
 25455              	.LCFI7:
 25456              		.cfi_def_cfa_offset 8
 25457 0002 00AF     		add	r7, sp, #0
 25458              		.cfi_offset 14, -4
 25459              		.cfi_offset 7, -8
 25460              	.LCFI8:
 25461              		.cfi_def_cfa_register 7
 160:../src/usbd_usr.c ****     TIM_SetCompare4(TIM4, 1000);
 25462              		.loc 1 160 0
 25463 0004 0248     		ldr	r0, .L16
 25464 0006 4FF47A71 		mov	r1, #1000
 25465 000a FFF7FEFF 		bl	TIM_SetCompare4
 161:../src/usbd_usr.c **** }
 25466              		.loc 1 161 0
 25467 000e 80BD     		pop	{r7, pc}
 25468              	.L17:
 25469              		.align	2
 25470              	.L16:
 25471 0010 00080040 		.word	1073743872
 25472              		.cfi_endproc
 25473              	.LFE113:
 25475              		.section	.text.USBD_USR_DeviceDisconnected,"ax",%progbits
 25476              		.align	2
 25477              		.global	USBD_USR_DeviceDisconnected
 25478              		.thumb
 25479              		.thumb_func
 25481              	USBD_USR_DeviceDisconnected:
 25482              	.LFB114:
 162:../src/usbd_usr.c **** 
 163:../src/usbd_usr.c **** 
 164:../src/usbd_usr.c **** /**
 165:../src/usbd_usr.c **** * @brief  USBD_USR_DeviceDisonnected
 166:../src/usbd_usr.c **** *         Displays the message on LCD on device disconnection Event
 167:../src/usbd_usr.c **** * @param  None
 168:../src/usbd_usr.c **** * @retval Staus
 169:../src/usbd_usr.c **** */
 170:../src/usbd_usr.c **** void USBD_USR_DeviceDisconnected (void)
 171:../src/usbd_usr.c **** {
 25483              		.loc 1 171 0
 25484              		.cfi_startproc
 25485              		@ args = 0, pretend = 0, frame = 0
 25486              		@ frame_needed = 1, uses_anonymous_args = 0
 25487              		@ link register save eliminated.
 25488 0000 80B4     		push	{r7}
 25489              	.LCFI9:
 25490              		.cfi_def_cfa_offset 4
 25491 0002 00AF     		add	r7, sp, #0
 25492              		.cfi_offset 7, -4
 25493              	.LCFI10:
 25494              		.cfi_def_cfa_register 7
 172:../src/usbd_usr.c **** }
 25495              		.loc 1 172 0
 25496 0004 BD46     		mov	sp, r7
 25497 0006 80BC     		pop	{r7}
 25498 0008 7047     		bx	lr
 25499              		.cfi_endproc
 25500              	.LFE114:
 25502 000a 00BF     		.section	.text.USBD_USR_DeviceSuspended,"ax",%progbits
 25503              		.align	2
 25504              		.global	USBD_USR_DeviceSuspended
 25505              		.thumb
 25506              		.thumb_func
 25508              	USBD_USR_DeviceSuspended:
 25509              	.LFB115:
 173:../src/usbd_usr.c **** 
 174:../src/usbd_usr.c **** /**
 175:../src/usbd_usr.c **** * @brief  USBD_USR_DeviceSuspended 
 176:../src/usbd_usr.c **** *         Displays the message on LCD on device suspend Event
 177:../src/usbd_usr.c **** * @param  None
 178:../src/usbd_usr.c **** * @retval None
 179:../src/usbd_usr.c **** */
 180:../src/usbd_usr.c **** void USBD_USR_DeviceSuspended(void)
 181:../src/usbd_usr.c **** {
 25510              		.loc 1 181 0
 25511              		.cfi_startproc
 25512              		@ args = 0, pretend = 0, frame = 0
 25513              		@ frame_needed = 1, uses_anonymous_args = 0
 25514              		@ link register save eliminated.
 25515 0000 80B4     		push	{r7}
 25516              	.LCFI11:
 25517              		.cfi_def_cfa_offset 4
 25518 0002 00AF     		add	r7, sp, #0
 25519              		.cfi_offset 7, -4
 25520              	.LCFI12:
 25521              		.cfi_def_cfa_register 7
 182:../src/usbd_usr.c ****   /* Users can do their application actions here for the USB-Reset */
 183:../src/usbd_usr.c **** }
 25522              		.loc 1 183 0
 25523 0004 BD46     		mov	sp, r7
 25524 0006 80BC     		pop	{r7}
 25525 0008 7047     		bx	lr
 25526              		.cfi_endproc
 25527              	.LFE115:
 25529 000a 00BF     		.section	.text.USBD_USR_DeviceResumed,"ax",%progbits
 25530              		.align	2
 25531              		.global	USBD_USR_DeviceResumed
 25532              		.thumb
 25533              		.thumb_func
 25535              	USBD_USR_DeviceResumed:
 25536              	.LFB116:
 184:../src/usbd_usr.c **** 
 185:../src/usbd_usr.c **** 
 186:../src/usbd_usr.c **** /**
 187:../src/usbd_usr.c **** * @brief  USBD_USR_DeviceResumed 
 188:../src/usbd_usr.c **** *         Displays the message on LCD on device resume Event
 189:../src/usbd_usr.c **** * @param  None
 190:../src/usbd_usr.c **** * @retval None
 191:../src/usbd_usr.c **** */
 192:../src/usbd_usr.c **** void USBD_USR_DeviceResumed(void)
 193:../src/usbd_usr.c **** {
 25537              		.loc 1 193 0
 25538              		.cfi_startproc
 25539              		@ args = 0, pretend = 0, frame = 0
 25540              		@ frame_needed = 1, uses_anonymous_args = 0
 25541              		@ link register save eliminated.
 25542 0000 80B4     		push	{r7}
 25543              	.LCFI13:
 25544              		.cfi_def_cfa_offset 4
 25545 0002 00AF     		add	r7, sp, #0
 25546              		.cfi_offset 7, -4
 25547              	.LCFI14:
 25548              		.cfi_def_cfa_register 7
 194:../src/usbd_usr.c ****   /* Users can do their application actions here for the USB-Reset */
 195:../src/usbd_usr.c **** }
 25549              		.loc 1 195 0
 25550 0004 BD46     		mov	sp, r7
 25551 0006 80BC     		pop	{r7}
 25552 0008 7047     		bx	lr
 25553              		.cfi_endproc
 25554              	.LFE116:
 25556 000a 00BF     		.text
 25557              	.Letext0: