   1              		.syntax unified
   2              		.cpu cortex-m4
   3              		.fpu softvfp
   4              		.eabi_attribute 20, 1
   5              		.eabi_attribute 21, 1
   6              		.eabi_attribute 23, 3
   7              		.eabi_attribute 24, 1
   8              		.eabi_attribute 25, 1
   9              		.eabi_attribute 26, 1
  10              		.eabi_attribute 30, 6
  11              		.eabi_attribute 18, 4
  12              		.thumb
  13              		.file	"usbd_cdc_core.c"
  23              	.Ltext0:
  24              		.file 1 "../inc/STM32_USB_Device_Library/Class/cdc/src/usbd_cdc_core.c"
 25415              		.align	2
 25418              	usbd_cdc_CfgDesc:
 25419 0000 09       		.byte	9
 25420 0001 02       		.byte	2
 25421 0002 43       		.byte	67
 25422 0003 00       		.byte	0
 25423 0004 02       		.byte	2
 25424 0005 01       		.byte	1
 25425 0006 00       		.byte	0
 25426 0007 C0       		.byte	-64
 25427 0008 32       		.byte	50
 25428 0009 09       		.byte	9
 25429 000a 04       		.byte	4
 25430 000b 00       		.byte	0
 25431 000c 00       		.byte	0
 25432 000d 01       		.byte	1
 25433 000e 02       		.byte	2
 25434 000f 02       		.byte	2
 25435 0010 01       		.byte	1
 25436 0011 00       		.byte	0
 25437 0012 05       		.byte	5
 25438 0013 24       		.byte	36
 25439 0014 00       		.byte	0
 25440 0015 10       		.byte	16
 25441 0016 01       		.byte	1
 25442 0017 05       		.byte	5
 25443 0018 24       		.byte	36
 25444 0019 01       		.byte	1
 25445 001a 00       		.byte	0
 25446 001b 01       		.byte	1
 25447 001c 04       		.byte	4
 25448 001d 24       		.byte	36
 25449 001e 02       		.byte	2
 25450 001f 02       		.byte	2
 25451 0020 05       		.byte	5
 25452 0021 24       		.byte	36
 25453 0022 06       		.byte	6
 25454 0023 00       		.byte	0
 25455 0024 01       		.byte	1
 25456 0025 07       		.byte	7
 25457 0026 05       		.byte	5
 25458 0027 82       		.byte	-126
 25459 0028 03       		.byte	3
 25460 0029 08       		.byte	8
 25461 002a 00       		.byte	0
 25462 002b FF       		.byte	-1
 25463 002c 09       		.byte	9
 25464 002d 04       		.byte	4
 25465 002e 01       		.byte	1
 25466 002f 00       		.byte	0
 25467 0030 02       		.byte	2
 25468 0031 0A       		.byte	10
 25469 0032 00       		.byte	0
 25470 0033 00       		.byte	0
 25471 0034 00       		.byte	0
 25472 0035 07       		.byte	7
 25473 0036 05       		.byte	5
 25474 0037 01       		.byte	1
 25475 0038 02       		.byte	2
 25476 0039 40       		.byte	64
 25477 003a 00       		.byte	0
 25478 003b 00       		.byte	0
 25479 003c 07       		.byte	7
 25480 003d 05       		.byte	5
 25481 003e 81       		.byte	-127
 25482 003f 02       		.byte	2
 25483 0040 40       		.byte	64
 25484 0041 00       		.byte	0
 25485 0042 00       		.byte	0
 25486              		.comm	usbd_cdc_OtherCfgDesc,67,4
 25487 0043 00       		.section	.bss.usbd_cdc_AltSet,"aw",%nobits
 25488              		.align	2
 25491              	usbd_cdc_AltSet:
 25492 0000 00000000 		.space	4
 25493              		.comm	USB_Rx_Buffer,64,4
 25494              		.comm	APP_Rx_Buffer,2048,4
 25495              		.comm	CmdBuff,8,4
 25496              		.global	APP_Rx_ptr_in
 25497              		.section	.bss.APP_Rx_ptr_in,"aw",%nobits
 25498              		.align	2
 25501              	APP_Rx_ptr_in:
 25502 0000 00000000 		.space	4
 25503              		.global	APP_Rx_ptr_out
 25504              		.section	.bss.APP_Rx_ptr_out,"aw",%nobits
 25505              		.align	2
 25508              	APP_Rx_ptr_out:
 25509 0000 00000000 		.space	4
 25510              		.global	APP_Rx_length
 25511              		.section	.bss.APP_Rx_length,"aw",%nobits
 25512              		.align	2
 25515              	APP_Rx_length:
 25516 0000 00000000 		.space	4
 25517              		.global	USB_Tx_State
 25518              		.section	.bss.USB_Tx_State,"aw",%nobits
 25521              	USB_Tx_State:
 25522 0000 00       		.space	1
 25523              		.section	.data.cdcCmd,"aw",%progbits
 25524              		.align	2
 25527              	cdcCmd:
 25528 0000 FF000000 		.word	255
 25529              		.section	.bss.cdcLen,"aw",%nobits
 25530              		.align	2
 25533              	cdcLen:
 25534 0000 00000000 		.space	4
 25535              		.global	USBD_CDC_cb
 25536              		.section	.data.USBD_CDC_cb,"aw",%progbits
 25537              		.align	2
 25540              	USBD_CDC_cb:
 25541 0000 00000000 		.word	usbd_cdc_Init
 25542 0004 00000000 		.word	usbd_cdc_DeInit
 25543 0008 00000000 		.word	usbd_cdc_Setup
 25544 000c 00000000 		.word	0
 25545 0010 00000000 		.word	usbd_cdc_EP0_RxReady
 25546 0014 00000000 		.word	usbd_cdc_DataIn
 25547 0018 00000000 		.word	usbd_cdc_DataOut
 25548 001c 00000000 		.word	usbd_cdc_SOF
 25549 0020 00000000 		.word	0
 25550 0024 00000000 		.word	0
 25551 0028 00000000 		.word	USBD_cdc_GetCfgDesc
 25552              		.section	.text.usbd_cdc_Init,"ax",%progbits
 25553              		.align	2
 25554              		.thumb
 25555              		.thumb_func
 25557              	usbd_cdc_Init:
 25558              	.LFB110:
   1:../inc/STM32_USB_Device_Library/Class/cdc/src/usbd_cdc_core.c **** /**
   2:../inc/STM32_USB_Device_Library/Class/cdc/src/usbd_cdc_core.c ****   ******************************************************************************
   3:../inc/STM32_USB_Device_Library/Class/cdc/src/usbd_cdc_core.c ****   * @file    usbd_cdc_core.c
   4:../inc/STM32_USB_Device_Library/Class/cdc/src/usbd_cdc_core.c ****   * @author  MCD Application Team
   5:../inc/STM32_USB_Device_Library/Class/cdc/src/usbd_cdc_core.c ****   * @version V1.0.0
   6:../inc/STM32_USB_Device_Library/Class/cdc/src/usbd_cdc_core.c ****   * @date    22-July-2011
   7:../inc/STM32_USB_Device_Library/Class/cdc/src/usbd_cdc_core.c ****   * @brief   This file provides the high layer firmware functions to manage the 
   8:../inc/STM32_USB_Device_Library/Class/cdc/src/usbd_cdc_core.c ****   *          following functionalities of the USB CDC Class:
   9:../inc/STM32_USB_Device_Library/Class/cdc/src/usbd_cdc_core.c ****   *           - Initialization and Configuration of high and low layer
  10:../inc/STM32_USB_Device_Library/Class/cdc/src/usbd_cdc_core.c ****   *           - Enumeration as CDC Device (and enumeration for each implemented memory interface)
  11:../inc/STM32_USB_Device_Library/Class/cdc/src/usbd_cdc_core.c ****   *           - OUT/IN data transfer
  12:../inc/STM32_USB_Device_Library/Class/cdc/src/usbd_cdc_core.c ****   *           - Command IN transfer (class requests management)
  13:../inc/STM32_USB_Device_Library/Class/cdc/src/usbd_cdc_core.c ****   *           - Error management
  14:../inc/STM32_USB_Device_Library/Class/cdc/src/usbd_cdc_core.c ****   *           
  15:../inc/STM32_USB_Device_Library/Class/cdc/src/usbd_cdc_core.c ****   *  @verbatim
  16:../inc/STM32_USB_Device_Library/Class/cdc/src/usbd_cdc_core.c ****   *      
  17:../inc/STM32_USB_Device_Library/Class/cdc/src/usbd_cdc_core.c ****   *          ===================================================================      
  18:../inc/STM32_USB_Device_Library/Class/cdc/src/usbd_cdc_core.c ****   *                                CDC Class Driver Description
  19:../inc/STM32_USB_Device_Library/Class/cdc/src/usbd_cdc_core.c ****   *          =================================================================== 
  20:../inc/STM32_USB_Device_Library/Class/cdc/src/usbd_cdc_core.c ****   *           This driver manages the "Universal Serial Bus Class Definitions for Communications De
  21:../inc/STM32_USB_Device_Library/Class/cdc/src/usbd_cdc_core.c ****   *           Revision 1.2 November 16, 2007" and the sub-protocol specification of "Universal Seri
  22:../inc/STM32_USB_Device_Library/Class/cdc/src/usbd_cdc_core.c ****   *           Communications Class Subclass Specification for PSTN Devices Revision 1.2 February 9,
  23:../inc/STM32_USB_Device_Library/Class/cdc/src/usbd_cdc_core.c ****   *           This driver implements the following aspects of the specification:
  24:../inc/STM32_USB_Device_Library/Class/cdc/src/usbd_cdc_core.c ****   *             - Device descriptor management
  25:../inc/STM32_USB_Device_Library/Class/cdc/src/usbd_cdc_core.c ****   *             - Configuration descriptor management
  26:../inc/STM32_USB_Device_Library/Class/cdc/src/usbd_cdc_core.c ****   *             - Enumeration as CDC device with 2 data endpoints (IN and OUT) and 1 command endpoi
  27:../inc/STM32_USB_Device_Library/Class/cdc/src/usbd_cdc_core.c ****   *             - Requests management (as described in section 6.2 in specification)
  28:../inc/STM32_USB_Device_Library/Class/cdc/src/usbd_cdc_core.c ****   *             - Abstract Control Model compliant
  29:../inc/STM32_USB_Device_Library/Class/cdc/src/usbd_cdc_core.c ****   *             - Union Functional collection (using 1 IN endpoint for control)
  30:../inc/STM32_USB_Device_Library/Class/cdc/src/usbd_cdc_core.c ****   *             - Data interface class
  31:../inc/STM32_USB_Device_Library/Class/cdc/src/usbd_cdc_core.c **** 
  32:../inc/STM32_USB_Device_Library/Class/cdc/src/usbd_cdc_core.c ****   *           @note
  33:../inc/STM32_USB_Device_Library/Class/cdc/src/usbd_cdc_core.c ****   *             For the Abstract Control Model, this core allows only transmitting the requests to
  34:../inc/STM32_USB_Device_Library/Class/cdc/src/usbd_cdc_core.c ****   *             lower layer dispatcher (ie. usbd_cdc_vcp.c/.h) which should manage each request and
  35:../inc/STM32_USB_Device_Library/Class/cdc/src/usbd_cdc_core.c ****   *             perform relative actions.
  36:../inc/STM32_USB_Device_Library/Class/cdc/src/usbd_cdc_core.c ****   * 
  37:../inc/STM32_USB_Device_Library/Class/cdc/src/usbd_cdc_core.c ****   *           These aspects may be enriched or modified for a specific user application.
  38:../inc/STM32_USB_Device_Library/Class/cdc/src/usbd_cdc_core.c ****   *          
  39:../inc/STM32_USB_Device_Library/Class/cdc/src/usbd_cdc_core.c ****   *            This driver doesn't implement the following aspects of the specification 
  40:../inc/STM32_USB_Device_Library/Class/cdc/src/usbd_cdc_core.c ****   *            (but it is possible to manage these features with some modifications on this driver)
  41:../inc/STM32_USB_Device_Library/Class/cdc/src/usbd_cdc_core.c ****   *             - Any class-specific aspect relative to communication classes should be managed by 
  42:../inc/STM32_USB_Device_Library/Class/cdc/src/usbd_cdc_core.c ****   *             - All communication classes other than PSTN are not managed
  43:../inc/STM32_USB_Device_Library/Class/cdc/src/usbd_cdc_core.c ****   *      
  44:../inc/STM32_USB_Device_Library/Class/cdc/src/usbd_cdc_core.c ****   *  @endverbatim
  45:../inc/STM32_USB_Device_Library/Class/cdc/src/usbd_cdc_core.c ****   *                                  
  46:../inc/STM32_USB_Device_Library/Class/cdc/src/usbd_cdc_core.c ****   ******************************************************************************               
  47:../inc/STM32_USB_Device_Library/Class/cdc/src/usbd_cdc_core.c ****   * @attention
  48:../inc/STM32_USB_Device_Library/Class/cdc/src/usbd_cdc_core.c ****   *
  49:../inc/STM32_USB_Device_Library/Class/cdc/src/usbd_cdc_core.c ****   * THE PRESENT FIRMWARE WHICH IS FOR GUIDANCE ONLY AIMS AT PROVIDING CUSTOMERS
  50:../inc/STM32_USB_Device_Library/Class/cdc/src/usbd_cdc_core.c ****   * WITH CODING INFORMATION REGARDING THEIR PRODUCTS IN ORDER FOR THEM TO SAVE
  51:../inc/STM32_USB_Device_Library/Class/cdc/src/usbd_cdc_core.c ****   * TIME. AS A RESULT, STMICROELECTRONICS SHALL NOT BE HELD LIABLE FOR ANY
  52:../inc/STM32_USB_Device_Library/Class/cdc/src/usbd_cdc_core.c ****   * DIRECT, INDIRECT OR CONSEQUENTIAL DAMAGES WITH RESPECT TO ANY CLAIMS ARISING
  53:../inc/STM32_USB_Device_Library/Class/cdc/src/usbd_cdc_core.c ****   * FROM THE CONTENT OF SUCH FIRMWARE AND/OR THE USE MADE BY CUSTOMERS OF THE
  54:../inc/STM32_USB_Device_Library/Class/cdc/src/usbd_cdc_core.c ****   * CODING INFORMATION CONTAINED HEREIN IN CONNECTION WITH THEIR PRODUCTS.
  55:../inc/STM32_USB_Device_Library/Class/cdc/src/usbd_cdc_core.c ****   *
  56:../inc/STM32_USB_Device_Library/Class/cdc/src/usbd_cdc_core.c ****   * <h2><center>&copy; COPYRIGHT 2011 STMicroelectronics</center></h2>
  57:../inc/STM32_USB_Device_Library/Class/cdc/src/usbd_cdc_core.c ****   ******************************************************************************
  58:../inc/STM32_USB_Device_Library/Class/cdc/src/usbd_cdc_core.c ****   */ 
  59:../inc/STM32_USB_Device_Library/Class/cdc/src/usbd_cdc_core.c **** 
  60:../inc/STM32_USB_Device_Library/Class/cdc/src/usbd_cdc_core.c **** /* Includes ------------------------------------------------------------------*/
  61:../inc/STM32_USB_Device_Library/Class/cdc/src/usbd_cdc_core.c **** #include "usbd_conf.h"
  62:../inc/STM32_USB_Device_Library/Class/cdc/src/usbd_cdc_core.c **** #include "usb_conf.h"
  63:../inc/STM32_USB_Device_Library/Class/cdc/src/usbd_cdc_core.c **** #include "usbd_cdc_core.h"
  64:../inc/STM32_USB_Device_Library/Class/cdc/src/usbd_cdc_core.c **** #include "usbd_desc.h"
  65:../inc/STM32_USB_Device_Library/Class/cdc/src/usbd_cdc_core.c **** #include "usbd_req.h"
  66:../inc/STM32_USB_Device_Library/Class/cdc/src/usbd_cdc_core.c **** 
  67:../inc/STM32_USB_Device_Library/Class/cdc/src/usbd_cdc_core.c **** 
  68:../inc/STM32_USB_Device_Library/Class/cdc/src/usbd_cdc_core.c **** /** @addtogroup STM32_USB_OTG_DEVICE_LIBRARY
  69:../inc/STM32_USB_Device_Library/Class/cdc/src/usbd_cdc_core.c ****   * @{
  70:../inc/STM32_USB_Device_Library/Class/cdc/src/usbd_cdc_core.c ****   */
  71:../inc/STM32_USB_Device_Library/Class/cdc/src/usbd_cdc_core.c **** 
  72:../inc/STM32_USB_Device_Library/Class/cdc/src/usbd_cdc_core.c **** 
  73:../inc/STM32_USB_Device_Library/Class/cdc/src/usbd_cdc_core.c **** /** @defgroup usbd_cdc 
  74:../inc/STM32_USB_Device_Library/Class/cdc/src/usbd_cdc_core.c ****   * @brief usbd core module
  75:../inc/STM32_USB_Device_Library/Class/cdc/src/usbd_cdc_core.c ****   * @{
  76:../inc/STM32_USB_Device_Library/Class/cdc/src/usbd_cdc_core.c ****   */ 
  77:../inc/STM32_USB_Device_Library/Class/cdc/src/usbd_cdc_core.c **** 
  78:../inc/STM32_USB_Device_Library/Class/cdc/src/usbd_cdc_core.c **** /** @defgroup usbd_cdc_Private_TypesDefinitions
  79:../inc/STM32_USB_Device_Library/Class/cdc/src/usbd_cdc_core.c ****   * @{
  80:../inc/STM32_USB_Device_Library/Class/cdc/src/usbd_cdc_core.c ****   */ 
  81:../inc/STM32_USB_Device_Library/Class/cdc/src/usbd_cdc_core.c **** /**
  82:../inc/STM32_USB_Device_Library/Class/cdc/src/usbd_cdc_core.c ****   * @}
  83:../inc/STM32_USB_Device_Library/Class/cdc/src/usbd_cdc_core.c ****   */ 
  84:../inc/STM32_USB_Device_Library/Class/cdc/src/usbd_cdc_core.c **** 
  85:../inc/STM32_USB_Device_Library/Class/cdc/src/usbd_cdc_core.c **** 
  86:../inc/STM32_USB_Device_Library/Class/cdc/src/usbd_cdc_core.c **** /** @defgroup usbd_cdc_Private_Defines
  87:../inc/STM32_USB_Device_Library/Class/cdc/src/usbd_cdc_core.c ****   * @{
  88:../inc/STM32_USB_Device_Library/Class/cdc/src/usbd_cdc_core.c ****   */ 
  89:../inc/STM32_USB_Device_Library/Class/cdc/src/usbd_cdc_core.c **** /**
  90:../inc/STM32_USB_Device_Library/Class/cdc/src/usbd_cdc_core.c ****   * @}
  91:../inc/STM32_USB_Device_Library/Class/cdc/src/usbd_cdc_core.c ****   */ 
  92:../inc/STM32_USB_Device_Library/Class/cdc/src/usbd_cdc_core.c **** 
  93:../inc/STM32_USB_Device_Library/Class/cdc/src/usbd_cdc_core.c **** 
  94:../inc/STM32_USB_Device_Library/Class/cdc/src/usbd_cdc_core.c **** /** @defgroup usbd_cdc_Private_Macros
  95:../inc/STM32_USB_Device_Library/Class/cdc/src/usbd_cdc_core.c ****   * @{
  96:../inc/STM32_USB_Device_Library/Class/cdc/src/usbd_cdc_core.c ****   */ 
  97:../inc/STM32_USB_Device_Library/Class/cdc/src/usbd_cdc_core.c **** /**
  98:../inc/STM32_USB_Device_Library/Class/cdc/src/usbd_cdc_core.c ****   * @}
  99:../inc/STM32_USB_Device_Library/Class/cdc/src/usbd_cdc_core.c ****   */ 
 100:../inc/STM32_USB_Device_Library/Class/cdc/src/usbd_cdc_core.c **** 
 101:../inc/STM32_USB_Device_Library/Class/cdc/src/usbd_cdc_core.c **** 
 102:../inc/STM32_USB_Device_Library/Class/cdc/src/usbd_cdc_core.c **** /** @defgroup usbd_cdc_Private_FunctionPrototypes
 103:../inc/STM32_USB_Device_Library/Class/cdc/src/usbd_cdc_core.c ****   * @{
 104:../inc/STM32_USB_Device_Library/Class/cdc/src/usbd_cdc_core.c ****   */
 105:../inc/STM32_USB_Device_Library/Class/cdc/src/usbd_cdc_core.c **** 
 106:../inc/STM32_USB_Device_Library/Class/cdc/src/usbd_cdc_core.c **** /*********************************************
 107:../inc/STM32_USB_Device_Library/Class/cdc/src/usbd_cdc_core.c ****    CDC Device library callbacks
 108:../inc/STM32_USB_Device_Library/Class/cdc/src/usbd_cdc_core.c ****  *********************************************/
 109:../inc/STM32_USB_Device_Library/Class/cdc/src/usbd_cdc_core.c **** static uint8_t  usbd_cdc_Init        (void  *pdev, uint8_t cfgidx);
 110:../inc/STM32_USB_Device_Library/Class/cdc/src/usbd_cdc_core.c **** static uint8_t  usbd_cdc_DeInit      (void  *pdev, uint8_t cfgidx);
 111:../inc/STM32_USB_Device_Library/Class/cdc/src/usbd_cdc_core.c **** static uint8_t  usbd_cdc_Setup       (void  *pdev, USB_SETUP_REQ *req);
 112:../inc/STM32_USB_Device_Library/Class/cdc/src/usbd_cdc_core.c **** static uint8_t  usbd_cdc_EP0_RxReady  (void *pdev);
 113:../inc/STM32_USB_Device_Library/Class/cdc/src/usbd_cdc_core.c **** static uint8_t  usbd_cdc_DataIn      (void *pdev, uint8_t epnum);
 114:../inc/STM32_USB_Device_Library/Class/cdc/src/usbd_cdc_core.c **** static uint8_t  usbd_cdc_DataOut     (void *pdev, uint8_t epnum);
 115:../inc/STM32_USB_Device_Library/Class/cdc/src/usbd_cdc_core.c **** static uint8_t  usbd_cdc_SOF         (void *pdev);
 116:../inc/STM32_USB_Device_Library/Class/cdc/src/usbd_cdc_core.c **** 
 117:../inc/STM32_USB_Device_Library/Class/cdc/src/usbd_cdc_core.c **** /*********************************************
 118:../inc/STM32_USB_Device_Library/Class/cdc/src/usbd_cdc_core.c ****    CDC specific management functions
 119:../inc/STM32_USB_Device_Library/Class/cdc/src/usbd_cdc_core.c ****  *********************************************/
 120:../inc/STM32_USB_Device_Library/Class/cdc/src/usbd_cdc_core.c **** static void Handle_USBAsynchXfer  (void *pdev);
 121:../inc/STM32_USB_Device_Library/Class/cdc/src/usbd_cdc_core.c **** static uint8_t  *USBD_cdc_GetCfgDesc (uint8_t speed, uint16_t *length);
 122:../inc/STM32_USB_Device_Library/Class/cdc/src/usbd_cdc_core.c **** #ifdef USE_USB_OTG_HS  
 123:../inc/STM32_USB_Device_Library/Class/cdc/src/usbd_cdc_core.c **** static uint8_t  *USBD_cdc_GetOtherCfgDesc (uint8_t speed, uint16_t *length);
 124:../inc/STM32_USB_Device_Library/Class/cdc/src/usbd_cdc_core.c **** #endif
 125:../inc/STM32_USB_Device_Library/Class/cdc/src/usbd_cdc_core.c **** /**
 126:../inc/STM32_USB_Device_Library/Class/cdc/src/usbd_cdc_core.c ****   * @}
 127:../inc/STM32_USB_Device_Library/Class/cdc/src/usbd_cdc_core.c ****   */ 
 128:../inc/STM32_USB_Device_Library/Class/cdc/src/usbd_cdc_core.c **** 
 129:../inc/STM32_USB_Device_Library/Class/cdc/src/usbd_cdc_core.c **** /** @defgroup usbd_cdc_Private_Variables
 130:../inc/STM32_USB_Device_Library/Class/cdc/src/usbd_cdc_core.c ****   * @{
 131:../inc/STM32_USB_Device_Library/Class/cdc/src/usbd_cdc_core.c ****   */ 
 132:../inc/STM32_USB_Device_Library/Class/cdc/src/usbd_cdc_core.c **** extern CDC_IF_Prop_TypeDef  APP_FOPS;
 133:../inc/STM32_USB_Device_Library/Class/cdc/src/usbd_cdc_core.c **** extern uint8_t USBD_DeviceDesc   [USB_SIZ_DEVICE_DESC];
 134:../inc/STM32_USB_Device_Library/Class/cdc/src/usbd_cdc_core.c **** 
 135:../inc/STM32_USB_Device_Library/Class/cdc/src/usbd_cdc_core.c **** #ifdef USB_OTG_HS_INTERNAL_DMA_ENABLED
 136:../inc/STM32_USB_Device_Library/Class/cdc/src/usbd_cdc_core.c ****   #if defined ( __ICCARM__ ) /*!< IAR Compiler */
 137:../inc/STM32_USB_Device_Library/Class/cdc/src/usbd_cdc_core.c ****     #pragma data_alignment=4   
 138:../inc/STM32_USB_Device_Library/Class/cdc/src/usbd_cdc_core.c ****   #endif
 139:../inc/STM32_USB_Device_Library/Class/cdc/src/usbd_cdc_core.c **** #endif /* USB_OTG_HS_INTERNAL_DMA_ENABLED */
 140:../inc/STM32_USB_Device_Library/Class/cdc/src/usbd_cdc_core.c **** __ALIGN_BEGIN uint8_t usbd_cdc_CfgDesc  [USB_CDC_CONFIG_DESC_SIZ] __ALIGN_END ;
 141:../inc/STM32_USB_Device_Library/Class/cdc/src/usbd_cdc_core.c **** 
 142:../inc/STM32_USB_Device_Library/Class/cdc/src/usbd_cdc_core.c **** #ifdef USB_OTG_HS_INTERNAL_DMA_ENABLED
 143:../inc/STM32_USB_Device_Library/Class/cdc/src/usbd_cdc_core.c ****   #if defined ( __ICCARM__ ) /*!< IAR Compiler */
 144:../inc/STM32_USB_Device_Library/Class/cdc/src/usbd_cdc_core.c ****     #pragma data_alignment=4   
 145:../inc/STM32_USB_Device_Library/Class/cdc/src/usbd_cdc_core.c ****   #endif
 146:../inc/STM32_USB_Device_Library/Class/cdc/src/usbd_cdc_core.c **** #endif /* USB_OTG_HS_INTERNAL_DMA_ENABLED */
 147:../inc/STM32_USB_Device_Library/Class/cdc/src/usbd_cdc_core.c **** __ALIGN_BEGIN uint8_t usbd_cdc_OtherCfgDesc  [USB_CDC_CONFIG_DESC_SIZ] __ALIGN_END ;
 148:../inc/STM32_USB_Device_Library/Class/cdc/src/usbd_cdc_core.c **** 
 149:../inc/STM32_USB_Device_Library/Class/cdc/src/usbd_cdc_core.c **** #ifdef USB_OTG_HS_INTERNAL_DMA_ENABLED
 150:../inc/STM32_USB_Device_Library/Class/cdc/src/usbd_cdc_core.c ****   #if defined ( __ICCARM__ ) /*!< IAR Compiler */
 151:../inc/STM32_USB_Device_Library/Class/cdc/src/usbd_cdc_core.c ****     #pragma data_alignment=4   
 152:../inc/STM32_USB_Device_Library/Class/cdc/src/usbd_cdc_core.c ****   #endif
 153:../inc/STM32_USB_Device_Library/Class/cdc/src/usbd_cdc_core.c **** #endif /* USB_OTG_HS_INTERNAL_DMA_ENABLED */
 154:../inc/STM32_USB_Device_Library/Class/cdc/src/usbd_cdc_core.c **** __ALIGN_BEGIN static __IO uint32_t  usbd_cdc_AltSet  __ALIGN_END = 0;
 155:../inc/STM32_USB_Device_Library/Class/cdc/src/usbd_cdc_core.c **** 
 156:../inc/STM32_USB_Device_Library/Class/cdc/src/usbd_cdc_core.c **** #ifdef USB_OTG_HS_INTERNAL_DMA_ENABLED
 157:../inc/STM32_USB_Device_Library/Class/cdc/src/usbd_cdc_core.c ****   #if defined ( __ICCARM__ ) /*!< IAR Compiler */
 158:../inc/STM32_USB_Device_Library/Class/cdc/src/usbd_cdc_core.c ****     #pragma data_alignment=4   
 159:../inc/STM32_USB_Device_Library/Class/cdc/src/usbd_cdc_core.c ****   #endif
 160:../inc/STM32_USB_Device_Library/Class/cdc/src/usbd_cdc_core.c **** #endif /* USB_OTG_HS_INTERNAL_DMA_ENABLED */
 161:../inc/STM32_USB_Device_Library/Class/cdc/src/usbd_cdc_core.c **** __ALIGN_BEGIN uint8_t USB_Rx_Buffer   [CDC_DATA_MAX_PACKET_SIZE] __ALIGN_END ;
 162:../inc/STM32_USB_Device_Library/Class/cdc/src/usbd_cdc_core.c **** 
 163:../inc/STM32_USB_Device_Library/Class/cdc/src/usbd_cdc_core.c **** #ifdef USB_OTG_HS_INTERNAL_DMA_ENABLED
 164:../inc/STM32_USB_Device_Library/Class/cdc/src/usbd_cdc_core.c ****   #if defined ( __ICCARM__ ) /*!< IAR Compiler */
 165:../inc/STM32_USB_Device_Library/Class/cdc/src/usbd_cdc_core.c ****     #pragma data_alignment=4   
 166:../inc/STM32_USB_Device_Library/Class/cdc/src/usbd_cdc_core.c ****   #endif
 167:../inc/STM32_USB_Device_Library/Class/cdc/src/usbd_cdc_core.c **** #endif /* USB_OTG_HS_INTERNAL_DMA_ENABLED */
 168:../inc/STM32_USB_Device_Library/Class/cdc/src/usbd_cdc_core.c **** __ALIGN_BEGIN uint8_t APP_Rx_Buffer   [APP_RX_DATA_SIZE] __ALIGN_END ; 
 169:../inc/STM32_USB_Device_Library/Class/cdc/src/usbd_cdc_core.c **** 
 170:../inc/STM32_USB_Device_Library/Class/cdc/src/usbd_cdc_core.c **** 
 171:../inc/STM32_USB_Device_Library/Class/cdc/src/usbd_cdc_core.c **** #ifdef USB_OTG_HS_INTERNAL_DMA_ENABLED
 172:../inc/STM32_USB_Device_Library/Class/cdc/src/usbd_cdc_core.c ****   #if defined ( __ICCARM__ ) /*!< IAR Compiler */
 173:../inc/STM32_USB_Device_Library/Class/cdc/src/usbd_cdc_core.c ****     #pragma data_alignment=4   
 174:../inc/STM32_USB_Device_Library/Class/cdc/src/usbd_cdc_core.c ****   #endif
 175:../inc/STM32_USB_Device_Library/Class/cdc/src/usbd_cdc_core.c **** #endif /* USB_OTG_HS_INTERNAL_DMA_ENABLED */
 176:../inc/STM32_USB_Device_Library/Class/cdc/src/usbd_cdc_core.c **** __ALIGN_BEGIN uint8_t CmdBuff[CDC_CMD_PACKET_SZE] __ALIGN_END ;
 177:../inc/STM32_USB_Device_Library/Class/cdc/src/usbd_cdc_core.c **** 
 178:../inc/STM32_USB_Device_Library/Class/cdc/src/usbd_cdc_core.c **** uint32_t APP_Rx_ptr_in  = 0;
 179:../inc/STM32_USB_Device_Library/Class/cdc/src/usbd_cdc_core.c **** uint32_t APP_Rx_ptr_out = 0;
 180:../inc/STM32_USB_Device_Library/Class/cdc/src/usbd_cdc_core.c **** uint32_t APP_Rx_length  = 0;
 181:../inc/STM32_USB_Device_Library/Class/cdc/src/usbd_cdc_core.c **** 
 182:../inc/STM32_USB_Device_Library/Class/cdc/src/usbd_cdc_core.c **** uint8_t  USB_Tx_State = 0;
 183:../inc/STM32_USB_Device_Library/Class/cdc/src/usbd_cdc_core.c **** 
 184:../inc/STM32_USB_Device_Library/Class/cdc/src/usbd_cdc_core.c **** static uint32_t cdcCmd = 0xFF;
 185:../inc/STM32_USB_Device_Library/Class/cdc/src/usbd_cdc_core.c **** static uint32_t cdcLen = 0;
 186:../inc/STM32_USB_Device_Library/Class/cdc/src/usbd_cdc_core.c **** 
 187:../inc/STM32_USB_Device_Library/Class/cdc/src/usbd_cdc_core.c **** /* CDC interface class callbacks structure */
 188:../inc/STM32_USB_Device_Library/Class/cdc/src/usbd_cdc_core.c **** USBD_Class_cb_TypeDef  USBD_CDC_cb = 
 189:../inc/STM32_USB_Device_Library/Class/cdc/src/usbd_cdc_core.c **** {
 190:../inc/STM32_USB_Device_Library/Class/cdc/src/usbd_cdc_core.c ****   usbd_cdc_Init,
 191:../inc/STM32_USB_Device_Library/Class/cdc/src/usbd_cdc_core.c ****   usbd_cdc_DeInit,
 192:../inc/STM32_USB_Device_Library/Class/cdc/src/usbd_cdc_core.c ****   usbd_cdc_Setup,
 193:../inc/STM32_USB_Device_Library/Class/cdc/src/usbd_cdc_core.c ****   NULL,                 /* EP0_TxSent, */
 194:../inc/STM32_USB_Device_Library/Class/cdc/src/usbd_cdc_core.c ****   usbd_cdc_EP0_RxReady,
 195:../inc/STM32_USB_Device_Library/Class/cdc/src/usbd_cdc_core.c ****   usbd_cdc_DataIn,
 196:../inc/STM32_USB_Device_Library/Class/cdc/src/usbd_cdc_core.c ****   usbd_cdc_DataOut,
 197:../inc/STM32_USB_Device_Library/Class/cdc/src/usbd_cdc_core.c ****   usbd_cdc_SOF,
 198:../inc/STM32_USB_Device_Library/Class/cdc/src/usbd_cdc_core.c ****   NULL,
 199:../inc/STM32_USB_Device_Library/Class/cdc/src/usbd_cdc_core.c ****   NULL,     
 200:../inc/STM32_USB_Device_Library/Class/cdc/src/usbd_cdc_core.c ****   USBD_cdc_GetCfgDesc,
 201:../inc/STM32_USB_Device_Library/Class/cdc/src/usbd_cdc_core.c **** #ifdef USE_USB_OTG_HS   
 202:../inc/STM32_USB_Device_Library/Class/cdc/src/usbd_cdc_core.c ****   USBD_cdc_GetOtherCfgDesc, /* use same cobfig as per FS */
 203:../inc/STM32_USB_Device_Library/Class/cdc/src/usbd_cdc_core.c **** #endif /* USE_USB_OTG_HS  */
 204:../inc/STM32_USB_Device_Library/Class/cdc/src/usbd_cdc_core.c **** };
 205:../inc/STM32_USB_Device_Library/Class/cdc/src/usbd_cdc_core.c **** 
 206:../inc/STM32_USB_Device_Library/Class/cdc/src/usbd_cdc_core.c **** #ifdef USB_OTG_HS_INTERNAL_DMA_ENABLED
 207:../inc/STM32_USB_Device_Library/Class/cdc/src/usbd_cdc_core.c ****   #if defined ( __ICCARM__ ) /*!< IAR Compiler */
 208:../inc/STM32_USB_Device_Library/Class/cdc/src/usbd_cdc_core.c ****     #pragma data_alignment=4   
 209:../inc/STM32_USB_Device_Library/Class/cdc/src/usbd_cdc_core.c ****   #endif
 210:../inc/STM32_USB_Device_Library/Class/cdc/src/usbd_cdc_core.c **** #endif /* USB_OTG_HS_INTERNAL_DMA_ENABLED */
 211:../inc/STM32_USB_Device_Library/Class/cdc/src/usbd_cdc_core.c **** /* USB CDC device Configuration Descriptor */
 212:../inc/STM32_USB_Device_Library/Class/cdc/src/usbd_cdc_core.c **** __ALIGN_BEGIN uint8_t usbd_cdc_CfgDesc[USB_CDC_CONFIG_DESC_SIZ]  __ALIGN_END =
 213:../inc/STM32_USB_Device_Library/Class/cdc/src/usbd_cdc_core.c **** {
 214:../inc/STM32_USB_Device_Library/Class/cdc/src/usbd_cdc_core.c ****   /*Configuration Descriptor*/
 215:../inc/STM32_USB_Device_Library/Class/cdc/src/usbd_cdc_core.c ****   0x09,   /* bLength: Configuration Descriptor size */
 216:../inc/STM32_USB_Device_Library/Class/cdc/src/usbd_cdc_core.c ****   USB_CONFIGURATION_DESCRIPTOR_TYPE,      /* bDescriptorType: Configuration */
 217:../inc/STM32_USB_Device_Library/Class/cdc/src/usbd_cdc_core.c ****   USB_CDC_CONFIG_DESC_SIZ,                /* wTotalLength:no of returned bytes */
 218:../inc/STM32_USB_Device_Library/Class/cdc/src/usbd_cdc_core.c ****   0x00,
 219:../inc/STM32_USB_Device_Library/Class/cdc/src/usbd_cdc_core.c ****   0x02,   /* bNumInterfaces: 2 interface */
 220:../inc/STM32_USB_Device_Library/Class/cdc/src/usbd_cdc_core.c ****   0x01,   /* bConfigurationValue: Configuration value */
 221:../inc/STM32_USB_Device_Library/Class/cdc/src/usbd_cdc_core.c ****   0x00,   /* iConfiguration: Index of string descriptor describing the configuration */
 222:../inc/STM32_USB_Device_Library/Class/cdc/src/usbd_cdc_core.c ****   0xC0,   /* bmAttributes: self powered */
 223:../inc/STM32_USB_Device_Library/Class/cdc/src/usbd_cdc_core.c ****   0x32,   /* MaxPower 0 mA */
 224:../inc/STM32_USB_Device_Library/Class/cdc/src/usbd_cdc_core.c ****   
 225:../inc/STM32_USB_Device_Library/Class/cdc/src/usbd_cdc_core.c ****   /*---------------------------------------------------------------------------*/
 226:../inc/STM32_USB_Device_Library/Class/cdc/src/usbd_cdc_core.c ****   
 227:../inc/STM32_USB_Device_Library/Class/cdc/src/usbd_cdc_core.c ****   /*Interface Descriptor */
 228:../inc/STM32_USB_Device_Library/Class/cdc/src/usbd_cdc_core.c ****   0x09,   /* bLength: Interface Descriptor size */
 229:../inc/STM32_USB_Device_Library/Class/cdc/src/usbd_cdc_core.c ****   USB_INTERFACE_DESCRIPTOR_TYPE,  /* bDescriptorType: Interface */
 230:../inc/STM32_USB_Device_Library/Class/cdc/src/usbd_cdc_core.c ****   /* Interface descriptor type */
 231:../inc/STM32_USB_Device_Library/Class/cdc/src/usbd_cdc_core.c ****   0x00,   /* bInterfaceNumber: Number of Interface */
 232:../inc/STM32_USB_Device_Library/Class/cdc/src/usbd_cdc_core.c ****   0x00,   /* bAlternateSetting: Alternate setting */
 233:../inc/STM32_USB_Device_Library/Class/cdc/src/usbd_cdc_core.c ****   0x01,   /* bNumEndpoints: One endpoints used */
 234:../inc/STM32_USB_Device_Library/Class/cdc/src/usbd_cdc_core.c ****   0x02,   /* bInterfaceClass: Communication Interface Class */
 235:../inc/STM32_USB_Device_Library/Class/cdc/src/usbd_cdc_core.c ****   0x02,   /* bInterfaceSubClass: Abstract Control Model */
 236:../inc/STM32_USB_Device_Library/Class/cdc/src/usbd_cdc_core.c ****   0x01,   /* bInterfaceProtocol: Common AT commands */
 237:../inc/STM32_USB_Device_Library/Class/cdc/src/usbd_cdc_core.c ****   0x00,   /* iInterface: */
 238:../inc/STM32_USB_Device_Library/Class/cdc/src/usbd_cdc_core.c ****   
 239:../inc/STM32_USB_Device_Library/Class/cdc/src/usbd_cdc_core.c ****   /*Header Functional Descriptor*/
 240:../inc/STM32_USB_Device_Library/Class/cdc/src/usbd_cdc_core.c ****   0x05,   /* bLength: Endpoint Descriptor size */
 241:../inc/STM32_USB_Device_Library/Class/cdc/src/usbd_cdc_core.c ****   0x24,   /* bDescriptorType: CS_INTERFACE */
 242:../inc/STM32_USB_Device_Library/Class/cdc/src/usbd_cdc_core.c ****   0x00,   /* bDescriptorSubtype: Header Func Desc */
 243:../inc/STM32_USB_Device_Library/Class/cdc/src/usbd_cdc_core.c ****   0x10,   /* bcdCDC: spec release number */
 244:../inc/STM32_USB_Device_Library/Class/cdc/src/usbd_cdc_core.c ****   0x01,
 245:../inc/STM32_USB_Device_Library/Class/cdc/src/usbd_cdc_core.c ****   
 246:../inc/STM32_USB_Device_Library/Class/cdc/src/usbd_cdc_core.c ****   /*Call Management Functional Descriptor*/
 247:../inc/STM32_USB_Device_Library/Class/cdc/src/usbd_cdc_core.c ****   0x05,   /* bFunctionLength */
 248:../inc/STM32_USB_Device_Library/Class/cdc/src/usbd_cdc_core.c ****   0x24,   /* bDescriptorType: CS_INTERFACE */
 249:../inc/STM32_USB_Device_Library/Class/cdc/src/usbd_cdc_core.c ****   0x01,   /* bDescriptorSubtype: Call Management Func Desc */
 250:../inc/STM32_USB_Device_Library/Class/cdc/src/usbd_cdc_core.c ****   0x00,   /* bmCapabilities: D0+D1 */
 251:../inc/STM32_USB_Device_Library/Class/cdc/src/usbd_cdc_core.c ****   0x01,   /* bDataInterface: 1 */
 252:../inc/STM32_USB_Device_Library/Class/cdc/src/usbd_cdc_core.c ****   
 253:../inc/STM32_USB_Device_Library/Class/cdc/src/usbd_cdc_core.c ****   /*ACM Functional Descriptor*/
 254:../inc/STM32_USB_Device_Library/Class/cdc/src/usbd_cdc_core.c ****   0x04,   /* bFunctionLength */
 255:../inc/STM32_USB_Device_Library/Class/cdc/src/usbd_cdc_core.c ****   0x24,   /* bDescriptorType: CS_INTERFACE */
 256:../inc/STM32_USB_Device_Library/Class/cdc/src/usbd_cdc_core.c ****   0x02,   /* bDescriptorSubtype: Abstract Control Management desc */
 257:../inc/STM32_USB_Device_Library/Class/cdc/src/usbd_cdc_core.c ****   0x02,   /* bmCapabilities */
 258:../inc/STM32_USB_Device_Library/Class/cdc/src/usbd_cdc_core.c ****   
 259:../inc/STM32_USB_Device_Library/Class/cdc/src/usbd_cdc_core.c ****   /*Union Functional Descriptor*/
 260:../inc/STM32_USB_Device_Library/Class/cdc/src/usbd_cdc_core.c ****   0x05,   /* bFunctionLength */
 261:../inc/STM32_USB_Device_Library/Class/cdc/src/usbd_cdc_core.c ****   0x24,   /* bDescriptorType: CS_INTERFACE */
 262:../inc/STM32_USB_Device_Library/Class/cdc/src/usbd_cdc_core.c ****   0x06,   /* bDescriptorSubtype: Union func desc */
 263:../inc/STM32_USB_Device_Library/Class/cdc/src/usbd_cdc_core.c ****   0x00,   /* bMasterInterface: Communication class interface */
 264:../inc/STM32_USB_Device_Library/Class/cdc/src/usbd_cdc_core.c ****   0x01,   /* bSlaveInterface0: Data Class Interface */
 265:../inc/STM32_USB_Device_Library/Class/cdc/src/usbd_cdc_core.c ****   
 266:../inc/STM32_USB_Device_Library/Class/cdc/src/usbd_cdc_core.c ****   /*Endpoint 2 Descriptor*/
 267:../inc/STM32_USB_Device_Library/Class/cdc/src/usbd_cdc_core.c ****   0x07,                           /* bLength: Endpoint Descriptor size */
 268:../inc/STM32_USB_Device_Library/Class/cdc/src/usbd_cdc_core.c ****   USB_ENDPOINT_DESCRIPTOR_TYPE,   /* bDescriptorType: Endpoint */
 269:../inc/STM32_USB_Device_Library/Class/cdc/src/usbd_cdc_core.c ****   CDC_CMD_EP,                     /* bEndpointAddress */
 270:../inc/STM32_USB_Device_Library/Class/cdc/src/usbd_cdc_core.c ****   0x03,                           /* bmAttributes: Interrupt */
 271:../inc/STM32_USB_Device_Library/Class/cdc/src/usbd_cdc_core.c ****   LOBYTE(CDC_CMD_PACKET_SZE),     /* wMaxPacketSize: */
 272:../inc/STM32_USB_Device_Library/Class/cdc/src/usbd_cdc_core.c ****   HIBYTE(CDC_CMD_PACKET_SZE),
 273:../inc/STM32_USB_Device_Library/Class/cdc/src/usbd_cdc_core.c **** #ifdef USE_USB_OTG_HS
 274:../inc/STM32_USB_Device_Library/Class/cdc/src/usbd_cdc_core.c ****   0x10,                           /* bInterval: */
 275:../inc/STM32_USB_Device_Library/Class/cdc/src/usbd_cdc_core.c **** #else
 276:../inc/STM32_USB_Device_Library/Class/cdc/src/usbd_cdc_core.c ****   0xFF,                           /* bInterval: */
 277:../inc/STM32_USB_Device_Library/Class/cdc/src/usbd_cdc_core.c **** #endif /* USE_USB_OTG_HS */
 278:../inc/STM32_USB_Device_Library/Class/cdc/src/usbd_cdc_core.c ****   
 279:../inc/STM32_USB_Device_Library/Class/cdc/src/usbd_cdc_core.c ****   /*---------------------------------------------------------------------------*/
 280:../inc/STM32_USB_Device_Library/Class/cdc/src/usbd_cdc_core.c ****   
 281:../inc/STM32_USB_Device_Library/Class/cdc/src/usbd_cdc_core.c ****   /*Data class interface descriptor*/
 282:../inc/STM32_USB_Device_Library/Class/cdc/src/usbd_cdc_core.c ****   0x09,   /* bLength: Endpoint Descriptor size */
 283:../inc/STM32_USB_Device_Library/Class/cdc/src/usbd_cdc_core.c ****   USB_INTERFACE_DESCRIPTOR_TYPE,  /* bDescriptorType: */
 284:../inc/STM32_USB_Device_Library/Class/cdc/src/usbd_cdc_core.c ****   0x01,   /* bInterfaceNumber: Number of Interface */
 285:../inc/STM32_USB_Device_Library/Class/cdc/src/usbd_cdc_core.c ****   0x00,   /* bAlternateSetting: Alternate setting */
 286:../inc/STM32_USB_Device_Library/Class/cdc/src/usbd_cdc_core.c ****   0x02,   /* bNumEndpoints: Two endpoints used */
 287:../inc/STM32_USB_Device_Library/Class/cdc/src/usbd_cdc_core.c ****   0x0A,   /* bInterfaceClass: CDC */
 288:../inc/STM32_USB_Device_Library/Class/cdc/src/usbd_cdc_core.c ****   0x00,   /* bInterfaceSubClass: */
 289:../inc/STM32_USB_Device_Library/Class/cdc/src/usbd_cdc_core.c ****   0x00,   /* bInterfaceProtocol: */
 290:../inc/STM32_USB_Device_Library/Class/cdc/src/usbd_cdc_core.c ****   0x00,   /* iInterface: */
 291:../inc/STM32_USB_Device_Library/Class/cdc/src/usbd_cdc_core.c ****   
 292:../inc/STM32_USB_Device_Library/Class/cdc/src/usbd_cdc_core.c ****   /*Endpoint OUT Descriptor*/
 293:../inc/STM32_USB_Device_Library/Class/cdc/src/usbd_cdc_core.c ****   0x07,   /* bLength: Endpoint Descriptor size */
 294:../inc/STM32_USB_Device_Library/Class/cdc/src/usbd_cdc_core.c ****   USB_ENDPOINT_DESCRIPTOR_TYPE,      /* bDescriptorType: Endpoint */
 295:../inc/STM32_USB_Device_Library/Class/cdc/src/usbd_cdc_core.c ****   CDC_OUT_EP,                        /* bEndpointAddress */
 296:../inc/STM32_USB_Device_Library/Class/cdc/src/usbd_cdc_core.c ****   0x02,                              /* bmAttributes: Bulk */
 297:../inc/STM32_USB_Device_Library/Class/cdc/src/usbd_cdc_core.c ****   LOBYTE(CDC_DATA_MAX_PACKET_SIZE),  /* wMaxPacketSize: */
 298:../inc/STM32_USB_Device_Library/Class/cdc/src/usbd_cdc_core.c ****   HIBYTE(CDC_DATA_MAX_PACKET_SIZE),
 299:../inc/STM32_USB_Device_Library/Class/cdc/src/usbd_cdc_core.c ****   0x00,                              /* bInterval: ignore for Bulk transfer */
 300:../inc/STM32_USB_Device_Library/Class/cdc/src/usbd_cdc_core.c ****   
 301:../inc/STM32_USB_Device_Library/Class/cdc/src/usbd_cdc_core.c ****   /*Endpoint IN Descriptor*/
 302:../inc/STM32_USB_Device_Library/Class/cdc/src/usbd_cdc_core.c ****   0x07,   /* bLength: Endpoint Descriptor size */
 303:../inc/STM32_USB_Device_Library/Class/cdc/src/usbd_cdc_core.c ****   USB_ENDPOINT_DESCRIPTOR_TYPE,      /* bDescriptorType: Endpoint */
 304:../inc/STM32_USB_Device_Library/Class/cdc/src/usbd_cdc_core.c ****   CDC_IN_EP,                         /* bEndpointAddress */
 305:../inc/STM32_USB_Device_Library/Class/cdc/src/usbd_cdc_core.c ****   0x02,                              /* bmAttributes: Bulk */
 306:../inc/STM32_USB_Device_Library/Class/cdc/src/usbd_cdc_core.c ****   LOBYTE(CDC_DATA_MAX_PACKET_SIZE),  /* wMaxPacketSize: */
 307:../inc/STM32_USB_Device_Library/Class/cdc/src/usbd_cdc_core.c ****   HIBYTE(CDC_DATA_MAX_PACKET_SIZE),
 308:../inc/STM32_USB_Device_Library/Class/cdc/src/usbd_cdc_core.c ****   0x00                               /* bInterval: ignore for Bulk transfer */
 309:../inc/STM32_USB_Device_Library/Class/cdc/src/usbd_cdc_core.c **** } ;
 310:../inc/STM32_USB_Device_Library/Class/cdc/src/usbd_cdc_core.c **** 
 311:../inc/STM32_USB_Device_Library/Class/cdc/src/usbd_cdc_core.c **** #ifdef USE_USB_OTG_HS
 312:../inc/STM32_USB_Device_Library/Class/cdc/src/usbd_cdc_core.c **** #ifdef USB_OTG_HS_INTERNAL_DMA_ENABLED
 313:../inc/STM32_USB_Device_Library/Class/cdc/src/usbd_cdc_core.c ****   #if defined ( __ICCARM__ ) /*!< IAR Compiler */
 314:../inc/STM32_USB_Device_Library/Class/cdc/src/usbd_cdc_core.c ****     #pragma data_alignment=4   
 315:../inc/STM32_USB_Device_Library/Class/cdc/src/usbd_cdc_core.c ****   #endif
 316:../inc/STM32_USB_Device_Library/Class/cdc/src/usbd_cdc_core.c **** #endif /* USB_OTG_HS_INTERNAL_DMA_ENABLED */ 
 317:../inc/STM32_USB_Device_Library/Class/cdc/src/usbd_cdc_core.c **** __ALIGN_BEGIN uint8_t usbd_cdc_OtherCfgDesc[USB_CDC_CONFIG_DESC_SIZ]  __ALIGN_END =
 318:../inc/STM32_USB_Device_Library/Class/cdc/src/usbd_cdc_core.c **** { 
 319:../inc/STM32_USB_Device_Library/Class/cdc/src/usbd_cdc_core.c ****   0x09,   /* bLength: Configuation Descriptor size */
 320:../inc/STM32_USB_Device_Library/Class/cdc/src/usbd_cdc_core.c ****   USB_DESC_TYPE_OTHER_SPEED_CONFIGURATION,   
 321:../inc/STM32_USB_Device_Library/Class/cdc/src/usbd_cdc_core.c ****   USB_CDC_CONFIG_DESC_SIZ,
 322:../inc/STM32_USB_Device_Library/Class/cdc/src/usbd_cdc_core.c ****   0x00,
 323:../inc/STM32_USB_Device_Library/Class/cdc/src/usbd_cdc_core.c ****   0x02,   /* bNumInterfaces: 2 interfaces */
 324:../inc/STM32_USB_Device_Library/Class/cdc/src/usbd_cdc_core.c ****   0x01,   /* bConfigurationValue: */
 325:../inc/STM32_USB_Device_Library/Class/cdc/src/usbd_cdc_core.c ****   0x04,   /* iConfiguration: */
 326:../inc/STM32_USB_Device_Library/Class/cdc/src/usbd_cdc_core.c ****   0xC0,   /* bmAttributes: */
 327:../inc/STM32_USB_Device_Library/Class/cdc/src/usbd_cdc_core.c ****   0x32,   /* MaxPower 100 mA */  
 328:../inc/STM32_USB_Device_Library/Class/cdc/src/usbd_cdc_core.c ****   
 329:../inc/STM32_USB_Device_Library/Class/cdc/src/usbd_cdc_core.c ****   /*Interface Descriptor */
 330:../inc/STM32_USB_Device_Library/Class/cdc/src/usbd_cdc_core.c ****   0x09,   /* bLength: Interface Descriptor size */
 331:../inc/STM32_USB_Device_Library/Class/cdc/src/usbd_cdc_core.c ****   USB_INTERFACE_DESCRIPTOR_TYPE,  /* bDescriptorType: Interface */
 332:../inc/STM32_USB_Device_Library/Class/cdc/src/usbd_cdc_core.c ****   /* Interface descriptor type */
 333:../inc/STM32_USB_Device_Library/Class/cdc/src/usbd_cdc_core.c ****   0x00,   /* bInterfaceNumber: Number of Interface */
 334:../inc/STM32_USB_Device_Library/Class/cdc/src/usbd_cdc_core.c ****   0x00,   /* bAlternateSetting: Alternate setting */
 335:../inc/STM32_USB_Device_Library/Class/cdc/src/usbd_cdc_core.c ****   0x01,   /* bNumEndpoints: One endpoints used */
 336:../inc/STM32_USB_Device_Library/Class/cdc/src/usbd_cdc_core.c ****   0x02,   /* bInterfaceClass: Communication Interface Class */
 337:../inc/STM32_USB_Device_Library/Class/cdc/src/usbd_cdc_core.c ****   0x02,   /* bInterfaceSubClass: Abstract Control Model */
 338:../inc/STM32_USB_Device_Library/Class/cdc/src/usbd_cdc_core.c ****   0x01,   /* bInterfaceProtocol: Common AT commands */
 339:../inc/STM32_USB_Device_Library/Class/cdc/src/usbd_cdc_core.c ****   0x00,   /* iInterface: */
 340:../inc/STM32_USB_Device_Library/Class/cdc/src/usbd_cdc_core.c ****   
 341:../inc/STM32_USB_Device_Library/Class/cdc/src/usbd_cdc_core.c ****   /*Header Functional Descriptor*/
 342:../inc/STM32_USB_Device_Library/Class/cdc/src/usbd_cdc_core.c ****   0x05,   /* bLength: Endpoint Descriptor size */
 343:../inc/STM32_USB_Device_Library/Class/cdc/src/usbd_cdc_core.c ****   0x24,   /* bDescriptorType: CS_INTERFACE */
 344:../inc/STM32_USB_Device_Library/Class/cdc/src/usbd_cdc_core.c ****   0x00,   /* bDescriptorSubtype: Header Func Desc */
 345:../inc/STM32_USB_Device_Library/Class/cdc/src/usbd_cdc_core.c ****   0x10,   /* bcdCDC: spec release number */
 346:../inc/STM32_USB_Device_Library/Class/cdc/src/usbd_cdc_core.c ****   0x01,
 347:../inc/STM32_USB_Device_Library/Class/cdc/src/usbd_cdc_core.c ****   
 348:../inc/STM32_USB_Device_Library/Class/cdc/src/usbd_cdc_core.c ****   /*Call Management Functional Descriptor*/
 349:../inc/STM32_USB_Device_Library/Class/cdc/src/usbd_cdc_core.c ****   0x05,   /* bFunctionLength */
 350:../inc/STM32_USB_Device_Library/Class/cdc/src/usbd_cdc_core.c ****   0x24,   /* bDescriptorType: CS_INTERFACE */
 351:../inc/STM32_USB_Device_Library/Class/cdc/src/usbd_cdc_core.c ****   0x01,   /* bDescriptorSubtype: Call Management Func Desc */
 352:../inc/STM32_USB_Device_Library/Class/cdc/src/usbd_cdc_core.c ****   0x00,   /* bmCapabilities: D0+D1 */
 353:../inc/STM32_USB_Device_Library/Class/cdc/src/usbd_cdc_core.c ****   0x01,   /* bDataInterface: 1 */
 354:../inc/STM32_USB_Device_Library/Class/cdc/src/usbd_cdc_core.c ****   
 355:../inc/STM32_USB_Device_Library/Class/cdc/src/usbd_cdc_core.c ****   /*ACM Functional Descriptor*/
 356:../inc/STM32_USB_Device_Library/Class/cdc/src/usbd_cdc_core.c ****   0x04,   /* bFunctionLength */
 357:../inc/STM32_USB_Device_Library/Class/cdc/src/usbd_cdc_core.c ****   0x24,   /* bDescriptorType: CS_INTERFACE */
 358:../inc/STM32_USB_Device_Library/Class/cdc/src/usbd_cdc_core.c ****   0x02,   /* bDescriptorSubtype: Abstract Control Management desc */
 359:../inc/STM32_USB_Device_Library/Class/cdc/src/usbd_cdc_core.c ****   0x02,   /* bmCapabilities */
 360:../inc/STM32_USB_Device_Library/Class/cdc/src/usbd_cdc_core.c ****   
 361:../inc/STM32_USB_Device_Library/Class/cdc/src/usbd_cdc_core.c ****   /*Union Functional Descriptor*/
 362:../inc/STM32_USB_Device_Library/Class/cdc/src/usbd_cdc_core.c ****   0x05,   /* bFunctionLength */
 363:../inc/STM32_USB_Device_Library/Class/cdc/src/usbd_cdc_core.c ****   0x24,   /* bDescriptorType: CS_INTERFACE */
 364:../inc/STM32_USB_Device_Library/Class/cdc/src/usbd_cdc_core.c ****   0x06,   /* bDescriptorSubtype: Union func desc */
 365:../inc/STM32_USB_Device_Library/Class/cdc/src/usbd_cdc_core.c ****   0x00,   /* bMasterInterface: Communication class interface */
 366:../inc/STM32_USB_Device_Library/Class/cdc/src/usbd_cdc_core.c ****   0x01,   /* bSlaveInterface0: Data Class Interface */
 367:../inc/STM32_USB_Device_Library/Class/cdc/src/usbd_cdc_core.c ****   
 368:../inc/STM32_USB_Device_Library/Class/cdc/src/usbd_cdc_core.c ****   /*Endpoint 2 Descriptor*/
 369:../inc/STM32_USB_Device_Library/Class/cdc/src/usbd_cdc_core.c ****   0x07,                           /* bLength: Endpoint Descriptor size */
 370:../inc/STM32_USB_Device_Library/Class/cdc/src/usbd_cdc_core.c ****   USB_ENDPOINT_DESCRIPTOR_TYPE,   /* bDescriptorType: Endpoint */
 371:../inc/STM32_USB_Device_Library/Class/cdc/src/usbd_cdc_core.c ****   CDC_CMD_EP,                     /* bEndpointAddress */
 372:../inc/STM32_USB_Device_Library/Class/cdc/src/usbd_cdc_core.c ****   0x03,                           /* bmAttributes: Interrupt */
 373:../inc/STM32_USB_Device_Library/Class/cdc/src/usbd_cdc_core.c ****   LOBYTE(CDC_CMD_PACKET_SZE),     /* wMaxPacketSize: */
 374:../inc/STM32_USB_Device_Library/Class/cdc/src/usbd_cdc_core.c ****   HIBYTE(CDC_CMD_PACKET_SZE),
 375:../inc/STM32_USB_Device_Library/Class/cdc/src/usbd_cdc_core.c ****   0xFF,                           /* bInterval: */
 376:../inc/STM32_USB_Device_Library/Class/cdc/src/usbd_cdc_core.c ****   
 377:../inc/STM32_USB_Device_Library/Class/cdc/src/usbd_cdc_core.c ****   /*---------------------------------------------------------------------------*/
 378:../inc/STM32_USB_Device_Library/Class/cdc/src/usbd_cdc_core.c ****   
 379:../inc/STM32_USB_Device_Library/Class/cdc/src/usbd_cdc_core.c ****   /*Data class interface descriptor*/
 380:../inc/STM32_USB_Device_Library/Class/cdc/src/usbd_cdc_core.c ****   0x09,   /* bLength: Endpoint Descriptor size */
 381:../inc/STM32_USB_Device_Library/Class/cdc/src/usbd_cdc_core.c ****   USB_INTERFACE_DESCRIPTOR_TYPE,  /* bDescriptorType: */
 382:../inc/STM32_USB_Device_Library/Class/cdc/src/usbd_cdc_core.c ****   0x01,   /* bInterfaceNumber: Number of Interface */
 383:../inc/STM32_USB_Device_Library/Class/cdc/src/usbd_cdc_core.c ****   0x00,   /* bAlternateSetting: Alternate setting */
 384:../inc/STM32_USB_Device_Library/Class/cdc/src/usbd_cdc_core.c ****   0x02,   /* bNumEndpoints: Two endpoints used */
 385:../inc/STM32_USB_Device_Library/Class/cdc/src/usbd_cdc_core.c ****   0x0A,   /* bInterfaceClass: CDC */
 386:../inc/STM32_USB_Device_Library/Class/cdc/src/usbd_cdc_core.c ****   0x00,   /* bInterfaceSubClass: */
 387:../inc/STM32_USB_Device_Library/Class/cdc/src/usbd_cdc_core.c ****   0x00,   /* bInterfaceProtocol: */
 388:../inc/STM32_USB_Device_Library/Class/cdc/src/usbd_cdc_core.c ****   0x00,   /* iInterface: */
 389:../inc/STM32_USB_Device_Library/Class/cdc/src/usbd_cdc_core.c ****   
 390:../inc/STM32_USB_Device_Library/Class/cdc/src/usbd_cdc_core.c ****   /*Endpoint OUT Descriptor*/
 391:../inc/STM32_USB_Device_Library/Class/cdc/src/usbd_cdc_core.c ****   0x07,   /* bLength: Endpoint Descriptor size */
 392:../inc/STM32_USB_Device_Library/Class/cdc/src/usbd_cdc_core.c ****   USB_ENDPOINT_DESCRIPTOR_TYPE,      /* bDescriptorType: Endpoint */
 393:../inc/STM32_USB_Device_Library/Class/cdc/src/usbd_cdc_core.c ****   CDC_OUT_EP,                        /* bEndpointAddress */
 394:../inc/STM32_USB_Device_Library/Class/cdc/src/usbd_cdc_core.c ****   0x02,                              /* bmAttributes: Bulk */
 395:../inc/STM32_USB_Device_Library/Class/cdc/src/usbd_cdc_core.c ****   0x40,                              /* wMaxPacketSize: */
 396:../inc/STM32_USB_Device_Library/Class/cdc/src/usbd_cdc_core.c ****   0x00,
 397:../inc/STM32_USB_Device_Library/Class/cdc/src/usbd_cdc_core.c ****   0x00,                              /* bInterval: ignore for Bulk transfer */
 398:../inc/STM32_USB_Device_Library/Class/cdc/src/usbd_cdc_core.c ****   
 399:../inc/STM32_USB_Device_Library/Class/cdc/src/usbd_cdc_core.c ****   /*Endpoint IN Descriptor*/
 400:../inc/STM32_USB_Device_Library/Class/cdc/src/usbd_cdc_core.c ****   0x07,   /* bLength: Endpoint Descriptor size */
 401:../inc/STM32_USB_Device_Library/Class/cdc/src/usbd_cdc_core.c ****   USB_ENDPOINT_DESCRIPTOR_TYPE,     /* bDescriptorType: Endpoint */
 402:../inc/STM32_USB_Device_Library/Class/cdc/src/usbd_cdc_core.c ****   CDC_IN_EP,                        /* bEndpointAddress */
 403:../inc/STM32_USB_Device_Library/Class/cdc/src/usbd_cdc_core.c ****   0x02,                             /* bmAttributes: Bulk */
 404:../inc/STM32_USB_Device_Library/Class/cdc/src/usbd_cdc_core.c ****   0x40,                             /* wMaxPacketSize: */
 405:../inc/STM32_USB_Device_Library/Class/cdc/src/usbd_cdc_core.c ****   0x00,
 406:../inc/STM32_USB_Device_Library/Class/cdc/src/usbd_cdc_core.c ****   0x00                              /* bInterval */
 407:../inc/STM32_USB_Device_Library/Class/cdc/src/usbd_cdc_core.c **** };
 408:../inc/STM32_USB_Device_Library/Class/cdc/src/usbd_cdc_core.c **** #endif /* USE_USB_OTG_HS  */
 409:../inc/STM32_USB_Device_Library/Class/cdc/src/usbd_cdc_core.c **** 
 410:../inc/STM32_USB_Device_Library/Class/cdc/src/usbd_cdc_core.c **** /**
 411:../inc/STM32_USB_Device_Library/Class/cdc/src/usbd_cdc_core.c ****   * @}
 412:../inc/STM32_USB_Device_Library/Class/cdc/src/usbd_cdc_core.c ****   */ 
 413:../inc/STM32_USB_Device_Library/Class/cdc/src/usbd_cdc_core.c **** 
 414:../inc/STM32_USB_Device_Library/Class/cdc/src/usbd_cdc_core.c **** /** @defgroup usbd_cdc_Private_Functions
 415:../inc/STM32_USB_Device_Library/Class/cdc/src/usbd_cdc_core.c ****   * @{
 416:../inc/STM32_USB_Device_Library/Class/cdc/src/usbd_cdc_core.c ****   */ 
 417:../inc/STM32_USB_Device_Library/Class/cdc/src/usbd_cdc_core.c **** 
 418:../inc/STM32_USB_Device_Library/Class/cdc/src/usbd_cdc_core.c **** /**
 419:../inc/STM32_USB_Device_Library/Class/cdc/src/usbd_cdc_core.c ****   * @brief  usbd_cdc_Init
 420:../inc/STM32_USB_Device_Library/Class/cdc/src/usbd_cdc_core.c ****   *         Initilaize the CDC interface
 421:../inc/STM32_USB_Device_Library/Class/cdc/src/usbd_cdc_core.c ****   * @param  pdev: device instance
 422:../inc/STM32_USB_Device_Library/Class/cdc/src/usbd_cdc_core.c ****   * @param  cfgidx: Configuration index
 423:../inc/STM32_USB_Device_Library/Class/cdc/src/usbd_cdc_core.c ****   * @retval status
 424:../inc/STM32_USB_Device_Library/Class/cdc/src/usbd_cdc_core.c ****   */
 425:../inc/STM32_USB_Device_Library/Class/cdc/src/usbd_cdc_core.c **** static uint8_t  usbd_cdc_Init (void  *pdev, 
 426:../inc/STM32_USB_Device_Library/Class/cdc/src/usbd_cdc_core.c ****                                uint8_t cfgidx)
 427:../inc/STM32_USB_Device_Library/Class/cdc/src/usbd_cdc_core.c **** {
 25559              		.loc 1 427 0
 25560              		.cfi_startproc
 25561              		@ args = 0, pretend = 0, frame = 16
 25562              		@ frame_needed = 1, uses_anonymous_args = 0
 25563 0000 80B5     		push	{r7, lr}
 25564              	.LCFI0:
 25565              		.cfi_def_cfa_offset 8
 25566 0002 84B0     		sub	sp, sp, #16
 25567              	.LCFI1:
 25568              		.cfi_def_cfa_offset 24
 25569 0004 00AF     		add	r7, sp, #0
 25570              		.cfi_offset 14, -4
 25571              		.cfi_offset 7, -8
 25572              	.LCFI2:
 25573              		.cfi_def_cfa_register 7
 25574 0006 7860     		str	r0, [r7, #4]
 25575 0008 0B46     		mov	r3, r1
 25576 000a FB70     		strb	r3, [r7, #3]
 428:../inc/STM32_USB_Device_Library/Class/cdc/src/usbd_cdc_core.c ****   uint8_t *pbuf;
 429:../inc/STM32_USB_Device_Library/Class/cdc/src/usbd_cdc_core.c **** 
 430:../inc/STM32_USB_Device_Library/Class/cdc/src/usbd_cdc_core.c ****   /* Open EP IN */
 431:../inc/STM32_USB_Device_Library/Class/cdc/src/usbd_cdc_core.c ****   DCD_EP_Open(pdev,
 25577              		.loc 1 431 0
 25578 000c 7A68     		ldr	r2, [r7, #4]
 432:../inc/STM32_USB_Device_Library/Class/cdc/src/usbd_cdc_core.c ****               CDC_IN_EP,
 433:../inc/STM32_USB_Device_Library/Class/cdc/src/usbd_cdc_core.c ****               CDC_DATA_IN_PACKET_SIZE,
 25579              		.loc 1 433 0
 25580 000e 7B68     		ldr	r3, [r7, #4]
 25581 0010 D3F8EC35 		ldr	r3, [r3, #1516]
 25582 0014 03F13903 		add	r3, r3, #57
 431:../inc/STM32_USB_Device_Library/Class/cdc/src/usbd_cdc_core.c ****   DCD_EP_Open(pdev,
 25583              		.loc 1 431 0
 25584 0018 1B88     		ldrh	r3, [r3, #0]
 25585 001a 1046     		mov	r0, r2
 25586 001c 4FF08101 		mov	r1, #129
 25587 0020 1A46     		mov	r2, r3
 25588 0022 4FF00203 		mov	r3, #2
 25589 0026 FFF7FEFF 		bl	DCD_EP_Open
 434:../inc/STM32_USB_Device_Library/Class/cdc/src/usbd_cdc_core.c ****               USB_OTG_EP_BULK);
 435:../inc/STM32_USB_Device_Library/Class/cdc/src/usbd_cdc_core.c ****   
 436:../inc/STM32_USB_Device_Library/Class/cdc/src/usbd_cdc_core.c ****   /* Open EP OUT */
 437:../inc/STM32_USB_Device_Library/Class/cdc/src/usbd_cdc_core.c ****   DCD_EP_Open(pdev,
 25590              		.loc 1 437 0
 25591 002a 7A68     		ldr	r2, [r7, #4]
 438:../inc/STM32_USB_Device_Library/Class/cdc/src/usbd_cdc_core.c ****               CDC_OUT_EP,
 439:../inc/STM32_USB_Device_Library/Class/cdc/src/usbd_cdc_core.c ****               CDC_DATA_OUT_PACKET_SIZE,
 25592              		.loc 1 439 0
 25593 002c 7B68     		ldr	r3, [r7, #4]
 25594 002e D3F8EC35 		ldr	r3, [r3, #1516]
 25595 0032 03F14003 		add	r3, r3, #64
 437:../inc/STM32_USB_Device_Library/Class/cdc/src/usbd_cdc_core.c ****   DCD_EP_Open(pdev,
 25596              		.loc 1 437 0
 25597 0036 1B88     		ldrh	r3, [r3, #0]
 25598 0038 1046     		mov	r0, r2
 25599 003a 4FF00101 		mov	r1, #1
 25600 003e 1A46     		mov	r2, r3
 25601 0040 4FF00203 		mov	r3, #2
 25602 0044 FFF7FEFF 		bl	DCD_EP_Open
 440:../inc/STM32_USB_Device_Library/Class/cdc/src/usbd_cdc_core.c ****               USB_OTG_EP_BULK);
 441:../inc/STM32_USB_Device_Library/Class/cdc/src/usbd_cdc_core.c ****   
 442:../inc/STM32_USB_Device_Library/Class/cdc/src/usbd_cdc_core.c ****   /* Open Command IN EP */
 443:../inc/STM32_USB_Device_Library/Class/cdc/src/usbd_cdc_core.c ****   DCD_EP_Open(pdev,
 25603              		.loc 1 443 0
 25604 0048 7B68     		ldr	r3, [r7, #4]
 25605 004a 1846     		mov	r0, r3
 25606 004c 4FF08201 		mov	r1, #130
 25607 0050 4FF00802 		mov	r2, #8
 25608 0054 4FF00303 		mov	r3, #3
 25609 0058 FFF7FEFF 		bl	DCD_EP_Open
 444:../inc/STM32_USB_Device_Library/Class/cdc/src/usbd_cdc_core.c ****               CDC_CMD_EP,
 445:../inc/STM32_USB_Device_Library/Class/cdc/src/usbd_cdc_core.c ****               CDC_CMD_PACKET_SZE,
 446:../inc/STM32_USB_Device_Library/Class/cdc/src/usbd_cdc_core.c ****               USB_OTG_EP_INT);
 447:../inc/STM32_USB_Device_Library/Class/cdc/src/usbd_cdc_core.c ****   
 448:../inc/STM32_USB_Device_Library/Class/cdc/src/usbd_cdc_core.c ****   pbuf = (uint8_t *)USBD_DeviceDesc;
 25610              		.loc 1 448 0
 25611 005c 124B     		ldr	r3, .L2
 25612 005e FB60     		str	r3, [r7, #12]
 449:../inc/STM32_USB_Device_Library/Class/cdc/src/usbd_cdc_core.c ****   pbuf[4] = DEVICE_CLASS_CDC;
 25613              		.loc 1 449 0
 25614 0060 FB68     		ldr	r3, [r7, #12]
 25615 0062 03F10403 		add	r3, r3, #4
 25616 0066 4FF00202 		mov	r2, #2
 25617 006a 1A70     		strb	r2, [r3, #0]
 450:../inc/STM32_USB_Device_Library/Class/cdc/src/usbd_cdc_core.c ****   pbuf[5] = DEVICE_SUBCLASS_CDC;
 25618              		.loc 1 450 0
 25619 006c FB68     		ldr	r3, [r7, #12]
 25620 006e 03F10503 		add	r3, r3, #5
 25621 0072 4FF00002 		mov	r2, #0
 25622 0076 1A70     		strb	r2, [r3, #0]
 451:../inc/STM32_USB_Device_Library/Class/cdc/src/usbd_cdc_core.c ****   
 452:../inc/STM32_USB_Device_Library/Class/cdc/src/usbd_cdc_core.c ****   /* Initialize the Interface physical components */
 453:../inc/STM32_USB_Device_Library/Class/cdc/src/usbd_cdc_core.c ****   APP_FOPS.pIf_Init();
 25623              		.loc 1 453 0
 25624 0078 0C4B     		ldr	r3, .L2+4
 25625 007a 1B68     		ldr	r3, [r3, #0]
 25626 007c 9847     		blx	r3
 454:../inc/STM32_USB_Device_Library/Class/cdc/src/usbd_cdc_core.c **** 
 455:../inc/STM32_USB_Device_Library/Class/cdc/src/usbd_cdc_core.c ****   /* Prepare Out endpoint to receive next packet */
 456:../inc/STM32_USB_Device_Library/Class/cdc/src/usbd_cdc_core.c ****   DCD_EP_PrepareRx(pdev,
 25627              		.loc 1 456 0
 25628 007e 7A68     		ldr	r2, [r7, #4]
 457:../inc/STM32_USB_Device_Library/Class/cdc/src/usbd_cdc_core.c ****                    CDC_OUT_EP,
 458:../inc/STM32_USB_Device_Library/Class/cdc/src/usbd_cdc_core.c ****                    (uint8_t*)(USB_Rx_Buffer),
 459:../inc/STM32_USB_Device_Library/Class/cdc/src/usbd_cdc_core.c ****                    CDC_DATA_OUT_PACKET_SIZE);
 25629              		.loc 1 459 0
 25630 0080 7B68     		ldr	r3, [r7, #4]
 25631 0082 D3F8EC35 		ldr	r3, [r3, #1516]
 25632 0086 03F14003 		add	r3, r3, #64
 456:../inc/STM32_USB_Device_Library/Class/cdc/src/usbd_cdc_core.c ****   DCD_EP_PrepareRx(pdev,
 25633              		.loc 1 456 0
 25634 008a 1B88     		ldrh	r3, [r3, #0]
 25635 008c 1046     		mov	r0, r2
 25636 008e 4FF00101 		mov	r1, #1
 25637 0092 074A     		ldr	r2, .L2+8
 25638 0094 FFF7FEFF 		bl	DCD_EP_PrepareRx
 460:../inc/STM32_USB_Device_Library/Class/cdc/src/usbd_cdc_core.c ****   
 461:../inc/STM32_USB_Device_Library/Class/cdc/src/usbd_cdc_core.c ****   return USBD_OK;
 25639              		.loc 1 461 0
 25640 0098 4FF00003 		mov	r3, #0
 462:../inc/STM32_USB_Device_Library/Class/cdc/src/usbd_cdc_core.c **** }
 25641              		.loc 1 462 0
 25642 009c 1846     		mov	r0, r3
 25643 009e 07F11007 		add	r7, r7, #16
 25644 00a2 BD46     		mov	sp, r7
 25645 00a4 80BD     		pop	{r7, pc}
 25646              	.L3:
 25647 00a6 00BF     		.align	2
 25648              	.L2:
 25649 00a8 00000000 		.word	USBD_DeviceDesc
 25650 00ac 00000000 		.word	VCP_fops
 25651 00b0 00000000 		.word	USB_Rx_Buffer
 25652              		.cfi_endproc
 25653              	.LFE110:
 25655              		.section	.text.usbd_cdc_DeInit,"ax",%progbits
 25656              		.align	2
 25657              		.thumb
 25658              		.thumb_func
 25660              	usbd_cdc_DeInit:
 25661              	.LFB111:
 463:../inc/STM32_USB_Device_Library/Class/cdc/src/usbd_cdc_core.c **** 
 464:../inc/STM32_USB_Device_Library/Class/cdc/src/usbd_cdc_core.c **** /**
 465:../inc/STM32_USB_Device_Library/Class/cdc/src/usbd_cdc_core.c ****   * @brief  usbd_cdc_Init
 466:../inc/STM32_USB_Device_Library/Class/cdc/src/usbd_cdc_core.c ****   *         DeInitialize the CDC layer
 467:../inc/STM32_USB_Device_Library/Class/cdc/src/usbd_cdc_core.c ****   * @param  pdev: device instance
 468:../inc/STM32_USB_Device_Library/Class/cdc/src/usbd_cdc_core.c ****   * @param  cfgidx: Configuration index
 469:../inc/STM32_USB_Device_Library/Class/cdc/src/usbd_cdc_core.c ****   * @retval status
 470:../inc/STM32_USB_Device_Library/Class/cdc/src/usbd_cdc_core.c ****   */
 471:../inc/STM32_USB_Device_Library/Class/cdc/src/usbd_cdc_core.c **** static uint8_t  usbd_cdc_DeInit (void  *pdev, 
 472:../inc/STM32_USB_Device_Library/Class/cdc/src/usbd_cdc_core.c ****                                  uint8_t cfgidx)
 473:../inc/STM32_USB_Device_Library/Class/cdc/src/usbd_cdc_core.c **** {
 25662              		.loc 1 473 0
 25663              		.cfi_startproc
 25664              		@ args = 0, pretend = 0, frame = 8
 25665              		@ frame_needed = 1, uses_anonymous_args = 0
 25666 0000 80B5     		push	{r7, lr}
 25667              	.LCFI3:
 25668              		.cfi_def_cfa_offset 8
 25669 0002 82B0     		sub	sp, sp, #8
 25670              	.LCFI4:
 25671              		.cfi_def_cfa_offset 16
 25672 0004 00AF     		add	r7, sp, #0
 25673              		.cfi_offset 14, -4
 25674              		.cfi_offset 7, -8
 25675              	.LCFI5:
 25676              		.cfi_def_cfa_register 7
 25677 0006 7860     		str	r0, [r7, #4]
 25678 0008 0B46     		mov	r3, r1
 25679 000a FB70     		strb	r3, [r7, #3]
 474:../inc/STM32_USB_Device_Library/Class/cdc/src/usbd_cdc_core.c ****   /* Open EP IN */
 475:../inc/STM32_USB_Device_Library/Class/cdc/src/usbd_cdc_core.c ****   DCD_EP_Close(pdev,
 25680              		.loc 1 475 0
 25681 000c 7B68     		ldr	r3, [r7, #4]
 25682 000e 1846     		mov	r0, r3
 25683 0010 4FF08101 		mov	r1, #129
 25684 0014 FFF7FEFF 		bl	DCD_EP_Close
 476:../inc/STM32_USB_Device_Library/Class/cdc/src/usbd_cdc_core.c ****               CDC_IN_EP);
 477:../inc/STM32_USB_Device_Library/Class/cdc/src/usbd_cdc_core.c ****   
 478:../inc/STM32_USB_Device_Library/Class/cdc/src/usbd_cdc_core.c ****   /* Open EP OUT */
 479:../inc/STM32_USB_Device_Library/Class/cdc/src/usbd_cdc_core.c ****   DCD_EP_Close(pdev,
 25685              		.loc 1 479 0
 25686 0018 7B68     		ldr	r3, [r7, #4]
 25687 001a 1846     		mov	r0, r3
 25688 001c 4FF00101 		mov	r1, #1
 25689 0020 FFF7FEFF 		bl	DCD_EP_Close
 480:../inc/STM32_USB_Device_Library/Class/cdc/src/usbd_cdc_core.c ****               CDC_OUT_EP);
 481:../inc/STM32_USB_Device_Library/Class/cdc/src/usbd_cdc_core.c ****   
 482:../inc/STM32_USB_Device_Library/Class/cdc/src/usbd_cdc_core.c ****   /* Open Command IN EP */
 483:../inc/STM32_USB_Device_Library/Class/cdc/src/usbd_cdc_core.c ****   DCD_EP_Close(pdev,
 25690              		.loc 1 483 0
 25691 0024 7B68     		ldr	r3, [r7, #4]
 25692 0026 1846     		mov	r0, r3
 25693 0028 4FF08201 		mov	r1, #130
 25694 002c FFF7FEFF 		bl	DCD_EP_Close
 484:../inc/STM32_USB_Device_Library/Class/cdc/src/usbd_cdc_core.c ****               CDC_CMD_EP);
 485:../inc/STM32_USB_Device_Library/Class/cdc/src/usbd_cdc_core.c **** 
 486:../inc/STM32_USB_Device_Library/Class/cdc/src/usbd_cdc_core.c ****   /* Restore default state of the Interface physical components */
 487:../inc/STM32_USB_Device_Library/Class/cdc/src/usbd_cdc_core.c ****   APP_FOPS.pIf_DeInit();
 25695              		.loc 1 487 0
 25696 0030 044B     		ldr	r3, .L5
 25697 0032 5B68     		ldr	r3, [r3, #4]
 25698 0034 9847     		blx	r3
 488:../inc/STM32_USB_Device_Library/Class/cdc/src/usbd_cdc_core.c ****   
 489:../inc/STM32_USB_Device_Library/Class/cdc/src/usbd_cdc_core.c ****   return USBD_OK;
 25699              		.loc 1 489 0
 25700 0036 4FF00003 		mov	r3, #0
 490:../inc/STM32_USB_Device_Library/Class/cdc/src/usbd_cdc_core.c **** }
 25701              		.loc 1 490 0
 25702 003a 1846     		mov	r0, r3
 25703 003c 07F10807 		add	r7, r7, #8
 25704 0040 BD46     		mov	sp, r7
 25705 0042 80BD     		pop	{r7, pc}
 25706              	.L6:
 25707              		.align	2
 25708              	.L5:
 25709 0044 00000000 		.word	VCP_fops
 25710              		.cfi_endproc
 25711              	.LFE111:
 25713              		.section	.text.usbd_cdc_Setup,"ax",%progbits
 25714              		.align	2
 25715              		.thumb
 25716              		.thumb_func
 25718              	usbd_cdc_Setup:
 25719              	.LFB112:
 491:../inc/STM32_USB_Device_Library/Class/cdc/src/usbd_cdc_core.c **** 
 492:../inc/STM32_USB_Device_Library/Class/cdc/src/usbd_cdc_core.c **** /**
 493:../inc/STM32_USB_Device_Library/Class/cdc/src/usbd_cdc_core.c ****   * @brief  usbd_cdc_Setup
 494:../inc/STM32_USB_Device_Library/Class/cdc/src/usbd_cdc_core.c ****   *         Handle the CDC specific requests
 495:../inc/STM32_USB_Device_Library/Class/cdc/src/usbd_cdc_core.c ****   * @param  pdev: instance
 496:../inc/STM32_USB_Device_Library/Class/cdc/src/usbd_cdc_core.c ****   * @param  req: usb requests
 497:../inc/STM32_USB_Device_Library/Class/cdc/src/usbd_cdc_core.c ****   * @retval status
 498:../inc/STM32_USB_Device_Library/Class/cdc/src/usbd_cdc_core.c ****   */
 499:../inc/STM32_USB_Device_Library/Class/cdc/src/usbd_cdc_core.c **** static uint8_t  usbd_cdc_Setup (void  *pdev, 
 500:../inc/STM32_USB_Device_Library/Class/cdc/src/usbd_cdc_core.c ****                                 USB_SETUP_REQ *req)
 501:../inc/STM32_USB_Device_Library/Class/cdc/src/usbd_cdc_core.c **** {
 25720              		.loc 1 501 0
 25721              		.cfi_startproc
 25722              		@ args = 0, pretend = 0, frame = 16
 25723              		@ frame_needed = 1, uses_anonymous_args = 0
 25724 0000 80B5     		push	{r7, lr}
 25725              	.LCFI6:
 25726              		.cfi_def_cfa_offset 8
 25727 0002 84B0     		sub	sp, sp, #16
 25728              	.LCFI7:
 25729              		.cfi_def_cfa_offset 24
 25730 0004 00AF     		add	r7, sp, #0
 25731              		.cfi_offset 14, -4
 25732              		.cfi_offset 7, -8
 25733              	.LCFI8:
 25734              		.cfi_def_cfa_register 7
 25735 0006 7860     		str	r0, [r7, #4]
 25736 0008 3960     		str	r1, [r7, #0]
 502:../inc/STM32_USB_Device_Library/Class/cdc/src/usbd_cdc_core.c ****   uint16_t len;
 503:../inc/STM32_USB_Device_Library/Class/cdc/src/usbd_cdc_core.c ****   uint8_t  *pbuf;
 504:../inc/STM32_USB_Device_Library/Class/cdc/src/usbd_cdc_core.c ****   
 505:../inc/STM32_USB_Device_Library/Class/cdc/src/usbd_cdc_core.c ****   switch (req->bmRequest & USB_REQ_TYPE_MASK)
 25737              		.loc 1 505 0
 25738 000a 3B68     		ldr	r3, [r7, #0]
 25739 000c 1B78     		ldrb	r3, [r3, #0]	@ zero_extendqisi2
 25740 000e 03F06003 		and	r3, r3, #96
 25741 0012 002B     		cmp	r3, #0
 25742 0014 46D0     		beq	.L9
 25743 0016 202B     		cmp	r3, #32
 25744 0018 3CD1     		bne	.L22
 25745              	.L10:
 506:../inc/STM32_USB_Device_Library/Class/cdc/src/usbd_cdc_core.c ****   {
 507:../inc/STM32_USB_Device_Library/Class/cdc/src/usbd_cdc_core.c ****     /* CDC Class Requests -------------------------------*/
 508:../inc/STM32_USB_Device_Library/Class/cdc/src/usbd_cdc_core.c ****   case USB_REQ_TYPE_CLASS :
 509:../inc/STM32_USB_Device_Library/Class/cdc/src/usbd_cdc_core.c ****       /* Check if the request is a data setup packet */
 510:../inc/STM32_USB_Device_Library/Class/cdc/src/usbd_cdc_core.c ****       if (req->wLength)
 25746              		.loc 1 510 0
 25747 001a 3B68     		ldr	r3, [r7, #0]
 25748 001c DB88     		ldrh	r3, [r3, #6]
 25749 001e 002B     		cmp	r3, #0
 25750 0020 2BD0     		beq	.L11
 511:../inc/STM32_USB_Device_Library/Class/cdc/src/usbd_cdc_core.c ****       {
 512:../inc/STM32_USB_Device_Library/Class/cdc/src/usbd_cdc_core.c ****         /* Check if the request is Device-to-Host */
 513:../inc/STM32_USB_Device_Library/Class/cdc/src/usbd_cdc_core.c ****         if (req->bmRequest & 0x80)
 25751              		.loc 1 513 0
 25752 0022 3B68     		ldr	r3, [r7, #0]
 25753 0024 1B78     		ldrb	r3, [r3, #0]	@ zero_extendqisi2
 25754 0026 DBB2     		uxtb	r3, r3
 25755 0028 5BB2     		sxtb	r3, r3
 25756 002a 002B     		cmp	r3, #0
 25757 002c 12DA     		bge	.L12
 514:../inc/STM32_USB_Device_Library/Class/cdc/src/usbd_cdc_core.c ****         {
 515:../inc/STM32_USB_Device_Library/Class/cdc/src/usbd_cdc_core.c ****           /* Get the data to be sent to Host from interface layer */
 516:../inc/STM32_USB_Device_Library/Class/cdc/src/usbd_cdc_core.c ****           APP_FOPS.pIf_Ctrl(req->bRequest, CmdBuff, req->wLength);
 25758              		.loc 1 516 0
 25759 002e 3E4B     		ldr	r3, .L23
 25760 0030 9B68     		ldr	r3, [r3, #8]
 25761 0032 3A68     		ldr	r2, [r7, #0]
 25762 0034 5278     		ldrb	r2, [r2, #1]	@ zero_extendqisi2
 25763 0036 1146     		mov	r1, r2
 25764 0038 3A68     		ldr	r2, [r7, #0]
 25765 003a D288     		ldrh	r2, [r2, #6]
 25766 003c 0846     		mov	r0, r1
 25767 003e 3B49     		ldr	r1, .L23+4
 25768 0040 9847     		blx	r3
 517:../inc/STM32_USB_Device_Library/Class/cdc/src/usbd_cdc_core.c ****           
 518:../inc/STM32_USB_Device_Library/Class/cdc/src/usbd_cdc_core.c ****           /* Send the data to the host */
 519:../inc/STM32_USB_Device_Library/Class/cdc/src/usbd_cdc_core.c ****           USBD_CtlSendData (pdev, 
 25769              		.loc 1 519 0
 25770 0042 7A68     		ldr	r2, [r7, #4]
 520:../inc/STM32_USB_Device_Library/Class/cdc/src/usbd_cdc_core.c ****                             CmdBuff,
 521:../inc/STM32_USB_Device_Library/Class/cdc/src/usbd_cdc_core.c ****                             req->wLength);          
 25771              		.loc 1 521 0
 25772 0044 3B68     		ldr	r3, [r7, #0]
 519:../inc/STM32_USB_Device_Library/Class/cdc/src/usbd_cdc_core.c ****           USBD_CtlSendData (pdev, 
 25773              		.loc 1 519 0
 25774 0046 DB88     		ldrh	r3, [r3, #6]
 25775 0048 1046     		mov	r0, r2
 25776 004a 3849     		ldr	r1, .L23+4
 25777 004c 1A46     		mov	r2, r3
 25778 004e FFF7FEFF 		bl	USBD_CtlSendData
 25779 0052 1CE0     		b	.L13
 25780              	.L12:
 522:../inc/STM32_USB_Device_Library/Class/cdc/src/usbd_cdc_core.c ****         }
 523:../inc/STM32_USB_Device_Library/Class/cdc/src/usbd_cdc_core.c ****         else /* Host-to-Device requeset */
 524:../inc/STM32_USB_Device_Library/Class/cdc/src/usbd_cdc_core.c ****         {
 525:../inc/STM32_USB_Device_Library/Class/cdc/src/usbd_cdc_core.c ****           /* Set the value of the current command to be processed */
 526:../inc/STM32_USB_Device_Library/Class/cdc/src/usbd_cdc_core.c ****           cdcCmd = req->bRequest;
 25781              		.loc 1 526 0
 25782 0054 3B68     		ldr	r3, [r7, #0]
 25783 0056 5B78     		ldrb	r3, [r3, #1]	@ zero_extendqisi2
 25784 0058 1A46     		mov	r2, r3
 25785 005a 354B     		ldr	r3, .L23+8
 25786 005c 1A60     		str	r2, [r3, #0]
 527:../inc/STM32_USB_Device_Library/Class/cdc/src/usbd_cdc_core.c ****           cdcLen = req->wLength;
 25787              		.loc 1 527 0
 25788 005e 3B68     		ldr	r3, [r7, #0]
 25789 0060 DB88     		ldrh	r3, [r3, #6]
 25790 0062 1A46     		mov	r2, r3
 25791 0064 334B     		ldr	r3, .L23+12
 25792 0066 1A60     		str	r2, [r3, #0]
 528:../inc/STM32_USB_Device_Library/Class/cdc/src/usbd_cdc_core.c ****           
 529:../inc/STM32_USB_Device_Library/Class/cdc/src/usbd_cdc_core.c ****           /* Prepare the reception of the buffer over EP0
 530:../inc/STM32_USB_Device_Library/Class/cdc/src/usbd_cdc_core.c ****           Next step: the received data will be managed in usbd_cdc_EP0_TxSent() 
 531:../inc/STM32_USB_Device_Library/Class/cdc/src/usbd_cdc_core.c ****           function. */
 532:../inc/STM32_USB_Device_Library/Class/cdc/src/usbd_cdc_core.c ****           USBD_CtlPrepareRx (pdev,
 25793              		.loc 1 532 0
 25794 0068 7A68     		ldr	r2, [r7, #4]
 533:../inc/STM32_USB_Device_Library/Class/cdc/src/usbd_cdc_core.c ****                              CmdBuff,
 534:../inc/STM32_USB_Device_Library/Class/cdc/src/usbd_cdc_core.c ****                              req->wLength);          
 25795              		.loc 1 534 0
 25796 006a 3B68     		ldr	r3, [r7, #0]
 532:../inc/STM32_USB_Device_Library/Class/cdc/src/usbd_cdc_core.c ****           USBD_CtlPrepareRx (pdev,
 25797              		.loc 1 532 0
 25798 006c DB88     		ldrh	r3, [r3, #6]
 25799 006e 1046     		mov	r0, r2
 25800 0070 2E49     		ldr	r1, .L23+4
 25801 0072 1A46     		mov	r2, r3
 25802 0074 FFF7FEFF 		bl	USBD_CtlPrepareRx
 25803 0078 09E0     		b	.L13
 25804              	.L11:
 535:../inc/STM32_USB_Device_Library/Class/cdc/src/usbd_cdc_core.c ****         }
 536:../inc/STM32_USB_Device_Library/Class/cdc/src/usbd_cdc_core.c ****       }
 537:../inc/STM32_USB_Device_Library/Class/cdc/src/usbd_cdc_core.c ****       else /* No Data request */
 538:../inc/STM32_USB_Device_Library/Class/cdc/src/usbd_cdc_core.c ****       {
 539:../inc/STM32_USB_Device_Library/Class/cdc/src/usbd_cdc_core.c ****         /* Transfer the command to the interface layer */
 540:../inc/STM32_USB_Device_Library/Class/cdc/src/usbd_cdc_core.c ****         APP_FOPS.pIf_Ctrl(req->bRequest, NULL, 0);
 25805              		.loc 1 540 0
 25806 007a 2B4B     		ldr	r3, .L23
 25807 007c 9B68     		ldr	r3, [r3, #8]
 25808 007e 3A68     		ldr	r2, [r7, #0]
 25809 0080 5278     		ldrb	r2, [r2, #1]	@ zero_extendqisi2
 25810 0082 1046     		mov	r0, r2
 25811 0084 4FF00001 		mov	r1, #0
 25812 0088 4FF00002 		mov	r2, #0
 25813 008c 9847     		blx	r3
 25814              	.L13:
 541:../inc/STM32_USB_Device_Library/Class/cdc/src/usbd_cdc_core.c ****       }
 542:../inc/STM32_USB_Device_Library/Class/cdc/src/usbd_cdc_core.c ****       
 543:../inc/STM32_USB_Device_Library/Class/cdc/src/usbd_cdc_core.c ****       return USBD_OK;
 25815              		.loc 1 543 0
 25816 008e 4FF00003 		mov	r3, #0
 25817 0092 43E0     		b	.L14
 25818              	.L22:
 544:../inc/STM32_USB_Device_Library/Class/cdc/src/usbd_cdc_core.c ****       
 545:../inc/STM32_USB_Device_Library/Class/cdc/src/usbd_cdc_core.c ****     default:
 546:../inc/STM32_USB_Device_Library/Class/cdc/src/usbd_cdc_core.c ****       USBD_CtlError (pdev, req);
 25819              		.loc 1 546 0
 25820 0094 7B68     		ldr	r3, [r7, #4]
 25821 0096 1846     		mov	r0, r3
 25822 0098 3968     		ldr	r1, [r7, #0]
 25823 009a FFF7FEFF 		bl	USBD_CtlError
 547:../inc/STM32_USB_Device_Library/Class/cdc/src/usbd_cdc_core.c ****       return USBD_FAIL;
 25824              		.loc 1 547 0
 25825 009e 4FF00203 		mov	r3, #2
 25826 00a2 3BE0     		b	.L14
 25827              	.L9:
 548:../inc/STM32_USB_Device_Library/Class/cdc/src/usbd_cdc_core.c ****     
 549:../inc/STM32_USB_Device_Library/Class/cdc/src/usbd_cdc_core.c ****       
 550:../inc/STM32_USB_Device_Library/Class/cdc/src/usbd_cdc_core.c ****       
 551:../inc/STM32_USB_Device_Library/Class/cdc/src/usbd_cdc_core.c ****     /* Standard Requests -------------------------------*/
 552:../inc/STM32_USB_Device_Library/Class/cdc/src/usbd_cdc_core.c ****   case USB_REQ_TYPE_STANDARD:
 553:../inc/STM32_USB_Device_Library/Class/cdc/src/usbd_cdc_core.c ****     switch (req->bRequest)
 25828              		.loc 1 553 0
 25829 00a4 3B68     		ldr	r3, [r7, #0]
 25830 00a6 5B78     		ldrb	r3, [r3, #1]	@ zero_extendqisi2
 25831 00a8 0A2B     		cmp	r3, #10
 25832 00aa 1AD0     		beq	.L17
 25833 00ac 0B2B     		cmp	r3, #11
 25834 00ae 21D0     		beq	.L18
 25835 00b0 062B     		cmp	r3, #6
 25836 00b2 31D1     		bne	.L15
 25837              	.L16:
 554:../inc/STM32_USB_Device_Library/Class/cdc/src/usbd_cdc_core.c ****     {
 555:../inc/STM32_USB_Device_Library/Class/cdc/src/usbd_cdc_core.c ****     case USB_REQ_GET_DESCRIPTOR: 
 556:../inc/STM32_USB_Device_Library/Class/cdc/src/usbd_cdc_core.c ****       if( (req->wValue >> 8) == CDC_DESCRIPTOR_TYPE)
 25838              		.loc 1 556 0
 25839 00b4 3B68     		ldr	r3, [r7, #0]
 25840 00b6 5B88     		ldrh	r3, [r3, #2]
 25841 00b8 4FEA1323 		lsr	r3, r3, #8
 25842 00bc 9BB2     		uxth	r3, r3
 25843 00be 212B     		cmp	r3, #33
 25844 00c0 07D1     		bne	.L19
 557:../inc/STM32_USB_Device_Library/Class/cdc/src/usbd_cdc_core.c ****       {
 558:../inc/STM32_USB_Device_Library/Class/cdc/src/usbd_cdc_core.c **** #ifdef USB_OTG_HS_INTERNAL_DMA_ENABLED
 559:../inc/STM32_USB_Device_Library/Class/cdc/src/usbd_cdc_core.c ****         pbuf = usbd_cdc_Desc;   
 560:../inc/STM32_USB_Device_Library/Class/cdc/src/usbd_cdc_core.c **** #else
 561:../inc/STM32_USB_Device_Library/Class/cdc/src/usbd_cdc_core.c ****         pbuf = usbd_cdc_CfgDesc + 9 + (9 * USBD_ITF_MAX_NUM);
 25845              		.loc 1 561 0
 25846 00c2 1D4B     		ldr	r3, .L23+16
 25847 00c4 BB60     		str	r3, [r7, #8]
 562:../inc/STM32_USB_Device_Library/Class/cdc/src/usbd_cdc_core.c **** #endif 
 563:../inc/STM32_USB_Device_Library/Class/cdc/src/usbd_cdc_core.c ****         len = MIN(USB_CDC_DESC_SIZ , req->wLength);
 25848              		.loc 1 563 0
 25849 00c6 3B68     		ldr	r3, [r7, #0]
 25850 00c8 DB88     		ldrh	r3, [r3, #6]
 25851 00ca 3A2B     		cmp	r3, #58
 25852 00cc 28BF     		it	cs
 25853 00ce 3A23     		movcs	r3, #58
 25854 00d0 FB81     		strh	r3, [r7, #14]	@ movhi
 25855              	.L19:
 564:../inc/STM32_USB_Device_Library/Class/cdc/src/usbd_cdc_core.c ****       }
 565:../inc/STM32_USB_Device_Library/Class/cdc/src/usbd_cdc_core.c ****       
 566:../inc/STM32_USB_Device_Library/Class/cdc/src/usbd_cdc_core.c ****       USBD_CtlSendData (pdev, 
 25856              		.loc 1 566 0
 25857 00d2 7A68     		ldr	r2, [r7, #4]
 25858 00d4 FB89     		ldrh	r3, [r7, #14]
 25859 00d6 1046     		mov	r0, r2
 25860 00d8 B968     		ldr	r1, [r7, #8]
 25861 00da 1A46     		mov	r2, r3
 25862 00dc FFF7FEFF 		bl	USBD_CtlSendData
 567:../inc/STM32_USB_Device_Library/Class/cdc/src/usbd_cdc_core.c ****                         pbuf,
 568:../inc/STM32_USB_Device_Library/Class/cdc/src/usbd_cdc_core.c ****                         len);
 569:../inc/STM32_USB_Device_Library/Class/cdc/src/usbd_cdc_core.c ****       break;
 25863              		.loc 1 569 0
 25864 00e0 1AE0     		b	.L15
 25865              	.L17:
 570:../inc/STM32_USB_Device_Library/Class/cdc/src/usbd_cdc_core.c ****       
 571:../inc/STM32_USB_Device_Library/Class/cdc/src/usbd_cdc_core.c ****     case USB_REQ_GET_INTERFACE :
 572:../inc/STM32_USB_Device_Library/Class/cdc/src/usbd_cdc_core.c ****       USBD_CtlSendData (pdev,
 25866              		.loc 1 572 0
 25867 00e2 7A68     		ldr	r2, [r7, #4]
 25868 00e4 154B     		ldr	r3, .L23+20
 25869 00e6 1046     		mov	r0, r2
 25870 00e8 1946     		mov	r1, r3
 25871 00ea 4FF00102 		mov	r2, #1
 25872 00ee FFF7FEFF 		bl	USBD_CtlSendData
 573:../inc/STM32_USB_Device_Library/Class/cdc/src/usbd_cdc_core.c ****                         (uint8_t *)&usbd_cdc_AltSet,
 574:../inc/STM32_USB_Device_Library/Class/cdc/src/usbd_cdc_core.c ****                         1);
 575:../inc/STM32_USB_Device_Library/Class/cdc/src/usbd_cdc_core.c ****       break;
 25873              		.loc 1 575 0
 25874 00f2 11E0     		b	.L15
 25875              	.L18:
 576:../inc/STM32_USB_Device_Library/Class/cdc/src/usbd_cdc_core.c ****       
 577:../inc/STM32_USB_Device_Library/Class/cdc/src/usbd_cdc_core.c ****     case USB_REQ_SET_INTERFACE :
 578:../inc/STM32_USB_Device_Library/Class/cdc/src/usbd_cdc_core.c ****       if ((uint8_t)(req->wValue) < USBD_ITF_MAX_NUM)
 25876              		.loc 1 578 0
 25877 00f4 3B68     		ldr	r3, [r7, #0]
 25878 00f6 5B88     		ldrh	r3, [r3, #2]
 25879 00f8 DBB2     		uxtb	r3, r3
 25880 00fa 002B     		cmp	r3, #0
 25881 00fc 06D1     		bne	.L20
 579:../inc/STM32_USB_Device_Library/Class/cdc/src/usbd_cdc_core.c ****       {
 580:../inc/STM32_USB_Device_Library/Class/cdc/src/usbd_cdc_core.c ****         usbd_cdc_AltSet = (uint8_t)(req->wValue);
 25882              		.loc 1 580 0
 25883 00fe 3B68     		ldr	r3, [r7, #0]
 25884 0100 5B88     		ldrh	r3, [r3, #2]
 25885 0102 DBB2     		uxtb	r3, r3
 25886 0104 1A46     		mov	r2, r3
 25887 0106 0D4B     		ldr	r3, .L23+20
 25888 0108 1A60     		str	r2, [r3, #0]
 581:../inc/STM32_USB_Device_Library/Class/cdc/src/usbd_cdc_core.c ****       }
 582:../inc/STM32_USB_Device_Library/Class/cdc/src/usbd_cdc_core.c ****       else
 583:../inc/STM32_USB_Device_Library/Class/cdc/src/usbd_cdc_core.c ****       {
 584:../inc/STM32_USB_Device_Library/Class/cdc/src/usbd_cdc_core.c ****         /* Call the error management function (command will be nacked */
 585:../inc/STM32_USB_Device_Library/Class/cdc/src/usbd_cdc_core.c ****         USBD_CtlError (pdev, req);
 586:../inc/STM32_USB_Device_Library/Class/cdc/src/usbd_cdc_core.c ****       }
 587:../inc/STM32_USB_Device_Library/Class/cdc/src/usbd_cdc_core.c ****       break;
 25889              		.loc 1 587 0
 25890 010a 05E0     		b	.L15
 25891              	.L20:
 585:../inc/STM32_USB_Device_Library/Class/cdc/src/usbd_cdc_core.c ****         USBD_CtlError (pdev, req);
 25892              		.loc 1 585 0
 25893 010c 7B68     		ldr	r3, [r7, #4]
 25894 010e 1846     		mov	r0, r3
 25895 0110 3968     		ldr	r1, [r7, #0]
 25896 0112 FFF7FEFF 		bl	USBD_CtlError
 25897              		.loc 1 587 0
 25898 0116 00BF     		nop
 25899              	.L15:
 588:../inc/STM32_USB_Device_Library/Class/cdc/src/usbd_cdc_core.c ****     }
 589:../inc/STM32_USB_Device_Library/Class/cdc/src/usbd_cdc_core.c ****         break;
 590:../inc/STM32_USB_Device_Library/Class/cdc/src/usbd_cdc_core.c ****   }
 591:../inc/STM32_USB_Device_Library/Class/cdc/src/usbd_cdc_core.c ****   return USBD_OK;
 25900              		.loc 1 591 0
 25901 0118 4FF00003 		mov	r3, #0
 25902              	.L14:
 592:../inc/STM32_USB_Device_Library/Class/cdc/src/usbd_cdc_core.c **** }
 25903              		.loc 1 592 0
 25904 011c 1846     		mov	r0, r3
 25905 011e 07F11007 		add	r7, r7, #16
 25906 0122 BD46     		mov	sp, r7
 25907 0124 80BD     		pop	{r7, pc}
 25908              	.L24:
 25909 0126 00BF     		.align	2
 25910              	.L23:
 25911 0128 00000000 		.word	VCP_fops
 25912 012c 00000000 		.word	CmdBuff
 25913 0130 00000000 		.word	cdcCmd
 25914 0134 00000000 		.word	cdcLen
 25915 0138 12000000 		.word	usbd_cdc_CfgDesc+18
 25916 013c 00000000 		.word	usbd_cdc_AltSet
 25917              		.cfi_endproc
 25918              	.LFE112:
 25920              		.section	.text.usbd_cdc_EP0_RxReady,"ax",%progbits
 25921              		.align	2
 25922              		.thumb
 25923              		.thumb_func
 25925              	usbd_cdc_EP0_RxReady:
 25926              	.LFB113:
 593:../inc/STM32_USB_Device_Library/Class/cdc/src/usbd_cdc_core.c **** 
 594:../inc/STM32_USB_Device_Library/Class/cdc/src/usbd_cdc_core.c **** /**
 595:../inc/STM32_USB_Device_Library/Class/cdc/src/usbd_cdc_core.c ****   * @brief  usbd_cdc_EP0_RxReady
 596:../inc/STM32_USB_Device_Library/Class/cdc/src/usbd_cdc_core.c ****   *         Data received on control endpoint
 597:../inc/STM32_USB_Device_Library/Class/cdc/src/usbd_cdc_core.c ****   * @param  pdev: device device instance
 598:../inc/STM32_USB_Device_Library/Class/cdc/src/usbd_cdc_core.c ****   * @retval status
 599:../inc/STM32_USB_Device_Library/Class/cdc/src/usbd_cdc_core.c ****   */
 600:../inc/STM32_USB_Device_Library/Class/cdc/src/usbd_cdc_core.c **** static uint8_t  usbd_cdc_EP0_RxReady (void  *pdev)
 601:../inc/STM32_USB_Device_Library/Class/cdc/src/usbd_cdc_core.c **** { 
 25927              		.loc 1 601 0
 25928              		.cfi_startproc
 25929              		@ args = 0, pretend = 0, frame = 8
 25930              		@ frame_needed = 1, uses_anonymous_args = 0
 25931 0000 80B5     		push	{r7, lr}
 25932              	.LCFI9:
 25933              		.cfi_def_cfa_offset 8
 25934 0002 82B0     		sub	sp, sp, #8
 25935              	.LCFI10:
 25936              		.cfi_def_cfa_offset 16
 25937 0004 00AF     		add	r7, sp, #0
 25938              		.cfi_offset 14, -4
 25939              		.cfi_offset 7, -8
 25940              	.LCFI11:
 25941              		.cfi_def_cfa_register 7
 25942 0006 7860     		str	r0, [r7, #4]
 602:../inc/STM32_USB_Device_Library/Class/cdc/src/usbd_cdc_core.c ****   if (cdcCmd != NO_CMD)
 25943              		.loc 1 602 0
 25944 0008 0B4B     		ldr	r3, .L27
 25945 000a 1B68     		ldr	r3, [r3, #0]
 25946 000c FF2B     		cmp	r3, #255
 25947 000e 0CD0     		beq	.L26
 603:../inc/STM32_USB_Device_Library/Class/cdc/src/usbd_cdc_core.c ****   {
 604:../inc/STM32_USB_Device_Library/Class/cdc/src/usbd_cdc_core.c ****     /* Process the data */
 605:../inc/STM32_USB_Device_Library/Class/cdc/src/usbd_cdc_core.c ****     APP_FOPS.pIf_Ctrl(cdcCmd, CmdBuff, cdcLen);
 25948              		.loc 1 605 0
 25949 0010 0A4B     		ldr	r3, .L27+4
 25950 0012 9B68     		ldr	r3, [r3, #8]
 25951 0014 084A     		ldr	r2, .L27
 25952 0016 1168     		ldr	r1, [r2, #0]
 25953 0018 094A     		ldr	r2, .L27+8
 25954 001a 1268     		ldr	r2, [r2, #0]
 25955 001c 0846     		mov	r0, r1
 25956 001e 0949     		ldr	r1, .L27+12
 25957 0020 9847     		blx	r3
 606:../inc/STM32_USB_Device_Library/Class/cdc/src/usbd_cdc_core.c ****     
 607:../inc/STM32_USB_Device_Library/Class/cdc/src/usbd_cdc_core.c ****     /* Reset the command variable to default value */
 608:../inc/STM32_USB_Device_Library/Class/cdc/src/usbd_cdc_core.c ****     cdcCmd = NO_CMD;
 25958              		.loc 1 608 0
 25959 0022 054B     		ldr	r3, .L27
 25960 0024 4FF0FF02 		mov	r2, #255
 25961 0028 1A60     		str	r2, [r3, #0]
 25962              	.L26:
 609:../inc/STM32_USB_Device_Library/Class/cdc/src/usbd_cdc_core.c ****   }
 610:../inc/STM32_USB_Device_Library/Class/cdc/src/usbd_cdc_core.c ****   
 611:../inc/STM32_USB_Device_Library/Class/cdc/src/usbd_cdc_core.c ****   return USBD_OK;
 25963              		.loc 1 611 0
 25964 002a 4FF00003 		mov	r3, #0
 612:../inc/STM32_USB_Device_Library/Class/cdc/src/usbd_cdc_core.c **** }
 25965              		.loc 1 612 0
 25966 002e 1846     		mov	r0, r3
 25967 0030 07F10807 		add	r7, r7, #8
 25968 0034 BD46     		mov	sp, r7
 25969 0036 80BD     		pop	{r7, pc}
 25970              	.L28:
 25971              		.align	2
 25972              	.L27:
 25973 0038 00000000 		.word	cdcCmd
 25974 003c 00000000 		.word	VCP_fops
 25975 0040 00000000 		.word	cdcLen
 25976 0044 00000000 		.word	CmdBuff
 25977              		.cfi_endproc
 25978              	.LFE113:
 25980              		.section	.text.usbd_cdc_DataIn,"ax",%progbits
 25981              		.align	2
 25982              		.thumb
 25983              		.thumb_func
 25985              	usbd_cdc_DataIn:
 25986              	.LFB114:
 613:../inc/STM32_USB_Device_Library/Class/cdc/src/usbd_cdc_core.c **** 
 614:../inc/STM32_USB_Device_Library/Class/cdc/src/usbd_cdc_core.c **** /**
 615:../inc/STM32_USB_Device_Library/Class/cdc/src/usbd_cdc_core.c ****   * @brief  usbd_audio_DataIn
 616:../inc/STM32_USB_Device_Library/Class/cdc/src/usbd_cdc_core.c ****   *         Data sent on non-control IN endpoint
 617:../inc/STM32_USB_Device_Library/Class/cdc/src/usbd_cdc_core.c ****   * @param  pdev: device instance
 618:../inc/STM32_USB_Device_Library/Class/cdc/src/usbd_cdc_core.c ****   * @param  epnum: endpoint number
 619:../inc/STM32_USB_Device_Library/Class/cdc/src/usbd_cdc_core.c ****   * @retval status
 620:../inc/STM32_USB_Device_Library/Class/cdc/src/usbd_cdc_core.c ****   */
 621:../inc/STM32_USB_Device_Library/Class/cdc/src/usbd_cdc_core.c **** static uint8_t  usbd_cdc_DataIn (void *pdev, uint8_t epnum)
 622:../inc/STM32_USB_Device_Library/Class/cdc/src/usbd_cdc_core.c **** {
 25987              		.loc 1 622 0
 25988              		.cfi_startproc
 25989              		@ args = 0, pretend = 0, frame = 16
 25990              		@ frame_needed = 1, uses_anonymous_args = 0
 25991 0000 80B5     		push	{r7, lr}
 25992              	.LCFI12:
 25993              		.cfi_def_cfa_offset 8
 25994 0002 84B0     		sub	sp, sp, #16
 25995              	.LCFI13:
 25996              		.cfi_def_cfa_offset 24
 25997 0004 00AF     		add	r7, sp, #0
 25998              		.cfi_offset 14, -4
 25999              		.cfi_offset 7, -8
 26000              	.LCFI14:
 26001              		.cfi_def_cfa_register 7
 26002 0006 7860     		str	r0, [r7, #4]
 26003 0008 0B46     		mov	r3, r1
 26004 000a FB70     		strb	r3, [r7, #3]
 623:../inc/STM32_USB_Device_Library/Class/cdc/src/usbd_cdc_core.c ****   uint16_t USB_Tx_ptr;
 624:../inc/STM32_USB_Device_Library/Class/cdc/src/usbd_cdc_core.c ****   uint16_t USB_Tx_length;
 625:../inc/STM32_USB_Device_Library/Class/cdc/src/usbd_cdc_core.c **** 
 626:../inc/STM32_USB_Device_Library/Class/cdc/src/usbd_cdc_core.c ****   if (USB_Tx_State == 1)
 26005              		.loc 1 626 0
 26006 000c 2D4B     		ldr	r3, .L34
 26007 000e 1B78     		ldrb	r3, [r3, #0]	@ zero_extendqisi2
 26008 0010 012B     		cmp	r3, #1
 26009 0012 50D1     		bne	.L30
 627:../inc/STM32_USB_Device_Library/Class/cdc/src/usbd_cdc_core.c ****   {
 628:../inc/STM32_USB_Device_Library/Class/cdc/src/usbd_cdc_core.c ****     if (APP_Rx_length == 0) 
 26010              		.loc 1 628 0
 26011 0014 2C4B     		ldr	r3, .L34+4
 26012 0016 1B68     		ldr	r3, [r3, #0]
 26013 0018 002B     		cmp	r3, #0
 26014 001a 04D1     		bne	.L31
 629:../inc/STM32_USB_Device_Library/Class/cdc/src/usbd_cdc_core.c ****     {
 630:../inc/STM32_USB_Device_Library/Class/cdc/src/usbd_cdc_core.c ****       USB_Tx_State = 0;
 26015              		.loc 1 630 0
 26016 001c 294B     		ldr	r3, .L34
 26017 001e 4FF00002 		mov	r2, #0
 26018 0022 1A70     		strb	r2, [r3, #0]
 26019 0024 47E0     		b	.L30
 26020              	.L31:
 631:../inc/STM32_USB_Device_Library/Class/cdc/src/usbd_cdc_core.c ****     }
 632:../inc/STM32_USB_Device_Library/Class/cdc/src/usbd_cdc_core.c ****     else 
 633:../inc/STM32_USB_Device_Library/Class/cdc/src/usbd_cdc_core.c ****     {
 634:../inc/STM32_USB_Device_Library/Class/cdc/src/usbd_cdc_core.c ****       if (APP_Rx_length > CDC_DATA_IN_PACKET_SIZE){
 26021              		.loc 1 634 0
 26022 0026 7B68     		ldr	r3, [r7, #4]
 26023 0028 D3F8EC35 		ldr	r3, [r3, #1516]
 26024 002c 03F13903 		add	r3, r3, #57
 26025 0030 1B88     		ldrh	r3, [r3, #0]
 26026 0032 1A46     		mov	r2, r3
 26027 0034 244B     		ldr	r3, .L34+4
 26028 0036 1B68     		ldr	r3, [r3, #0]
 26029 0038 9A42     		cmp	r2, r3
 26030 003a 21D2     		bcs	.L32
 635:../inc/STM32_USB_Device_Library/Class/cdc/src/usbd_cdc_core.c ****         USB_Tx_ptr = APP_Rx_ptr_out;
 26031              		.loc 1 635 0
 26032 003c 234B     		ldr	r3, .L34+8
 26033 003e 1B68     		ldr	r3, [r3, #0]
 26034 0040 FB81     		strh	r3, [r7, #14]	@ movhi
 636:../inc/STM32_USB_Device_Library/Class/cdc/src/usbd_cdc_core.c ****         USB_Tx_length = CDC_DATA_IN_PACKET_SIZE;
 26035              		.loc 1 636 0
 26036 0042 7B68     		ldr	r3, [r7, #4]
 26037 0044 D3F8EC35 		ldr	r3, [r3, #1516]
 26038 0048 03F13903 		add	r3, r3, #57
 26039 004c 1B88     		ldrh	r3, [r3, #0]	@ movhi
 26040 004e BB81     		strh	r3, [r7, #12]	@ movhi
 637:../inc/STM32_USB_Device_Library/Class/cdc/src/usbd_cdc_core.c ****         
 638:../inc/STM32_USB_Device_Library/Class/cdc/src/usbd_cdc_core.c ****         APP_Rx_ptr_out += CDC_DATA_IN_PACKET_SIZE;
 26041              		.loc 1 638 0
 26042 0050 7B68     		ldr	r3, [r7, #4]
 26043 0052 D3F8EC35 		ldr	r3, [r3, #1516]
 26044 0056 03F13903 		add	r3, r3, #57
 26045 005a 1B88     		ldrh	r3, [r3, #0]
 26046 005c 1A46     		mov	r2, r3
 26047 005e 1B4B     		ldr	r3, .L34+8
 26048 0060 1B68     		ldr	r3, [r3, #0]
 26049 0062 D218     		adds	r2, r2, r3
 26050 0064 194B     		ldr	r3, .L34+8
 26051 0066 1A60     		str	r2, [r3, #0]
 639:../inc/STM32_USB_Device_Library/Class/cdc/src/usbd_cdc_core.c ****         APP_Rx_length -= CDC_DATA_IN_PACKET_SIZE;    
 26052              		.loc 1 639 0
 26053 0068 174B     		ldr	r3, .L34+4
 26054 006a 1A68     		ldr	r2, [r3, #0]
 26055 006c 7B68     		ldr	r3, [r7, #4]
 26056 006e D3F8EC35 		ldr	r3, [r3, #1516]
 26057 0072 03F13903 		add	r3, r3, #57
 26058 0076 1B88     		ldrh	r3, [r3, #0]
 26059 0078 D21A     		subs	r2, r2, r3
 26060 007a 134B     		ldr	r3, .L34+4
 26061 007c 1A60     		str	r2, [r3, #0]
 26062 007e 10E0     		b	.L33
 26063              	.L32:
 640:../inc/STM32_USB_Device_Library/Class/cdc/src/usbd_cdc_core.c ****       }
 641:../inc/STM32_USB_Device_Library/Class/cdc/src/usbd_cdc_core.c ****       else 
 642:../inc/STM32_USB_Device_Library/Class/cdc/src/usbd_cdc_core.c ****       {
 643:../inc/STM32_USB_Device_Library/Class/cdc/src/usbd_cdc_core.c ****         USB_Tx_ptr = APP_Rx_ptr_out;
 26064              		.loc 1 643 0
 26065 0080 124B     		ldr	r3, .L34+8
 26066 0082 1B68     		ldr	r3, [r3, #0]
 26067 0084 FB81     		strh	r3, [r7, #14]	@ movhi
 644:../inc/STM32_USB_Device_Library/Class/cdc/src/usbd_cdc_core.c ****         USB_Tx_length = APP_Rx_length;
 26068              		.loc 1 644 0
 26069 0086 104B     		ldr	r3, .L34+4
 26070 0088 1B68     		ldr	r3, [r3, #0]
 26071 008a BB81     		strh	r3, [r7, #12]	@ movhi
 645:../inc/STM32_USB_Device_Library/Class/cdc/src/usbd_cdc_core.c ****         
 646:../inc/STM32_USB_Device_Library/Class/cdc/src/usbd_cdc_core.c ****         APP_Rx_ptr_out += APP_Rx_length;
 26072              		.loc 1 646 0
 26073 008c 0F4B     		ldr	r3, .L34+8
 26074 008e 1A68     		ldr	r2, [r3, #0]
 26075 0090 0D4B     		ldr	r3, .L34+4
 26076 0092 1B68     		ldr	r3, [r3, #0]
 26077 0094 D218     		adds	r2, r2, r3
 26078 0096 0D4B     		ldr	r3, .L34+8
 26079 0098 1A60     		str	r2, [r3, #0]
 647:../inc/STM32_USB_Device_Library/Class/cdc/src/usbd_cdc_core.c ****         APP_Rx_length = 0;
 26080              		.loc 1 647 0
 26081 009a 0B4B     		ldr	r3, .L34+4
 26082 009c 4FF00002 		mov	r2, #0
 26083 00a0 1A60     		str	r2, [r3, #0]
 26084              	.L33:
 648:../inc/STM32_USB_Device_Library/Class/cdc/src/usbd_cdc_core.c ****       }
 649:../inc/STM32_USB_Device_Library/Class/cdc/src/usbd_cdc_core.c ****       
 650:../inc/STM32_USB_Device_Library/Class/cdc/src/usbd_cdc_core.c ****       /* Prepare the available data buffer to be sent on IN endpoint */
 651:../inc/STM32_USB_Device_Library/Class/cdc/src/usbd_cdc_core.c ****       DCD_EP_Tx (pdev,
 26085              		.loc 1 651 0
 26086 00a2 7968     		ldr	r1, [r7, #4]
 26087 00a4 FA89     		ldrh	r2, [r7, #14]
 26088 00a6 0A4B     		ldr	r3, .L34+12
 26089 00a8 D218     		adds	r2, r2, r3
 26090 00aa BB89     		ldrh	r3, [r7, #12]
 26091 00ac 0846     		mov	r0, r1
 26092 00ae 4FF08101 		mov	r1, #129
 26093 00b2 FFF7FEFF 		bl	DCD_EP_Tx
 26094              	.L30:
 652:../inc/STM32_USB_Device_Library/Class/cdc/src/usbd_cdc_core.c ****                  CDC_IN_EP,
 653:../inc/STM32_USB_Device_Library/Class/cdc/src/usbd_cdc_core.c ****                  (uint8_t*)&APP_Rx_Buffer[USB_Tx_ptr],
 654:../inc/STM32_USB_Device_Library/Class/cdc/src/usbd_cdc_core.c ****                  USB_Tx_length);
 655:../inc/STM32_USB_Device_Library/Class/cdc/src/usbd_cdc_core.c ****     }
 656:../inc/STM32_USB_Device_Library/Class/cdc/src/usbd_cdc_core.c ****   }  
 657:../inc/STM32_USB_Device_Library/Class/cdc/src/usbd_cdc_core.c ****   
 658:../inc/STM32_USB_Device_Library/Class/cdc/src/usbd_cdc_core.c ****   return USBD_OK;
 26095              		.loc 1 658 0
 26096 00b6 4FF00003 		mov	r3, #0
 659:../inc/STM32_USB_Device_Library/Class/cdc/src/usbd_cdc_core.c **** }
 26097              		.loc 1 659 0
 26098 00ba 1846     		mov	r0, r3
 26099 00bc 07F11007 		add	r7, r7, #16
 26100 00c0 BD46     		mov	sp, r7
 26101 00c2 80BD     		pop	{r7, pc}
 26102              	.L35:
 26103              		.align	2
 26104              	.L34:
 26105 00c4 00000000 		.word	USB_Tx_State
 26106 00c8 00000000 		.word	APP_Rx_length
 26107 00cc 00000000 		.word	APP_Rx_ptr_out
 26108 00d0 00000000 		.word	APP_Rx_Buffer
 26109              		.cfi_endproc
 26110              	.LFE114:
 26112              		.section	.text.usbd_cdc_DataOut,"ax",%progbits
 26113              		.align	2
 26114              		.thumb
 26115              		.thumb_func
 26117              	usbd_cdc_DataOut:
 26118              	.LFB115:
 660:../inc/STM32_USB_Device_Library/Class/cdc/src/usbd_cdc_core.c **** 
 661:../inc/STM32_USB_Device_Library/Class/cdc/src/usbd_cdc_core.c **** /**
 662:../inc/STM32_USB_Device_Library/Class/cdc/src/usbd_cdc_core.c ****   * @brief  usbd_audio_DataOut
 663:../inc/STM32_USB_Device_Library/Class/cdc/src/usbd_cdc_core.c ****   *         Data received on non-control Out endpoint
 664:../inc/STM32_USB_Device_Library/Class/cdc/src/usbd_cdc_core.c ****   * @param  pdev: device instance
 665:../inc/STM32_USB_Device_Library/Class/cdc/src/usbd_cdc_core.c ****   * @param  epnum: endpoint number
 666:../inc/STM32_USB_Device_Library/Class/cdc/src/usbd_cdc_core.c ****   * @retval status
 667:../inc/STM32_USB_Device_Library/Class/cdc/src/usbd_cdc_core.c ****   */
 668:../inc/STM32_USB_Device_Library/Class/cdc/src/usbd_cdc_core.c **** static uint8_t  usbd_cdc_DataOut (void *pdev, uint8_t epnum)
 669:../inc/STM32_USB_Device_Library/Class/cdc/src/usbd_cdc_core.c **** {      
 26119              		.loc 1 669 0
 26120              		.cfi_startproc
 26121              		@ args = 0, pretend = 0, frame = 16
 26122              		@ frame_needed = 1, uses_anonymous_args = 0
 26123 0000 80B5     		push	{r7, lr}
 26124              	.LCFI15:
 26125              		.cfi_def_cfa_offset 8
 26126 0002 84B0     		sub	sp, sp, #16
 26127              	.LCFI16:
 26128              		.cfi_def_cfa_offset 24
 26129 0004 00AF     		add	r7, sp, #0
 26130              		.cfi_offset 14, -4
 26131              		.cfi_offset 7, -8
 26132              	.LCFI17:
 26133              		.cfi_def_cfa_register 7
 26134 0006 7860     		str	r0, [r7, #4]
 26135 0008 0B46     		mov	r3, r1
 26136 000a FB70     		strb	r3, [r7, #3]
 670:../inc/STM32_USB_Device_Library/Class/cdc/src/usbd_cdc_core.c ****   uint16_t USB_Rx_Cnt;
 671:../inc/STM32_USB_Device_Library/Class/cdc/src/usbd_cdc_core.c ****   
 672:../inc/STM32_USB_Device_Library/Class/cdc/src/usbd_cdc_core.c ****   /* Get the received data buffer and update the counter */
 673:../inc/STM32_USB_Device_Library/Class/cdc/src/usbd_cdc_core.c ****   USB_Rx_Cnt = ((USB_OTG_CORE_HANDLE*)pdev)->dev.out_ep[epnum].xfer_count;
 26137              		.loc 1 673 0
 26138 000c 7968     		ldr	r1, [r7, #4]
 26139 000e FA78     		ldrb	r2, [r7, #3]	@ zero_extendqisi2
 26140 0010 1346     		mov	r3, r2
 26141 0012 4FEA8303 		lsl	r3, r3, #2
 26142 0016 9B18     		adds	r3, r3, r2
 26143 0018 4FEAC303 		lsl	r3, r3, #3
 26144 001c CB18     		adds	r3, r1, r3
 26145 001e 03F56273 		add	r3, r3, #904
 26146 0022 1B68     		ldr	r3, [r3, #0]
 26147 0024 FB81     		strh	r3, [r7, #14]	@ movhi
 674:../inc/STM32_USB_Device_Library/Class/cdc/src/usbd_cdc_core.c ****   
 675:../inc/STM32_USB_Device_Library/Class/cdc/src/usbd_cdc_core.c ****   /* USB data will be immediately processed, this allow next USB traffic being 
 676:../inc/STM32_USB_Device_Library/Class/cdc/src/usbd_cdc_core.c ****      NAKed till the end of the application Xfer */
 677:../inc/STM32_USB_Device_Library/Class/cdc/src/usbd_cdc_core.c ****   APP_FOPS.pIf_DataRx(USB_Rx_Buffer, USB_Rx_Cnt);
 26148              		.loc 1 677 0
 26149 0026 0D4B     		ldr	r3, .L37
 26150 0028 1B69     		ldr	r3, [r3, #16]
 26151 002a FA89     		ldrh	r2, [r7, #14]
 26152 002c 0C48     		ldr	r0, .L37+4
 26153 002e 1146     		mov	r1, r2
 26154 0030 9847     		blx	r3
 678:../inc/STM32_USB_Device_Library/Class/cdc/src/usbd_cdc_core.c ****   
 679:../inc/STM32_USB_Device_Library/Class/cdc/src/usbd_cdc_core.c ****   /* Prepare Out endpoint to receive next packet */
 680:../inc/STM32_USB_Device_Library/Class/cdc/src/usbd_cdc_core.c ****   DCD_EP_PrepareRx(pdev,
 26155              		.loc 1 680 0
 26156 0032 7A68     		ldr	r2, [r7, #4]
 681:../inc/STM32_USB_Device_Library/Class/cdc/src/usbd_cdc_core.c ****                    CDC_OUT_EP,
 682:../inc/STM32_USB_Device_Library/Class/cdc/src/usbd_cdc_core.c ****                    (uint8_t*)(USB_Rx_Buffer),
 683:../inc/STM32_USB_Device_Library/Class/cdc/src/usbd_cdc_core.c ****                    CDC_DATA_OUT_PACKET_SIZE);
 26157              		.loc 1 683 0
 26158 0034 7B68     		ldr	r3, [r7, #4]
 26159 0036 D3F8EC35 		ldr	r3, [r3, #1516]
 26160 003a 03F14003 		add	r3, r3, #64
 680:../inc/STM32_USB_Device_Library/Class/cdc/src/usbd_cdc_core.c ****   DCD_EP_PrepareRx(pdev,
 26161              		.loc 1 680 0
 26162 003e 1B88     		ldrh	r3, [r3, #0]
 26163 0040 1046     		mov	r0, r2
 26164 0042 4FF00101 		mov	r1, #1
 26165 0046 064A     		ldr	r2, .L37+4
 26166 0048 FFF7FEFF 		bl	DCD_EP_PrepareRx
 684:../inc/STM32_USB_Device_Library/Class/cdc/src/usbd_cdc_core.c **** 
 685:../inc/STM32_USB_Device_Library/Class/cdc/src/usbd_cdc_core.c ****   return USBD_OK;
 26167              		.loc 1 685 0
 26168 004c 4FF00003 		mov	r3, #0
 686:../inc/STM32_USB_Device_Library/Class/cdc/src/usbd_cdc_core.c **** }
 26169              		.loc 1 686 0
 26170 0050 1846     		mov	r0, r3
 26171 0052 07F11007 		add	r7, r7, #16
 26172 0056 BD46     		mov	sp, r7
 26173 0058 80BD     		pop	{r7, pc}
 26174              	.L38:
 26175 005a 00BF     		.align	2
 26176              	.L37:
 26177 005c 00000000 		.word	VCP_fops
 26178 0060 00000000 		.word	USB_Rx_Buffer
 26179              		.cfi_endproc
 26180              	.LFE115:
 26182              		.section	.text.usbd_cdc_SOF,"ax",%progbits
 26183              		.align	2
 26184              		.thumb
 26185              		.thumb_func
 26187              	usbd_cdc_SOF:
 26188              	.LFB116:
 687:../inc/STM32_USB_Device_Library/Class/cdc/src/usbd_cdc_core.c **** 
 688:../inc/STM32_USB_Device_Library/Class/cdc/src/usbd_cdc_core.c **** /**
 689:../inc/STM32_USB_Device_Library/Class/cdc/src/usbd_cdc_core.c ****   * @brief  usbd_audio_SOF
 690:../inc/STM32_USB_Device_Library/Class/cdc/src/usbd_cdc_core.c ****   *         Start Of Frame event management
 691:../inc/STM32_USB_Device_Library/Class/cdc/src/usbd_cdc_core.c ****   * @param  pdev: instance
 692:../inc/STM32_USB_Device_Library/Class/cdc/src/usbd_cdc_core.c ****   * @param  epnum: endpoint number
 693:../inc/STM32_USB_Device_Library/Class/cdc/src/usbd_cdc_core.c ****   * @retval status
 694:../inc/STM32_USB_Device_Library/Class/cdc/src/usbd_cdc_core.c ****   */
 695:../inc/STM32_USB_Device_Library/Class/cdc/src/usbd_cdc_core.c **** static uint8_t  usbd_cdc_SOF (void *pdev)
 696:../inc/STM32_USB_Device_Library/Class/cdc/src/usbd_cdc_core.c **** {      
 26189              		.loc 1 696 0
 26190              		.cfi_startproc
 26191              		@ args = 0, pretend = 0, frame = 8
 26192              		@ frame_needed = 1, uses_anonymous_args = 0
 26193 0000 80B5     		push	{r7, lr}
 26194              	.LCFI18:
 26195              		.cfi_def_cfa_offset 8
 26196 0002 82B0     		sub	sp, sp, #8
 26197              	.LCFI19:
 26198              		.cfi_def_cfa_offset 16
 26199 0004 00AF     		add	r7, sp, #0
 26200              		.cfi_offset 14, -4
 26201              		.cfi_offset 7, -8
 26202              	.LCFI20:
 26203              		.cfi_def_cfa_register 7
 26204 0006 7860     		str	r0, [r7, #4]
 697:../inc/STM32_USB_Device_Library/Class/cdc/src/usbd_cdc_core.c ****   static uint32_t FrameCount = 0;
 698:../inc/STM32_USB_Device_Library/Class/cdc/src/usbd_cdc_core.c ****   
 699:../inc/STM32_USB_Device_Library/Class/cdc/src/usbd_cdc_core.c ****   if (FrameCount++ == CDC_IN_FRAME_INTERVAL)
 26205              		.loc 1 699 0
 26206 0008 0D4B     		ldr	r3, .L41
 26207 000a 1B68     		ldr	r3, [r3, #0]
 26208 000c 052B     		cmp	r3, #5
 26209 000e 14BF     		ite	ne
 26210 0010 0022     		movne	r2, #0
 26211 0012 0122     		moveq	r2, #1
 26212 0014 D2B2     		uxtb	r2, r2
 26213 0016 03F10101 		add	r1, r3, #1
 26214 001a 094B     		ldr	r3, .L41
 26215 001c 1960     		str	r1, [r3, #0]
 26216 001e 002A     		cmp	r2, #0
 26217 0020 06D0     		beq	.L40
 700:../inc/STM32_USB_Device_Library/Class/cdc/src/usbd_cdc_core.c ****   {
 701:../inc/STM32_USB_Device_Library/Class/cdc/src/usbd_cdc_core.c ****     /* Reset the frame counter */
 702:../inc/STM32_USB_Device_Library/Class/cdc/src/usbd_cdc_core.c ****     FrameCount = 0;
 26218              		.loc 1 702 0
 26219 0022 074B     		ldr	r3, .L41
 26220 0024 4FF00002 		mov	r2, #0
 26221 0028 1A60     		str	r2, [r3, #0]
 703:../inc/STM32_USB_Device_Library/Class/cdc/src/usbd_cdc_core.c ****     
 704:../inc/STM32_USB_Device_Library/Class/cdc/src/usbd_cdc_core.c ****     /* Check the data to be sent through IN pipe */
 705:../inc/STM32_USB_Device_Library/Class/cdc/src/usbd_cdc_core.c ****     Handle_USBAsynchXfer(pdev);
 26222              		.loc 1 705 0
 26223 002a 7868     		ldr	r0, [r7, #4]
 26224 002c FFF7FEFF 		bl	Handle_USBAsynchXfer
 26225              	.L40:
 706:../inc/STM32_USB_Device_Library/Class/cdc/src/usbd_cdc_core.c ****   }
 707:../inc/STM32_USB_Device_Library/Class/cdc/src/usbd_cdc_core.c ****   
 708:../inc/STM32_USB_Device_Library/Class/cdc/src/usbd_cdc_core.c ****   return USBD_OK;
 26226              		.loc 1 708 0
 26227 0030 4FF00003 		mov	r3, #0
 709:../inc/STM32_USB_Device_Library/Class/cdc/src/usbd_cdc_core.c **** }
 26228              		.loc 1 709 0
 26229 0034 1846     		mov	r0, r3
 26230 0036 07F10807 		add	r7, r7, #8
 26231 003a BD46     		mov	sp, r7
 26232 003c 80BD     		pop	{r7, pc}
 26233              	.L42:
 26234 003e 00BF     		.align	2
 26235              	.L41:
 26236 0040 00000000 		.word	FrameCount.8202
 26237              		.cfi_endproc
 26238              	.LFE116:
 26240              		.section	.text.Handle_USBAsynchXfer,"ax",%progbits
 26241              		.align	2
 26242              		.thumb
 26243              		.thumb_func
 26245              	Handle_USBAsynchXfer:
 26246              	.LFB117:
 710:../inc/STM32_USB_Device_Library/Class/cdc/src/usbd_cdc_core.c **** 
 711:../inc/STM32_USB_Device_Library/Class/cdc/src/usbd_cdc_core.c **** /**
 712:../inc/STM32_USB_Device_Library/Class/cdc/src/usbd_cdc_core.c ****   * @brief  Handle_USBAsynchXfer
 713:../inc/STM32_USB_Device_Library/Class/cdc/src/usbd_cdc_core.c ****   *         Send data to USB
 714:../inc/STM32_USB_Device_Library/Class/cdc/src/usbd_cdc_core.c ****   * @param  pdev: instance
 715:../inc/STM32_USB_Device_Library/Class/cdc/src/usbd_cdc_core.c ****   * @retval None
 716:../inc/STM32_USB_Device_Library/Class/cdc/src/usbd_cdc_core.c ****   */
 717:../inc/STM32_USB_Device_Library/Class/cdc/src/usbd_cdc_core.c **** static void Handle_USBAsynchXfer (void *pdev)
 718:../inc/STM32_USB_Device_Library/Class/cdc/src/usbd_cdc_core.c **** {
 26247              		.loc 1 718 0
 26248              		.cfi_startproc
 26249              		@ args = 0, pretend = 0, frame = 16
 26250              		@ frame_needed = 1, uses_anonymous_args = 0
 26251 0000 80B5     		push	{r7, lr}
 26252              	.LCFI21:
 26253              		.cfi_def_cfa_offset 8
 26254 0002 84B0     		sub	sp, sp, #16
 26255              	.LCFI22:
 26256              		.cfi_def_cfa_offset 24
 26257 0004 00AF     		add	r7, sp, #0
 26258              		.cfi_offset 14, -4
 26259              		.cfi_offset 7, -8
 26260              	.LCFI23:
 26261              		.cfi_def_cfa_register 7
 26262 0006 7860     		str	r0, [r7, #4]
 719:../inc/STM32_USB_Device_Library/Class/cdc/src/usbd_cdc_core.c ****   uint16_t USB_Tx_ptr;
 720:../inc/STM32_USB_Device_Library/Class/cdc/src/usbd_cdc_core.c ****   uint16_t USB_Tx_length;
 721:../inc/STM32_USB_Device_Library/Class/cdc/src/usbd_cdc_core.c ****   
 722:../inc/STM32_USB_Device_Library/Class/cdc/src/usbd_cdc_core.c ****   if(USB_Tx_State != 1)
 26263              		.loc 1 722 0
 26264 0008 3D4B     		ldr	r3, .L51
 26265 000a 1B78     		ldrb	r3, [r3, #0]	@ zero_extendqisi2
 26266 000c 012B     		cmp	r3, #1
 26267 000e 73D0     		beq	.L43
 723:../inc/STM32_USB_Device_Library/Class/cdc/src/usbd_cdc_core.c ****   {
 724:../inc/STM32_USB_Device_Library/Class/cdc/src/usbd_cdc_core.c ****     if (APP_Rx_ptr_out == APP_RX_DATA_SIZE)
 26268              		.loc 1 724 0
 26269 0010 3C4B     		ldr	r3, .L51+4
 26270 0012 1B68     		ldr	r3, [r3, #0]
 26271 0014 B3F5006F 		cmp	r3, #2048
 26272 0018 03D1     		bne	.L45
 725:../inc/STM32_USB_Device_Library/Class/cdc/src/usbd_cdc_core.c ****     {
 726:../inc/STM32_USB_Device_Library/Class/cdc/src/usbd_cdc_core.c ****       APP_Rx_ptr_out = 0;
 26273              		.loc 1 726 0
 26274 001a 3A4B     		ldr	r3, .L51+4
 26275 001c 4FF00002 		mov	r2, #0
 26276 0020 1A60     		str	r2, [r3, #0]
 26277              	.L45:
 727:../inc/STM32_USB_Device_Library/Class/cdc/src/usbd_cdc_core.c ****     }
 728:../inc/STM32_USB_Device_Library/Class/cdc/src/usbd_cdc_core.c ****     
 729:../inc/STM32_USB_Device_Library/Class/cdc/src/usbd_cdc_core.c ****     if(APP_Rx_ptr_out == APP_Rx_ptr_in) 
 26278              		.loc 1 729 0
 26279 0022 384B     		ldr	r3, .L51+4
 26280 0024 1A68     		ldr	r2, [r3, #0]
 26281 0026 384B     		ldr	r3, .L51+8
 26282 0028 1B68     		ldr	r3, [r3, #0]
 26283 002a 9A42     		cmp	r2, r3
 26284 002c 04D1     		bne	.L46
 730:../inc/STM32_USB_Device_Library/Class/cdc/src/usbd_cdc_core.c ****     {
 731:../inc/STM32_USB_Device_Library/Class/cdc/src/usbd_cdc_core.c ****       USB_Tx_State = 0; 
 26285              		.loc 1 731 0
 26286 002e 344B     		ldr	r3, .L51
 26287 0030 4FF00002 		mov	r2, #0
 26288 0034 1A70     		strb	r2, [r3, #0]
 732:../inc/STM32_USB_Device_Library/Class/cdc/src/usbd_cdc_core.c ****       return;
 26289              		.loc 1 732 0
 26290 0036 5FE0     		b	.L43
 26291              	.L46:
 733:../inc/STM32_USB_Device_Library/Class/cdc/src/usbd_cdc_core.c ****     }
 734:../inc/STM32_USB_Device_Library/Class/cdc/src/usbd_cdc_core.c ****     
 735:../inc/STM32_USB_Device_Library/Class/cdc/src/usbd_cdc_core.c ****     if(APP_Rx_ptr_out > APP_Rx_ptr_in) /* rollback */
 26292              		.loc 1 735 0
 26293 0038 324B     		ldr	r3, .L51+4
 26294 003a 1A68     		ldr	r2, [r3, #0]
 26295 003c 324B     		ldr	r3, .L51+8
 26296 003e 1B68     		ldr	r3, [r3, #0]
 26297 0040 9A42     		cmp	r2, r3
 26298 0042 06D9     		bls	.L47
 736:../inc/STM32_USB_Device_Library/Class/cdc/src/usbd_cdc_core.c ****     { 
 737:../inc/STM32_USB_Device_Library/Class/cdc/src/usbd_cdc_core.c ****       APP_Rx_length = APP_RX_DATA_SIZE - APP_Rx_ptr_out;
 26299              		.loc 1 737 0
 26300 0044 2F4B     		ldr	r3, .L51+4
 26301 0046 1B68     		ldr	r3, [r3, #0]
 26302 0048 C3F50062 		rsb	r2, r3, #2048
 26303 004c 2F4B     		ldr	r3, .L51+12
 26304 004e 1A60     		str	r2, [r3, #0]
 26305 0050 06E0     		b	.L48
 26306              	.L47:
 738:../inc/STM32_USB_Device_Library/Class/cdc/src/usbd_cdc_core.c ****     
 739:../inc/STM32_USB_Device_Library/Class/cdc/src/usbd_cdc_core.c ****     }
 740:../inc/STM32_USB_Device_Library/Class/cdc/src/usbd_cdc_core.c ****     else 
 741:../inc/STM32_USB_Device_Library/Class/cdc/src/usbd_cdc_core.c ****     {
 742:../inc/STM32_USB_Device_Library/Class/cdc/src/usbd_cdc_core.c ****       APP_Rx_length = APP_Rx_ptr_in - APP_Rx_ptr_out;
 26307              		.loc 1 742 0
 26308 0052 2D4B     		ldr	r3, .L51+8
 26309 0054 1A68     		ldr	r2, [r3, #0]
 26310 0056 2B4B     		ldr	r3, .L51+4
 26311 0058 1B68     		ldr	r3, [r3, #0]
 26312 005a D21A     		subs	r2, r2, r3
 26313 005c 2B4B     		ldr	r3, .L51+12
 26314 005e 1A60     		str	r2, [r3, #0]
 26315              	.L48:
 743:../inc/STM32_USB_Device_Library/Class/cdc/src/usbd_cdc_core.c ****      
 744:../inc/STM32_USB_Device_Library/Class/cdc/src/usbd_cdc_core.c ****     }
 745:../inc/STM32_USB_Device_Library/Class/cdc/src/usbd_cdc_core.c **** #ifdef USB_OTG_HS_INTERNAL_DMA_ENABLED
 746:../inc/STM32_USB_Device_Library/Class/cdc/src/usbd_cdc_core.c ****      APP_Rx_length &= ~0x03;
 747:../inc/STM32_USB_Device_Library/Class/cdc/src/usbd_cdc_core.c **** #endif /* USB_OTG_HS_INTERNAL_DMA_ENABLED */
 748:../inc/STM32_USB_Device_Library/Class/cdc/src/usbd_cdc_core.c ****     
 749:../inc/STM32_USB_Device_Library/Class/cdc/src/usbd_cdc_core.c ****     if (APP_Rx_length > CDC_DATA_IN_PACKET_SIZE)
 26316              		.loc 1 749 0
 26317 0060 7B68     		ldr	r3, [r7, #4]
 26318 0062 D3F8EC35 		ldr	r3, [r3, #1516]
 26319 0066 03F13903 		add	r3, r3, #57
 26320 006a 1B88     		ldrh	r3, [r3, #0]
 26321 006c 1A46     		mov	r2, r3
 26322 006e 274B     		ldr	r3, .L51+12
 26323 0070 1B68     		ldr	r3, [r3, #0]
 26324 0072 9A42     		cmp	r2, r3
 26325 0074 21D2     		bcs	.L49
 750:../inc/STM32_USB_Device_Library/Class/cdc/src/usbd_cdc_core.c ****     {
 751:../inc/STM32_USB_Device_Library/Class/cdc/src/usbd_cdc_core.c ****       USB_Tx_ptr = APP_Rx_ptr_out;
 26326              		.loc 1 751 0
 26327 0076 234B     		ldr	r3, .L51+4
 26328 0078 1B68     		ldr	r3, [r3, #0]
 26329 007a FB81     		strh	r3, [r7, #14]	@ movhi
 752:../inc/STM32_USB_Device_Library/Class/cdc/src/usbd_cdc_core.c ****       USB_Tx_length = CDC_DATA_IN_PACKET_SIZE;
 26330              		.loc 1 752 0
 26331 007c 7B68     		ldr	r3, [r7, #4]
 26332 007e D3F8EC35 		ldr	r3, [r3, #1516]
 26333 0082 03F13903 		add	r3, r3, #57
 26334 0086 1B88     		ldrh	r3, [r3, #0]	@ movhi
 26335 0088 BB81     		strh	r3, [r7, #12]	@ movhi
 753:../inc/STM32_USB_Device_Library/Class/cdc/src/usbd_cdc_core.c ****       
 754:../inc/STM32_USB_Device_Library/Class/cdc/src/usbd_cdc_core.c ****       APP_Rx_ptr_out += CDC_DATA_IN_PACKET_SIZE;	
 26336              		.loc 1 754 0
 26337 008a 7B68     		ldr	r3, [r7, #4]
 26338 008c D3F8EC35 		ldr	r3, [r3, #1516]
 26339 0090 03F13903 		add	r3, r3, #57
 26340 0094 1B88     		ldrh	r3, [r3, #0]
 26341 0096 1A46     		mov	r2, r3
 26342 0098 1A4B     		ldr	r3, .L51+4
 26343 009a 1B68     		ldr	r3, [r3, #0]
 26344 009c D218     		adds	r2, r2, r3
 26345 009e 194B     		ldr	r3, .L51+4
 26346 00a0 1A60     		str	r2, [r3, #0]
 755:../inc/STM32_USB_Device_Library/Class/cdc/src/usbd_cdc_core.c ****       APP_Rx_length -= CDC_DATA_IN_PACKET_SIZE;
 26347              		.loc 1 755 0
 26348 00a2 1A4B     		ldr	r3, .L51+12
 26349 00a4 1A68     		ldr	r2, [r3, #0]
 26350 00a6 7B68     		ldr	r3, [r7, #4]
 26351 00a8 D3F8EC35 		ldr	r3, [r3, #1516]
 26352 00ac 03F13903 		add	r3, r3, #57
 26353 00b0 1B88     		ldrh	r3, [r3, #0]
 26354 00b2 D21A     		subs	r2, r2, r3
 26355 00b4 154B     		ldr	r3, .L51+12
 26356 00b6 1A60     		str	r2, [r3, #0]
 26357 00b8 10E0     		b	.L50
 26358              	.L49:
 756:../inc/STM32_USB_Device_Library/Class/cdc/src/usbd_cdc_core.c ****     }
 757:../inc/STM32_USB_Device_Library/Class/cdc/src/usbd_cdc_core.c ****     else
 758:../inc/STM32_USB_Device_Library/Class/cdc/src/usbd_cdc_core.c ****     {
 759:../inc/STM32_USB_Device_Library/Class/cdc/src/usbd_cdc_core.c ****       USB_Tx_ptr = APP_Rx_ptr_out;
 26359              		.loc 1 759 0
 26360 00ba 124B     		ldr	r3, .L51+4
 26361 00bc 1B68     		ldr	r3, [r3, #0]
 26362 00be FB81     		strh	r3, [r7, #14]	@ movhi
 760:../inc/STM32_USB_Device_Library/Class/cdc/src/usbd_cdc_core.c ****       USB_Tx_length = APP_Rx_length;
 26363              		.loc 1 760 0
 26364 00c0 124B     		ldr	r3, .L51+12
 26365 00c2 1B68     		ldr	r3, [r3, #0]
 26366 00c4 BB81     		strh	r3, [r7, #12]	@ movhi
 761:../inc/STM32_USB_Device_Library/Class/cdc/src/usbd_cdc_core.c ****       
 762:../inc/STM32_USB_Device_Library/Class/cdc/src/usbd_cdc_core.c ****       APP_Rx_ptr_out += APP_Rx_length;
 26367              		.loc 1 762 0
 26368 00c6 0F4B     		ldr	r3, .L51+4
 26369 00c8 1A68     		ldr	r2, [r3, #0]
 26370 00ca 104B     		ldr	r3, .L51+12
 26371 00cc 1B68     		ldr	r3, [r3, #0]
 26372 00ce D218     		adds	r2, r2, r3
 26373 00d0 0C4B     		ldr	r3, .L51+4
 26374 00d2 1A60     		str	r2, [r3, #0]
 763:../inc/STM32_USB_Device_Library/Class/cdc/src/usbd_cdc_core.c ****       APP_Rx_length = 0;
 26375              		.loc 1 763 0
 26376 00d4 0D4B     		ldr	r3, .L51+12
 26377 00d6 4FF00002 		mov	r2, #0
 26378 00da 1A60     		str	r2, [r3, #0]
 26379              	.L50:
 764:../inc/STM32_USB_Device_Library/Class/cdc/src/usbd_cdc_core.c ****     }
 765:../inc/STM32_USB_Device_Library/Class/cdc/src/usbd_cdc_core.c ****     USB_Tx_State = 1; 
 26380              		.loc 1 765 0
 26381 00dc 084B     		ldr	r3, .L51
 26382 00de 4FF00102 		mov	r2, #1
 26383 00e2 1A70     		strb	r2, [r3, #0]
 766:../inc/STM32_USB_Device_Library/Class/cdc/src/usbd_cdc_core.c **** 
 767:../inc/STM32_USB_Device_Library/Class/cdc/src/usbd_cdc_core.c ****     DCD_EP_Tx (pdev,
 26384              		.loc 1 767 0
 26385 00e4 7968     		ldr	r1, [r7, #4]
 26386 00e6 FA89     		ldrh	r2, [r7, #14]
 26387 00e8 094B     		ldr	r3, .L51+16
 26388 00ea D218     		adds	r2, r2, r3
 26389 00ec BB89     		ldrh	r3, [r7, #12]
 26390 00ee 0846     		mov	r0, r1
 26391 00f0 4FF08101 		mov	r1, #129
 26392 00f4 FFF7FEFF 		bl	DCD_EP_Tx
 26393              	.L43:
 768:../inc/STM32_USB_Device_Library/Class/cdc/src/usbd_cdc_core.c ****                CDC_IN_EP,
 769:../inc/STM32_USB_Device_Library/Class/cdc/src/usbd_cdc_core.c ****                (uint8_t*)&APP_Rx_Buffer[USB_Tx_ptr],
 770:../inc/STM32_USB_Device_Library/Class/cdc/src/usbd_cdc_core.c ****                USB_Tx_length);
 771:../inc/STM32_USB_Device_Library/Class/cdc/src/usbd_cdc_core.c ****   }  
 772:../inc/STM32_USB_Device_Library/Class/cdc/src/usbd_cdc_core.c ****   
 773:../inc/STM32_USB_Device_Library/Class/cdc/src/usbd_cdc_core.c **** }
 26394              		.loc 1 773 0
 26395 00f8 07F11007 		add	r7, r7, #16
 26396 00fc BD46     		mov	sp, r7
 26397 00fe 80BD     		pop	{r7, pc}
 26398              	.L52:
 26399              		.align	2
 26400              	.L51:
 26401 0100 00000000 		.word	USB_Tx_State
 26402 0104 00000000 		.word	APP_Rx_ptr_out
 26403 0108 00000000 		.word	APP_Rx_ptr_in
 26404 010c 00000000 		.word	APP_Rx_length
 26405 0110 00000000 		.word	APP_Rx_Buffer
 26406              		.cfi_endproc
 26407              	.LFE117:
 26409              		.section	.text.USBD_cdc_GetCfgDesc,"ax",%progbits
 26410              		.align	2
 26411              		.thumb
 26412              		.thumb_func
 26414              	USBD_cdc_GetCfgDesc:
 26415              	.LFB118:
 774:../inc/STM32_USB_Device_Library/Class/cdc/src/usbd_cdc_core.c **** 
 775:../inc/STM32_USB_Device_Library/Class/cdc/src/usbd_cdc_core.c **** /**
 776:../inc/STM32_USB_Device_Library/Class/cdc/src/usbd_cdc_core.c ****   * @brief  USBD_cdc_GetCfgDesc 
 777:../inc/STM32_USB_Device_Library/Class/cdc/src/usbd_cdc_core.c ****   *         Return configuration descriptor
 778:../inc/STM32_USB_Device_Library/Class/cdc/src/usbd_cdc_core.c ****   * @param  speed : current device speed
 779:../inc/STM32_USB_Device_Library/Class/cdc/src/usbd_cdc_core.c ****   * @param  length : pointer data length
 780:../inc/STM32_USB_Device_Library/Class/cdc/src/usbd_cdc_core.c ****   * @retval pointer to descriptor buffer
 781:../inc/STM32_USB_Device_Library/Class/cdc/src/usbd_cdc_core.c ****   */
 782:../inc/STM32_USB_Device_Library/Class/cdc/src/usbd_cdc_core.c **** static uint8_t  *USBD_cdc_GetCfgDesc (uint8_t speed, uint16_t *length)
 783:../inc/STM32_USB_Device_Library/Class/cdc/src/usbd_cdc_core.c **** {
 26416              		.loc 1 783 0
 26417              		.cfi_startproc
 26418              		@ args = 0, pretend = 0, frame = 8
 26419              		@ frame_needed = 1, uses_anonymous_args = 0
 26420              		@ link register save eliminated.
 26421 0000 80B4     		push	{r7}
 26422              	.LCFI24:
 26423              		.cfi_def_cfa_offset 4
 26424 0002 83B0     		sub	sp, sp, #12
 26425              	.LCFI25:
 26426              		.cfi_def_cfa_offset 16
 26427 0004 00AF     		add	r7, sp, #0
 26428              		.cfi_offset 7, -4
 26429              	.LCFI26:
 26430              		.cfi_def_cfa_register 7
 26431 0006 0346     		mov	r3, r0
 26432 0008 3960     		str	r1, [r7, #0]
 26433 000a FB71     		strb	r3, [r7, #7]
 784:../inc/STM32_USB_Device_Library/Class/cdc/src/usbd_cdc_core.c ****   *length = sizeof (usbd_cdc_CfgDesc);
 26434              		.loc 1 784 0
 26435 000c 3B68     		ldr	r3, [r7, #0]
 26436 000e 4FF04302 		mov	r2, #67
 26437 0012 1A80     		strh	r2, [r3, #0]	@ movhi
 785:../inc/STM32_USB_Device_Library/Class/cdc/src/usbd_cdc_core.c ****   return usbd_cdc_CfgDesc;
 26438              		.loc 1 785 0
 26439 0014 034B     		ldr	r3, .L54
 786:../inc/STM32_USB_Device_Library/Class/cdc/src/usbd_cdc_core.c **** }
 26440              		.loc 1 786 0
 26441 0016 1846     		mov	r0, r3
 26442 0018 07F10C07 		add	r7, r7, #12
 26443 001c BD46     		mov	sp, r7
 26444 001e 80BC     		pop	{r7}
 26445 0020 7047     		bx	lr
 26446              	.L55:
 26447 0022 00BF     		.align	2
 26448              	.L54:
 26449 0024 00000000 		.word	usbd_cdc_CfgDesc
 26450              		.cfi_endproc
 26451              	.LFE118:
 26453              		.section	.bss.FrameCount.8202,"aw",%nobits
 26454              		.align	2
 26457              	FrameCount.8202:
 26458 0000 00000000 		.space	4
 26459              		.text
 26460              	.Letext0: