   1              		.syntax unified
   2              		.cpu cortex-m4
   3              		.fpu softvfp
   4              		.eabi_attribute 20, 1
   5              		.eabi_attribute 21, 1
   6              		.eabi_attribute 23, 3
   7              		.eabi_attribute 24, 1
   8              		.eabi_attribute 25, 1
   9              		.eabi_attribute 26, 1
  10              		.eabi_attribute 30, 6
  11              		.eabi_attribute 18, 4
  12              		.thumb
  13              		.file	"usb_dcd_int.c"
  23              	.Ltext0:
  24              		.file 1 "../inc/STM32_USB_OTG_Driver/src/usb_dcd_int.c"
 25034              		.align	2
 25035              		.global	USBD_OTG_ISR_Handler
 25036              		.thumb
 25037              		.thumb_func
 25039              	USBD_OTG_ISR_Handler:
 25040              	.LFB110:
   1:../inc/STM32_USB_OTG_Driver/src/usb_dcd_int.c **** /**
   2:../inc/STM32_USB_OTG_Driver/src/usb_dcd_int.c ****   ******************************************************************************
   3:../inc/STM32_USB_OTG_Driver/src/usb_dcd_int.c ****   * @file    usb_dcd_int.c
   4:../inc/STM32_USB_OTG_Driver/src/usb_dcd_int.c ****   * @author  MCD Application Team
   5:../inc/STM32_USB_OTG_Driver/src/usb_dcd_int.c ****   * @version V2.0.0
   6:../inc/STM32_USB_OTG_Driver/src/usb_dcd_int.c ****   * @date    22-July-2011
   7:../inc/STM32_USB_OTG_Driver/src/usb_dcd_int.c ****   * @brief   Peripheral Device interrupt subroutines
   8:../inc/STM32_USB_OTG_Driver/src/usb_dcd_int.c ****   ******************************************************************************
   9:../inc/STM32_USB_OTG_Driver/src/usb_dcd_int.c ****   * @attention 
  10:../inc/STM32_USB_OTG_Driver/src/usb_dcd_int.c ****   *
  11:../inc/STM32_USB_OTG_Driver/src/usb_dcd_int.c ****   * THE PRESENT FIRMWARE WHICH IS FOR GUIDANCE ONLY AIMS AT PROVIDING CUSTOMERS
  12:../inc/STM32_USB_OTG_Driver/src/usb_dcd_int.c ****   * WITH CODING INFORMATION REGARDING THEIR PRODUCTS IN ORDER FOR THEM TO SAVE
  13:../inc/STM32_USB_OTG_Driver/src/usb_dcd_int.c ****   * TIME. AS A RESULT, STMICROELECTRONICS SHALL NOT BE HELD LIABLE FOR ANY
  14:../inc/STM32_USB_OTG_Driver/src/usb_dcd_int.c ****   * DIRECT, INDIRECT OR CONSEQUENTIAL DAMAGES WITH RESPECT TO ANY CLAIMS ARISING
  15:../inc/STM32_USB_OTG_Driver/src/usb_dcd_int.c ****   * FROM THE CONTENT OF SUCH FIRMWARE AND/OR THE USE MADE BY CUSTOMERS OF THE
  16:../inc/STM32_USB_OTG_Driver/src/usb_dcd_int.c ****   * CODING INFORMATION CONTAINED HEREIN IN CONNECTION WITH THEIR PRODUCTS.
  17:../inc/STM32_USB_OTG_Driver/src/usb_dcd_int.c ****   *
  18:../inc/STM32_USB_OTG_Driver/src/usb_dcd_int.c ****   * <h2><center>&copy; COPYRIGHT 2011 STMicroelectronics</center></h2>
  19:../inc/STM32_USB_OTG_Driver/src/usb_dcd_int.c ****   ******************************************************************************
  20:../inc/STM32_USB_OTG_Driver/src/usb_dcd_int.c ****   */
  21:../inc/STM32_USB_OTG_Driver/src/usb_dcd_int.c **** 
  22:../inc/STM32_USB_OTG_Driver/src/usb_dcd_int.c **** /* Includes ------------------------------------------------------------------*/
  23:../inc/STM32_USB_OTG_Driver/src/usb_dcd_int.c **** #include "usb_dcd_int.h"
  24:../inc/STM32_USB_OTG_Driver/src/usb_dcd_int.c **** /** @addtogroup USB_OTG_DRIVER
  25:../inc/STM32_USB_OTG_Driver/src/usb_dcd_int.c **** * @{
  26:../inc/STM32_USB_OTG_Driver/src/usb_dcd_int.c **** */
  27:../inc/STM32_USB_OTG_Driver/src/usb_dcd_int.c **** 
  28:../inc/STM32_USB_OTG_Driver/src/usb_dcd_int.c **** /** @defgroup USB_DCD_INT 
  29:../inc/STM32_USB_OTG_Driver/src/usb_dcd_int.c **** * @brief This file contains the interrupt subroutines for the Device mode.
  30:../inc/STM32_USB_OTG_Driver/src/usb_dcd_int.c **** * @{
  31:../inc/STM32_USB_OTG_Driver/src/usb_dcd_int.c **** */
  32:../inc/STM32_USB_OTG_Driver/src/usb_dcd_int.c **** 
  33:../inc/STM32_USB_OTG_Driver/src/usb_dcd_int.c **** 
  34:../inc/STM32_USB_OTG_Driver/src/usb_dcd_int.c **** /** @defgroup USB_DCD_INT_Private_Defines
  35:../inc/STM32_USB_OTG_Driver/src/usb_dcd_int.c **** * @{
  36:../inc/STM32_USB_OTG_Driver/src/usb_dcd_int.c **** */ 
  37:../inc/STM32_USB_OTG_Driver/src/usb_dcd_int.c **** /**
  38:../inc/STM32_USB_OTG_Driver/src/usb_dcd_int.c **** * @}
  39:../inc/STM32_USB_OTG_Driver/src/usb_dcd_int.c **** */ 
  40:../inc/STM32_USB_OTG_Driver/src/usb_dcd_int.c **** 
  41:../inc/STM32_USB_OTG_Driver/src/usb_dcd_int.c **** 
  42:../inc/STM32_USB_OTG_Driver/src/usb_dcd_int.c **** /** @defgroup USB_DCD_INT_Private_TypesDefinitions
  43:../inc/STM32_USB_OTG_Driver/src/usb_dcd_int.c **** * @{
  44:../inc/STM32_USB_OTG_Driver/src/usb_dcd_int.c **** */ 
  45:../inc/STM32_USB_OTG_Driver/src/usb_dcd_int.c **** /**
  46:../inc/STM32_USB_OTG_Driver/src/usb_dcd_int.c **** * @}
  47:../inc/STM32_USB_OTG_Driver/src/usb_dcd_int.c **** */ 
  48:../inc/STM32_USB_OTG_Driver/src/usb_dcd_int.c **** 
  49:../inc/STM32_USB_OTG_Driver/src/usb_dcd_int.c **** 
  50:../inc/STM32_USB_OTG_Driver/src/usb_dcd_int.c **** 
  51:../inc/STM32_USB_OTG_Driver/src/usb_dcd_int.c **** /** @defgroup USB_DCD_INT_Private_Macros
  52:../inc/STM32_USB_OTG_Driver/src/usb_dcd_int.c **** * @{
  53:../inc/STM32_USB_OTG_Driver/src/usb_dcd_int.c **** */ 
  54:../inc/STM32_USB_OTG_Driver/src/usb_dcd_int.c **** /**
  55:../inc/STM32_USB_OTG_Driver/src/usb_dcd_int.c **** * @}
  56:../inc/STM32_USB_OTG_Driver/src/usb_dcd_int.c **** */ 
  57:../inc/STM32_USB_OTG_Driver/src/usb_dcd_int.c **** 
  58:../inc/STM32_USB_OTG_Driver/src/usb_dcd_int.c **** 
  59:../inc/STM32_USB_OTG_Driver/src/usb_dcd_int.c **** /** @defgroup USB_DCD_INT_Private_Variables
  60:../inc/STM32_USB_OTG_Driver/src/usb_dcd_int.c **** * @{
  61:../inc/STM32_USB_OTG_Driver/src/usb_dcd_int.c **** */ 
  62:../inc/STM32_USB_OTG_Driver/src/usb_dcd_int.c **** /**
  63:../inc/STM32_USB_OTG_Driver/src/usb_dcd_int.c **** * @}
  64:../inc/STM32_USB_OTG_Driver/src/usb_dcd_int.c **** */ 
  65:../inc/STM32_USB_OTG_Driver/src/usb_dcd_int.c **** 
  66:../inc/STM32_USB_OTG_Driver/src/usb_dcd_int.c **** 
  67:../inc/STM32_USB_OTG_Driver/src/usb_dcd_int.c **** /** @defgroup USB_DCD_INT_Private_FunctionPrototypes
  68:../inc/STM32_USB_OTG_Driver/src/usb_dcd_int.c **** * @{
  69:../inc/STM32_USB_OTG_Driver/src/usb_dcd_int.c **** */ 
  70:../inc/STM32_USB_OTG_Driver/src/usb_dcd_int.c **** /* static functions */
  71:../inc/STM32_USB_OTG_Driver/src/usb_dcd_int.c **** static uint32_t DCD_ReadDevInEP (USB_OTG_CORE_HANDLE *pdev, uint8_t epnum);
  72:../inc/STM32_USB_OTG_Driver/src/usb_dcd_int.c **** 
  73:../inc/STM32_USB_OTG_Driver/src/usb_dcd_int.c **** /* Interrupt Handlers */
  74:../inc/STM32_USB_OTG_Driver/src/usb_dcd_int.c **** static uint32_t DCD_HandleInEP_ISR(USB_OTG_CORE_HANDLE *pdev);
  75:../inc/STM32_USB_OTG_Driver/src/usb_dcd_int.c **** static uint32_t DCD_HandleOutEP_ISR(USB_OTG_CORE_HANDLE *pdev);
  76:../inc/STM32_USB_OTG_Driver/src/usb_dcd_int.c **** static uint32_t DCD_HandleSof_ISR(USB_OTG_CORE_HANDLE *pdev);
  77:../inc/STM32_USB_OTG_Driver/src/usb_dcd_int.c **** 
  78:../inc/STM32_USB_OTG_Driver/src/usb_dcd_int.c **** static uint32_t DCD_HandleRxStatusQueueLevel_ISR(USB_OTG_CORE_HANDLE *pdev);
  79:../inc/STM32_USB_OTG_Driver/src/usb_dcd_int.c **** static uint32_t DCD_WriteEmptyTxFifo(USB_OTG_CORE_HANDLE *pdev , uint32_t epnum);
  80:../inc/STM32_USB_OTG_Driver/src/usb_dcd_int.c **** 
  81:../inc/STM32_USB_OTG_Driver/src/usb_dcd_int.c **** static uint32_t DCD_HandleUsbReset_ISR(USB_OTG_CORE_HANDLE *pdev);
  82:../inc/STM32_USB_OTG_Driver/src/usb_dcd_int.c **** static uint32_t DCD_HandleEnumDone_ISR(USB_OTG_CORE_HANDLE *pdev);
  83:../inc/STM32_USB_OTG_Driver/src/usb_dcd_int.c **** static uint32_t DCD_HandleResume_ISR(USB_OTG_CORE_HANDLE *pdev);
  84:../inc/STM32_USB_OTG_Driver/src/usb_dcd_int.c **** static uint32_t DCD_HandleUSBSuspend_ISR(USB_OTG_CORE_HANDLE *pdev);
  85:../inc/STM32_USB_OTG_Driver/src/usb_dcd_int.c **** 
  86:../inc/STM32_USB_OTG_Driver/src/usb_dcd_int.c **** static uint32_t DCD_IsoINIncomplete_ISR(USB_OTG_CORE_HANDLE *pdev);
  87:../inc/STM32_USB_OTG_Driver/src/usb_dcd_int.c **** static uint32_t DCD_IsoOUTIncomplete_ISR(USB_OTG_CORE_HANDLE *pdev);
  88:../inc/STM32_USB_OTG_Driver/src/usb_dcd_int.c **** #ifdef VBUS_SENSING_ENABLED
  89:../inc/STM32_USB_OTG_Driver/src/usb_dcd_int.c **** static uint32_t DCD_SessionRequest_ISR(USB_OTG_CORE_HANDLE *pdev);
  90:../inc/STM32_USB_OTG_Driver/src/usb_dcd_int.c **** static uint32_t DCD_OTG_ISR(USB_OTG_CORE_HANDLE *pdev);
  91:../inc/STM32_USB_OTG_Driver/src/usb_dcd_int.c **** #endif
  92:../inc/STM32_USB_OTG_Driver/src/usb_dcd_int.c **** 
  93:../inc/STM32_USB_OTG_Driver/src/usb_dcd_int.c **** /**
  94:../inc/STM32_USB_OTG_Driver/src/usb_dcd_int.c **** * @}
  95:../inc/STM32_USB_OTG_Driver/src/usb_dcd_int.c **** */ 
  96:../inc/STM32_USB_OTG_Driver/src/usb_dcd_int.c **** 
  97:../inc/STM32_USB_OTG_Driver/src/usb_dcd_int.c **** 
  98:../inc/STM32_USB_OTG_Driver/src/usb_dcd_int.c **** /** @defgroup USB_DCD_INT_Private_Functions
  99:../inc/STM32_USB_OTG_Driver/src/usb_dcd_int.c **** * @{
 100:../inc/STM32_USB_OTG_Driver/src/usb_dcd_int.c **** */ 
 101:../inc/STM32_USB_OTG_Driver/src/usb_dcd_int.c **** 
 102:../inc/STM32_USB_OTG_Driver/src/usb_dcd_int.c **** 
 103:../inc/STM32_USB_OTG_Driver/src/usb_dcd_int.c **** #ifdef USB_OTG_HS_DEDICATED_EP1_ENABLED  
 104:../inc/STM32_USB_OTG_Driver/src/usb_dcd_int.c **** /**
 105:../inc/STM32_USB_OTG_Driver/src/usb_dcd_int.c **** * @brief  USBD_OTG_EP1OUT_ISR_Handler
 106:../inc/STM32_USB_OTG_Driver/src/usb_dcd_int.c **** *         handles all USB Interrupts
 107:../inc/STM32_USB_OTG_Driver/src/usb_dcd_int.c **** * @param  pdev: device instance
 108:../inc/STM32_USB_OTG_Driver/src/usb_dcd_int.c **** * @retval status
 109:../inc/STM32_USB_OTG_Driver/src/usb_dcd_int.c **** */
 110:../inc/STM32_USB_OTG_Driver/src/usb_dcd_int.c **** uint32_t USBD_OTG_EP1OUT_ISR_Handler (USB_OTG_CORE_HANDLE *pdev)
 111:../inc/STM32_USB_OTG_Driver/src/usb_dcd_int.c **** {
 112:../inc/STM32_USB_OTG_Driver/src/usb_dcd_int.c ****   
 113:../inc/STM32_USB_OTG_Driver/src/usb_dcd_int.c ****   USB_OTG_DOEPINTn_TypeDef  doepint;
 114:../inc/STM32_USB_OTG_Driver/src/usb_dcd_int.c ****   USB_OTG_DEPXFRSIZ_TypeDef  deptsiz;  
 115:../inc/STM32_USB_OTG_Driver/src/usb_dcd_int.c ****   
 116:../inc/STM32_USB_OTG_Driver/src/usb_dcd_int.c ****   doepint.d32 = USB_OTG_READ_REG32(&pdev->regs.OUTEP_REGS[1]->DOEPINT);
 117:../inc/STM32_USB_OTG_Driver/src/usb_dcd_int.c ****   doepint.d32&= USB_OTG_READ_REG32(&pdev->regs.DREGS->DOUTEP1MSK);
 118:../inc/STM32_USB_OTG_Driver/src/usb_dcd_int.c ****   
 119:../inc/STM32_USB_OTG_Driver/src/usb_dcd_int.c ****   /* Transfer complete */
 120:../inc/STM32_USB_OTG_Driver/src/usb_dcd_int.c ****   if ( doepint.b.xfercompl )
 121:../inc/STM32_USB_OTG_Driver/src/usb_dcd_int.c ****   {
 122:../inc/STM32_USB_OTG_Driver/src/usb_dcd_int.c ****     /* Clear the bit in DOEPINTn for this interrupt */
 123:../inc/STM32_USB_OTG_Driver/src/usb_dcd_int.c ****     CLEAR_OUT_EP_INTR(1, xfercompl);
 124:../inc/STM32_USB_OTG_Driver/src/usb_dcd_int.c ****     if (pdev->cfg.dma_enable == 1)
 125:../inc/STM32_USB_OTG_Driver/src/usb_dcd_int.c ****     {
 126:../inc/STM32_USB_OTG_Driver/src/usb_dcd_int.c ****       deptsiz.d32 = USB_OTG_READ_REG32(&(pdev->regs.OUTEP_REGS[1]->DOEPTSIZ));
 127:../inc/STM32_USB_OTG_Driver/src/usb_dcd_int.c ****       /*ToDo : handle more than one single MPS size packet */
 128:../inc/STM32_USB_OTG_Driver/src/usb_dcd_int.c ****       pdev->dev.out_ep[1].xfer_count = pdev->dev.out_ep[1].maxpacket - \
 129:../inc/STM32_USB_OTG_Driver/src/usb_dcd_int.c ****         deptsiz.b.xfersize;
 130:../inc/STM32_USB_OTG_Driver/src/usb_dcd_int.c ****     }    
 131:../inc/STM32_USB_OTG_Driver/src/usb_dcd_int.c ****     /* Inform upper layer: data ready */
 132:../inc/STM32_USB_OTG_Driver/src/usb_dcd_int.c ****     /* RX COMPLETE */
 133:../inc/STM32_USB_OTG_Driver/src/usb_dcd_int.c ****     USBD_DCD_INT_fops->DataOutStage(pdev , 1);
 134:../inc/STM32_USB_OTG_Driver/src/usb_dcd_int.c ****     
 135:../inc/STM32_USB_OTG_Driver/src/usb_dcd_int.c ****   }
 136:../inc/STM32_USB_OTG_Driver/src/usb_dcd_int.c ****   
 137:../inc/STM32_USB_OTG_Driver/src/usb_dcd_int.c ****   /* Endpoint disable  */
 138:../inc/STM32_USB_OTG_Driver/src/usb_dcd_int.c ****   if ( doepint.b.epdisabled )
 139:../inc/STM32_USB_OTG_Driver/src/usb_dcd_int.c ****   {
 140:../inc/STM32_USB_OTG_Driver/src/usb_dcd_int.c ****     /* Clear the bit in DOEPINTn for this interrupt */
 141:../inc/STM32_USB_OTG_Driver/src/usb_dcd_int.c ****     CLEAR_OUT_EP_INTR(1, epdisabled);
 142:../inc/STM32_USB_OTG_Driver/src/usb_dcd_int.c ****   }
 143:../inc/STM32_USB_OTG_Driver/src/usb_dcd_int.c ****   /* AHB Error */
 144:../inc/STM32_USB_OTG_Driver/src/usb_dcd_int.c ****   if ( doepint.b.ahberr )
 145:../inc/STM32_USB_OTG_Driver/src/usb_dcd_int.c ****   {
 146:../inc/STM32_USB_OTG_Driver/src/usb_dcd_int.c ****     CLEAR_OUT_EP_INTR(1, ahberr);
 147:../inc/STM32_USB_OTG_Driver/src/usb_dcd_int.c ****   } 
 148:../inc/STM32_USB_OTG_Driver/src/usb_dcd_int.c ****   return 1;
 149:../inc/STM32_USB_OTG_Driver/src/usb_dcd_int.c **** }
 150:../inc/STM32_USB_OTG_Driver/src/usb_dcd_int.c **** 
 151:../inc/STM32_USB_OTG_Driver/src/usb_dcd_int.c **** /**
 152:../inc/STM32_USB_OTG_Driver/src/usb_dcd_int.c **** * @brief  USBD_OTG_EP1IN_ISR_Handler
 153:../inc/STM32_USB_OTG_Driver/src/usb_dcd_int.c **** *         handles all USB Interrupts
 154:../inc/STM32_USB_OTG_Driver/src/usb_dcd_int.c **** * @param  pdev: device instance
 155:../inc/STM32_USB_OTG_Driver/src/usb_dcd_int.c **** * @retval status
 156:../inc/STM32_USB_OTG_Driver/src/usb_dcd_int.c **** */
 157:../inc/STM32_USB_OTG_Driver/src/usb_dcd_int.c **** uint32_t USBD_OTG_EP1IN_ISR_Handler (USB_OTG_CORE_HANDLE *pdev)
 158:../inc/STM32_USB_OTG_Driver/src/usb_dcd_int.c **** {
 159:../inc/STM32_USB_OTG_Driver/src/usb_dcd_int.c ****   
 160:../inc/STM32_USB_OTG_Driver/src/usb_dcd_int.c ****   USB_OTG_DIEPINTn_TypeDef  diepint;
 161:../inc/STM32_USB_OTG_Driver/src/usb_dcd_int.c ****   uint32_t fifoemptymsk, msk, emp;
 162:../inc/STM32_USB_OTG_Driver/src/usb_dcd_int.c ****   
 163:../inc/STM32_USB_OTG_Driver/src/usb_dcd_int.c ****   msk = USB_OTG_READ_REG32(&pdev->regs.DREGS->DINEP1MSK);
 164:../inc/STM32_USB_OTG_Driver/src/usb_dcd_int.c ****   emp = USB_OTG_READ_REG32(&pdev->regs.DREGS->DIEPEMPMSK);
 165:../inc/STM32_USB_OTG_Driver/src/usb_dcd_int.c ****   msk |= ((emp >> 1 ) & 0x1) << 7;
 166:../inc/STM32_USB_OTG_Driver/src/usb_dcd_int.c ****   diepint.d32  = USB_OTG_READ_REG32(&pdev->regs.INEP_REGS[1]->DIEPINT) & msk;  
 167:../inc/STM32_USB_OTG_Driver/src/usb_dcd_int.c ****   
 168:../inc/STM32_USB_OTG_Driver/src/usb_dcd_int.c ****   if ( diepint.b.xfercompl )
 169:../inc/STM32_USB_OTG_Driver/src/usb_dcd_int.c ****   {
 170:../inc/STM32_USB_OTG_Driver/src/usb_dcd_int.c ****     fifoemptymsk = 0x1 << 1;
 171:../inc/STM32_USB_OTG_Driver/src/usb_dcd_int.c ****     USB_OTG_MODIFY_REG32(&pdev->regs.DREGS->DIEPEMPMSK, fifoemptymsk, 0);
 172:../inc/STM32_USB_OTG_Driver/src/usb_dcd_int.c ****     CLEAR_IN_EP_INTR(1, xfercompl);
 173:../inc/STM32_USB_OTG_Driver/src/usb_dcd_int.c ****     /* TX COMPLETE */
 174:../inc/STM32_USB_OTG_Driver/src/usb_dcd_int.c ****     USBD_DCD_INT_fops->DataInStage(pdev , 1);
 175:../inc/STM32_USB_OTG_Driver/src/usb_dcd_int.c ****   }
 176:../inc/STM32_USB_OTG_Driver/src/usb_dcd_int.c ****   if ( diepint.b.ahberr )
 177:../inc/STM32_USB_OTG_Driver/src/usb_dcd_int.c ****   {
 178:../inc/STM32_USB_OTG_Driver/src/usb_dcd_int.c ****     CLEAR_IN_EP_INTR(1, ahberr);
 179:../inc/STM32_USB_OTG_Driver/src/usb_dcd_int.c ****   }
 180:../inc/STM32_USB_OTG_Driver/src/usb_dcd_int.c ****   if ( diepint.b.epdisabled )
 181:../inc/STM32_USB_OTG_Driver/src/usb_dcd_int.c ****   {
 182:../inc/STM32_USB_OTG_Driver/src/usb_dcd_int.c ****     CLEAR_IN_EP_INTR(1, epdisabled);
 183:../inc/STM32_USB_OTG_Driver/src/usb_dcd_int.c ****   }  
 184:../inc/STM32_USB_OTG_Driver/src/usb_dcd_int.c ****   if ( diepint.b.timeout )
 185:../inc/STM32_USB_OTG_Driver/src/usb_dcd_int.c ****   {
 186:../inc/STM32_USB_OTG_Driver/src/usb_dcd_int.c ****     CLEAR_IN_EP_INTR(1, timeout);
 187:../inc/STM32_USB_OTG_Driver/src/usb_dcd_int.c ****   }
 188:../inc/STM32_USB_OTG_Driver/src/usb_dcd_int.c ****   if (diepint.b.intktxfemp)
 189:../inc/STM32_USB_OTG_Driver/src/usb_dcd_int.c ****   {
 190:../inc/STM32_USB_OTG_Driver/src/usb_dcd_int.c ****     CLEAR_IN_EP_INTR(1, intktxfemp);
 191:../inc/STM32_USB_OTG_Driver/src/usb_dcd_int.c ****   }
 192:../inc/STM32_USB_OTG_Driver/src/usb_dcd_int.c ****   if (diepint.b.intknepmis)
 193:../inc/STM32_USB_OTG_Driver/src/usb_dcd_int.c ****   {
 194:../inc/STM32_USB_OTG_Driver/src/usb_dcd_int.c ****     CLEAR_IN_EP_INTR(1, intknepmis);
 195:../inc/STM32_USB_OTG_Driver/src/usb_dcd_int.c ****   }
 196:../inc/STM32_USB_OTG_Driver/src/usb_dcd_int.c ****   if (diepint.b.inepnakeff)
 197:../inc/STM32_USB_OTG_Driver/src/usb_dcd_int.c ****   {
 198:../inc/STM32_USB_OTG_Driver/src/usb_dcd_int.c ****     CLEAR_IN_EP_INTR(1, inepnakeff);
 199:../inc/STM32_USB_OTG_Driver/src/usb_dcd_int.c ****   }
 200:../inc/STM32_USB_OTG_Driver/src/usb_dcd_int.c ****   if (diepint.b.emptyintr)
 201:../inc/STM32_USB_OTG_Driver/src/usb_dcd_int.c ****   {
 202:../inc/STM32_USB_OTG_Driver/src/usb_dcd_int.c ****     DCD_WriteEmptyTxFifo(pdev , 1);
 203:../inc/STM32_USB_OTG_Driver/src/usb_dcd_int.c ****     CLEAR_IN_EP_INTR(1, emptyintr);
 204:../inc/STM32_USB_OTG_Driver/src/usb_dcd_int.c ****   }
 205:../inc/STM32_USB_OTG_Driver/src/usb_dcd_int.c ****   return 1;
 206:../inc/STM32_USB_OTG_Driver/src/usb_dcd_int.c **** }
 207:../inc/STM32_USB_OTG_Driver/src/usb_dcd_int.c **** #endif
 208:../inc/STM32_USB_OTG_Driver/src/usb_dcd_int.c **** 
 209:../inc/STM32_USB_OTG_Driver/src/usb_dcd_int.c **** /**
 210:../inc/STM32_USB_OTG_Driver/src/usb_dcd_int.c **** * @brief  STM32_USBF_OTG_ISR_Handler
 211:../inc/STM32_USB_OTG_Driver/src/usb_dcd_int.c **** *         handles all USB Interrupts
 212:../inc/STM32_USB_OTG_Driver/src/usb_dcd_int.c **** * @param  pdev: device instance
 213:../inc/STM32_USB_OTG_Driver/src/usb_dcd_int.c **** * @retval status
 214:../inc/STM32_USB_OTG_Driver/src/usb_dcd_int.c **** */
 215:../inc/STM32_USB_OTG_Driver/src/usb_dcd_int.c **** uint32_t USBD_OTG_ISR_Handler (USB_OTG_CORE_HANDLE *pdev)
 216:../inc/STM32_USB_OTG_Driver/src/usb_dcd_int.c **** {
 25041              		.loc 1 216 0
 25042              		.cfi_startproc
 25043              		@ args = 0, pretend = 0, frame = 24
 25044              		@ frame_needed = 1, uses_anonymous_args = 0
 25045 0000 80B5     		push	{r7, lr}
 25046              	.LCFI0:
 25047              		.cfi_def_cfa_offset 8
 25048 0002 86B0     		sub	sp, sp, #24
 25049              	.LCFI1:
 25050              		.cfi_def_cfa_offset 32
 25051 0004 00AF     		add	r7, sp, #0
 25052              		.cfi_offset 14, -4
 25053              		.cfi_offset 7, -8
 25054              	.LCFI2:
 25055              		.cfi_def_cfa_register 7
 25056 0006 7860     		str	r0, [r7, #4]
 217:../inc/STM32_USB_OTG_Driver/src/usb_dcd_int.c ****   USB_OTG_GINTSTS_TypeDef  gintr_status;
 218:../inc/STM32_USB_OTG_Driver/src/usb_dcd_int.c ****   uint32_t retval = 0;
 25057              		.loc 1 218 0
 25058 0008 4FF00003 		mov	r3, #0
 25059 000c 7B61     		str	r3, [r7, #20]
 219:../inc/STM32_USB_OTG_Driver/src/usb_dcd_int.c ****   
 220:../inc/STM32_USB_OTG_Driver/src/usb_dcd_int.c ****   if (USB_OTG_IsDeviceMode(pdev)) /* ensure that we are in device mode */
 25060              		.loc 1 220 0
 25061 000e 7868     		ldr	r0, [r7, #4]
 25062 0010 FFF7FEFF 		bl	USB_OTG_IsDeviceMode
 25063 0014 0346     		mov	r3, r0
 25064 0016 002B     		cmp	r3, #0
 25065 0018 00F0A880 		beq	.L2
 221:../inc/STM32_USB_OTG_Driver/src/usb_dcd_int.c ****   {
 222:../inc/STM32_USB_OTG_Driver/src/usb_dcd_int.c ****     gintr_status.d32 = USB_OTG_ReadCoreItr(pdev);
 25066              		.loc 1 222 0
 25067 001c 7868     		ldr	r0, [r7, #4]
 25068 001e FFF7FEFF 		bl	USB_OTG_ReadCoreItr
 25069 0022 0346     		mov	r3, r0
 25070 0024 3B61     		str	r3, [r7, #16]
 223:../inc/STM32_USB_OTG_Driver/src/usb_dcd_int.c ****     if (!gintr_status.d32) /* avoid spurious interrupt */
 25071              		.loc 1 223 0
 25072 0026 3B69     		ldr	r3, [r7, #16]
 25073 0028 002B     		cmp	r3, #0
 25074 002a 02D1     		bne	.L3
 224:../inc/STM32_USB_OTG_Driver/src/usb_dcd_int.c ****     {
 225:../inc/STM32_USB_OTG_Driver/src/usb_dcd_int.c ****       return 0;
 25075              		.loc 1 225 0
 25076 002c 4FF00003 		mov	r3, #0
 25077 0030 9DE0     		b	.L4
 25078              	.L3:
 226:../inc/STM32_USB_OTG_Driver/src/usb_dcd_int.c ****     }
 227:../inc/STM32_USB_OTG_Driver/src/usb_dcd_int.c ****     
 228:../inc/STM32_USB_OTG_Driver/src/usb_dcd_int.c ****     if (gintr_status.b.outepintr)
 25079              		.loc 1 228 0
 25080 0032 BB7C     		ldrb	r3, [r7, #18]	@ zero_extendqisi2
 25081 0034 03F00803 		and	r3, r3, #8
 25082 0038 DBB2     		uxtb	r3, r3
 25083 003a 002B     		cmp	r3, #0
 25084 003c 07D0     		beq	.L5
 229:../inc/STM32_USB_OTG_Driver/src/usb_dcd_int.c ****     {
 230:../inc/STM32_USB_OTG_Driver/src/usb_dcd_int.c ****       retval |= DCD_HandleOutEP_ISR(pdev);
 25085              		.loc 1 230 0
 25086 003e 7868     		ldr	r0, [r7, #4]
 25087 0040 FFF7FEFF 		bl	DCD_HandleOutEP_ISR
 25088 0044 0346     		mov	r3, r0
 25089 0046 7A69     		ldr	r2, [r7, #20]
 25090 0048 42EA0303 		orr	r3, r2, r3
 25091 004c 7B61     		str	r3, [r7, #20]
 25092              	.L5:
 231:../inc/STM32_USB_OTG_Driver/src/usb_dcd_int.c ****     }    
 232:../inc/STM32_USB_OTG_Driver/src/usb_dcd_int.c ****     
 233:../inc/STM32_USB_OTG_Driver/src/usb_dcd_int.c ****     if (gintr_status.b.inepint)
 25093              		.loc 1 233 0
 25094 004e BB7C     		ldrb	r3, [r7, #18]	@ zero_extendqisi2
 25095 0050 03F00403 		and	r3, r3, #4
 25096 0054 DBB2     		uxtb	r3, r3
 25097 0056 002B     		cmp	r3, #0
 25098 0058 07D0     		beq	.L6
 234:../inc/STM32_USB_OTG_Driver/src/usb_dcd_int.c ****     {
 235:../inc/STM32_USB_OTG_Driver/src/usb_dcd_int.c ****       retval |= DCD_HandleInEP_ISR(pdev);
 25099              		.loc 1 235 0
 25100 005a 7868     		ldr	r0, [r7, #4]
 25101 005c FFF7FEFF 		bl	DCD_HandleInEP_ISR
 25102 0060 0346     		mov	r3, r0
 25103 0062 7A69     		ldr	r2, [r7, #20]
 25104 0064 42EA0303 		orr	r3, r2, r3
 25105 0068 7B61     		str	r3, [r7, #20]
 25106              	.L6:
 236:../inc/STM32_USB_OTG_Driver/src/usb_dcd_int.c ****     }
 237:../inc/STM32_USB_OTG_Driver/src/usb_dcd_int.c ****     
 238:../inc/STM32_USB_OTG_Driver/src/usb_dcd_int.c ****     if (gintr_status.b.modemismatch)
 25107              		.loc 1 238 0
 25108 006a 3B7C     		ldrb	r3, [r7, #16]	@ zero_extendqisi2
 25109 006c 03F00203 		and	r3, r3, #2
 25110 0070 DBB2     		uxtb	r3, r3
 25111 0072 002B     		cmp	r3, #0
 25112 0074 0AD0     		beq	.L7
 25113              	.LBB2:
 239:../inc/STM32_USB_OTG_Driver/src/usb_dcd_int.c ****     {
 240:../inc/STM32_USB_OTG_Driver/src/usb_dcd_int.c ****       USB_OTG_GINTSTS_TypeDef  gintsts;
 241:../inc/STM32_USB_OTG_Driver/src/usb_dcd_int.c ****       
 242:../inc/STM32_USB_OTG_Driver/src/usb_dcd_int.c ****       /* Clear interrupt */
 243:../inc/STM32_USB_OTG_Driver/src/usb_dcd_int.c ****       gintsts.d32 = 0;
 25114              		.loc 1 243 0
 25115 0076 4FF00003 		mov	r3, #0
 25116 007a FB60     		str	r3, [r7, #12]
 244:../inc/STM32_USB_OTG_Driver/src/usb_dcd_int.c ****       gintsts.b.modemismatch = 1;
 25117              		.loc 1 244 0
 25118 007c FB68     		ldr	r3, [r7, #12]
 25119 007e 43F00203 		orr	r3, r3, #2
 25120 0082 FB60     		str	r3, [r7, #12]
 245:../inc/STM32_USB_OTG_Driver/src/usb_dcd_int.c ****       USB_OTG_WRITE_REG32(&pdev->regs.GREGS->GINTSTS, gintsts.d32);
 25121              		.loc 1 245 0
 25122 0084 7B68     		ldr	r3, [r7, #4]
 25123 0086 DB68     		ldr	r3, [r3, #12]
 25124 0088 FA68     		ldr	r2, [r7, #12]
 25125 008a 5A61     		str	r2, [r3, #20]
 25126              	.L7:
 25127              	.LBE2:
 246:../inc/STM32_USB_OTG_Driver/src/usb_dcd_int.c ****     }
 247:../inc/STM32_USB_OTG_Driver/src/usb_dcd_int.c ****     
 248:../inc/STM32_USB_OTG_Driver/src/usb_dcd_int.c ****     if (gintr_status.b.wkupintr)
 25128              		.loc 1 248 0
 25129 008c FB7C     		ldrb	r3, [r7, #19]	@ zero_extendqisi2
 25130 008e 23F07F03 		bic	r3, r3, #127
 25131 0092 DBB2     		uxtb	r3, r3
 25132 0094 002B     		cmp	r3, #0
 25133 0096 07D0     		beq	.L8
 249:../inc/STM32_USB_OTG_Driver/src/usb_dcd_int.c ****     {
 250:../inc/STM32_USB_OTG_Driver/src/usb_dcd_int.c ****       retval |= DCD_HandleResume_ISR(pdev);
 25134              		.loc 1 250 0
 25135 0098 7868     		ldr	r0, [r7, #4]
 25136 009a FFF7FEFF 		bl	DCD_HandleResume_ISR
 25137 009e 0346     		mov	r3, r0
 25138 00a0 7A69     		ldr	r2, [r7, #20]
 25139 00a2 42EA0303 		orr	r3, r2, r3
 25140 00a6 7B61     		str	r3, [r7, #20]
 25141              	.L8:
 251:../inc/STM32_USB_OTG_Driver/src/usb_dcd_int.c ****     }
 252:../inc/STM32_USB_OTG_Driver/src/usb_dcd_int.c ****     
 253:../inc/STM32_USB_OTG_Driver/src/usb_dcd_int.c ****     if (gintr_status.b.usbsuspend)
 25142              		.loc 1 253 0
 25143 00a8 7B7C     		ldrb	r3, [r7, #17]	@ zero_extendqisi2
 25144 00aa 03F00803 		and	r3, r3, #8
 25145 00ae DBB2     		uxtb	r3, r3
 25146 00b0 002B     		cmp	r3, #0
 25147 00b2 07D0     		beq	.L9
 254:../inc/STM32_USB_OTG_Driver/src/usb_dcd_int.c ****     {
 255:../inc/STM32_USB_OTG_Driver/src/usb_dcd_int.c ****       retval |= DCD_HandleUSBSuspend_ISR(pdev);
 25148              		.loc 1 255 0
 25149 00b4 7868     		ldr	r0, [r7, #4]
 25150 00b6 FFF7FEFF 		bl	DCD_HandleUSBSuspend_ISR
 25151 00ba 0346     		mov	r3, r0
 25152 00bc 7A69     		ldr	r2, [r7, #20]
 25153 00be 42EA0303 		orr	r3, r2, r3
 25154 00c2 7B61     		str	r3, [r7, #20]
 25155              	.L9:
 256:../inc/STM32_USB_OTG_Driver/src/usb_dcd_int.c ****     }
 257:../inc/STM32_USB_OTG_Driver/src/usb_dcd_int.c ****     if (gintr_status.b.sofintr)
 25156              		.loc 1 257 0
 25157 00c4 3B7C     		ldrb	r3, [r7, #16]	@ zero_extendqisi2
 25158 00c6 03F00803 		and	r3, r3, #8
 25159 00ca DBB2     		uxtb	r3, r3
 25160 00cc 002B     		cmp	r3, #0
 25161 00ce 07D0     		beq	.L10
 258:../inc/STM32_USB_OTG_Driver/src/usb_dcd_int.c ****     {
 259:../inc/STM32_USB_OTG_Driver/src/usb_dcd_int.c ****       retval |= DCD_HandleSof_ISR(pdev);
 25162              		.loc 1 259 0
 25163 00d0 7868     		ldr	r0, [r7, #4]
 25164 00d2 FFF7FEFF 		bl	DCD_HandleSof_ISR
 25165 00d6 0346     		mov	r3, r0
 25166 00d8 7A69     		ldr	r2, [r7, #20]
 25167 00da 42EA0303 		orr	r3, r2, r3
 25168 00de 7B61     		str	r3, [r7, #20]
 25169              	.L10:
 260:../inc/STM32_USB_OTG_Driver/src/usb_dcd_int.c ****       
 261:../inc/STM32_USB_OTG_Driver/src/usb_dcd_int.c ****     }
 262:../inc/STM32_USB_OTG_Driver/src/usb_dcd_int.c ****     
 263:../inc/STM32_USB_OTG_Driver/src/usb_dcd_int.c ****     if (gintr_status.b.rxstsqlvl)
 25170              		.loc 1 263 0
 25171 00e0 3B7C     		ldrb	r3, [r7, #16]	@ zero_extendqisi2
 25172 00e2 03F01003 		and	r3, r3, #16
 25173 00e6 DBB2     		uxtb	r3, r3
 25174 00e8 002B     		cmp	r3, #0
 25175 00ea 07D0     		beq	.L11
 264:../inc/STM32_USB_OTG_Driver/src/usb_dcd_int.c ****     {
 265:../inc/STM32_USB_OTG_Driver/src/usb_dcd_int.c ****       retval |= DCD_HandleRxStatusQueueLevel_ISR(pdev);
 25176              		.loc 1 265 0
 25177 00ec 7868     		ldr	r0, [r7, #4]
 25178 00ee FFF7FEFF 		bl	DCD_HandleRxStatusQueueLevel_ISR
 25179 00f2 0346     		mov	r3, r0
 25180 00f4 7A69     		ldr	r2, [r7, #20]
 25181 00f6 42EA0303 		orr	r3, r2, r3
 25182 00fa 7B61     		str	r3, [r7, #20]
 25183              	.L11:
 266:../inc/STM32_USB_OTG_Driver/src/usb_dcd_int.c ****       
 267:../inc/STM32_USB_OTG_Driver/src/usb_dcd_int.c ****     }
 268:../inc/STM32_USB_OTG_Driver/src/usb_dcd_int.c ****     
 269:../inc/STM32_USB_OTG_Driver/src/usb_dcd_int.c ****     if (gintr_status.b.usbreset)
 25184              		.loc 1 269 0
 25185 00fc 7B7C     		ldrb	r3, [r7, #17]	@ zero_extendqisi2
 25186 00fe 03F01003 		and	r3, r3, #16
 25187 0102 DBB2     		uxtb	r3, r3
 25188 0104 002B     		cmp	r3, #0
 25189 0106 07D0     		beq	.L12
 270:../inc/STM32_USB_OTG_Driver/src/usb_dcd_int.c ****     {
 271:../inc/STM32_USB_OTG_Driver/src/usb_dcd_int.c ****       retval |= DCD_HandleUsbReset_ISR(pdev);
 25190              		.loc 1 271 0
 25191 0108 7868     		ldr	r0, [r7, #4]
 25192 010a FFF7FEFF 		bl	DCD_HandleUsbReset_ISR
 25193 010e 0346     		mov	r3, r0
 25194 0110 7A69     		ldr	r2, [r7, #20]
 25195 0112 42EA0303 		orr	r3, r2, r3
 25196 0116 7B61     		str	r3, [r7, #20]
 25197              	.L12:
 272:../inc/STM32_USB_OTG_Driver/src/usb_dcd_int.c ****       
 273:../inc/STM32_USB_OTG_Driver/src/usb_dcd_int.c ****     }
 274:../inc/STM32_USB_OTG_Driver/src/usb_dcd_int.c ****     if (gintr_status.b.enumdone)
 25198              		.loc 1 274 0
 25199 0118 7B7C     		ldrb	r3, [r7, #17]	@ zero_extendqisi2
 25200 011a 03F02003 		and	r3, r3, #32
 25201 011e DBB2     		uxtb	r3, r3
 25202 0120 002B     		cmp	r3, #0
 25203 0122 07D0     		beq	.L13
 275:../inc/STM32_USB_OTG_Driver/src/usb_dcd_int.c ****     {
 276:../inc/STM32_USB_OTG_Driver/src/usb_dcd_int.c ****       retval |= DCD_HandleEnumDone_ISR(pdev);
 25204              		.loc 1 276 0
 25205 0124 7868     		ldr	r0, [r7, #4]
 25206 0126 FFF7FEFF 		bl	DCD_HandleEnumDone_ISR
 25207 012a 0346     		mov	r3, r0
 25208 012c 7A69     		ldr	r2, [r7, #20]
 25209 012e 42EA0303 		orr	r3, r2, r3
 25210 0132 7B61     		str	r3, [r7, #20]
 25211              	.L13:
 277:../inc/STM32_USB_OTG_Driver/src/usb_dcd_int.c ****     }
 278:../inc/STM32_USB_OTG_Driver/src/usb_dcd_int.c ****     
 279:../inc/STM32_USB_OTG_Driver/src/usb_dcd_int.c ****     if (gintr_status.b.incomplisoin)
 25212              		.loc 1 279 0
 25213 0134 BB7C     		ldrb	r3, [r7, #18]	@ zero_extendqisi2
 25214 0136 03F01003 		and	r3, r3, #16
 25215 013a DBB2     		uxtb	r3, r3
 25216 013c 002B     		cmp	r3, #0
 25217 013e 07D0     		beq	.L14
 280:../inc/STM32_USB_OTG_Driver/src/usb_dcd_int.c ****     {
 281:../inc/STM32_USB_OTG_Driver/src/usb_dcd_int.c ****       retval |= DCD_IsoINIncomplete_ISR(pdev);
 25218              		.loc 1 281 0
 25219 0140 7868     		ldr	r0, [r7, #4]
 25220 0142 FFF7FEFF 		bl	DCD_IsoINIncomplete_ISR
 25221 0146 0346     		mov	r3, r0
 25222 0148 7A69     		ldr	r2, [r7, #20]
 25223 014a 42EA0303 		orr	r3, r2, r3
 25224 014e 7B61     		str	r3, [r7, #20]
 25225              	.L14:
 282:../inc/STM32_USB_OTG_Driver/src/usb_dcd_int.c ****     }
 283:../inc/STM32_USB_OTG_Driver/src/usb_dcd_int.c **** 
 284:../inc/STM32_USB_OTG_Driver/src/usb_dcd_int.c ****     if (gintr_status.b.incomplisoout)
 25226              		.loc 1 284 0
 25227 0150 BB7C     		ldrb	r3, [r7, #18]	@ zero_extendqisi2
 25228 0152 03F02003 		and	r3, r3, #32
 25229 0156 DBB2     		uxtb	r3, r3
 25230 0158 002B     		cmp	r3, #0
 25231 015a 07D0     		beq	.L2
 285:../inc/STM32_USB_OTG_Driver/src/usb_dcd_int.c ****     {
 286:../inc/STM32_USB_OTG_Driver/src/usb_dcd_int.c ****       retval |= DCD_IsoOUTIncomplete_ISR(pdev);
 25232              		.loc 1 286 0
 25233 015c 7868     		ldr	r0, [r7, #4]
 25234 015e FFF7FEFF 		bl	DCD_IsoOUTIncomplete_ISR
 25235 0162 0346     		mov	r3, r0
 25236 0164 7A69     		ldr	r2, [r7, #20]
 25237 0166 42EA0303 		orr	r3, r2, r3
 25238 016a 7B61     		str	r3, [r7, #20]
 25239              	.L2:
 287:../inc/STM32_USB_OTG_Driver/src/usb_dcd_int.c ****     }    
 288:../inc/STM32_USB_OTG_Driver/src/usb_dcd_int.c **** #ifdef VBUS_SENSING_ENABLED
 289:../inc/STM32_USB_OTG_Driver/src/usb_dcd_int.c ****     if (gintr_status.b.sessreqintr)
 290:../inc/STM32_USB_OTG_Driver/src/usb_dcd_int.c ****     {
 291:../inc/STM32_USB_OTG_Driver/src/usb_dcd_int.c ****       retval |= DCD_SessionRequest_ISR(pdev);
 292:../inc/STM32_USB_OTG_Driver/src/usb_dcd_int.c ****     }
 293:../inc/STM32_USB_OTG_Driver/src/usb_dcd_int.c **** 
 294:../inc/STM32_USB_OTG_Driver/src/usb_dcd_int.c ****     if (gintr_status.b.otgintr)
 295:../inc/STM32_USB_OTG_Driver/src/usb_dcd_int.c ****     {
 296:../inc/STM32_USB_OTG_Driver/src/usb_dcd_int.c ****       retval |= DCD_OTG_ISR(pdev);
 297:../inc/STM32_USB_OTG_Driver/src/usb_dcd_int.c ****     }   
 298:../inc/STM32_USB_OTG_Driver/src/usb_dcd_int.c **** #endif    
 299:../inc/STM32_USB_OTG_Driver/src/usb_dcd_int.c ****   }
 300:../inc/STM32_USB_OTG_Driver/src/usb_dcd_int.c ****   return retval;
 25240              		.loc 1 300 0
 25241 016c 7B69     		ldr	r3, [r7, #20]
 25242              	.L4:
 301:../inc/STM32_USB_OTG_Driver/src/usb_dcd_int.c **** }
 25243              		.loc 1 301 0
 25244 016e 1846     		mov	r0, r3
 25245 0170 07F11807 		add	r7, r7, #24
 25246 0174 BD46     		mov	sp, r7
 25247 0176 80BD     		pop	{r7, pc}
 25248              		.cfi_endproc
 25249              	.LFE110:
 25251              		.section	.text.DCD_HandleResume_ISR,"ax",%progbits
 25252              		.align	2
 25253              		.thumb
 25254              		.thumb_func
 25256              	DCD_HandleResume_ISR:
 25257              	.LFB111:
 302:../inc/STM32_USB_OTG_Driver/src/usb_dcd_int.c **** 
 303:../inc/STM32_USB_OTG_Driver/src/usb_dcd_int.c **** #ifdef VBUS_SENSING_ENABLED
 304:../inc/STM32_USB_OTG_Driver/src/usb_dcd_int.c **** /**
 305:../inc/STM32_USB_OTG_Driver/src/usb_dcd_int.c **** * @brief  DCD_SessionRequest_ISR
 306:../inc/STM32_USB_OTG_Driver/src/usb_dcd_int.c **** *         Indicates that the USB_OTG controller has detected a connection
 307:../inc/STM32_USB_OTG_Driver/src/usb_dcd_int.c **** * @param  pdev: device instance
 308:../inc/STM32_USB_OTG_Driver/src/usb_dcd_int.c **** * @retval status
 309:../inc/STM32_USB_OTG_Driver/src/usb_dcd_int.c **** */
 310:../inc/STM32_USB_OTG_Driver/src/usb_dcd_int.c **** static uint32_t DCD_SessionRequest_ISR(USB_OTG_CORE_HANDLE *pdev)
 311:../inc/STM32_USB_OTG_Driver/src/usb_dcd_int.c **** {
 312:../inc/STM32_USB_OTG_Driver/src/usb_dcd_int.c ****   USB_OTG_GINTSTS_TypeDef  gintsts;  
 313:../inc/STM32_USB_OTG_Driver/src/usb_dcd_int.c ****   USBD_DCD_INT_fops->DevConnected (pdev);
 314:../inc/STM32_USB_OTG_Driver/src/usb_dcd_int.c **** 
 315:../inc/STM32_USB_OTG_Driver/src/usb_dcd_int.c ****   /* Clear interrupt */
 316:../inc/STM32_USB_OTG_Driver/src/usb_dcd_int.c ****   gintsts.d32 = 0;
 317:../inc/STM32_USB_OTG_Driver/src/usb_dcd_int.c ****   gintsts.b.sessreqintr = 1;
 318:../inc/STM32_USB_OTG_Driver/src/usb_dcd_int.c ****   USB_OTG_WRITE_REG32 (&pdev->regs.GREGS->GINTSTS, gintsts.d32);   
 319:../inc/STM32_USB_OTG_Driver/src/usb_dcd_int.c ****   return 1;
 320:../inc/STM32_USB_OTG_Driver/src/usb_dcd_int.c **** }
 321:../inc/STM32_USB_OTG_Driver/src/usb_dcd_int.c **** 
 322:../inc/STM32_USB_OTG_Driver/src/usb_dcd_int.c **** /**
 323:../inc/STM32_USB_OTG_Driver/src/usb_dcd_int.c **** * @brief  DCD_OTG_ISR
 324:../inc/STM32_USB_OTG_Driver/src/usb_dcd_int.c **** *         Indicates that the USB_OTG controller has detected an OTG event:
 325:../inc/STM32_USB_OTG_Driver/src/usb_dcd_int.c **** *                 used to detect the end of session i.e. disconnection
 326:../inc/STM32_USB_OTG_Driver/src/usb_dcd_int.c **** * @param  pdev: device instance
 327:../inc/STM32_USB_OTG_Driver/src/usb_dcd_int.c **** * @retval status
 328:../inc/STM32_USB_OTG_Driver/src/usb_dcd_int.c **** */
 329:../inc/STM32_USB_OTG_Driver/src/usb_dcd_int.c **** static uint32_t DCD_OTG_ISR(USB_OTG_CORE_HANDLE *pdev)
 330:../inc/STM32_USB_OTG_Driver/src/usb_dcd_int.c **** {
 331:../inc/STM32_USB_OTG_Driver/src/usb_dcd_int.c **** 
 332:../inc/STM32_USB_OTG_Driver/src/usb_dcd_int.c ****   USB_OTG_GOTGINT_TypeDef  gotgint;
 333:../inc/STM32_USB_OTG_Driver/src/usb_dcd_int.c **** 
 334:../inc/STM32_USB_OTG_Driver/src/usb_dcd_int.c ****   gotgint.d32 = USB_OTG_READ_REG32(&pdev->regs.GREGS->GOTGINT);
 335:../inc/STM32_USB_OTG_Driver/src/usb_dcd_int.c ****   
 336:../inc/STM32_USB_OTG_Driver/src/usb_dcd_int.c ****   if (gotgint.b.sesenddet)
 337:../inc/STM32_USB_OTG_Driver/src/usb_dcd_int.c ****   {
 338:../inc/STM32_USB_OTG_Driver/src/usb_dcd_int.c ****     USBD_DCD_INT_fops->DevDisconnected (pdev);
 339:../inc/STM32_USB_OTG_Driver/src/usb_dcd_int.c ****   }
 340:../inc/STM32_USB_OTG_Driver/src/usb_dcd_int.c ****   /* Clear OTG interrupt */
 341:../inc/STM32_USB_OTG_Driver/src/usb_dcd_int.c ****   USB_OTG_WRITE_REG32(&pdev->regs.GREGS->GOTGINT, gotgint.d32); 
 342:../inc/STM32_USB_OTG_Driver/src/usb_dcd_int.c ****   return 1;
 343:../inc/STM32_USB_OTG_Driver/src/usb_dcd_int.c **** }
 344:../inc/STM32_USB_OTG_Driver/src/usb_dcd_int.c **** #endif
 345:../inc/STM32_USB_OTG_Driver/src/usb_dcd_int.c **** /**
 346:../inc/STM32_USB_OTG_Driver/src/usb_dcd_int.c **** * @brief  DCD_HandleResume_ISR
 347:../inc/STM32_USB_OTG_Driver/src/usb_dcd_int.c **** *         Indicates that the USB_OTG controller has detected a resume or
 348:../inc/STM32_USB_OTG_Driver/src/usb_dcd_int.c **** *                 remote Wake-up sequence
 349:../inc/STM32_USB_OTG_Driver/src/usb_dcd_int.c **** * @param  pdev: device instance
 350:../inc/STM32_USB_OTG_Driver/src/usb_dcd_int.c **** * @retval status
 351:../inc/STM32_USB_OTG_Driver/src/usb_dcd_int.c **** */
 352:../inc/STM32_USB_OTG_Driver/src/usb_dcd_int.c **** static uint32_t DCD_HandleResume_ISR(USB_OTG_CORE_HANDLE *pdev)
 353:../inc/STM32_USB_OTG_Driver/src/usb_dcd_int.c **** {
 25258              		.loc 1 353 0
 25259              		.cfi_startproc
 25260              		@ args = 0, pretend = 0, frame = 24
 25261              		@ frame_needed = 1, uses_anonymous_args = 0
 25262 0000 80B5     		push	{r7, lr}
 25263              	.LCFI3:
 25264              		.cfi_def_cfa_offset 8
 25265 0002 86B0     		sub	sp, sp, #24
 25266              	.LCFI4:
 25267              		.cfi_def_cfa_offset 32
 25268 0004 00AF     		add	r7, sp, #0
 25269              		.cfi_offset 14, -4
 25270              		.cfi_offset 7, -8
 25271              	.LCFI5:
 25272              		.cfi_def_cfa_register 7
 25273 0006 7860     		str	r0, [r7, #4]
 354:../inc/STM32_USB_OTG_Driver/src/usb_dcd_int.c ****   USB_OTG_GINTSTS_TypeDef  gintsts;
 355:../inc/STM32_USB_OTG_Driver/src/usb_dcd_int.c ****   USB_OTG_DCTL_TypeDef     devctl;
 356:../inc/STM32_USB_OTG_Driver/src/usb_dcd_int.c ****   USB_OTG_PCGCCTL_TypeDef  power;
 357:../inc/STM32_USB_OTG_Driver/src/usb_dcd_int.c ****   
 358:../inc/STM32_USB_OTG_Driver/src/usb_dcd_int.c ****   if(pdev->cfg.low_power)
 25274              		.loc 1 358 0
 25275 0008 7B68     		ldr	r3, [r7, #4]
 25276 000a 9B7A     		ldrb	r3, [r3, #10]	@ zero_extendqisi2
 25277 000c 002B     		cmp	r3, #0
 25278 000e 11D0     		beq	.L16
 359:../inc/STM32_USB_OTG_Driver/src/usb_dcd_int.c ****   {
 360:../inc/STM32_USB_OTG_Driver/src/usb_dcd_int.c ****     /* un-gate USB Core clock */
 361:../inc/STM32_USB_OTG_Driver/src/usb_dcd_int.c ****     power.d32 = USB_OTG_READ_REG32(&pdev->regs.PCGCCTL);
 25279              		.loc 1 361 0
 25280 0010 7B68     		ldr	r3, [r7, #4]
 25281 0012 03F58673 		add	r3, r3, #268
 25282 0016 1B68     		ldr	r3, [r3, #0]
 25283 0018 FB60     		str	r3, [r7, #12]
 362:../inc/STM32_USB_OTG_Driver/src/usb_dcd_int.c ****     power.b.gatehclk = 0;
 25284              		.loc 1 362 0
 25285 001a FB68     		ldr	r3, [r7, #12]
 25286 001c 6FF34103 		bfc	r3, #1, #1
 25287 0020 FB60     		str	r3, [r7, #12]
 363:../inc/STM32_USB_OTG_Driver/src/usb_dcd_int.c ****     power.b.stoppclk = 0;
 25288              		.loc 1 363 0
 25289 0022 FB68     		ldr	r3, [r7, #12]
 25290 0024 6FF30003 		bfc	r3, #0, #1
 25291 0028 FB60     		str	r3, [r7, #12]
 364:../inc/STM32_USB_OTG_Driver/src/usb_dcd_int.c ****     USB_OTG_WRITE_REG32(pdev->regs.PCGCCTL, power.d32);
 25292              		.loc 1 364 0
 25293 002a 7B68     		ldr	r3, [r7, #4]
 25294 002c D3F80C31 		ldr	r3, [r3, #268]
 25295 0030 FA68     		ldr	r2, [r7, #12]
 25296 0032 1A60     		str	r2, [r3, #0]
 25297              	.L16:
 365:../inc/STM32_USB_OTG_Driver/src/usb_dcd_int.c ****   }
 366:../inc/STM32_USB_OTG_Driver/src/usb_dcd_int.c ****   
 367:../inc/STM32_USB_OTG_Driver/src/usb_dcd_int.c ****   /* Clear the Remote Wake-up Signaling */
 368:../inc/STM32_USB_OTG_Driver/src/usb_dcd_int.c ****   devctl.d32 = 0;
 25298              		.loc 1 368 0
 25299 0034 4FF00003 		mov	r3, #0
 25300 0038 3B61     		str	r3, [r7, #16]
 369:../inc/STM32_USB_OTG_Driver/src/usb_dcd_int.c ****   devctl.b.rmtwkupsig = 1;
 25301              		.loc 1 369 0
 25302 003a 3B69     		ldr	r3, [r7, #16]
 25303 003c 43F00103 		orr	r3, r3, #1
 25304 0040 3B61     		str	r3, [r7, #16]
 370:../inc/STM32_USB_OTG_Driver/src/usb_dcd_int.c ****   USB_OTG_MODIFY_REG32(&pdev->regs.DREGS->DCTL, devctl.d32, 0);
 25305              		.loc 1 370 0
 25306 0042 7B68     		ldr	r3, [r7, #4]
 25307 0044 1B69     		ldr	r3, [r3, #16]
 25308 0046 7A68     		ldr	r2, [r7, #4]
 25309 0048 1269     		ldr	r2, [r2, #16]
 25310 004a 5168     		ldr	r1, [r2, #4]
 25311 004c 3A69     		ldr	r2, [r7, #16]
 25312 004e 6FEA0202 		mvn	r2, r2
 25313 0052 01EA0202 		and	r2, r1, r2
 25314 0056 5A60     		str	r2, [r3, #4]
 371:../inc/STM32_USB_OTG_Driver/src/usb_dcd_int.c ****   
 372:../inc/STM32_USB_OTG_Driver/src/usb_dcd_int.c ****   /* Inform upper layer by the Resume Event */
 373:../inc/STM32_USB_OTG_Driver/src/usb_dcd_int.c ****   USBD_DCD_INT_fops->Resume (pdev);
 25315              		.loc 1 373 0
 25316 0058 0B4B     		ldr	r3, .L17
 25317 005a 1B68     		ldr	r3, [r3, #0]
 25318 005c 9B69     		ldr	r3, [r3, #24]
 25319 005e 7868     		ldr	r0, [r7, #4]
 25320 0060 9847     		blx	r3
 374:../inc/STM32_USB_OTG_Driver/src/usb_dcd_int.c ****   
 375:../inc/STM32_USB_OTG_Driver/src/usb_dcd_int.c ****   /* Clear interrupt */
 376:../inc/STM32_USB_OTG_Driver/src/usb_dcd_int.c ****   gintsts.d32 = 0;
 25321              		.loc 1 376 0
 25322 0062 4FF00003 		mov	r3, #0
 25323 0066 7B61     		str	r3, [r7, #20]
 377:../inc/STM32_USB_OTG_Driver/src/usb_dcd_int.c ****   gintsts.b.wkupintr = 1;
 25324              		.loc 1 377 0
 25325 0068 7B69     		ldr	r3, [r7, #20]
 25326 006a 43F00043 		orr	r3, r3, #-2147483648
 25327 006e 7B61     		str	r3, [r7, #20]
 378:../inc/STM32_USB_OTG_Driver/src/usb_dcd_int.c ****   USB_OTG_WRITE_REG32 (&pdev->regs.GREGS->GINTSTS, gintsts.d32);
 25328              		.loc 1 378 0
 25329 0070 7B68     		ldr	r3, [r7, #4]
 25330 0072 DB68     		ldr	r3, [r3, #12]
 25331 0074 7A69     		ldr	r2, [r7, #20]
 25332 0076 5A61     		str	r2, [r3, #20]
 379:../inc/STM32_USB_OTG_Driver/src/usb_dcd_int.c ****   return 1;
 25333              		.loc 1 379 0
 25334 0078 4FF00103 		mov	r3, #1
 380:../inc/STM32_USB_OTG_Driver/src/usb_dcd_int.c **** }
 25335              		.loc 1 380 0
 25336 007c 1846     		mov	r0, r3
 25337 007e 07F11807 		add	r7, r7, #24
 25338 0082 BD46     		mov	sp, r7
 25339 0084 80BD     		pop	{r7, pc}
 25340              	.L18:
 25341 0086 00BF     		.align	2
 25342              	.L17:
 25343 0088 00000000 		.word	USBD_DCD_INT_fops
 25344              		.cfi_endproc
 25345              	.LFE111:
 25347              		.section	.text.DCD_HandleUSBSuspend_ISR,"ax",%progbits
 25348              		.align	2
 25349              		.thumb
 25350              		.thumb_func
 25352              	DCD_HandleUSBSuspend_ISR:
 25353              	.LFB112:
 381:../inc/STM32_USB_OTG_Driver/src/usb_dcd_int.c **** 
 382:../inc/STM32_USB_OTG_Driver/src/usb_dcd_int.c **** /**
 383:../inc/STM32_USB_OTG_Driver/src/usb_dcd_int.c **** * @brief  USB_OTG_HandleUSBSuspend_ISR
 384:../inc/STM32_USB_OTG_Driver/src/usb_dcd_int.c **** *         Indicates that SUSPEND state has been detected on the USB
 385:../inc/STM32_USB_OTG_Driver/src/usb_dcd_int.c **** * @param  pdev: device instance
 386:../inc/STM32_USB_OTG_Driver/src/usb_dcd_int.c **** * @retval status
 387:../inc/STM32_USB_OTG_Driver/src/usb_dcd_int.c **** */
 388:../inc/STM32_USB_OTG_Driver/src/usb_dcd_int.c **** static uint32_t DCD_HandleUSBSuspend_ISR(USB_OTG_CORE_HANDLE *pdev)
 389:../inc/STM32_USB_OTG_Driver/src/usb_dcd_int.c **** {
 25354              		.loc 1 389 0
 25355              		.cfi_startproc
 25356              		@ args = 0, pretend = 0, frame = 24
 25357              		@ frame_needed = 1, uses_anonymous_args = 0
 25358 0000 80B5     		push	{r7, lr}
 25359              	.LCFI6:
 25360              		.cfi_def_cfa_offset 8
 25361 0002 86B0     		sub	sp, sp, #24
 25362              	.LCFI7:
 25363              		.cfi_def_cfa_offset 32
 25364 0004 00AF     		add	r7, sp, #0
 25365              		.cfi_offset 14, -4
 25366              		.cfi_offset 7, -8
 25367              	.LCFI8:
 25368              		.cfi_def_cfa_register 7
 25369 0006 7860     		str	r0, [r7, #4]
 390:../inc/STM32_USB_OTG_Driver/src/usb_dcd_int.c ****   USB_OTG_GINTSTS_TypeDef  gintsts;
 391:../inc/STM32_USB_OTG_Driver/src/usb_dcd_int.c ****   USB_OTG_PCGCCTL_TypeDef  power;
 392:../inc/STM32_USB_OTG_Driver/src/usb_dcd_int.c ****   USB_OTG_DSTS_TypeDef     dsts;
 393:../inc/STM32_USB_OTG_Driver/src/usb_dcd_int.c ****   
 394:../inc/STM32_USB_OTG_Driver/src/usb_dcd_int.c ****   USBD_DCD_INT_fops->Suspend (pdev);      
 25370              		.loc 1 394 0
 25371 0008 254B     		ldr	r3, .L21
 25372 000a 1B68     		ldr	r3, [r3, #0]
 25373 000c 5B69     		ldr	r3, [r3, #20]
 25374 000e 7868     		ldr	r0, [r7, #4]
 25375 0010 9847     		blx	r3
 395:../inc/STM32_USB_OTG_Driver/src/usb_dcd_int.c ****   
 396:../inc/STM32_USB_OTG_Driver/src/usb_dcd_int.c ****   dsts.d32 = USB_OTG_READ_REG32(&pdev->regs.DREGS->DSTS);
 25376              		.loc 1 396 0
 25377 0012 7B68     		ldr	r3, [r7, #4]
 25378 0014 1B69     		ldr	r3, [r3, #16]
 25379 0016 9B68     		ldr	r3, [r3, #8]
 25380 0018 FB60     		str	r3, [r7, #12]
 397:../inc/STM32_USB_OTG_Driver/src/usb_dcd_int.c ****     
 398:../inc/STM32_USB_OTG_Driver/src/usb_dcd_int.c ****   /* Clear interrupt */
 399:../inc/STM32_USB_OTG_Driver/src/usb_dcd_int.c ****   gintsts.d32 = 0;
 25381              		.loc 1 399 0
 25382 001a 4FF00003 		mov	r3, #0
 25383 001e 7B61     		str	r3, [r7, #20]
 400:../inc/STM32_USB_OTG_Driver/src/usb_dcd_int.c ****   gintsts.b.usbsuspend = 1;
 25384              		.loc 1 400 0
 25385 0020 7B69     		ldr	r3, [r7, #20]
 25386 0022 43F40063 		orr	r3, r3, #2048
 25387 0026 7B61     		str	r3, [r7, #20]
 401:../inc/STM32_USB_OTG_Driver/src/usb_dcd_int.c ****   USB_OTG_WRITE_REG32(&pdev->regs.GREGS->GINTSTS, gintsts.d32);
 25388              		.loc 1 401 0
 25389 0028 7B68     		ldr	r3, [r7, #4]
 25390 002a DB68     		ldr	r3, [r3, #12]
 25391 002c 7A69     		ldr	r2, [r7, #20]
 25392 002e 5A61     		str	r2, [r3, #20]
 402:../inc/STM32_USB_OTG_Driver/src/usb_dcd_int.c ****   
 403:../inc/STM32_USB_OTG_Driver/src/usb_dcd_int.c ****   if((pdev->cfg.low_power) && (dsts.b.suspsts == 1))
 25393              		.loc 1 403 0
 25394 0030 7B68     		ldr	r3, [r7, #4]
 25395 0032 9B7A     		ldrb	r3, [r3, #10]	@ zero_extendqisi2
 25396 0034 002B     		cmp	r3, #0
 25397 0036 2CD0     		beq	.L20
 25398              		.loc 1 403 0 is_stmt 0 discriminator 1
 25399 0038 3B7B     		ldrb	r3, [r7, #12]	@ zero_extendqisi2
 25400 003a 03F00103 		and	r3, r3, #1
 25401 003e DBB2     		uxtb	r3, r3
 25402 0040 002B     		cmp	r3, #0
 25403 0042 26D0     		beq	.L20
 404:../inc/STM32_USB_OTG_Driver/src/usb_dcd_int.c ****   {
 405:../inc/STM32_USB_OTG_Driver/src/usb_dcd_int.c **** 	/*  switch-off the clocks */
 406:../inc/STM32_USB_OTG_Driver/src/usb_dcd_int.c ****     power.d32 = 0;
 25404              		.loc 1 406 0 is_stmt 1
 25405 0044 4FF00003 		mov	r3, #0
 25406 0048 3B61     		str	r3, [r7, #16]
 407:../inc/STM32_USB_OTG_Driver/src/usb_dcd_int.c ****     power.b.stoppclk = 1;
 25407              		.loc 1 407 0
 25408 004a 3B69     		ldr	r3, [r7, #16]
 25409 004c 43F00103 		orr	r3, r3, #1
 25410 0050 3B61     		str	r3, [r7, #16]
 408:../inc/STM32_USB_OTG_Driver/src/usb_dcd_int.c ****     USB_OTG_MODIFY_REG32(pdev->regs.PCGCCTL, 0, power.d32);  
 25411              		.loc 1 408 0
 25412 0052 7B68     		ldr	r3, [r7, #4]
 25413 0054 D3F80C31 		ldr	r3, [r3, #268]
 25414 0058 7A68     		ldr	r2, [r7, #4]
 25415 005a D2F80C21 		ldr	r2, [r2, #268]
 25416 005e 1168     		ldr	r1, [r2, #0]
 25417 0060 3A69     		ldr	r2, [r7, #16]
 25418 0062 41EA0202 		orr	r2, r1, r2
 25419 0066 1A60     		str	r2, [r3, #0]
 409:../inc/STM32_USB_OTG_Driver/src/usb_dcd_int.c ****     
 410:../inc/STM32_USB_OTG_Driver/src/usb_dcd_int.c ****     power.b.gatehclk = 1;
 25420              		.loc 1 410 0
 25421 0068 3B69     		ldr	r3, [r7, #16]
 25422 006a 43F00203 		orr	r3, r3, #2
 25423 006e 3B61     		str	r3, [r7, #16]
 411:../inc/STM32_USB_OTG_Driver/src/usb_dcd_int.c ****     USB_OTG_MODIFY_REG32(pdev->regs.PCGCCTL, 0, power.d32);
 25424              		.loc 1 411 0
 25425 0070 7B68     		ldr	r3, [r7, #4]
 25426 0072 D3F80C31 		ldr	r3, [r3, #268]
 25427 0076 7A68     		ldr	r2, [r7, #4]
 25428 0078 D2F80C21 		ldr	r2, [r2, #268]
 25429 007c 1168     		ldr	r1, [r2, #0]
 25430 007e 3A69     		ldr	r2, [r7, #16]
 25431 0080 41EA0202 		orr	r2, r1, r2
 25432 0084 1A60     		str	r2, [r3, #0]
 412:../inc/STM32_USB_OTG_Driver/src/usb_dcd_int.c ****     
 413:../inc/STM32_USB_OTG_Driver/src/usb_dcd_int.c ****     /* Request to enter Sleep mode after exit from current ISR */
 414:../inc/STM32_USB_OTG_Driver/src/usb_dcd_int.c ****     SCB->SCR |= (SCB_SCR_SLEEPDEEP_Msk | SCB_SCR_SLEEPONEXIT_Msk);
 25433              		.loc 1 414 0
 25434 0086 074B     		ldr	r3, .L21+4
 25435 0088 064A     		ldr	r2, .L21+4
 25436 008a 1269     		ldr	r2, [r2, #16]
 25437 008c 42F00602 		orr	r2, r2, #6
 25438 0090 1A61     		str	r2, [r3, #16]
 25439              	.L20:
 415:../inc/STM32_USB_OTG_Driver/src/usb_dcd_int.c ****   }
 416:../inc/STM32_USB_OTG_Driver/src/usb_dcd_int.c ****   return 1;
 25440              		.loc 1 416 0
 25441 0092 4FF00103 		mov	r3, #1
 417:../inc/STM32_USB_OTG_Driver/src/usb_dcd_int.c **** }
 25442              		.loc 1 417 0
 25443 0096 1846     		mov	r0, r3
 25444 0098 07F11807 		add	r7, r7, #24
 25445 009c BD46     		mov	sp, r7
 25446 009e 80BD     		pop	{r7, pc}
 25447              	.L22:
 25448              		.align	2
 25449              	.L21:
 25450 00a0 00000000 		.word	USBD_DCD_INT_fops
 25451 00a4 00ED00E0 		.word	-536810240
 25452              		.cfi_endproc
 25453              	.LFE112:
 25455              		.section	.text.DCD_HandleInEP_ISR,"ax",%progbits
 25456              		.align	2
 25457              		.thumb
 25458              		.thumb_func
 25460              	DCD_HandleInEP_ISR:
 25461              	.LFB113:
 418:../inc/STM32_USB_OTG_Driver/src/usb_dcd_int.c **** 
 419:../inc/STM32_USB_OTG_Driver/src/usb_dcd_int.c **** /**
 420:../inc/STM32_USB_OTG_Driver/src/usb_dcd_int.c **** * @brief  DCD_HandleInEP_ISR
 421:../inc/STM32_USB_OTG_Driver/src/usb_dcd_int.c **** *         Indicates that an IN EP has a pending Interrupt
 422:../inc/STM32_USB_OTG_Driver/src/usb_dcd_int.c **** * @param  pdev: device instance
 423:../inc/STM32_USB_OTG_Driver/src/usb_dcd_int.c **** * @retval status
 424:../inc/STM32_USB_OTG_Driver/src/usb_dcd_int.c **** */
 425:../inc/STM32_USB_OTG_Driver/src/usb_dcd_int.c **** static uint32_t DCD_HandleInEP_ISR(USB_OTG_CORE_HANDLE *pdev)
 426:../inc/STM32_USB_OTG_Driver/src/usb_dcd_int.c **** {
 25462              		.loc 1 426 0
 25463              		.cfi_startproc
 25464              		@ args = 0, pretend = 0, frame = 24
 25465              		@ frame_needed = 1, uses_anonymous_args = 0
 25466 0000 80B5     		push	{r7, lr}
 25467              	.LCFI9:
 25468              		.cfi_def_cfa_offset 8
 25469 0002 86B0     		sub	sp, sp, #24
 25470              	.LCFI10:
 25471              		.cfi_def_cfa_offset 32
 25472 0004 00AF     		add	r7, sp, #0
 25473              		.cfi_offset 14, -4
 25474              		.cfi_offset 7, -8
 25475              	.LCFI11:
 25476              		.cfi_def_cfa_register 7
 25477 0006 7860     		str	r0, [r7, #4]
 427:../inc/STM32_USB_OTG_Driver/src/usb_dcd_int.c ****   USB_OTG_DIEPINTn_TypeDef  diepint;
 428:../inc/STM32_USB_OTG_Driver/src/usb_dcd_int.c ****   
 429:../inc/STM32_USB_OTG_Driver/src/usb_dcd_int.c ****   uint32_t ep_intr;
 430:../inc/STM32_USB_OTG_Driver/src/usb_dcd_int.c ****   uint32_t epnum = 0;
 25478              		.loc 1 430 0
 25479 0008 4FF00003 		mov	r3, #0
 25480 000c 3B61     		str	r3, [r7, #16]
 431:../inc/STM32_USB_OTG_Driver/src/usb_dcd_int.c ****   uint32_t fifoemptymsk;
 432:../inc/STM32_USB_OTG_Driver/src/usb_dcd_int.c ****   diepint.d32 = 0;
 25481              		.loc 1 432 0
 25482 000e 4FF00003 		mov	r3, #0
 25483 0012 BB60     		str	r3, [r7, #8]
 433:../inc/STM32_USB_OTG_Driver/src/usb_dcd_int.c ****   ep_intr = USB_OTG_ReadDevAllInEPItr(pdev);
 25484              		.loc 1 433 0
 25485 0014 7868     		ldr	r0, [r7, #4]
 25486 0016 FFF7FEFF 		bl	USB_OTG_ReadDevAllInEPItr
 25487 001a 7861     		str	r0, [r7, #20]
 434:../inc/STM32_USB_OTG_Driver/src/usb_dcd_int.c ****   
 435:../inc/STM32_USB_OTG_Driver/src/usb_dcd_int.c ****   while ( ep_intr )
 25488              		.loc 1 435 0
 25489 001c FAE0     		b	.L24
 25490              	.L33:
 436:../inc/STM32_USB_OTG_Driver/src/usb_dcd_int.c ****   {
 437:../inc/STM32_USB_OTG_Driver/src/usb_dcd_int.c ****     if (ep_intr&0x1) /* In ITR */
 25491              		.loc 1 437 0
 25492 001e 7B69     		ldr	r3, [r7, #20]
 25493 0020 03F00103 		and	r3, r3, #1
 25494 0024 DBB2     		uxtb	r3, r3
 25495 0026 002B     		cmp	r3, #0
 25496 0028 00F0EC80 		beq	.L25
 438:../inc/STM32_USB_OTG_Driver/src/usb_dcd_int.c ****     {
 439:../inc/STM32_USB_OTG_Driver/src/usb_dcd_int.c ****       diepint.d32 = DCD_ReadDevInEP(pdev , epnum); /* Get In ITR status */
 25497              		.loc 1 439 0
 25498 002c 3B69     		ldr	r3, [r7, #16]
 25499 002e DBB2     		uxtb	r3, r3
 25500 0030 7868     		ldr	r0, [r7, #4]
 25501 0032 1946     		mov	r1, r3
 25502 0034 FFF7FEFF 		bl	DCD_ReadDevInEP
 25503 0038 0346     		mov	r3, r0
 25504 003a BB60     		str	r3, [r7, #8]
 440:../inc/STM32_USB_OTG_Driver/src/usb_dcd_int.c ****       if ( diepint.b.xfercompl )
 25505              		.loc 1 440 0
 25506 003c 3B7A     		ldrb	r3, [r7, #8]	@ zero_extendqisi2
 25507 003e 03F00103 		and	r3, r3, #1
 25508 0042 DBB2     		uxtb	r3, r3
 25509 0044 002B     		cmp	r3, #0
 25510 0046 38D0     		beq	.L26
 441:../inc/STM32_USB_OTG_Driver/src/usb_dcd_int.c ****       {
 442:../inc/STM32_USB_OTG_Driver/src/usb_dcd_int.c ****         fifoemptymsk = 0x1 << epnum;
 25511              		.loc 1 442 0
 25512 0048 3B69     		ldr	r3, [r7, #16]
 25513 004a 4FF00102 		mov	r2, #1
 25514 004e 02FA03F3 		lsl	r3, r2, r3
 25515 0052 FB60     		str	r3, [r7, #12]
 443:../inc/STM32_USB_OTG_Driver/src/usb_dcd_int.c ****         USB_OTG_MODIFY_REG32(&pdev->regs.DREGS->DIEPEMPMSK, fifoemptymsk, 0);
 25516              		.loc 1 443 0
 25517 0054 7B68     		ldr	r3, [r7, #4]
 25518 0056 1B69     		ldr	r3, [r3, #16]
 25519 0058 7A68     		ldr	r2, [r7, #4]
 25520 005a 1269     		ldr	r2, [r2, #16]
 25521 005c 516B     		ldr	r1, [r2, #52]
 25522 005e FA68     		ldr	r2, [r7, #12]
 25523 0060 6FEA0202 		mvn	r2, r2
 25524 0064 01EA0202 		and	r2, r1, r2
 25525 0068 5A63     		str	r2, [r3, #52]
 444:../inc/STM32_USB_OTG_Driver/src/usb_dcd_int.c ****         CLEAR_IN_EP_INTR(epnum, xfercompl);
 25526              		.loc 1 444 0
 25527 006a 4FF00003 		mov	r3, #0
 25528 006e BB60     		str	r3, [r7, #8]
 25529 0070 BB68     		ldr	r3, [r7, #8]
 25530 0072 43F00103 		orr	r3, r3, #1
 25531 0076 BB60     		str	r3, [r7, #8]
 25532 0078 7A68     		ldr	r2, [r7, #4]
 25533 007a 3B69     		ldr	r3, [r7, #16]
 25534 007c 03F10403 		add	r3, r3, #4
 25535 0080 4FEA8303 		lsl	r3, r3, #2
 25536 0084 D318     		adds	r3, r2, r3
 25537 0086 9B68     		ldr	r3, [r3, #8]
 25538 0088 BA68     		ldr	r2, [r7, #8]
 25539 008a 9A60     		str	r2, [r3, #8]
 445:../inc/STM32_USB_OTG_Driver/src/usb_dcd_int.c ****         /* TX COMPLETE */
 446:../inc/STM32_USB_OTG_Driver/src/usb_dcd_int.c ****         USBD_DCD_INT_fops->DataInStage(pdev , epnum);
 25540              		.loc 1 446 0
 25541 008c 674B     		ldr	r3, .L34
 25542 008e 1B68     		ldr	r3, [r3, #0]
 25543 0090 5B68     		ldr	r3, [r3, #4]
 25544 0092 3A69     		ldr	r2, [r7, #16]
 25545 0094 D2B2     		uxtb	r2, r2
 25546 0096 7868     		ldr	r0, [r7, #4]
 25547 0098 1146     		mov	r1, r2
 25548 009a 9847     		blx	r3
 447:../inc/STM32_USB_OTG_Driver/src/usb_dcd_int.c ****         
 448:../inc/STM32_USB_OTG_Driver/src/usb_dcd_int.c ****         if (pdev->cfg.dma_enable == 1)
 25549              		.loc 1 448 0
 25550 009c 7B68     		ldr	r3, [r7, #4]
 25551 009e DB78     		ldrb	r3, [r3, #3]	@ zero_extendqisi2
 25552 00a0 012B     		cmp	r3, #1
 25553 00a2 0AD1     		bne	.L26
 449:../inc/STM32_USB_OTG_Driver/src/usb_dcd_int.c ****         {
 450:../inc/STM32_USB_OTG_Driver/src/usb_dcd_int.c ****           if((epnum == 0) && (pdev->dev.device_state == USB_OTG_EP0_STATUS_IN))
 25554              		.loc 1 450 0
 25555 00a4 3B69     		ldr	r3, [r7, #16]
 25556 00a6 002B     		cmp	r3, #0
 25557 00a8 07D1     		bne	.L26
 25558              		.loc 1 450 0 is_stmt 0 discriminator 1
 25559 00aa 7B68     		ldr	r3, [r7, #4]
 25560 00ac 93F81131 		ldrb	r3, [r3, #273]	@ zero_extendqisi2
 25561 00b0 042B     		cmp	r3, #4
 25562 00b2 02D1     		bne	.L26
 451:../inc/STM32_USB_OTG_Driver/src/usb_dcd_int.c ****           {
 452:../inc/STM32_USB_OTG_Driver/src/usb_dcd_int.c ****             /* prepare to rx more setup packets */
 453:../inc/STM32_USB_OTG_Driver/src/usb_dcd_int.c ****             USB_OTG_EP0_OutStart(pdev);
 25563              		.loc 1 453 0 is_stmt 1
 25564 00b4 7868     		ldr	r0, [r7, #4]
 25565 00b6 FFF7FEFF 		bl	USB_OTG_EP0_OutStart
 25566              	.L26:
 454:../inc/STM32_USB_OTG_Driver/src/usb_dcd_int.c ****           }
 455:../inc/STM32_USB_OTG_Driver/src/usb_dcd_int.c ****         }           
 456:../inc/STM32_USB_OTG_Driver/src/usb_dcd_int.c ****       }
 457:../inc/STM32_USB_OTG_Driver/src/usb_dcd_int.c ****       if ( diepint.b.ahberr )
 25567              		.loc 1 457 0
 25568 00ba 3B7A     		ldrb	r3, [r7, #8]	@ zero_extendqisi2
 25569 00bc 03F00403 		and	r3, r3, #4
 25570 00c0 DBB2     		uxtb	r3, r3
 25571 00c2 002B     		cmp	r3, #0
 25572 00c4 10D0     		beq	.L27
 458:../inc/STM32_USB_OTG_Driver/src/usb_dcd_int.c ****       {
 459:../inc/STM32_USB_OTG_Driver/src/usb_dcd_int.c ****         CLEAR_IN_EP_INTR(epnum, ahberr);
 25573              		.loc 1 459 0
 25574 00c6 4FF00003 		mov	r3, #0
 25575 00ca BB60     		str	r3, [r7, #8]
 25576 00cc BB68     		ldr	r3, [r7, #8]
 25577 00ce 43F00403 		orr	r3, r3, #4
 25578 00d2 BB60     		str	r3, [r7, #8]
 25579 00d4 7A68     		ldr	r2, [r7, #4]
 25580 00d6 3B69     		ldr	r3, [r7, #16]
 25581 00d8 03F10403 		add	r3, r3, #4
 25582 00dc 4FEA8303 		lsl	r3, r3, #2
 25583 00e0 D318     		adds	r3, r2, r3
 25584 00e2 9B68     		ldr	r3, [r3, #8]
 25585 00e4 BA68     		ldr	r2, [r7, #8]
 25586 00e6 9A60     		str	r2, [r3, #8]
 25587              	.L27:
 460:../inc/STM32_USB_OTG_Driver/src/usb_dcd_int.c ****       }
 461:../inc/STM32_USB_OTG_Driver/src/usb_dcd_int.c ****       if ( diepint.b.timeout )
 25588              		.loc 1 461 0
 25589 00e8 3B7A     		ldrb	r3, [r7, #8]	@ zero_extendqisi2
 25590 00ea 03F00803 		and	r3, r3, #8
 25591 00ee DBB2     		uxtb	r3, r3
 25592 00f0 002B     		cmp	r3, #0
 25593 00f2 10D0     		beq	.L28
 462:../inc/STM32_USB_OTG_Driver/src/usb_dcd_int.c ****       {
 463:../inc/STM32_USB_OTG_Driver/src/usb_dcd_int.c ****         CLEAR_IN_EP_INTR(epnum, timeout);
 25594              		.loc 1 463 0
 25595 00f4 4FF00003 		mov	r3, #0
 25596 00f8 BB60     		str	r3, [r7, #8]
 25597 00fa BB68     		ldr	r3, [r7, #8]
 25598 00fc 43F00803 		orr	r3, r3, #8
 25599 0100 BB60     		str	r3, [r7, #8]
 25600 0102 7A68     		ldr	r2, [r7, #4]
 25601 0104 3B69     		ldr	r3, [r7, #16]
 25602 0106 03F10403 		add	r3, r3, #4
 25603 010a 4FEA8303 		lsl	r3, r3, #2
 25604 010e D318     		adds	r3, r2, r3
 25605 0110 9B68     		ldr	r3, [r3, #8]
 25606 0112 BA68     		ldr	r2, [r7, #8]
 25607 0114 9A60     		str	r2, [r3, #8]
 25608              	.L28:
 464:../inc/STM32_USB_OTG_Driver/src/usb_dcd_int.c ****       }
 465:../inc/STM32_USB_OTG_Driver/src/usb_dcd_int.c ****       if (diepint.b.intktxfemp)
 25609              		.loc 1 465 0
 25610 0116 3B7A     		ldrb	r3, [r7, #8]	@ zero_extendqisi2
 25611 0118 03F01003 		and	r3, r3, #16
 25612 011c DBB2     		uxtb	r3, r3
 25613 011e 002B     		cmp	r3, #0
 25614 0120 10D0     		beq	.L29
 466:../inc/STM32_USB_OTG_Driver/src/usb_dcd_int.c ****       {
 467:../inc/STM32_USB_OTG_Driver/src/usb_dcd_int.c ****         CLEAR_IN_EP_INTR(epnum, intktxfemp);
 25615              		.loc 1 467 0
 25616 0122 4FF00003 		mov	r3, #0
 25617 0126 BB60     		str	r3, [r7, #8]
 25618 0128 BB68     		ldr	r3, [r7, #8]
 25619 012a 43F01003 		orr	r3, r3, #16
 25620 012e BB60     		str	r3, [r7, #8]
 25621 0130 7A68     		ldr	r2, [r7, #4]
 25622 0132 3B69     		ldr	r3, [r7, #16]
 25623 0134 03F10403 		add	r3, r3, #4
 25624 0138 4FEA8303 		lsl	r3, r3, #2
 25625 013c D318     		adds	r3, r2, r3
 25626 013e 9B68     		ldr	r3, [r3, #8]
 25627 0140 BA68     		ldr	r2, [r7, #8]
 25628 0142 9A60     		str	r2, [r3, #8]
 25629              	.L29:
 468:../inc/STM32_USB_OTG_Driver/src/usb_dcd_int.c ****       }
 469:../inc/STM32_USB_OTG_Driver/src/usb_dcd_int.c ****       if (diepint.b.intknepmis)
 25630              		.loc 1 469 0
 25631 0144 3B7A     		ldrb	r3, [r7, #8]	@ zero_extendqisi2
 25632 0146 03F02003 		and	r3, r3, #32
 25633 014a DBB2     		uxtb	r3, r3
 25634 014c 002B     		cmp	r3, #0
 25635 014e 10D0     		beq	.L30
 470:../inc/STM32_USB_OTG_Driver/src/usb_dcd_int.c ****       {
 471:../inc/STM32_USB_OTG_Driver/src/usb_dcd_int.c ****         CLEAR_IN_EP_INTR(epnum, intknepmis);
 25636              		.loc 1 471 0
 25637 0150 4FF00003 		mov	r3, #0
 25638 0154 BB60     		str	r3, [r7, #8]
 25639 0156 BB68     		ldr	r3, [r7, #8]
 25640 0158 43F02003 		orr	r3, r3, #32
 25641 015c BB60     		str	r3, [r7, #8]
 25642 015e 7A68     		ldr	r2, [r7, #4]
 25643 0160 3B69     		ldr	r3, [r7, #16]
 25644 0162 03F10403 		add	r3, r3, #4
 25645 0166 4FEA8303 		lsl	r3, r3, #2
 25646 016a D318     		adds	r3, r2, r3
 25647 016c 9B68     		ldr	r3, [r3, #8]
 25648 016e BA68     		ldr	r2, [r7, #8]
 25649 0170 9A60     		str	r2, [r3, #8]
 25650              	.L30:
 472:../inc/STM32_USB_OTG_Driver/src/usb_dcd_int.c ****       }
 473:../inc/STM32_USB_OTG_Driver/src/usb_dcd_int.c ****       if (diepint.b.inepnakeff)
 25651              		.loc 1 473 0
 25652 0172 3B7A     		ldrb	r3, [r7, #8]	@ zero_extendqisi2
 25653 0174 03F04003 		and	r3, r3, #64
 25654 0178 DBB2     		uxtb	r3, r3
 25655 017a 002B     		cmp	r3, #0
 25656 017c 10D0     		beq	.L31
 474:../inc/STM32_USB_OTG_Driver/src/usb_dcd_int.c ****       {
 475:../inc/STM32_USB_OTG_Driver/src/usb_dcd_int.c ****         CLEAR_IN_EP_INTR(epnum, inepnakeff);
 25657              		.loc 1 475 0
 25658 017e 4FF00003 		mov	r3, #0
 25659 0182 BB60     		str	r3, [r7, #8]
 25660 0184 BB68     		ldr	r3, [r7, #8]
 25661 0186 43F04003 		orr	r3, r3, #64
 25662 018a BB60     		str	r3, [r7, #8]
 25663 018c 7A68     		ldr	r2, [r7, #4]
 25664 018e 3B69     		ldr	r3, [r7, #16]
 25665 0190 03F10403 		add	r3, r3, #4
 25666 0194 4FEA8303 		lsl	r3, r3, #2
 25667 0198 D318     		adds	r3, r2, r3
 25668 019a 9B68     		ldr	r3, [r3, #8]
 25669 019c BA68     		ldr	r2, [r7, #8]
 25670 019e 9A60     		str	r2, [r3, #8]
 25671              	.L31:
 476:../inc/STM32_USB_OTG_Driver/src/usb_dcd_int.c ****       }
 477:../inc/STM32_USB_OTG_Driver/src/usb_dcd_int.c ****       if ( diepint.b.epdisabled )
 25672              		.loc 1 477 0
 25673 01a0 3B7A     		ldrb	r3, [r7, #8]	@ zero_extendqisi2
 25674 01a2 03F00203 		and	r3, r3, #2
 25675 01a6 DBB2     		uxtb	r3, r3
 25676 01a8 002B     		cmp	r3, #0
 25677 01aa 10D0     		beq	.L32
 478:../inc/STM32_USB_OTG_Driver/src/usb_dcd_int.c ****       {
 479:../inc/STM32_USB_OTG_Driver/src/usb_dcd_int.c ****         CLEAR_IN_EP_INTR(epnum, epdisabled);
 25678              		.loc 1 479 0
 25679 01ac 4FF00003 		mov	r3, #0
 25680 01b0 BB60     		str	r3, [r7, #8]
 25681 01b2 BB68     		ldr	r3, [r7, #8]
 25682 01b4 43F00203 		orr	r3, r3, #2
 25683 01b8 BB60     		str	r3, [r7, #8]
 25684 01ba 7A68     		ldr	r2, [r7, #4]
 25685 01bc 3B69     		ldr	r3, [r7, #16]
 25686 01be 03F10403 		add	r3, r3, #4
 25687 01c2 4FEA8303 		lsl	r3, r3, #2
 25688 01c6 D318     		adds	r3, r2, r3
 25689 01c8 9B68     		ldr	r3, [r3, #8]
 25690 01ca BA68     		ldr	r2, [r7, #8]
 25691 01cc 9A60     		str	r2, [r3, #8]
 25692              	.L32:
 480:../inc/STM32_USB_OTG_Driver/src/usb_dcd_int.c ****       }       
 481:../inc/STM32_USB_OTG_Driver/src/usb_dcd_int.c ****       if (diepint.b.emptyintr)
 25693              		.loc 1 481 0
 25694 01ce 3B7A     		ldrb	r3, [r7, #8]	@ zero_extendqisi2
 25695 01d0 23F07F03 		bic	r3, r3, #127
 25696 01d4 DBB2     		uxtb	r3, r3
 25697 01d6 002B     		cmp	r3, #0
 25698 01d8 14D0     		beq	.L25
 482:../inc/STM32_USB_OTG_Driver/src/usb_dcd_int.c ****       {
 483:../inc/STM32_USB_OTG_Driver/src/usb_dcd_int.c ****         
 484:../inc/STM32_USB_OTG_Driver/src/usb_dcd_int.c ****         DCD_WriteEmptyTxFifo(pdev , epnum);
 25699              		.loc 1 484 0
 25700 01da 7868     		ldr	r0, [r7, #4]
 25701 01dc 3969     		ldr	r1, [r7, #16]
 25702 01de FFF7FEFF 		bl	DCD_WriteEmptyTxFifo
 485:../inc/STM32_USB_OTG_Driver/src/usb_dcd_int.c ****         
 486:../inc/STM32_USB_OTG_Driver/src/usb_dcd_int.c ****         CLEAR_IN_EP_INTR(epnum, emptyintr);
 25703              		.loc 1 486 0
 25704 01e2 4FF00003 		mov	r3, #0
 25705 01e6 BB60     		str	r3, [r7, #8]
 25706 01e8 BB68     		ldr	r3, [r7, #8]
 25707 01ea 43F08003 		orr	r3, r3, #128
 25708 01ee BB60     		str	r3, [r7, #8]
 25709 01f0 7A68     		ldr	r2, [r7, #4]
 25710 01f2 3B69     		ldr	r3, [r7, #16]
 25711 01f4 03F10403 		add	r3, r3, #4
 25712 01f8 4FEA8303 		lsl	r3, r3, #2
 25713 01fc D318     		adds	r3, r2, r3
 25714 01fe 9B68     		ldr	r3, [r3, #8]
 25715 0200 BA68     		ldr	r2, [r7, #8]
 25716 0202 9A60     		str	r2, [r3, #8]
 25717              	.L25:
 487:../inc/STM32_USB_OTG_Driver/src/usb_dcd_int.c ****       }
 488:../inc/STM32_USB_OTG_Driver/src/usb_dcd_int.c ****     }
 489:../inc/STM32_USB_OTG_Driver/src/usb_dcd_int.c ****     epnum++;
 25718              		.loc 1 489 0
 25719 0204 3B69     		ldr	r3, [r7, #16]
 25720 0206 03F10103 		add	r3, r3, #1
 25721 020a 3B61     		str	r3, [r7, #16]
 490:../inc/STM32_USB_OTG_Driver/src/usb_dcd_int.c ****     ep_intr >>= 1;
 25722              		.loc 1 490 0
 25723 020c 7B69     		ldr	r3, [r7, #20]
 25724 020e 4FEA5303 		lsr	r3, r3, #1
 25725 0212 7B61     		str	r3, [r7, #20]
 25726              	.L24:
 435:../inc/STM32_USB_OTG_Driver/src/usb_dcd_int.c ****   while ( ep_intr )
 25727              		.loc 1 435 0 discriminator 1
 25728 0214 7B69     		ldr	r3, [r7, #20]
 25729 0216 002B     		cmp	r3, #0
 25730 0218 7FF401AF 		bne	.L33
 491:../inc/STM32_USB_OTG_Driver/src/usb_dcd_int.c ****   }
 492:../inc/STM32_USB_OTG_Driver/src/usb_dcd_int.c ****   
 493:../inc/STM32_USB_OTG_Driver/src/usb_dcd_int.c ****   return 1;
 25731              		.loc 1 493 0
 25732 021c 4FF00103 		mov	r3, #1
 494:../inc/STM32_USB_OTG_Driver/src/usb_dcd_int.c **** }
 25733              		.loc 1 494 0
 25734 0220 1846     		mov	r0, r3
 25735 0222 07F11807 		add	r7, r7, #24
 25736 0226 BD46     		mov	sp, r7
 25737 0228 80BD     		pop	{r7, pc}
 25738              	.L35:
 25739 022a 00BF     		.align	2
 25740              	.L34:
 25741 022c 00000000 		.word	USBD_DCD_INT_fops
 25742              		.cfi_endproc
 25743              	.LFE113:
 25745              		.section	.text.DCD_HandleOutEP_ISR,"ax",%progbits
 25746              		.align	2
 25747              		.thumb
 25748              		.thumb_func
 25750              	DCD_HandleOutEP_ISR:
 25751              	.LFB114:
 495:../inc/STM32_USB_OTG_Driver/src/usb_dcd_int.c **** 
 496:../inc/STM32_USB_OTG_Driver/src/usb_dcd_int.c **** /**
 497:../inc/STM32_USB_OTG_Driver/src/usb_dcd_int.c **** * @brief  DCD_HandleOutEP_ISR
 498:../inc/STM32_USB_OTG_Driver/src/usb_dcd_int.c **** *         Indicates that an OUT EP has a pending Interrupt
 499:../inc/STM32_USB_OTG_Driver/src/usb_dcd_int.c **** * @param  pdev: device instance
 500:../inc/STM32_USB_OTG_Driver/src/usb_dcd_int.c **** * @retval status
 501:../inc/STM32_USB_OTG_Driver/src/usb_dcd_int.c **** */
 502:../inc/STM32_USB_OTG_Driver/src/usb_dcd_int.c **** static uint32_t DCD_HandleOutEP_ISR(USB_OTG_CORE_HANDLE *pdev)
 503:../inc/STM32_USB_OTG_Driver/src/usb_dcd_int.c **** {
 25752              		.loc 1 503 0
 25753              		.cfi_startproc
 25754              		@ args = 0, pretend = 0, frame = 24
 25755              		@ frame_needed = 1, uses_anonymous_args = 0
 25756 0000 80B5     		push	{r7, lr}
 25757              	.LCFI12:
 25758              		.cfi_def_cfa_offset 8
 25759 0002 86B0     		sub	sp, sp, #24
 25760              	.LCFI13:
 25761              		.cfi_def_cfa_offset 32
 25762 0004 00AF     		add	r7, sp, #0
 25763              		.cfi_offset 14, -4
 25764              		.cfi_offset 7, -8
 25765              	.LCFI14:
 25766              		.cfi_def_cfa_register 7
 25767 0006 7860     		str	r0, [r7, #4]
 504:../inc/STM32_USB_OTG_Driver/src/usb_dcd_int.c ****   uint32_t ep_intr;
 505:../inc/STM32_USB_OTG_Driver/src/usb_dcd_int.c ****   USB_OTG_DOEPINTn_TypeDef  doepint;
 506:../inc/STM32_USB_OTG_Driver/src/usb_dcd_int.c ****   USB_OTG_DEPXFRSIZ_TypeDef  deptsiz;
 507:../inc/STM32_USB_OTG_Driver/src/usb_dcd_int.c ****   uint32_t epnum = 0;
 25768              		.loc 1 507 0
 25769 0008 4FF00003 		mov	r3, #0
 25770 000c 3B61     		str	r3, [r7, #16]
 508:../inc/STM32_USB_OTG_Driver/src/usb_dcd_int.c ****   
 509:../inc/STM32_USB_OTG_Driver/src/usb_dcd_int.c ****   doepint.d32 = 0;
 25771              		.loc 1 509 0
 25772 000e 4FF00003 		mov	r3, #0
 25773 0012 FB60     		str	r3, [r7, #12]
 510:../inc/STM32_USB_OTG_Driver/src/usb_dcd_int.c ****   
 511:../inc/STM32_USB_OTG_Driver/src/usb_dcd_int.c ****   /* Read in the device interrupt bits */
 512:../inc/STM32_USB_OTG_Driver/src/usb_dcd_int.c ****   ep_intr = USB_OTG_ReadDevAllOutEp_itr(pdev);
 25774              		.loc 1 512 0
 25775 0014 7868     		ldr	r0, [r7, #4]
 25776 0016 FFF7FEFF 		bl	USB_OTG_ReadDevAllOutEp_itr
 25777 001a 7861     		str	r0, [r7, #20]
 513:../inc/STM32_USB_OTG_Driver/src/usb_dcd_int.c ****   
 514:../inc/STM32_USB_OTG_Driver/src/usb_dcd_int.c ****   while ( ep_intr )
 25778              		.loc 1 514 0
 25779 001c B8E0     		b	.L37
 25780              	.L43:
 515:../inc/STM32_USB_OTG_Driver/src/usb_dcd_int.c ****   {
 516:../inc/STM32_USB_OTG_Driver/src/usb_dcd_int.c ****     if (ep_intr&0x1)
 25781              		.loc 1 516 0
 25782 001e 7B69     		ldr	r3, [r7, #20]
 25783 0020 03F00103 		and	r3, r3, #1
 25784 0024 DBB2     		uxtb	r3, r3
 25785 0026 002B     		cmp	r3, #0
 25786 0028 00F0AA80 		beq	.L38
 517:../inc/STM32_USB_OTG_Driver/src/usb_dcd_int.c ****     {
 518:../inc/STM32_USB_OTG_Driver/src/usb_dcd_int.c ****       
 519:../inc/STM32_USB_OTG_Driver/src/usb_dcd_int.c ****       doepint.d32 = USB_OTG_ReadDevOutEP_itr(pdev, epnum);
 25787              		.loc 1 519 0
 25788 002c 3B69     		ldr	r3, [r7, #16]
 25789 002e DBB2     		uxtb	r3, r3
 25790 0030 7868     		ldr	r0, [r7, #4]
 25791 0032 1946     		mov	r1, r3
 25792 0034 FFF7FEFF 		bl	USB_OTG_ReadDevOutEP_itr
 25793 0038 0346     		mov	r3, r0
 25794 003a FB60     		str	r3, [r7, #12]
 520:../inc/STM32_USB_OTG_Driver/src/usb_dcd_int.c ****       
 521:../inc/STM32_USB_OTG_Driver/src/usb_dcd_int.c ****       /* Transfer complete */
 522:../inc/STM32_USB_OTG_Driver/src/usb_dcd_int.c ****       if ( doepint.b.xfercompl )
 25795              		.loc 1 522 0
 25796 003c 3B7B     		ldrb	r3, [r7, #12]	@ zero_extendqisi2
 25797 003e 03F00103 		and	r3, r3, #1
 25798 0042 DBB2     		uxtb	r3, r3
 25799 0044 002B     		cmp	r3, #0
 25800 0046 51D0     		beq	.L39
 523:../inc/STM32_USB_OTG_Driver/src/usb_dcd_int.c ****       {
 524:../inc/STM32_USB_OTG_Driver/src/usb_dcd_int.c ****         /* Clear the bit in DOEPINTn for this interrupt */
 525:../inc/STM32_USB_OTG_Driver/src/usb_dcd_int.c ****         CLEAR_OUT_EP_INTR(epnum, xfercompl);
 25801              		.loc 1 525 0
 25802 0048 4FF00003 		mov	r3, #0
 25803 004c FB60     		str	r3, [r7, #12]
 25804 004e FB68     		ldr	r3, [r7, #12]
 25805 0050 43F00103 		orr	r3, r3, #1
 25806 0054 FB60     		str	r3, [r7, #12]
 25807 0056 7A68     		ldr	r2, [r7, #4]
 25808 0058 3B69     		ldr	r3, [r7, #16]
 25809 005a 03F11403 		add	r3, r3, #20
 25810 005e 4FEA8303 		lsl	r3, r3, #2
 25811 0062 D318     		adds	r3, r2, r3
 25812 0064 5B68     		ldr	r3, [r3, #4]
 25813 0066 FA68     		ldr	r2, [r7, #12]
 25814 0068 9A60     		str	r2, [r3, #8]
 526:../inc/STM32_USB_OTG_Driver/src/usb_dcd_int.c ****         if (pdev->cfg.dma_enable == 1)
 25815              		.loc 1 526 0
 25816 006a 7B68     		ldr	r3, [r7, #4]
 25817 006c DB78     		ldrb	r3, [r3, #3]	@ zero_extendqisi2
 25818 006e 012B     		cmp	r3, #1
 25819 0070 25D1     		bne	.L40
 527:../inc/STM32_USB_OTG_Driver/src/usb_dcd_int.c ****         {
 528:../inc/STM32_USB_OTG_Driver/src/usb_dcd_int.c ****           deptsiz.d32 = USB_OTG_READ_REG32(&(pdev->regs.OUTEP_REGS[epnum]->DOEPTSIZ));
 25820              		.loc 1 528 0
 25821 0072 7A68     		ldr	r2, [r7, #4]
 25822 0074 3B69     		ldr	r3, [r7, #16]
 25823 0076 03F11403 		add	r3, r3, #20
 25824 007a 4FEA8303 		lsl	r3, r3, #2
 25825 007e D318     		adds	r3, r2, r3
 25826 0080 5B68     		ldr	r3, [r3, #4]
 25827 0082 1B69     		ldr	r3, [r3, #16]
 25828 0084 BB60     		str	r3, [r7, #8]
 529:../inc/STM32_USB_OTG_Driver/src/usb_dcd_int.c ****           /*ToDo : handle more than one single MPS size packet */
 530:../inc/STM32_USB_OTG_Driver/src/usb_dcd_int.c ****           pdev->dev.out_ep[epnum].xfer_count = pdev->dev.out_ep[epnum].maxpacket - \
 25829              		.loc 1 530 0
 25830 0086 7968     		ldr	r1, [r7, #4]
 25831 0088 3A69     		ldr	r2, [r7, #16]
 25832 008a 1346     		mov	r3, r2
 25833 008c 4FEA8303 		lsl	r3, r3, #2
 25834 0090 9B18     		adds	r3, r3, r2
 25835 0092 4FEAC303 		lsl	r3, r3, #3
 25836 0096 CB18     		adds	r3, r1, r3
 25837 0098 03F55E73 		add	r3, r3, #888
 25838 009c 1A68     		ldr	r2, [r3, #0]
 531:../inc/STM32_USB_OTG_Driver/src/usb_dcd_int.c ****             deptsiz.b.xfersize;
 25839              		.loc 1 531 0
 25840 009e BB68     		ldr	r3, [r7, #8]
 25841 00a0 C3F31203 		ubfx	r3, r3, #0, #19
 530:../inc/STM32_USB_OTG_Driver/src/usb_dcd_int.c ****           pdev->dev.out_ep[epnum].xfer_count = pdev->dev.out_ep[epnum].maxpacket - \
 25842              		.loc 1 530 0
 25843 00a4 D11A     		subs	r1, r2, r3
 25844 00a6 7868     		ldr	r0, [r7, #4]
 25845 00a8 3A69     		ldr	r2, [r7, #16]
 25846 00aa 1346     		mov	r3, r2
 25847 00ac 4FEA8303 		lsl	r3, r3, #2
 25848 00b0 9B18     		adds	r3, r3, r2
 25849 00b2 4FEAC303 		lsl	r3, r3, #3
 25850 00b6 C318     		adds	r3, r0, r3
 25851 00b8 03F56273 		add	r3, r3, #904
 25852 00bc 1960     		str	r1, [r3, #0]
 25853              	.L40:
 532:../inc/STM32_USB_OTG_Driver/src/usb_dcd_int.c ****         }
 533:../inc/STM32_USB_OTG_Driver/src/usb_dcd_int.c ****         /* Inform upper layer: data ready */
 534:../inc/STM32_USB_OTG_Driver/src/usb_dcd_int.c ****         /* RX COMPLETE */
 535:../inc/STM32_USB_OTG_Driver/src/usb_dcd_int.c ****         USBD_DCD_INT_fops->DataOutStage(pdev , epnum);
 25854              		.loc 1 535 0
 25855 00be 3A4B     		ldr	r3, .L44
 25856 00c0 1B68     		ldr	r3, [r3, #0]
 25857 00c2 1B68     		ldr	r3, [r3, #0]
 25858 00c4 3A69     		ldr	r2, [r7, #16]
 25859 00c6 D2B2     		uxtb	r2, r2
 25860 00c8 7868     		ldr	r0, [r7, #4]
 25861 00ca 1146     		mov	r1, r2
 25862 00cc 9847     		blx	r3
 536:../inc/STM32_USB_OTG_Driver/src/usb_dcd_int.c ****         
 537:../inc/STM32_USB_OTG_Driver/src/usb_dcd_int.c ****         if (pdev->cfg.dma_enable == 1)
 25863              		.loc 1 537 0
 25864 00ce 7B68     		ldr	r3, [r7, #4]
 25865 00d0 DB78     		ldrb	r3, [r3, #3]	@ zero_extendqisi2
 25866 00d2 012B     		cmp	r3, #1
 25867 00d4 0AD1     		bne	.L39
 538:../inc/STM32_USB_OTG_Driver/src/usb_dcd_int.c ****         {
 539:../inc/STM32_USB_OTG_Driver/src/usb_dcd_int.c ****           if((epnum == 0) && (pdev->dev.device_state == USB_OTG_EP0_STATUS_OUT))
 25868              		.loc 1 539 0
 25869 00d6 3B69     		ldr	r3, [r7, #16]
 25870 00d8 002B     		cmp	r3, #0
 25871 00da 07D1     		bne	.L39
 25872              		.loc 1 539 0 is_stmt 0 discriminator 1
 25873 00dc 7B68     		ldr	r3, [r7, #4]
 25874 00de 93F81131 		ldrb	r3, [r3, #273]	@ zero_extendqisi2
 25875 00e2 052B     		cmp	r3, #5
 25876 00e4 02D1     		bne	.L39
 540:../inc/STM32_USB_OTG_Driver/src/usb_dcd_int.c ****           {
 541:../inc/STM32_USB_OTG_Driver/src/usb_dcd_int.c ****             /* prepare to rx more setup packets */
 542:../inc/STM32_USB_OTG_Driver/src/usb_dcd_int.c ****             USB_OTG_EP0_OutStart(pdev);
 25877              		.loc 1 542 0 is_stmt 1
 25878 00e6 7868     		ldr	r0, [r7, #4]
 25879 00e8 FFF7FEFF 		bl	USB_OTG_EP0_OutStart
 25880              	.L39:
 543:../inc/STM32_USB_OTG_Driver/src/usb_dcd_int.c ****           }
 544:../inc/STM32_USB_OTG_Driver/src/usb_dcd_int.c ****         }        
 545:../inc/STM32_USB_OTG_Driver/src/usb_dcd_int.c ****       }
 546:../inc/STM32_USB_OTG_Driver/src/usb_dcd_int.c ****       /* Endpoint disable  */
 547:../inc/STM32_USB_OTG_Driver/src/usb_dcd_int.c ****       if ( doepint.b.epdisabled )
 25881              		.loc 1 547 0
 25882 00ec 3B7B     		ldrb	r3, [r7, #12]	@ zero_extendqisi2
 25883 00ee 03F00203 		and	r3, r3, #2
 25884 00f2 DBB2     		uxtb	r3, r3
 25885 00f4 002B     		cmp	r3, #0
 25886 00f6 10D0     		beq	.L41
 548:../inc/STM32_USB_OTG_Driver/src/usb_dcd_int.c ****       {
 549:../inc/STM32_USB_OTG_Driver/src/usb_dcd_int.c ****         /* Clear the bit in DOEPINTn for this interrupt */
 550:../inc/STM32_USB_OTG_Driver/src/usb_dcd_int.c ****         CLEAR_OUT_EP_INTR(epnum, epdisabled);
 25887              		.loc 1 550 0
 25888 00f8 4FF00003 		mov	r3, #0
 25889 00fc FB60     		str	r3, [r7, #12]
 25890 00fe FB68     		ldr	r3, [r7, #12]
 25891 0100 43F00203 		orr	r3, r3, #2
 25892 0104 FB60     		str	r3, [r7, #12]
 25893 0106 7A68     		ldr	r2, [r7, #4]
 25894 0108 3B69     		ldr	r3, [r7, #16]
 25895 010a 03F11403 		add	r3, r3, #20
 25896 010e 4FEA8303 		lsl	r3, r3, #2
 25897 0112 D318     		adds	r3, r2, r3
 25898 0114 5B68     		ldr	r3, [r3, #4]
 25899 0116 FA68     		ldr	r2, [r7, #12]
 25900 0118 9A60     		str	r2, [r3, #8]
 25901              	.L41:
 551:../inc/STM32_USB_OTG_Driver/src/usb_dcd_int.c ****       }
 552:../inc/STM32_USB_OTG_Driver/src/usb_dcd_int.c ****       /* AHB Error */
 553:../inc/STM32_USB_OTG_Driver/src/usb_dcd_int.c ****       if ( doepint.b.ahberr )
 25902              		.loc 1 553 0
 25903 011a 3B7B     		ldrb	r3, [r7, #12]	@ zero_extendqisi2
 25904 011c 03F00403 		and	r3, r3, #4
 25905 0120 DBB2     		uxtb	r3, r3
 25906 0122 002B     		cmp	r3, #0
 25907 0124 10D0     		beq	.L42
 554:../inc/STM32_USB_OTG_Driver/src/usb_dcd_int.c ****       {
 555:../inc/STM32_USB_OTG_Driver/src/usb_dcd_int.c ****         CLEAR_OUT_EP_INTR(epnum, ahberr);
 25908              		.loc 1 555 0
 25909 0126 4FF00003 		mov	r3, #0
 25910 012a FB60     		str	r3, [r7, #12]
 25911 012c FB68     		ldr	r3, [r7, #12]
 25912 012e 43F00403 		orr	r3, r3, #4
 25913 0132 FB60     		str	r3, [r7, #12]
 25914 0134 7A68     		ldr	r2, [r7, #4]
 25915 0136 3B69     		ldr	r3, [r7, #16]
 25916 0138 03F11403 		add	r3, r3, #20
 25917 013c 4FEA8303 		lsl	r3, r3, #2
 25918 0140 D318     		adds	r3, r2, r3
 25919 0142 5B68     		ldr	r3, [r3, #4]
 25920 0144 FA68     		ldr	r2, [r7, #12]
 25921 0146 9A60     		str	r2, [r3, #8]
 25922              	.L42:
 556:../inc/STM32_USB_OTG_Driver/src/usb_dcd_int.c ****       }
 557:../inc/STM32_USB_OTG_Driver/src/usb_dcd_int.c ****       /* Setup Phase Done (control EPs) */
 558:../inc/STM32_USB_OTG_Driver/src/usb_dcd_int.c ****       if ( doepint.b.setup )
 25923              		.loc 1 558 0
 25924 0148 3B7B     		ldrb	r3, [r7, #12]	@ zero_extendqisi2
 25925 014a 03F00803 		and	r3, r3, #8
 25926 014e DBB2     		uxtb	r3, r3
 25927 0150 002B     		cmp	r3, #0
 25928 0152 15D0     		beq	.L38
 559:../inc/STM32_USB_OTG_Driver/src/usb_dcd_int.c ****       {
 560:../inc/STM32_USB_OTG_Driver/src/usb_dcd_int.c ****         
 561:../inc/STM32_USB_OTG_Driver/src/usb_dcd_int.c ****         /* inform the upper layer that a setup packet is available */
 562:../inc/STM32_USB_OTG_Driver/src/usb_dcd_int.c ****         /* SETUP COMPLETE */
 563:../inc/STM32_USB_OTG_Driver/src/usb_dcd_int.c ****         USBD_DCD_INT_fops->SetupStage(pdev);
 25929              		.loc 1 563 0
 25930 0154 144B     		ldr	r3, .L44
 25931 0156 1B68     		ldr	r3, [r3, #0]
 25932 0158 9B68     		ldr	r3, [r3, #8]
 25933 015a 7868     		ldr	r0, [r7, #4]
 25934 015c 9847     		blx	r3
 564:../inc/STM32_USB_OTG_Driver/src/usb_dcd_int.c ****         CLEAR_OUT_EP_INTR(epnum, setup);
 25935              		.loc 1 564 0
 25936 015e 4FF00003 		mov	r3, #0
 25937 0162 FB60     		str	r3, [r7, #12]
 25938 0164 FB68     		ldr	r3, [r7, #12]
 25939 0166 43F00803 		orr	r3, r3, #8
 25940 016a FB60     		str	r3, [r7, #12]
 25941 016c 7A68     		ldr	r2, [r7, #4]
 25942 016e 3B69     		ldr	r3, [r7, #16]
 25943 0170 03F11403 		add	r3, r3, #20
 25944 0174 4FEA8303 		lsl	r3, r3, #2
 25945 0178 D318     		adds	r3, r2, r3
 25946 017a 5B68     		ldr	r3, [r3, #4]
 25947 017c FA68     		ldr	r2, [r7, #12]
 25948 017e 9A60     		str	r2, [r3, #8]
 25949              	.L38:
 565:../inc/STM32_USB_OTG_Driver/src/usb_dcd_int.c ****       }
 566:../inc/STM32_USB_OTG_Driver/src/usb_dcd_int.c ****     }
 567:../inc/STM32_USB_OTG_Driver/src/usb_dcd_int.c ****     epnum++;
 25950              		.loc 1 567 0
 25951 0180 3B69     		ldr	r3, [r7, #16]
 25952 0182 03F10103 		add	r3, r3, #1
 25953 0186 3B61     		str	r3, [r7, #16]
 568:../inc/STM32_USB_OTG_Driver/src/usb_dcd_int.c ****     ep_intr >>= 1;
 25954              		.loc 1 568 0
 25955 0188 7B69     		ldr	r3, [r7, #20]
 25956 018a 4FEA5303 		lsr	r3, r3, #1
 25957 018e 7B61     		str	r3, [r7, #20]
 25958              	.L37:
 514:../inc/STM32_USB_OTG_Driver/src/usb_dcd_int.c ****   while ( ep_intr )
 25959              		.loc 1 514 0 discriminator 1
 25960 0190 7B69     		ldr	r3, [r7, #20]
 25961 0192 002B     		cmp	r3, #0
 25962 0194 7FF443AF 		bne	.L43
 569:../inc/STM32_USB_OTG_Driver/src/usb_dcd_int.c ****   }
 570:../inc/STM32_USB_OTG_Driver/src/usb_dcd_int.c ****   return 1;
 25963              		.loc 1 570 0
 25964 0198 4FF00103 		mov	r3, #1
 571:../inc/STM32_USB_OTG_Driver/src/usb_dcd_int.c **** }
 25965              		.loc 1 571 0
 25966 019c 1846     		mov	r0, r3
 25967 019e 07F11807 		add	r7, r7, #24
 25968 01a2 BD46     		mov	sp, r7
 25969 01a4 80BD     		pop	{r7, pc}
 25970              	.L45:
 25971 01a6 00BF     		.align	2
 25972              	.L44:
 25973 01a8 00000000 		.word	USBD_DCD_INT_fops
 25974              		.cfi_endproc
 25975              	.LFE114:
 25977              		.section	.text.DCD_HandleSof_ISR,"ax",%progbits
 25978              		.align	2
 25979              		.thumb
 25980              		.thumb_func
 25982              	DCD_HandleSof_ISR:
 25983              	.LFB115:
 572:../inc/STM32_USB_OTG_Driver/src/usb_dcd_int.c **** 
 573:../inc/STM32_USB_OTG_Driver/src/usb_dcd_int.c **** /**
 574:../inc/STM32_USB_OTG_Driver/src/usb_dcd_int.c **** * @brief  DCD_HandleSof_ISR
 575:../inc/STM32_USB_OTG_Driver/src/usb_dcd_int.c **** *         Handles the SOF Interrupts
 576:../inc/STM32_USB_OTG_Driver/src/usb_dcd_int.c **** * @param  pdev: device instance
 577:../inc/STM32_USB_OTG_Driver/src/usb_dcd_int.c **** * @retval status
 578:../inc/STM32_USB_OTG_Driver/src/usb_dcd_int.c **** */
 579:../inc/STM32_USB_OTG_Driver/src/usb_dcd_int.c **** static uint32_t DCD_HandleSof_ISR(USB_OTG_CORE_HANDLE *pdev)
 580:../inc/STM32_USB_OTG_Driver/src/usb_dcd_int.c **** {
 25984              		.loc 1 580 0
 25985              		.cfi_startproc
 25986              		@ args = 0, pretend = 0, frame = 16
 25987              		@ frame_needed = 1, uses_anonymous_args = 0
 25988 0000 80B5     		push	{r7, lr}
 25989              	.LCFI15:
 25990              		.cfi_def_cfa_offset 8
 25991 0002 84B0     		sub	sp, sp, #16
 25992              	.LCFI16:
 25993              		.cfi_def_cfa_offset 24
 25994 0004 00AF     		add	r7, sp, #0
 25995              		.cfi_offset 14, -4
 25996              		.cfi_offset 7, -8
 25997              	.LCFI17:
 25998              		.cfi_def_cfa_register 7
 25999 0006 7860     		str	r0, [r7, #4]
 581:../inc/STM32_USB_OTG_Driver/src/usb_dcd_int.c ****   USB_OTG_GINTSTS_TypeDef  GINTSTS;
 582:../inc/STM32_USB_OTG_Driver/src/usb_dcd_int.c ****   
 583:../inc/STM32_USB_OTG_Driver/src/usb_dcd_int.c ****   
 584:../inc/STM32_USB_OTG_Driver/src/usb_dcd_int.c ****   USBD_DCD_INT_fops->SOF(pdev);
 26000              		.loc 1 584 0
 26001 0008 0B4B     		ldr	r3, .L47
 26002 000a 1B68     		ldr	r3, [r3, #0]
 26003 000c DB68     		ldr	r3, [r3, #12]
 26004 000e 7868     		ldr	r0, [r7, #4]
 26005 0010 9847     		blx	r3
 585:../inc/STM32_USB_OTG_Driver/src/usb_dcd_int.c ****   
 586:../inc/STM32_USB_OTG_Driver/src/usb_dcd_int.c ****   /* Clear interrupt */
 587:../inc/STM32_USB_OTG_Driver/src/usb_dcd_int.c ****   GINTSTS.d32 = 0;
 26006              		.loc 1 587 0
 26007 0012 4FF00003 		mov	r3, #0
 26008 0016 FB60     		str	r3, [r7, #12]
 588:../inc/STM32_USB_OTG_Driver/src/usb_dcd_int.c ****   GINTSTS.b.sofintr = 1;
 26009              		.loc 1 588 0
 26010 0018 FB68     		ldr	r3, [r7, #12]
 26011 001a 43F00803 		orr	r3, r3, #8
 26012 001e FB60     		str	r3, [r7, #12]
 589:../inc/STM32_USB_OTG_Driver/src/usb_dcd_int.c ****   USB_OTG_WRITE_REG32 (&pdev->regs.GREGS->GINTSTS, GINTSTS.d32);
 26013              		.loc 1 589 0
 26014 0020 7B68     		ldr	r3, [r7, #4]
 26015 0022 DB68     		ldr	r3, [r3, #12]
 26016 0024 FA68     		ldr	r2, [r7, #12]
 26017 0026 5A61     		str	r2, [r3, #20]
 590:../inc/STM32_USB_OTG_Driver/src/usb_dcd_int.c ****   
 591:../inc/STM32_USB_OTG_Driver/src/usb_dcd_int.c ****   return 1;
 26018              		.loc 1 591 0
 26019 0028 4FF00103 		mov	r3, #1
 592:../inc/STM32_USB_OTG_Driver/src/usb_dcd_int.c **** }
 26020              		.loc 1 592 0
 26021 002c 1846     		mov	r0, r3
 26022 002e 07F11007 		add	r7, r7, #16
 26023 0032 BD46     		mov	sp, r7
 26024 0034 80BD     		pop	{r7, pc}
 26025              	.L48:
 26026 0036 00BF     		.align	2
 26027              	.L47:
 26028 0038 00000000 		.word	USBD_DCD_INT_fops
 26029              		.cfi_endproc
 26030              	.LFE115:
 26032              		.section	.text.DCD_HandleRxStatusQueueLevel_ISR,"ax",%progbits
 26033              		.align	2
 26034              		.thumb
 26035              		.thumb_func
 26037              	DCD_HandleRxStatusQueueLevel_ISR:
 26038              	.LFB116:
 593:../inc/STM32_USB_OTG_Driver/src/usb_dcd_int.c **** 
 594:../inc/STM32_USB_OTG_Driver/src/usb_dcd_int.c **** /**
 595:../inc/STM32_USB_OTG_Driver/src/usb_dcd_int.c **** * @brief  DCD_HandleRxStatusQueueLevel_ISR
 596:../inc/STM32_USB_OTG_Driver/src/usb_dcd_int.c **** *         Handles the Rx Status Queue Level Interrupt
 597:../inc/STM32_USB_OTG_Driver/src/usb_dcd_int.c **** * @param  pdev: device instance
 598:../inc/STM32_USB_OTG_Driver/src/usb_dcd_int.c **** * @retval status
 599:../inc/STM32_USB_OTG_Driver/src/usb_dcd_int.c **** */
 600:../inc/STM32_USB_OTG_Driver/src/usb_dcd_int.c **** static uint32_t DCD_HandleRxStatusQueueLevel_ISR(USB_OTG_CORE_HANDLE *pdev)
 601:../inc/STM32_USB_OTG_Driver/src/usb_dcd_int.c **** {
 26039              		.loc 1 601 0
 26040              		.cfi_startproc
 26041              		@ args = 0, pretend = 0, frame = 24
 26042              		@ frame_needed = 1, uses_anonymous_args = 0
 26043 0000 80B5     		push	{r7, lr}
 26044              	.LCFI18:
 26045              		.cfi_def_cfa_offset 8
 26046 0002 86B0     		sub	sp, sp, #24
 26047              	.LCFI19:
 26048              		.cfi_def_cfa_offset 32
 26049 0004 00AF     		add	r7, sp, #0
 26050              		.cfi_offset 14, -4
 26051              		.cfi_offset 7, -8
 26052              	.LCFI20:
 26053              		.cfi_def_cfa_register 7
 26054 0006 7860     		str	r0, [r7, #4]
 602:../inc/STM32_USB_OTG_Driver/src/usb_dcd_int.c ****   USB_OTG_GINTMSK_TypeDef  int_mask;
 603:../inc/STM32_USB_OTG_Driver/src/usb_dcd_int.c ****   USB_OTG_DRXSTS_TypeDef   status;
 604:../inc/STM32_USB_OTG_Driver/src/usb_dcd_int.c ****   USB_OTG_EP *ep;
 605:../inc/STM32_USB_OTG_Driver/src/usb_dcd_int.c ****   
 606:../inc/STM32_USB_OTG_Driver/src/usb_dcd_int.c ****   /* Disable the Rx Status Queue Level interrupt */
 607:../inc/STM32_USB_OTG_Driver/src/usb_dcd_int.c ****   int_mask.d32 = 0;
 26055              		.loc 1 607 0
 26056 0008 4FF00003 		mov	r3, #0
 26057 000c 3B61     		str	r3, [r7, #16]
 608:../inc/STM32_USB_OTG_Driver/src/usb_dcd_int.c ****   int_mask.b.rxstsqlvl = 1;
 26058              		.loc 1 608 0
 26059 000e 3B69     		ldr	r3, [r7, #16]
 26060 0010 43F01003 		orr	r3, r3, #16
 26061 0014 3B61     		str	r3, [r7, #16]
 609:../inc/STM32_USB_OTG_Driver/src/usb_dcd_int.c ****   USB_OTG_MODIFY_REG32( &pdev->regs.GREGS->GINTMSK, int_mask.d32, 0);
 26062              		.loc 1 609 0
 26063 0016 7B68     		ldr	r3, [r7, #4]
 26064 0018 DB68     		ldr	r3, [r3, #12]
 26065 001a 7A68     		ldr	r2, [r7, #4]
 26066 001c D268     		ldr	r2, [r2, #12]
 26067 001e 9169     		ldr	r1, [r2, #24]
 26068 0020 3A69     		ldr	r2, [r7, #16]
 26069 0022 6FEA0202 		mvn	r2, r2
 26070 0026 01EA0202 		and	r2, r1, r2
 26071 002a 9A61     		str	r2, [r3, #24]
 610:../inc/STM32_USB_OTG_Driver/src/usb_dcd_int.c ****   
 611:../inc/STM32_USB_OTG_Driver/src/usb_dcd_int.c ****   /* Get the Status from the top of the FIFO */
 612:../inc/STM32_USB_OTG_Driver/src/usb_dcd_int.c ****   status.d32 = USB_OTG_READ_REG32( &pdev->regs.GREGS->GRXSTSP );
 26072              		.loc 1 612 0
 26073 002c 7B68     		ldr	r3, [r7, #4]
 26074 002e DB68     		ldr	r3, [r3, #12]
 26075 0030 1B6A     		ldr	r3, [r3, #32]
 26076 0032 FB60     		str	r3, [r7, #12]
 613:../inc/STM32_USB_OTG_Driver/src/usb_dcd_int.c ****   
 614:../inc/STM32_USB_OTG_Driver/src/usb_dcd_int.c ****   ep = &pdev->dev.out_ep[status.b.epnum];
 26077              		.loc 1 614 0
 26078 0034 7B68     		ldr	r3, [r7, #4]
 26079 0036 03F55C71 		add	r1, r3, #880
 26080 003a FB68     		ldr	r3, [r7, #12]
 26081 003c C3F30303 		ubfx	r3, r3, #0, #4
 26082 0040 DBB2     		uxtb	r3, r3
 26083 0042 1A46     		mov	r2, r3
 26084 0044 1346     		mov	r3, r2
 26085 0046 4FEA8303 		lsl	r3, r3, #2
 26086 004a 9B18     		adds	r3, r3, r2
 26087 004c 4FEAC303 		lsl	r3, r3, #3
 26088 0050 CB18     		adds	r3, r1, r3
 26089 0052 7B61     		str	r3, [r7, #20]
 615:../inc/STM32_USB_OTG_Driver/src/usb_dcd_int.c ****   
 616:../inc/STM32_USB_OTG_Driver/src/usb_dcd_int.c ****   switch (status.b.pktsts)
 26090              		.loc 1 616 0
 26091 0054 FB68     		ldr	r3, [r7, #12]
 26092 0056 C3F34343 		ubfx	r3, r3, #17, #4
 26093 005a DBB2     		uxtb	r3, r3
 26094 005c 03F1FF33 		add	r3, r3, #-1
 26095 0060 052B     		cmp	r3, #5
 26096 0062 48D8     		bhi	.L59
 26097 0064 01A2     		adr	r2, .L56
 26098 0066 52F823F0 		ldr	pc, [r2, r3, lsl #2]
 26099 006a 00BF     		.align	2
 26100              	.L56:
 26101 006c F7000000 		.word	.L59+1
 26102 0070 85000000 		.word	.L52+1
 26103 0074 F7000000 		.word	.L59+1
 26104 0078 F7000000 		.word	.L59+1
 26105 007c F7000000 		.word	.L59+1
 26106 0080 D1000000 		.word	.L55+1
 26107              	.L52:
 617:../inc/STM32_USB_OTG_Driver/src/usb_dcd_int.c ****   {
 618:../inc/STM32_USB_OTG_Driver/src/usb_dcd_int.c ****   case STS_GOUT_NAK:
 619:../inc/STM32_USB_OTG_Driver/src/usb_dcd_int.c ****     break;
 620:../inc/STM32_USB_OTG_Driver/src/usb_dcd_int.c ****   case STS_DATA_UPDT:
 621:../inc/STM32_USB_OTG_Driver/src/usb_dcd_int.c ****     if (status.b.bcnt)
 26108              		.loc 1 621 0
 26109 0084 BA89     		ldrh	r2, [r7, #12]
 26110 0086 47F6F073 		movw	r3, #32752
 26111 008a 02EA0303 		and	r3, r2, r3
 26112 008e 9BB2     		uxth	r3, r3
 26113 0090 002B     		cmp	r3, #0
 26114 0092 32D0     		beq	.L60
 622:../inc/STM32_USB_OTG_Driver/src/usb_dcd_int.c ****     {
 623:../inc/STM32_USB_OTG_Driver/src/usb_dcd_int.c ****       USB_OTG_ReadPacket(pdev,ep->xfer_buff, status.b.bcnt);
 26115              		.loc 1 623 0
 26116 0094 7B69     		ldr	r3, [r7, #20]
 26117 0096 DA68     		ldr	r2, [r3, #12]
 26118 0098 FB68     		ldr	r3, [r7, #12]
 26119 009a C3F30A13 		ubfx	r3, r3, #4, #11
 26120 009e 9BB2     		uxth	r3, r3
 26121 00a0 7868     		ldr	r0, [r7, #4]
 26122 00a2 1146     		mov	r1, r2
 26123 00a4 1A46     		mov	r2, r3
 26124 00a6 FFF7FEFF 		bl	USB_OTG_ReadPacket
 624:../inc/STM32_USB_OTG_Driver/src/usb_dcd_int.c ****       ep->xfer_buff += status.b.bcnt;
 26125              		.loc 1 624 0
 26126 00aa 7B69     		ldr	r3, [r7, #20]
 26127 00ac DA68     		ldr	r2, [r3, #12]
 26128 00ae FB68     		ldr	r3, [r7, #12]
 26129 00b0 C3F30A13 		ubfx	r3, r3, #4, #11
 26130 00b4 9BB2     		uxth	r3, r3
 26131 00b6 D218     		adds	r2, r2, r3
 26132 00b8 7B69     		ldr	r3, [r7, #20]
 26133 00ba DA60     		str	r2, [r3, #12]
 625:../inc/STM32_USB_OTG_Driver/src/usb_dcd_int.c ****       ep->xfer_count += status.b.bcnt;
 26134              		.loc 1 625 0
 26135 00bc 7B69     		ldr	r3, [r7, #20]
 26136 00be 9A69     		ldr	r2, [r3, #24]
 26137 00c0 FB68     		ldr	r3, [r7, #12]
 26138 00c2 C3F30A13 		ubfx	r3, r3, #4, #11
 26139 00c6 9BB2     		uxth	r3, r3
 26140 00c8 D218     		adds	r2, r2, r3
 26141 00ca 7B69     		ldr	r3, [r7, #20]
 26142 00cc 9A61     		str	r2, [r3, #24]
 626:../inc/STM32_USB_OTG_Driver/src/usb_dcd_int.c ****     }
 627:../inc/STM32_USB_OTG_Driver/src/usb_dcd_int.c ****     break;
 26143              		.loc 1 627 0
 26144 00ce 15E0     		b	.L57
 26145              	.L55:
 628:../inc/STM32_USB_OTG_Driver/src/usb_dcd_int.c ****   case STS_XFER_COMP:
 629:../inc/STM32_USB_OTG_Driver/src/usb_dcd_int.c ****     break;
 630:../inc/STM32_USB_OTG_Driver/src/usb_dcd_int.c ****   case STS_SETUP_COMP:
 631:../inc/STM32_USB_OTG_Driver/src/usb_dcd_int.c ****     break;
 632:../inc/STM32_USB_OTG_Driver/src/usb_dcd_int.c ****   case STS_SETUP_UPDT:
 633:../inc/STM32_USB_OTG_Driver/src/usb_dcd_int.c ****     /* Copy the setup packet received in FIFO into the setup buffer in RAM */
 634:../inc/STM32_USB_OTG_Driver/src/usb_dcd_int.c ****     USB_OTG_ReadPacket(pdev , pdev->dev.setup_packet, 8);
 26146              		.loc 1 634 0
 26147 00d0 7B68     		ldr	r3, [r7, #4]
 26148 00d2 03F5B963 		add	r3, r3, #1480
 26149 00d6 7868     		ldr	r0, [r7, #4]
 26150 00d8 1946     		mov	r1, r3
 26151 00da 4FF00802 		mov	r2, #8
 26152 00de FFF7FEFF 		bl	USB_OTG_ReadPacket
 635:../inc/STM32_USB_OTG_Driver/src/usb_dcd_int.c ****     ep->xfer_count += status.b.bcnt;
 26153              		.loc 1 635 0
 26154 00e2 7B69     		ldr	r3, [r7, #20]
 26155 00e4 9A69     		ldr	r2, [r3, #24]
 26156 00e6 FB68     		ldr	r3, [r7, #12]
 26157 00e8 C3F30A13 		ubfx	r3, r3, #4, #11
 26158 00ec 9BB2     		uxth	r3, r3
 26159 00ee D218     		adds	r2, r2, r3
 26160 00f0 7B69     		ldr	r3, [r7, #20]
 26161 00f2 9A61     		str	r2, [r3, #24]
 636:../inc/STM32_USB_OTG_Driver/src/usb_dcd_int.c ****     break;
 26162              		.loc 1 636 0
 26163 00f4 02E0     		b	.L57
 26164              	.L59:
 637:../inc/STM32_USB_OTG_Driver/src/usb_dcd_int.c ****   default:
 638:../inc/STM32_USB_OTG_Driver/src/usb_dcd_int.c ****     break;
 26165              		.loc 1 638 0
 26166 00f6 00BF     		nop
 26167 00f8 00E0     		b	.L57
 26168              	.L60:
 627:../inc/STM32_USB_OTG_Driver/src/usb_dcd_int.c ****     break;
 26169              		.loc 1 627 0
 26170 00fa 00BF     		nop
 26171              	.L57:
 639:../inc/STM32_USB_OTG_Driver/src/usb_dcd_int.c ****   }
 640:../inc/STM32_USB_OTG_Driver/src/usb_dcd_int.c ****   
 641:../inc/STM32_USB_OTG_Driver/src/usb_dcd_int.c ****   /* Enable the Rx Status Queue Level interrupt */
 642:../inc/STM32_USB_OTG_Driver/src/usb_dcd_int.c ****   USB_OTG_MODIFY_REG32( &pdev->regs.GREGS->GINTMSK, 0, int_mask.d32);
 26172              		.loc 1 642 0
 26173 00fc 7B68     		ldr	r3, [r7, #4]
 26174 00fe DB68     		ldr	r3, [r3, #12]
 26175 0100 7A68     		ldr	r2, [r7, #4]
 26176 0102 D268     		ldr	r2, [r2, #12]
 26177 0104 9169     		ldr	r1, [r2, #24]
 26178 0106 3A69     		ldr	r2, [r7, #16]
 26179 0108 41EA0202 		orr	r2, r1, r2
 26180 010c 9A61     		str	r2, [r3, #24]
 643:../inc/STM32_USB_OTG_Driver/src/usb_dcd_int.c ****   
 644:../inc/STM32_USB_OTG_Driver/src/usb_dcd_int.c ****   return 1;
 26181              		.loc 1 644 0
 26182 010e 4FF00103 		mov	r3, #1
 645:../inc/STM32_USB_OTG_Driver/src/usb_dcd_int.c **** }
 26183              		.loc 1 645 0
 26184 0112 1846     		mov	r0, r3
 26185 0114 07F11807 		add	r7, r7, #24
 26186 0118 BD46     		mov	sp, r7
 26187 011a 80BD     		pop	{r7, pc}
 26188              		.cfi_endproc
 26189              	.LFE116:
 26191              		.section	.text.DCD_WriteEmptyTxFifo,"ax",%progbits
 26192              		.align	2
 26193              		.thumb
 26194              		.thumb_func
 26196              	DCD_WriteEmptyTxFifo:
 26197              	.LFB117:
 646:../inc/STM32_USB_OTG_Driver/src/usb_dcd_int.c **** 
 647:../inc/STM32_USB_OTG_Driver/src/usb_dcd_int.c **** /**
 648:../inc/STM32_USB_OTG_Driver/src/usb_dcd_int.c **** * @brief  DCD_WriteEmptyTxFifo
 649:../inc/STM32_USB_OTG_Driver/src/usb_dcd_int.c **** *         check FIFO for the next packet to be loaded
 650:../inc/STM32_USB_OTG_Driver/src/usb_dcd_int.c **** * @param  pdev: device instance
 651:../inc/STM32_USB_OTG_Driver/src/usb_dcd_int.c **** * @retval status
 652:../inc/STM32_USB_OTG_Driver/src/usb_dcd_int.c **** */
 653:../inc/STM32_USB_OTG_Driver/src/usb_dcd_int.c **** static uint32_t DCD_WriteEmptyTxFifo(USB_OTG_CORE_HANDLE *pdev, uint32_t epnum)
 654:../inc/STM32_USB_OTG_Driver/src/usb_dcd_int.c **** {
 26198              		.loc 1 654 0
 26199              		.cfi_startproc
 26200              		@ args = 0, pretend = 0, frame = 24
 26201              		@ frame_needed = 1, uses_anonymous_args = 0
 26202 0000 80B5     		push	{r7, lr}
 26203              	.LCFI21:
 26204              		.cfi_def_cfa_offset 8
 26205 0002 86B0     		sub	sp, sp, #24
 26206              	.LCFI22:
 26207              		.cfi_def_cfa_offset 32
 26208 0004 00AF     		add	r7, sp, #0
 26209              		.cfi_offset 14, -4
 26210              		.cfi_offset 7, -8
 26211              	.LCFI23:
 26212              		.cfi_def_cfa_register 7
 26213 0006 7860     		str	r0, [r7, #4]
 26214 0008 3960     		str	r1, [r7, #0]
 655:../inc/STM32_USB_OTG_Driver/src/usb_dcd_int.c ****   USB_OTG_DTXFSTSn_TypeDef  txstatus;
 656:../inc/STM32_USB_OTG_Driver/src/usb_dcd_int.c ****   USB_OTG_EP *ep;
 657:../inc/STM32_USB_OTG_Driver/src/usb_dcd_int.c ****   uint32_t len = 0;
 26215              		.loc 1 657 0
 26216 000a 4FF00003 		mov	r3, #0
 26217 000e 7B61     		str	r3, [r7, #20]
 658:../inc/STM32_USB_OTG_Driver/src/usb_dcd_int.c ****   uint32_t len32b;
 659:../inc/STM32_USB_OTG_Driver/src/usb_dcd_int.c ****   txstatus.d32 = 0;
 26218              		.loc 1 659 0
 26219 0010 4FF00003 		mov	r3, #0
 26220 0014 BB60     		str	r3, [r7, #8]
 660:../inc/STM32_USB_OTG_Driver/src/usb_dcd_int.c ****   
 661:../inc/STM32_USB_OTG_Driver/src/usb_dcd_int.c ****   ep = &pdev->dev.in_ep[epnum];    
 26221              		.loc 1 661 0
 26222 0016 7B68     		ldr	r3, [r7, #4]
 26223 0018 03F58C71 		add	r1, r3, #280
 26224 001c 3A68     		ldr	r2, [r7, #0]
 26225 001e 1346     		mov	r3, r2
 26226 0020 4FEA8303 		lsl	r3, r3, #2
 26227 0024 9B18     		adds	r3, r3, r2
 26228 0026 4FEAC303 		lsl	r3, r3, #3
 26229 002a CB18     		adds	r3, r1, r3
 26230 002c FB60     		str	r3, [r7, #12]
 662:../inc/STM32_USB_OTG_Driver/src/usb_dcd_int.c ****   
 663:../inc/STM32_USB_OTG_Driver/src/usb_dcd_int.c ****   len = ep->xfer_len - ep->xfer_count;
 26231              		.loc 1 663 0
 26232 002e FB68     		ldr	r3, [r7, #12]
 26233 0030 5A69     		ldr	r2, [r3, #20]
 26234 0032 FB68     		ldr	r3, [r7, #12]
 26235 0034 9B69     		ldr	r3, [r3, #24]
 26236 0036 D31A     		subs	r3, r2, r3
 26237 0038 7B61     		str	r3, [r7, #20]
 664:../inc/STM32_USB_OTG_Driver/src/usb_dcd_int.c ****   
 665:../inc/STM32_USB_OTG_Driver/src/usb_dcd_int.c ****   if (len > ep->maxpacket)
 26238              		.loc 1 665 0
 26239 003a FB68     		ldr	r3, [r7, #12]
 26240 003c 9A68     		ldr	r2, [r3, #8]
 26241 003e 7B69     		ldr	r3, [r7, #20]
 26242 0040 9A42     		cmp	r2, r3
 26243 0042 02D2     		bcs	.L62
 666:../inc/STM32_USB_OTG_Driver/src/usb_dcd_int.c ****   {
 667:../inc/STM32_USB_OTG_Driver/src/usb_dcd_int.c ****     len = ep->maxpacket;
 26244              		.loc 1 667 0
 26245 0044 FB68     		ldr	r3, [r7, #12]
 26246 0046 9B68     		ldr	r3, [r3, #8]
 26247 0048 7B61     		str	r3, [r7, #20]
 26248              	.L62:
 668:../inc/STM32_USB_OTG_Driver/src/usb_dcd_int.c ****   }
 669:../inc/STM32_USB_OTG_Driver/src/usb_dcd_int.c ****   
 670:../inc/STM32_USB_OTG_Driver/src/usb_dcd_int.c ****   len32b = (len + 3) / 4;
 26249              		.loc 1 670 0
 26250 004a 7B69     		ldr	r3, [r7, #20]
 26251 004c 03F10303 		add	r3, r3, #3
 26252 0050 4FEA9303 		lsr	r3, r3, #2
 26253 0054 3B61     		str	r3, [r7, #16]
 671:../inc/STM32_USB_OTG_Driver/src/usb_dcd_int.c ****   txstatus.d32 = USB_OTG_READ_REG32( &pdev->regs.INEP_REGS[epnum]->DTXFSTS);
 26254              		.loc 1 671 0
 26255 0056 7A68     		ldr	r2, [r7, #4]
 26256 0058 3B68     		ldr	r3, [r7, #0]
 26257 005a 03F10403 		add	r3, r3, #4
 26258 005e 4FEA8303 		lsl	r3, r3, #2
 26259 0062 D318     		adds	r3, r2, r3
 26260 0064 9B68     		ldr	r3, [r3, #8]
 26261 0066 9B69     		ldr	r3, [r3, #24]
 26262 0068 BB60     		str	r3, [r7, #8]
 672:../inc/STM32_USB_OTG_Driver/src/usb_dcd_int.c ****   
 673:../inc/STM32_USB_OTG_Driver/src/usb_dcd_int.c ****   
 674:../inc/STM32_USB_OTG_Driver/src/usb_dcd_int.c ****   
 675:../inc/STM32_USB_OTG_Driver/src/usb_dcd_int.c ****   while  (txstatus.b.txfspcavail > len32b &&
 26263              		.loc 1 675 0
 26264 006a 32E0     		b	.L63
 26265              	.L66:
 676:../inc/STM32_USB_OTG_Driver/src/usb_dcd_int.c ****           ep->xfer_count < ep->xfer_len &&
 677:../inc/STM32_USB_OTG_Driver/src/usb_dcd_int.c ****             ep->xfer_len != 0)
 678:../inc/STM32_USB_OTG_Driver/src/usb_dcd_int.c ****   {
 679:../inc/STM32_USB_OTG_Driver/src/usb_dcd_int.c ****     /* Write the FIFO */
 680:../inc/STM32_USB_OTG_Driver/src/usb_dcd_int.c ****     len = ep->xfer_len - ep->xfer_count;
 26266              		.loc 1 680 0
 26267 006c FB68     		ldr	r3, [r7, #12]
 26268 006e 5A69     		ldr	r2, [r3, #20]
 26269 0070 FB68     		ldr	r3, [r7, #12]
 26270 0072 9B69     		ldr	r3, [r3, #24]
 26271 0074 D31A     		subs	r3, r2, r3
 26272 0076 7B61     		str	r3, [r7, #20]
 681:../inc/STM32_USB_OTG_Driver/src/usb_dcd_int.c ****     
 682:../inc/STM32_USB_OTG_Driver/src/usb_dcd_int.c ****     if (len > ep->maxpacket)
 26273              		.loc 1 682 0
 26274 0078 FB68     		ldr	r3, [r7, #12]
 26275 007a 9A68     		ldr	r2, [r3, #8]
 26276 007c 7B69     		ldr	r3, [r7, #20]
 26277 007e 9A42     		cmp	r2, r3
 26278 0080 02D2     		bcs	.L64
 683:../inc/STM32_USB_OTG_Driver/src/usb_dcd_int.c ****     {
 684:../inc/STM32_USB_OTG_Driver/src/usb_dcd_int.c ****       len = ep->maxpacket;
 26279              		.loc 1 684 0
 26280 0082 FB68     		ldr	r3, [r7, #12]
 26281 0084 9B68     		ldr	r3, [r3, #8]
 26282 0086 7B61     		str	r3, [r7, #20]
 26283              	.L64:
 685:../inc/STM32_USB_OTG_Driver/src/usb_dcd_int.c ****     }
 686:../inc/STM32_USB_OTG_Driver/src/usb_dcd_int.c ****     len32b = (len + 3) / 4;
 26284              		.loc 1 686 0
 26285 0088 7B69     		ldr	r3, [r7, #20]
 26286 008a 03F10303 		add	r3, r3, #3
 26287 008e 4FEA9303 		lsr	r3, r3, #2
 26288 0092 3B61     		str	r3, [r7, #16]
 687:../inc/STM32_USB_OTG_Driver/src/usb_dcd_int.c ****     
 688:../inc/STM32_USB_OTG_Driver/src/usb_dcd_int.c ****     USB_OTG_WritePacket (pdev , ep->xfer_buff, epnum, len);
 26289              		.loc 1 688 0
 26290 0094 FB68     		ldr	r3, [r7, #12]
 26291 0096 D968     		ldr	r1, [r3, #12]
 26292 0098 3B68     		ldr	r3, [r7, #0]
 26293 009a DAB2     		uxtb	r2, r3
 26294 009c 7B69     		ldr	r3, [r7, #20]
 26295 009e 9BB2     		uxth	r3, r3
 26296 00a0 7868     		ldr	r0, [r7, #4]
 26297 00a2 FFF7FEFF 		bl	USB_OTG_WritePacket
 689:../inc/STM32_USB_OTG_Driver/src/usb_dcd_int.c ****     
 690:../inc/STM32_USB_OTG_Driver/src/usb_dcd_int.c ****     ep->xfer_buff  += len;
 26298              		.loc 1 690 0
 26299 00a6 FB68     		ldr	r3, [r7, #12]
 26300 00a8 DA68     		ldr	r2, [r3, #12]
 26301 00aa 7B69     		ldr	r3, [r7, #20]
 26302 00ac D218     		adds	r2, r2, r3
 26303 00ae FB68     		ldr	r3, [r7, #12]
 26304 00b0 DA60     		str	r2, [r3, #12]
 691:../inc/STM32_USB_OTG_Driver/src/usb_dcd_int.c ****     ep->xfer_count += len;
 26305              		.loc 1 691 0
 26306 00b2 FB68     		ldr	r3, [r7, #12]
 26307 00b4 9A69     		ldr	r2, [r3, #24]
 26308 00b6 7B69     		ldr	r3, [r7, #20]
 26309 00b8 D218     		adds	r2, r2, r3
 26310 00ba FB68     		ldr	r3, [r7, #12]
 26311 00bc 9A61     		str	r2, [r3, #24]
 692:../inc/STM32_USB_OTG_Driver/src/usb_dcd_int.c ****     
 693:../inc/STM32_USB_OTG_Driver/src/usb_dcd_int.c ****     txstatus.d32 = USB_OTG_READ_REG32(&pdev->regs.INEP_REGS[epnum]->DTXFSTS);
 26312              		.loc 1 693 0
 26313 00be 7A68     		ldr	r2, [r7, #4]
 26314 00c0 3B68     		ldr	r3, [r7, #0]
 26315 00c2 03F10403 		add	r3, r3, #4
 26316 00c6 4FEA8303 		lsl	r3, r3, #2
 26317 00ca D318     		adds	r3, r2, r3
 26318 00cc 9B68     		ldr	r3, [r3, #8]
 26319 00ce 9B69     		ldr	r3, [r3, #24]
 26320 00d0 BB60     		str	r3, [r7, #8]
 26321              	.L63:
 675:../inc/STM32_USB_OTG_Driver/src/usb_dcd_int.c ****   while  (txstatus.b.txfspcavail > len32b &&
 26322              		.loc 1 675 0 discriminator 1
 26323 00d2 3B89     		ldrh	r3, [r7, #8]
 26324 00d4 1A46     		mov	r2, r3
 26325 00d6 3B69     		ldr	r3, [r7, #16]
 26326 00d8 9A42     		cmp	r2, r3
 26327 00da 09D9     		bls	.L65
 676:../inc/STM32_USB_OTG_Driver/src/usb_dcd_int.c ****           ep->xfer_count < ep->xfer_len &&
 26328              		.loc 1 676 0 discriminator 2
 26329 00dc FB68     		ldr	r3, [r7, #12]
 26330 00de 9A69     		ldr	r2, [r3, #24]
 26331 00e0 FB68     		ldr	r3, [r7, #12]
 26332 00e2 5B69     		ldr	r3, [r3, #20]
 675:../inc/STM32_USB_OTG_Driver/src/usb_dcd_int.c ****   while  (txstatus.b.txfspcavail > len32b &&
 26333              		.loc 1 675 0 discriminator 2
 26334 00e4 9A42     		cmp	r2, r3
 26335 00e6 03D2     		bcs	.L65
 677:../inc/STM32_USB_OTG_Driver/src/usb_dcd_int.c ****             ep->xfer_len != 0)
 26336              		.loc 1 677 0
 26337 00e8 FB68     		ldr	r3, [r7, #12]
 26338 00ea 5B69     		ldr	r3, [r3, #20]
 676:../inc/STM32_USB_OTG_Driver/src/usb_dcd_int.c ****           ep->xfer_count < ep->xfer_len &&
 26339              		.loc 1 676 0
 26340 00ec 002B     		cmp	r3, #0
 26341 00ee BDD1     		bne	.L66
 26342              	.L65:
 694:../inc/STM32_USB_OTG_Driver/src/usb_dcd_int.c ****   }
 695:../inc/STM32_USB_OTG_Driver/src/usb_dcd_int.c ****   
 696:../inc/STM32_USB_OTG_Driver/src/usb_dcd_int.c ****   return 1;
 26343              		.loc 1 696 0
 26344 00f0 4FF00103 		mov	r3, #1
 697:../inc/STM32_USB_OTG_Driver/src/usb_dcd_int.c **** }
 26345              		.loc 1 697 0
 26346 00f4 1846     		mov	r0, r3
 26347 00f6 07F11807 		add	r7, r7, #24
 26348 00fa BD46     		mov	sp, r7
 26349 00fc 80BD     		pop	{r7, pc}
 26350              		.cfi_endproc
 26351              	.LFE117:
 26353 00fe 00BF     		.section	.text.DCD_HandleUsbReset_ISR,"ax",%progbits
 26354              		.align	2
 26355              		.thumb
 26356              		.thumb_func
 26358              	DCD_HandleUsbReset_ISR:
 26359              	.LFB118:
 698:../inc/STM32_USB_OTG_Driver/src/usb_dcd_int.c **** 
 699:../inc/STM32_USB_OTG_Driver/src/usb_dcd_int.c **** /**
 700:../inc/STM32_USB_OTG_Driver/src/usb_dcd_int.c **** * @brief  DCD_HandleUsbReset_ISR
 701:../inc/STM32_USB_OTG_Driver/src/usb_dcd_int.c **** *         This interrupt occurs when a USB Reset is detected
 702:../inc/STM32_USB_OTG_Driver/src/usb_dcd_int.c **** * @param  pdev: device instance
 703:../inc/STM32_USB_OTG_Driver/src/usb_dcd_int.c **** * @retval status
 704:../inc/STM32_USB_OTG_Driver/src/usb_dcd_int.c **** */
 705:../inc/STM32_USB_OTG_Driver/src/usb_dcd_int.c **** static uint32_t DCD_HandleUsbReset_ISR(USB_OTG_CORE_HANDLE *pdev)
 706:../inc/STM32_USB_OTG_Driver/src/usb_dcd_int.c **** {
 26360              		.loc 1 706 0
 26361              		.cfi_startproc
 26362              		@ args = 0, pretend = 0, frame = 40
 26363              		@ frame_needed = 1, uses_anonymous_args = 0
 26364 0000 80B5     		push	{r7, lr}
 26365              	.LCFI24:
 26366              		.cfi_def_cfa_offset 8
 26367 0002 8AB0     		sub	sp, sp, #40
 26368              	.LCFI25:
 26369              		.cfi_def_cfa_offset 48
 26370 0004 00AF     		add	r7, sp, #0
 26371              		.cfi_offset 14, -4
 26372              		.cfi_offset 7, -8
 26373              	.LCFI26:
 26374              		.cfi_def_cfa_register 7
 26375 0006 7860     		str	r0, [r7, #4]
 707:../inc/STM32_USB_OTG_Driver/src/usb_dcd_int.c ****   USB_OTG_DAINT_TypeDef    daintmsk;
 708:../inc/STM32_USB_OTG_Driver/src/usb_dcd_int.c ****   USB_OTG_DOEPMSK_TypeDef  doepmsk;
 709:../inc/STM32_USB_OTG_Driver/src/usb_dcd_int.c ****   USB_OTG_DIEPMSK_TypeDef  diepmsk;
 710:../inc/STM32_USB_OTG_Driver/src/usb_dcd_int.c ****   USB_OTG_DCFG_TypeDef     dcfg;
 711:../inc/STM32_USB_OTG_Driver/src/usb_dcd_int.c ****   USB_OTG_DCTL_TypeDef     dctl;
 712:../inc/STM32_USB_OTG_Driver/src/usb_dcd_int.c ****   USB_OTG_GINTSTS_TypeDef  gintsts;
 713:../inc/STM32_USB_OTG_Driver/src/usb_dcd_int.c ****   uint32_t i;
 714:../inc/STM32_USB_OTG_Driver/src/usb_dcd_int.c ****   
 715:../inc/STM32_USB_OTG_Driver/src/usb_dcd_int.c ****   dctl.d32 = 0;
 26376              		.loc 1 715 0
 26377 0008 4FF00003 		mov	r3, #0
 26378 000c 3B61     		str	r3, [r7, #16]
 716:../inc/STM32_USB_OTG_Driver/src/usb_dcd_int.c ****   daintmsk.d32 = 0;
 26379              		.loc 1 716 0
 26380 000e 4FF00003 		mov	r3, #0
 26381 0012 3B62     		str	r3, [r7, #32]
 717:../inc/STM32_USB_OTG_Driver/src/usb_dcd_int.c ****   doepmsk.d32 = 0;
 26382              		.loc 1 717 0
 26383 0014 4FF00003 		mov	r3, #0
 26384 0018 FB61     		str	r3, [r7, #28]
 718:../inc/STM32_USB_OTG_Driver/src/usb_dcd_int.c ****   diepmsk.d32 = 0;
 26385              		.loc 1 718 0
 26386 001a 4FF00003 		mov	r3, #0
 26387 001e BB61     		str	r3, [r7, #24]
 719:../inc/STM32_USB_OTG_Driver/src/usb_dcd_int.c ****   dcfg.d32 = 0;
 26388              		.loc 1 719 0
 26389 0020 4FF00003 		mov	r3, #0
 26390 0024 7B61     		str	r3, [r7, #20]
 720:../inc/STM32_USB_OTG_Driver/src/usb_dcd_int.c ****   gintsts.d32 = 0;
 26391              		.loc 1 720 0
 26392 0026 4FF00003 		mov	r3, #0
 26393 002a FB60     		str	r3, [r7, #12]
 721:../inc/STM32_USB_OTG_Driver/src/usb_dcd_int.c ****   
 722:../inc/STM32_USB_OTG_Driver/src/usb_dcd_int.c ****   /* Clear the Remote Wake-up Signaling */
 723:../inc/STM32_USB_OTG_Driver/src/usb_dcd_int.c ****   dctl.b.rmtwkupsig = 1;
 26394              		.loc 1 723 0
 26395 002c 3B69     		ldr	r3, [r7, #16]
 26396 002e 43F00103 		orr	r3, r3, #1
 26397 0032 3B61     		str	r3, [r7, #16]
 724:../inc/STM32_USB_OTG_Driver/src/usb_dcd_int.c ****   USB_OTG_MODIFY_REG32(&pdev->regs.DREGS->DCTL, dctl.d32, 0 );
 26398              		.loc 1 724 0
 26399 0034 7B68     		ldr	r3, [r7, #4]
 26400 0036 1B69     		ldr	r3, [r3, #16]
 26401 0038 7A68     		ldr	r2, [r7, #4]
 26402 003a 1269     		ldr	r2, [r2, #16]
 26403 003c 5168     		ldr	r1, [r2, #4]
 26404 003e 3A69     		ldr	r2, [r7, #16]
 26405 0040 6FEA0202 		mvn	r2, r2
 26406 0044 01EA0202 		and	r2, r1, r2
 26407 0048 5A60     		str	r2, [r3, #4]
 725:../inc/STM32_USB_OTG_Driver/src/usb_dcd_int.c ****   
 726:../inc/STM32_USB_OTG_Driver/src/usb_dcd_int.c ****   /* Flush the Tx FIFO */
 727:../inc/STM32_USB_OTG_Driver/src/usb_dcd_int.c ****   USB_OTG_FlushTxFifo(pdev ,  0 );
 26408              		.loc 1 727 0
 26409 004a 7868     		ldr	r0, [r7, #4]
 26410 004c 4FF00001 		mov	r1, #0
 26411 0050 FFF7FEFF 		bl	USB_OTG_FlushTxFifo
 728:../inc/STM32_USB_OTG_Driver/src/usb_dcd_int.c ****   
 729:../inc/STM32_USB_OTG_Driver/src/usb_dcd_int.c ****   for (i = 0; i < pdev->cfg.dev_endpoints ; i++)
 26412              		.loc 1 729 0
 26413 0054 4FF00003 		mov	r3, #0
 26414 0058 7B62     		str	r3, [r7, #36]
 26415 005a 19E0     		b	.L68
 26416              	.L69:
 730:../inc/STM32_USB_OTG_Driver/src/usb_dcd_int.c ****   {
 731:../inc/STM32_USB_OTG_Driver/src/usb_dcd_int.c ****     USB_OTG_WRITE_REG32( &pdev->regs.INEP_REGS[i]->DIEPINT, 0xFF);
 26417              		.loc 1 731 0 discriminator 2
 26418 005c 7A68     		ldr	r2, [r7, #4]
 26419 005e 7B6A     		ldr	r3, [r7, #36]
 26420 0060 03F10403 		add	r3, r3, #4
 26421 0064 4FEA8303 		lsl	r3, r3, #2
 26422 0068 D318     		adds	r3, r2, r3
 26423 006a 9B68     		ldr	r3, [r3, #8]
 26424 006c 4FF0FF02 		mov	r2, #255
 26425 0070 9A60     		str	r2, [r3, #8]
 732:../inc/STM32_USB_OTG_Driver/src/usb_dcd_int.c ****     USB_OTG_WRITE_REG32( &pdev->regs.OUTEP_REGS[i]->DOEPINT, 0xFF);
 26426              		.loc 1 732 0 discriminator 2
 26427 0072 7A68     		ldr	r2, [r7, #4]
 26428 0074 7B6A     		ldr	r3, [r7, #36]
 26429 0076 03F11403 		add	r3, r3, #20
 26430 007a 4FEA8303 		lsl	r3, r3, #2
 26431 007e D318     		adds	r3, r2, r3
 26432 0080 5B68     		ldr	r3, [r3, #4]
 26433 0082 4FF0FF02 		mov	r2, #255
 26434 0086 9A60     		str	r2, [r3, #8]
 729:../inc/STM32_USB_OTG_Driver/src/usb_dcd_int.c ****   for (i = 0; i < pdev->cfg.dev_endpoints ; i++)
 26435              		.loc 1 729 0 discriminator 2
 26436 0088 7B6A     		ldr	r3, [r7, #36]
 26437 008a 03F10103 		add	r3, r3, #1
 26438 008e 7B62     		str	r3, [r7, #36]
 26439              	.L68:
 729:../inc/STM32_USB_OTG_Driver/src/usb_dcd_int.c ****   for (i = 0; i < pdev->cfg.dev_endpoints ; i++)
 26440              		.loc 1 729 0 is_stmt 0 discriminator 1
 26441 0090 7B68     		ldr	r3, [r7, #4]
 26442 0092 5B78     		ldrb	r3, [r3, #1]	@ zero_extendqisi2
 26443 0094 1A46     		mov	r2, r3
 26444 0096 7B6A     		ldr	r3, [r7, #36]
 26445 0098 9A42     		cmp	r2, r3
 26446 009a DFD8     		bhi	.L69
 733:../inc/STM32_USB_OTG_Driver/src/usb_dcd_int.c ****   }
 734:../inc/STM32_USB_OTG_Driver/src/usb_dcd_int.c ****   USB_OTG_WRITE_REG32( &pdev->regs.DREGS->DAINT, 0xFFFFFFFF );
 26447              		.loc 1 734 0 is_stmt 1
 26448 009c 7B68     		ldr	r3, [r7, #4]
 26449 009e 1B69     		ldr	r3, [r3, #16]
 26450 00a0 4FF0FF32 		mov	r2, #-1
 26451 00a4 9A61     		str	r2, [r3, #24]
 735:../inc/STM32_USB_OTG_Driver/src/usb_dcd_int.c ****   
 736:../inc/STM32_USB_OTG_Driver/src/usb_dcd_int.c ****   daintmsk.ep.in = 1;
 26452              		.loc 1 736 0
 26453 00a6 3B6A     		ldr	r3, [r7, #32]
 26454 00a8 4FF00102 		mov	r2, #1
 26455 00ac 62F30F03 		bfi	r3, r2, #0, #16
 26456 00b0 3B62     		str	r3, [r7, #32]
 737:../inc/STM32_USB_OTG_Driver/src/usb_dcd_int.c ****   daintmsk.ep.out = 1;
 26457              		.loc 1 737 0
 26458 00b2 3B6A     		ldr	r3, [r7, #32]
 26459 00b4 4FF00102 		mov	r2, #1
 26460 00b8 62F31F43 		bfi	r3, r2, #16, #16
 26461 00bc 3B62     		str	r3, [r7, #32]
 738:../inc/STM32_USB_OTG_Driver/src/usb_dcd_int.c ****   USB_OTG_WRITE_REG32( &pdev->regs.DREGS->DAINTMSK, daintmsk.d32 );
 26462              		.loc 1 738 0
 26463 00be 7B68     		ldr	r3, [r7, #4]
 26464 00c0 1B69     		ldr	r3, [r3, #16]
 26465 00c2 3A6A     		ldr	r2, [r7, #32]
 26466 00c4 DA61     		str	r2, [r3, #28]
 739:../inc/STM32_USB_OTG_Driver/src/usb_dcd_int.c ****   
 740:../inc/STM32_USB_OTG_Driver/src/usb_dcd_int.c ****   doepmsk.b.setup = 1;
 26467              		.loc 1 740 0
 26468 00c6 FB69     		ldr	r3, [r7, #28]
 26469 00c8 43F00803 		orr	r3, r3, #8
 26470 00cc FB61     		str	r3, [r7, #28]
 741:../inc/STM32_USB_OTG_Driver/src/usb_dcd_int.c ****   doepmsk.b.xfercompl = 1;
 26471              		.loc 1 741 0
 26472 00ce FB69     		ldr	r3, [r7, #28]
 26473 00d0 43F00103 		orr	r3, r3, #1
 26474 00d4 FB61     		str	r3, [r7, #28]
 742:../inc/STM32_USB_OTG_Driver/src/usb_dcd_int.c ****   doepmsk.b.ahberr = 1;
 26475              		.loc 1 742 0
 26476 00d6 FB69     		ldr	r3, [r7, #28]
 26477 00d8 43F00403 		orr	r3, r3, #4
 26478 00dc FB61     		str	r3, [r7, #28]
 743:../inc/STM32_USB_OTG_Driver/src/usb_dcd_int.c ****   doepmsk.b.epdisabled = 1;
 26479              		.loc 1 743 0
 26480 00de FB69     		ldr	r3, [r7, #28]
 26481 00e0 43F00203 		orr	r3, r3, #2
 26482 00e4 FB61     		str	r3, [r7, #28]
 744:../inc/STM32_USB_OTG_Driver/src/usb_dcd_int.c ****   USB_OTG_WRITE_REG32( &pdev->regs.DREGS->DOEPMSK, doepmsk.d32 );
 26483              		.loc 1 744 0
 26484 00e6 7B68     		ldr	r3, [r7, #4]
 26485 00e8 1B69     		ldr	r3, [r3, #16]
 26486 00ea FA69     		ldr	r2, [r7, #28]
 26487 00ec 5A61     		str	r2, [r3, #20]
 745:../inc/STM32_USB_OTG_Driver/src/usb_dcd_int.c **** #ifdef USB_OTG_HS_DEDICATED_EP1_ENABLED   
 746:../inc/STM32_USB_OTG_Driver/src/usb_dcd_int.c ****   USB_OTG_WRITE_REG32( &pdev->regs.DREGS->DOUTEP1MSK, doepmsk.d32 );
 747:../inc/STM32_USB_OTG_Driver/src/usb_dcd_int.c **** #endif
 748:../inc/STM32_USB_OTG_Driver/src/usb_dcd_int.c ****   diepmsk.b.xfercompl = 1;
 26488              		.loc 1 748 0
 26489 00ee BB69     		ldr	r3, [r7, #24]
 26490 00f0 43F00103 		orr	r3, r3, #1
 26491 00f4 BB61     		str	r3, [r7, #24]
 749:../inc/STM32_USB_OTG_Driver/src/usb_dcd_int.c ****   diepmsk.b.timeout = 1;
 26492              		.loc 1 749 0
 26493 00f6 BB69     		ldr	r3, [r7, #24]
 26494 00f8 43F00803 		orr	r3, r3, #8
 26495 00fc BB61     		str	r3, [r7, #24]
 750:../inc/STM32_USB_OTG_Driver/src/usb_dcd_int.c ****   diepmsk.b.epdisabled = 1;
 26496              		.loc 1 750 0
 26497 00fe BB69     		ldr	r3, [r7, #24]
 26498 0100 43F00203 		orr	r3, r3, #2
 26499 0104 BB61     		str	r3, [r7, #24]
 751:../inc/STM32_USB_OTG_Driver/src/usb_dcd_int.c ****   diepmsk.b.ahberr = 1;
 26500              		.loc 1 751 0
 26501 0106 BB69     		ldr	r3, [r7, #24]
 26502 0108 43F00403 		orr	r3, r3, #4
 26503 010c BB61     		str	r3, [r7, #24]
 752:../inc/STM32_USB_OTG_Driver/src/usb_dcd_int.c ****   diepmsk.b.intknepmis = 1;
 26504              		.loc 1 752 0
 26505 010e BB69     		ldr	r3, [r7, #24]
 26506 0110 43F02003 		orr	r3, r3, #32
 26507 0114 BB61     		str	r3, [r7, #24]
 753:../inc/STM32_USB_OTG_Driver/src/usb_dcd_int.c ****   USB_OTG_WRITE_REG32( &pdev->regs.DREGS->DIEPMSK, diepmsk.d32 );
 26508              		.loc 1 753 0
 26509 0116 7B68     		ldr	r3, [r7, #4]
 26510 0118 1B69     		ldr	r3, [r3, #16]
 26511 011a BA69     		ldr	r2, [r7, #24]
 26512 011c 1A61     		str	r2, [r3, #16]
 754:../inc/STM32_USB_OTG_Driver/src/usb_dcd_int.c **** #ifdef USB_OTG_HS_DEDICATED_EP1_ENABLED  
 755:../inc/STM32_USB_OTG_Driver/src/usb_dcd_int.c ****   USB_OTG_WRITE_REG32( &pdev->regs.DREGS->DINEP1MSK, diepmsk.d32 );
 756:../inc/STM32_USB_OTG_Driver/src/usb_dcd_int.c **** #endif
 757:../inc/STM32_USB_OTG_Driver/src/usb_dcd_int.c ****   /* Reset Device Address */
 758:../inc/STM32_USB_OTG_Driver/src/usb_dcd_int.c ****   dcfg.d32 = USB_OTG_READ_REG32( &pdev->regs.DREGS->DCFG);
 26513              		.loc 1 758 0
 26514 011e 7B68     		ldr	r3, [r7, #4]
 26515 0120 1B69     		ldr	r3, [r3, #16]
 26516 0122 1B68     		ldr	r3, [r3, #0]
 26517 0124 7B61     		str	r3, [r7, #20]
 759:../inc/STM32_USB_OTG_Driver/src/usb_dcd_int.c ****   dcfg.b.devaddr = 0;
 26518              		.loc 1 759 0
 26519 0126 7B69     		ldr	r3, [r7, #20]
 26520 0128 6FF30A13 		bfc	r3, #4, #7
 26521 012c 7B61     		str	r3, [r7, #20]
 760:../inc/STM32_USB_OTG_Driver/src/usb_dcd_int.c ****   USB_OTG_WRITE_REG32( &pdev->regs.DREGS->DCFG, dcfg.d32);
 26522              		.loc 1 760 0
 26523 012e 7B68     		ldr	r3, [r7, #4]
 26524 0130 1B69     		ldr	r3, [r3, #16]
 26525 0132 7A69     		ldr	r2, [r7, #20]
 26526 0134 1A60     		str	r2, [r3, #0]
 761:../inc/STM32_USB_OTG_Driver/src/usb_dcd_int.c ****   
 762:../inc/STM32_USB_OTG_Driver/src/usb_dcd_int.c ****   
 763:../inc/STM32_USB_OTG_Driver/src/usb_dcd_int.c ****   /* setup EP0 to receive SETUP packets */
 764:../inc/STM32_USB_OTG_Driver/src/usb_dcd_int.c ****   USB_OTG_EP0_OutStart(pdev);
 26527              		.loc 1 764 0
 26528 0136 7868     		ldr	r0, [r7, #4]
 26529 0138 FFF7FEFF 		bl	USB_OTG_EP0_OutStart
 765:../inc/STM32_USB_OTG_Driver/src/usb_dcd_int.c ****   
 766:../inc/STM32_USB_OTG_Driver/src/usb_dcd_int.c ****   /* Clear interrupt */
 767:../inc/STM32_USB_OTG_Driver/src/usb_dcd_int.c ****   gintsts.d32 = 0;
 26530              		.loc 1 767 0
 26531 013c 4FF00003 		mov	r3, #0
 26532 0140 FB60     		str	r3, [r7, #12]
 768:../inc/STM32_USB_OTG_Driver/src/usb_dcd_int.c ****   gintsts.b.usbreset = 1;
 26533              		.loc 1 768 0
 26534 0142 FB68     		ldr	r3, [r7, #12]
 26535 0144 43F48053 		orr	r3, r3, #4096
 26536 0148 FB60     		str	r3, [r7, #12]
 769:../inc/STM32_USB_OTG_Driver/src/usb_dcd_int.c ****   USB_OTG_WRITE_REG32 (&pdev->regs.GREGS->GINTSTS, gintsts.d32);
 26537              		.loc 1 769 0
 26538 014a 7B68     		ldr	r3, [r7, #4]
 26539 014c DB68     		ldr	r3, [r3, #12]
 26540 014e FA68     		ldr	r2, [r7, #12]
 26541 0150 5A61     		str	r2, [r3, #20]
 770:../inc/STM32_USB_OTG_Driver/src/usb_dcd_int.c ****   
 771:../inc/STM32_USB_OTG_Driver/src/usb_dcd_int.c ****   /*Reset internal state machine */
 772:../inc/STM32_USB_OTG_Driver/src/usb_dcd_int.c ****   USBD_DCD_INT_fops->Reset(pdev);
 26542              		.loc 1 772 0
 26543 0152 064B     		ldr	r3, .L70
 26544 0154 1B68     		ldr	r3, [r3, #0]
 26545 0156 1B69     		ldr	r3, [r3, #16]
 26546 0158 7868     		ldr	r0, [r7, #4]
 26547 015a 9847     		blx	r3
 773:../inc/STM32_USB_OTG_Driver/src/usb_dcd_int.c ****   return 1;
 26548              		.loc 1 773 0
 26549 015c 4FF00103 		mov	r3, #1
 774:../inc/STM32_USB_OTG_Driver/src/usb_dcd_int.c **** }
 26550              		.loc 1 774 0
 26551 0160 1846     		mov	r0, r3
 26552 0162 07F12807 		add	r7, r7, #40
 26553 0166 BD46     		mov	sp, r7
 26554 0168 80BD     		pop	{r7, pc}
 26555              	.L71:
 26556 016a 00BF     		.align	2
 26557              	.L70:
 26558 016c 00000000 		.word	USBD_DCD_INT_fops
 26559              		.cfi_endproc
 26560              	.LFE118:
 26562              		.section	.text.DCD_HandleEnumDone_ISR,"ax",%progbits
 26563              		.align	2
 26564              		.thumb
 26565              		.thumb_func
 26567              	DCD_HandleEnumDone_ISR:
 26568              	.LFB119:
 775:../inc/STM32_USB_OTG_Driver/src/usb_dcd_int.c **** 
 776:../inc/STM32_USB_OTG_Driver/src/usb_dcd_int.c **** /**
 777:../inc/STM32_USB_OTG_Driver/src/usb_dcd_int.c **** * @brief  DCD_HandleEnumDone_ISR
 778:../inc/STM32_USB_OTG_Driver/src/usb_dcd_int.c **** *         Read the device status register and set the device speed
 779:../inc/STM32_USB_OTG_Driver/src/usb_dcd_int.c **** * @param  pdev: device instance
 780:../inc/STM32_USB_OTG_Driver/src/usb_dcd_int.c **** * @retval status
 781:../inc/STM32_USB_OTG_Driver/src/usb_dcd_int.c **** */
 782:../inc/STM32_USB_OTG_Driver/src/usb_dcd_int.c **** static uint32_t DCD_HandleEnumDone_ISR(USB_OTG_CORE_HANDLE *pdev)
 783:../inc/STM32_USB_OTG_Driver/src/usb_dcd_int.c **** {
 26569              		.loc 1 783 0
 26570              		.cfi_startproc
 26571              		@ args = 0, pretend = 0, frame = 16
 26572              		@ frame_needed = 1, uses_anonymous_args = 0
 26573 0000 80B5     		push	{r7, lr}
 26574              	.LCFI27:
 26575              		.cfi_def_cfa_offset 8
 26576 0002 84B0     		sub	sp, sp, #16
 26577              	.LCFI28:
 26578              		.cfi_def_cfa_offset 24
 26579 0004 00AF     		add	r7, sp, #0
 26580              		.cfi_offset 14, -4
 26581              		.cfi_offset 7, -8
 26582              	.LCFI29:
 26583              		.cfi_def_cfa_register 7
 26584 0006 7860     		str	r0, [r7, #4]
 784:../inc/STM32_USB_OTG_Driver/src/usb_dcd_int.c ****   USB_OTG_GINTSTS_TypeDef  gintsts;
 785:../inc/STM32_USB_OTG_Driver/src/usb_dcd_int.c ****   USB_OTG_GUSBCFG_TypeDef  gusbcfg;
 786:../inc/STM32_USB_OTG_Driver/src/usb_dcd_int.c ****   
 787:../inc/STM32_USB_OTG_Driver/src/usb_dcd_int.c ****   USB_OTG_EP0Activate(pdev);
 26585              		.loc 1 787 0
 26586 0008 7868     		ldr	r0, [r7, #4]
 26587 000a FFF7FEFF 		bl	USB_OTG_EP0Activate
 788:../inc/STM32_USB_OTG_Driver/src/usb_dcd_int.c ****   
 789:../inc/STM32_USB_OTG_Driver/src/usb_dcd_int.c ****   /* Set USB turn-around time based on device speed and PHY interface. */
 790:../inc/STM32_USB_OTG_Driver/src/usb_dcd_int.c ****   gusbcfg.d32 = USB_OTG_READ_REG32(&pdev->regs.GREGS->GUSBCFG);
 26588              		.loc 1 790 0
 26589 000e 7B68     		ldr	r3, [r7, #4]
 26590 0010 DB68     		ldr	r3, [r3, #12]
 26591 0012 DB68     		ldr	r3, [r3, #12]
 26592 0014 BB60     		str	r3, [r7, #8]
 791:../inc/STM32_USB_OTG_Driver/src/usb_dcd_int.c ****   
 792:../inc/STM32_USB_OTG_Driver/src/usb_dcd_int.c ****   /* Full or High speed */
 793:../inc/STM32_USB_OTG_Driver/src/usb_dcd_int.c ****   if ( USB_OTG_GetDeviceSpeed(pdev) == USB_SPEED_HIGH)
 26593              		.loc 1 793 0
 26594 0016 7868     		ldr	r0, [r7, #4]
 26595 0018 FFF7FEFF 		bl	USB_OTG_GetDeviceSpeed
 26596 001c 0346     		mov	r3, r0
 26597 001e 032B     		cmp	r3, #3
 26598 0020 0ED1     		bne	.L73
 794:../inc/STM32_USB_OTG_Driver/src/usb_dcd_int.c ****   {
 795:../inc/STM32_USB_OTG_Driver/src/usb_dcd_int.c ****     pdev->cfg.speed            = USB_OTG_SPEED_HIGH;
 26599              		.loc 1 795 0
 26600 0022 7B68     		ldr	r3, [r7, #4]
 26601 0024 4FF00002 		mov	r2, #0
 26602 0028 9A70     		strb	r2, [r3, #2]
 796:../inc/STM32_USB_OTG_Driver/src/usb_dcd_int.c ****     pdev->cfg.mps              = USB_OTG_HS_MAX_PACKET_SIZE ;    
 26603              		.loc 1 796 0
 26604 002a 7B68     		ldr	r3, [r7, #4]
 26605 002c 4FF40072 		mov	r2, #512
 26606 0030 9A80     		strh	r2, [r3, #4]	@ movhi
 797:../inc/STM32_USB_OTG_Driver/src/usb_dcd_int.c ****     gusbcfg.b.usbtrdtim = 9;
 26607              		.loc 1 797 0
 26608 0032 BB68     		ldr	r3, [r7, #8]
 26609 0034 4FF00902 		mov	r2, #9
 26610 0038 62F38D23 		bfi	r3, r2, #10, #4
 26611 003c BB60     		str	r3, [r7, #8]
 26612 003e 0DE0     		b	.L74
 26613              	.L73:
 798:../inc/STM32_USB_OTG_Driver/src/usb_dcd_int.c ****   }
 799:../inc/STM32_USB_OTG_Driver/src/usb_dcd_int.c ****   else
 800:../inc/STM32_USB_OTG_Driver/src/usb_dcd_int.c ****   {
 801:../inc/STM32_USB_OTG_Driver/src/usb_dcd_int.c ****     pdev->cfg.speed            = USB_OTG_SPEED_FULL;
 26614              		.loc 1 801 0
 26615 0040 7B68     		ldr	r3, [r7, #4]
 26616 0042 4FF00102 		mov	r2, #1
 26617 0046 9A70     		strb	r2, [r3, #2]
 802:../inc/STM32_USB_OTG_Driver/src/usb_dcd_int.c ****     pdev->cfg.mps              = USB_OTG_FS_MAX_PACKET_SIZE ;  
 26618              		.loc 1 802 0
 26619 0048 7B68     		ldr	r3, [r7, #4]
 26620 004a 4FF04002 		mov	r2, #64
 26621 004e 9A80     		strh	r2, [r3, #4]	@ movhi
 803:../inc/STM32_USB_OTG_Driver/src/usb_dcd_int.c ****     gusbcfg.b.usbtrdtim = 5;
 26622              		.loc 1 803 0
 26623 0050 BB68     		ldr	r3, [r7, #8]
 26624 0052 4FF00502 		mov	r2, #5
 26625 0056 62F38D23 		bfi	r3, r2, #10, #4
 26626 005a BB60     		str	r3, [r7, #8]
 26627              	.L74:
 804:../inc/STM32_USB_OTG_Driver/src/usb_dcd_int.c ****   }
 805:../inc/STM32_USB_OTG_Driver/src/usb_dcd_int.c ****   
 806:../inc/STM32_USB_OTG_Driver/src/usb_dcd_int.c ****   USB_OTG_WRITE_REG32(&pdev->regs.GREGS->GUSBCFG, gusbcfg.d32);
 26628              		.loc 1 806 0
 26629 005c 7B68     		ldr	r3, [r7, #4]
 26630 005e DB68     		ldr	r3, [r3, #12]
 26631 0060 BA68     		ldr	r2, [r7, #8]
 26632 0062 DA60     		str	r2, [r3, #12]
 807:../inc/STM32_USB_OTG_Driver/src/usb_dcd_int.c ****   
 808:../inc/STM32_USB_OTG_Driver/src/usb_dcd_int.c ****   /* Clear interrupt */
 809:../inc/STM32_USB_OTG_Driver/src/usb_dcd_int.c ****   gintsts.d32 = 0;
 26633              		.loc 1 809 0
 26634 0064 4FF00003 		mov	r3, #0
 26635 0068 FB60     		str	r3, [r7, #12]
 810:../inc/STM32_USB_OTG_Driver/src/usb_dcd_int.c ****   gintsts.b.enumdone = 1;
 26636              		.loc 1 810 0
 26637 006a FB68     		ldr	r3, [r7, #12]
 26638 006c 43F40053 		orr	r3, r3, #8192
 26639 0070 FB60     		str	r3, [r7, #12]
 811:../inc/STM32_USB_OTG_Driver/src/usb_dcd_int.c ****   USB_OTG_WRITE_REG32( &pdev->regs.GREGS->GINTSTS, gintsts.d32 );
 26640              		.loc 1 811 0
 26641 0072 7B68     		ldr	r3, [r7, #4]
 26642 0074 DB68     		ldr	r3, [r3, #12]
 26643 0076 FA68     		ldr	r2, [r7, #12]
 26644 0078 5A61     		str	r2, [r3, #20]
 812:../inc/STM32_USB_OTG_Driver/src/usb_dcd_int.c ****   return 1;
 26645              		.loc 1 812 0
 26646 007a 4FF00103 		mov	r3, #1
 813:../inc/STM32_USB_OTG_Driver/src/usb_dcd_int.c **** }
 26647              		.loc 1 813 0
 26648 007e 1846     		mov	r0, r3
 26649 0080 07F11007 		add	r7, r7, #16
 26650 0084 BD46     		mov	sp, r7
 26651 0086 80BD     		pop	{r7, pc}
 26652              		.cfi_endproc
 26653              	.LFE119:
 26655              		.section	.text.DCD_IsoINIncomplete_ISR,"ax",%progbits
 26656              		.align	2
 26657              		.thumb
 26658              		.thumb_func
 26660              	DCD_IsoINIncomplete_ISR:
 26661              	.LFB120:
 814:../inc/STM32_USB_OTG_Driver/src/usb_dcd_int.c **** 
 815:../inc/STM32_USB_OTG_Driver/src/usb_dcd_int.c **** 
 816:../inc/STM32_USB_OTG_Driver/src/usb_dcd_int.c **** /**
 817:../inc/STM32_USB_OTG_Driver/src/usb_dcd_int.c **** * @brief  DCD_IsoINIncomplete_ISR
 818:../inc/STM32_USB_OTG_Driver/src/usb_dcd_int.c **** *         handle the ISO IN incomplete interrupt
 819:../inc/STM32_USB_OTG_Driver/src/usb_dcd_int.c **** * @param  pdev: device instance
 820:../inc/STM32_USB_OTG_Driver/src/usb_dcd_int.c **** * @retval status
 821:../inc/STM32_USB_OTG_Driver/src/usb_dcd_int.c **** */
 822:../inc/STM32_USB_OTG_Driver/src/usb_dcd_int.c **** static uint32_t DCD_IsoINIncomplete_ISR(USB_OTG_CORE_HANDLE *pdev)
 823:../inc/STM32_USB_OTG_Driver/src/usb_dcd_int.c **** {
 26662              		.loc 1 823 0
 26663              		.cfi_startproc
 26664              		@ args = 0, pretend = 0, frame = 16
 26665              		@ frame_needed = 1, uses_anonymous_args = 0
 26666 0000 80B5     		push	{r7, lr}
 26667              	.LCFI30:
 26668              		.cfi_def_cfa_offset 8
 26669 0002 84B0     		sub	sp, sp, #16
 26670              	.LCFI31:
 26671              		.cfi_def_cfa_offset 24
 26672 0004 00AF     		add	r7, sp, #0
 26673              		.cfi_offset 14, -4
 26674              		.cfi_offset 7, -8
 26675              	.LCFI32:
 26676              		.cfi_def_cfa_register 7
 26677 0006 7860     		str	r0, [r7, #4]
 824:../inc/STM32_USB_OTG_Driver/src/usb_dcd_int.c ****   USB_OTG_GINTSTS_TypeDef gintsts;  
 825:../inc/STM32_USB_OTG_Driver/src/usb_dcd_int.c ****   
 826:../inc/STM32_USB_OTG_Driver/src/usb_dcd_int.c ****   gintsts.d32 = 0;
 26678              		.loc 1 826 0
 26679 0008 4FF00003 		mov	r3, #0
 26680 000c FB60     		str	r3, [r7, #12]
 827:../inc/STM32_USB_OTG_Driver/src/usb_dcd_int.c **** 
 828:../inc/STM32_USB_OTG_Driver/src/usb_dcd_int.c ****   USBD_DCD_INT_fops->IsoINIncomplete (pdev); 
 26681              		.loc 1 828 0
 26682 000e 0A4B     		ldr	r3, .L76
 26683 0010 1B68     		ldr	r3, [r3, #0]
 26684 0012 DB69     		ldr	r3, [r3, #28]
 26685 0014 7868     		ldr	r0, [r7, #4]
 26686 0016 9847     		blx	r3
 829:../inc/STM32_USB_OTG_Driver/src/usb_dcd_int.c ****   
 830:../inc/STM32_USB_OTG_Driver/src/usb_dcd_int.c ****   /* Clear interrupt */
 831:../inc/STM32_USB_OTG_Driver/src/usb_dcd_int.c ****   gintsts.b.incomplisoin = 1;
 26687              		.loc 1 831 0
 26688 0018 FB68     		ldr	r3, [r7, #12]
 26689 001a 43F48013 		orr	r3, r3, #1048576
 26690 001e FB60     		str	r3, [r7, #12]
 832:../inc/STM32_USB_OTG_Driver/src/usb_dcd_int.c ****   USB_OTG_WRITE_REG32(&pdev->regs.GREGS->GINTSTS, gintsts.d32);
 26691              		.loc 1 832 0
 26692 0020 7B68     		ldr	r3, [r7, #4]
 26693 0022 DB68     		ldr	r3, [r3, #12]
 26694 0024 FA68     		ldr	r2, [r7, #12]
 26695 0026 5A61     		str	r2, [r3, #20]
 833:../inc/STM32_USB_OTG_Driver/src/usb_dcd_int.c ****   
 834:../inc/STM32_USB_OTG_Driver/src/usb_dcd_int.c ****   return 1;
 26696              		.loc 1 834 0
 26697 0028 4FF00103 		mov	r3, #1
 835:../inc/STM32_USB_OTG_Driver/src/usb_dcd_int.c **** }
 26698              		.loc 1 835 0
 26699 002c 1846     		mov	r0, r3
 26700 002e 07F11007 		add	r7, r7, #16
 26701 0032 BD46     		mov	sp, r7
 26702 0034 80BD     		pop	{r7, pc}
 26703              	.L77:
 26704 0036 00BF     		.align	2
 26705              	.L76:
 26706 0038 00000000 		.word	USBD_DCD_INT_fops
 26707              		.cfi_endproc
 26708              	.LFE120:
 26710              		.section	.text.DCD_IsoOUTIncomplete_ISR,"ax",%progbits
 26711              		.align	2
 26712              		.thumb
 26713              		.thumb_func
 26715              	DCD_IsoOUTIncomplete_ISR:
 26716              	.LFB121:
 836:../inc/STM32_USB_OTG_Driver/src/usb_dcd_int.c **** 
 837:../inc/STM32_USB_OTG_Driver/src/usb_dcd_int.c **** /**
 838:../inc/STM32_USB_OTG_Driver/src/usb_dcd_int.c **** * @brief  DCD_IsoOUTIncomplete_ISR
 839:../inc/STM32_USB_OTG_Driver/src/usb_dcd_int.c **** *         handle the ISO OUT incomplete interrupt
 840:../inc/STM32_USB_OTG_Driver/src/usb_dcd_int.c **** * @param  pdev: device instance
 841:../inc/STM32_USB_OTG_Driver/src/usb_dcd_int.c **** * @retval status
 842:../inc/STM32_USB_OTG_Driver/src/usb_dcd_int.c **** */
 843:../inc/STM32_USB_OTG_Driver/src/usb_dcd_int.c **** static uint32_t DCD_IsoOUTIncomplete_ISR(USB_OTG_CORE_HANDLE *pdev)
 844:../inc/STM32_USB_OTG_Driver/src/usb_dcd_int.c **** {
 26717              		.loc 1 844 0
 26718              		.cfi_startproc
 26719              		@ args = 0, pretend = 0, frame = 16
 26720              		@ frame_needed = 1, uses_anonymous_args = 0
 26721 0000 80B5     		push	{r7, lr}
 26722              	.LCFI33:
 26723              		.cfi_def_cfa_offset 8
 26724 0002 84B0     		sub	sp, sp, #16
 26725              	.LCFI34:
 26726              		.cfi_def_cfa_offset 24
 26727 0004 00AF     		add	r7, sp, #0
 26728              		.cfi_offset 14, -4
 26729              		.cfi_offset 7, -8
 26730              	.LCFI35:
 26731              		.cfi_def_cfa_register 7
 26732 0006 7860     		str	r0, [r7, #4]
 845:../inc/STM32_USB_OTG_Driver/src/usb_dcd_int.c ****   USB_OTG_GINTSTS_TypeDef gintsts;  
 846:../inc/STM32_USB_OTG_Driver/src/usb_dcd_int.c ****   
 847:../inc/STM32_USB_OTG_Driver/src/usb_dcd_int.c ****   gintsts.d32 = 0;
 26733              		.loc 1 847 0
 26734 0008 4FF00003 		mov	r3, #0
 26735 000c FB60     		str	r3, [r7, #12]
 848:../inc/STM32_USB_OTG_Driver/src/usb_dcd_int.c **** 
 849:../inc/STM32_USB_OTG_Driver/src/usb_dcd_int.c ****   USBD_DCD_INT_fops->IsoOUTIncomplete (pdev); 
 26736              		.loc 1 849 0
 26737 000e 0A4B     		ldr	r3, .L79
 26738 0010 1B68     		ldr	r3, [r3, #0]
 26739 0012 1B6A     		ldr	r3, [r3, #32]
 26740 0014 7868     		ldr	r0, [r7, #4]
 26741 0016 9847     		blx	r3
 850:../inc/STM32_USB_OTG_Driver/src/usb_dcd_int.c ****   
 851:../inc/STM32_USB_OTG_Driver/src/usb_dcd_int.c ****   /* Clear interrupt */
 852:../inc/STM32_USB_OTG_Driver/src/usb_dcd_int.c ****   gintsts.b.incomplisoout = 1;
 26742              		.loc 1 852 0
 26743 0018 FB68     		ldr	r3, [r7, #12]
 26744 001a 43F40013 		orr	r3, r3, #2097152
 26745 001e FB60     		str	r3, [r7, #12]
 853:../inc/STM32_USB_OTG_Driver/src/usb_dcd_int.c ****   USB_OTG_WRITE_REG32(&pdev->regs.GREGS->GINTSTS, gintsts.d32);
 26746              		.loc 1 853 0
 26747 0020 7B68     		ldr	r3, [r7, #4]
 26748 0022 DB68     		ldr	r3, [r3, #12]
 26749 0024 FA68     		ldr	r2, [r7, #12]
 26750 0026 5A61     		str	r2, [r3, #20]
 854:../inc/STM32_USB_OTG_Driver/src/usb_dcd_int.c ****   return 1;
 26751              		.loc 1 854 0
 26752 0028 4FF00103 		mov	r3, #1
 855:../inc/STM32_USB_OTG_Driver/src/usb_dcd_int.c **** }
 26753              		.loc 1 855 0
 26754 002c 1846     		mov	r0, r3
 26755 002e 07F11007 		add	r7, r7, #16
 26756 0032 BD46     		mov	sp, r7
 26757 0034 80BD     		pop	{r7, pc}
 26758              	.L80:
 26759 0036 00BF     		.align	2
 26760              	.L79:
 26761 0038 00000000 		.word	USBD_DCD_INT_fops
 26762              		.cfi_endproc
 26763              	.LFE121:
 26765              		.section	.text.DCD_ReadDevInEP,"ax",%progbits
 26766              		.align	2
 26767              		.thumb
 26768              		.thumb_func
 26770              	DCD_ReadDevInEP:
 26771              	.LFB122:
 856:../inc/STM32_USB_OTG_Driver/src/usb_dcd_int.c **** /**
 857:../inc/STM32_USB_OTG_Driver/src/usb_dcd_int.c **** * @brief  DCD_ReadDevInEP
 858:../inc/STM32_USB_OTG_Driver/src/usb_dcd_int.c **** *         Reads ep flags
 859:../inc/STM32_USB_OTG_Driver/src/usb_dcd_int.c **** * @param  pdev: device instance
 860:../inc/STM32_USB_OTG_Driver/src/usb_dcd_int.c **** * @retval status
 861:../inc/STM32_USB_OTG_Driver/src/usb_dcd_int.c **** */
 862:../inc/STM32_USB_OTG_Driver/src/usb_dcd_int.c **** static uint32_t DCD_ReadDevInEP (USB_OTG_CORE_HANDLE *pdev, uint8_t epnum)
 863:../inc/STM32_USB_OTG_Driver/src/usb_dcd_int.c **** {
 26772              		.loc 1 863 0
 26773              		.cfi_startproc
 26774              		@ args = 0, pretend = 0, frame = 24
 26775              		@ frame_needed = 1, uses_anonymous_args = 0
 26776              		@ link register save eliminated.
 26777 0000 80B4     		push	{r7}
 26778              	.LCFI36:
 26779              		.cfi_def_cfa_offset 4
 26780 0002 87B0     		sub	sp, sp, #28
 26781              	.LCFI37:
 26782              		.cfi_def_cfa_offset 32
 26783 0004 00AF     		add	r7, sp, #0
 26784              		.cfi_offset 7, -4
 26785              	.LCFI38:
 26786              		.cfi_def_cfa_register 7
 26787 0006 7860     		str	r0, [r7, #4]
 26788 0008 0B46     		mov	r3, r1
 26789 000a FB70     		strb	r3, [r7, #3]
 864:../inc/STM32_USB_OTG_Driver/src/usb_dcd_int.c ****   uint32_t v, msk, emp;
 865:../inc/STM32_USB_OTG_Driver/src/usb_dcd_int.c ****   msk = USB_OTG_READ_REG32(&pdev->regs.DREGS->DIEPMSK);
 26790              		.loc 1 865 0
 26791 000c 7B68     		ldr	r3, [r7, #4]
 26792 000e 1B69     		ldr	r3, [r3, #16]
 26793 0010 1B69     		ldr	r3, [r3, #16]
 26794 0012 7B61     		str	r3, [r7, #20]
 866:../inc/STM32_USB_OTG_Driver/src/usb_dcd_int.c ****   emp = USB_OTG_READ_REG32(&pdev->regs.DREGS->DIEPEMPMSK);
 26795              		.loc 1 866 0
 26796 0014 7B68     		ldr	r3, [r7, #4]
 26797 0016 1B69     		ldr	r3, [r3, #16]
 26798 0018 5B6B     		ldr	r3, [r3, #52]
 26799 001a 3B61     		str	r3, [r7, #16]
 867:../inc/STM32_USB_OTG_Driver/src/usb_dcd_int.c ****   msk |= ((emp >> epnum) & 0x1) << 7;
 26800              		.loc 1 867 0
 26801 001c FB78     		ldrb	r3, [r7, #3]	@ zero_extendqisi2
 26802 001e 3A69     		ldr	r2, [r7, #16]
 26803 0020 22FA03F3 		lsr	r3, r2, r3
 26804 0024 4FEAC313 		lsl	r3, r3, #7
 26805 0028 03F0FF03 		and	r3, r3, #255
 26806 002c 7A69     		ldr	r2, [r7, #20]
 26807 002e 42EA0303 		orr	r3, r2, r3
 26808 0032 7B61     		str	r3, [r7, #20]
 868:../inc/STM32_USB_OTG_Driver/src/usb_dcd_int.c ****   v = USB_OTG_READ_REG32(&pdev->regs.INEP_REGS[epnum]->DIEPINT) & msk;
 26809              		.loc 1 868 0
 26810 0034 FB78     		ldrb	r3, [r7, #3]	@ zero_extendqisi2
 26811 0036 7A68     		ldr	r2, [r7, #4]
 26812 0038 03F10403 		add	r3, r3, #4
 26813 003c 4FEA8303 		lsl	r3, r3, #2
 26814 0040 D318     		adds	r3, r2, r3
 26815 0042 9B68     		ldr	r3, [r3, #8]
 26816 0044 9A68     		ldr	r2, [r3, #8]
 26817 0046 7B69     		ldr	r3, [r7, #20]
 26818 0048 02EA0303 		and	r3, r2, r3
 26819 004c FB60     		str	r3, [r7, #12]
 869:../inc/STM32_USB_OTG_Driver/src/usb_dcd_int.c ****   return v;
 26820              		.loc 1 869 0
 26821 004e FB68     		ldr	r3, [r7, #12]
 870:../inc/STM32_USB_OTG_Driver/src/usb_dcd_int.c **** }
 26822              		.loc 1 870 0
 26823 0050 1846     		mov	r0, r3
 26824 0052 07F11C07 		add	r7, r7, #28
 26825 0056 BD46     		mov	sp, r7
 26826 0058 80BC     		pop	{r7}
 26827 005a 7047     		bx	lr
 26828              		.cfi_endproc
 26829              	.LFE122:
 26831              		.text
 26832              	.Letext0: