   1              		.syntax unified
   2              		.cpu cortex-m4
   3              		.fpu softvfp
   4              		.eabi_attribute 20, 1
   5              		.eabi_attribute 21, 1
   6              		.eabi_attribute 23, 3
   7              		.eabi_attribute 24, 1
   8              		.eabi_attribute 25, 1
   9              		.eabi_attribute 26, 1
  10              		.eabi_attribute 30, 6
  11              		.eabi_attribute 18, 4
  12              		.thumb
  13              		.file	"usb_core.c"
  23              	.Ltext0:
  24              		.file 1 "../inc/STM32_USB_OTG_Driver/src/usb_core.c"
 24993              		.align	2
 24994              		.thumb
 24995              		.thumb_func
 24997              	USB_OTG_EnableCommonInt:
 24998              	.LFB110:
   1:../inc/STM32_USB_OTG_Driver/src/usb_core.c **** /**
   2:../inc/STM32_USB_OTG_Driver/src/usb_core.c ****   ******************************************************************************
   3:../inc/STM32_USB_OTG_Driver/src/usb_core.c ****   * @file    usb_core.c
   4:../inc/STM32_USB_OTG_Driver/src/usb_core.c ****   * @author  MCD Application Team
   5:../inc/STM32_USB_OTG_Driver/src/usb_core.c ****   * @version V2.0.0
   6:../inc/STM32_USB_OTG_Driver/src/usb_core.c ****   * @date    22-July-2011
   7:../inc/STM32_USB_OTG_Driver/src/usb_core.c ****   * @brief   USB-OTG Core Layer
   8:../inc/STM32_USB_OTG_Driver/src/usb_core.c ****   ******************************************************************************
   9:../inc/STM32_USB_OTG_Driver/src/usb_core.c ****   * @attention 
  10:../inc/STM32_USB_OTG_Driver/src/usb_core.c ****   *
  11:../inc/STM32_USB_OTG_Driver/src/usb_core.c ****   * THE PRESENT FIRMWARE WHICH IS FOR GUIDANCE ONLY AIMS AT PROVIDING CUSTOMERS
  12:../inc/STM32_USB_OTG_Driver/src/usb_core.c ****   * WITH CODING INFORMATION REGARDING THEIR PRODUCTS IN ORDER FOR THEM TO SAVE
  13:../inc/STM32_USB_OTG_Driver/src/usb_core.c ****   * TIME. AS A RESULT, STMICROELECTRONICS SHALL NOT BE HELD LIABLE FOR ANY
  14:../inc/STM32_USB_OTG_Driver/src/usb_core.c ****   * DIRECT, INDIRECT OR CONSEQUENTIAL DAMAGES WITH RESPECT TO ANY CLAIMS ARISING
  15:../inc/STM32_USB_OTG_Driver/src/usb_core.c ****   * FROM THE CONTENT OF SUCH FIRMWARE AND/OR THE USE MADE BY CUSTOMERS OF THE 
  16:../inc/STM32_USB_OTG_Driver/src/usb_core.c ****   * CODING INFORMATION CONTAINED HEREIN IN CONNECTION WITH THEIR PRODUCTS.
  17:../inc/STM32_USB_OTG_Driver/src/usb_core.c ****   *
  18:../inc/STM32_USB_OTG_Driver/src/usb_core.c ****   * <h2><center>&copy; COPYRIGHT 2011 STMicroelectronics</center></h2>
  19:../inc/STM32_USB_OTG_Driver/src/usb_core.c ****   ******************************************************************************
  20:../inc/STM32_USB_OTG_Driver/src/usb_core.c ****   */
  21:../inc/STM32_USB_OTG_Driver/src/usb_core.c **** 
  22:../inc/STM32_USB_OTG_Driver/src/usb_core.c **** /* Includes ------------------------------------------------------------------*/
  23:../inc/STM32_USB_OTG_Driver/src/usb_core.c **** #include "usb_core.h"
  24:../inc/STM32_USB_OTG_Driver/src/usb_core.c **** #include "usb_bsp.h"
  25:../inc/STM32_USB_OTG_Driver/src/usb_core.c **** 
  26:../inc/STM32_USB_OTG_Driver/src/usb_core.c **** 
  27:../inc/STM32_USB_OTG_Driver/src/usb_core.c **** /** @addtogroup USB_OTG_DRIVER
  28:../inc/STM32_USB_OTG_Driver/src/usb_core.c **** * @{
  29:../inc/STM32_USB_OTG_Driver/src/usb_core.c **** */
  30:../inc/STM32_USB_OTG_Driver/src/usb_core.c **** 
  31:../inc/STM32_USB_OTG_Driver/src/usb_core.c **** /** @defgroup USB_CORE 
  32:../inc/STM32_USB_OTG_Driver/src/usb_core.c **** * @brief This file includes the USB-OTG Core Layer
  33:../inc/STM32_USB_OTG_Driver/src/usb_core.c **** * @{
  34:../inc/STM32_USB_OTG_Driver/src/usb_core.c **** */
  35:../inc/STM32_USB_OTG_Driver/src/usb_core.c **** 
  36:../inc/STM32_USB_OTG_Driver/src/usb_core.c **** 
  37:../inc/STM32_USB_OTG_Driver/src/usb_core.c **** /** @defgroup USB_CORE_Private_Defines
  38:../inc/STM32_USB_OTG_Driver/src/usb_core.c **** * @{
  39:../inc/STM32_USB_OTG_Driver/src/usb_core.c **** */ 
  40:../inc/STM32_USB_OTG_Driver/src/usb_core.c **** 
  41:../inc/STM32_USB_OTG_Driver/src/usb_core.c **** /**
  42:../inc/STM32_USB_OTG_Driver/src/usb_core.c **** * @}
  43:../inc/STM32_USB_OTG_Driver/src/usb_core.c **** */ 
  44:../inc/STM32_USB_OTG_Driver/src/usb_core.c **** 
  45:../inc/STM32_USB_OTG_Driver/src/usb_core.c **** 
  46:../inc/STM32_USB_OTG_Driver/src/usb_core.c **** /** @defgroup USB_CORE_Private_TypesDefinitions
  47:../inc/STM32_USB_OTG_Driver/src/usb_core.c **** * @{
  48:../inc/STM32_USB_OTG_Driver/src/usb_core.c **** */ 
  49:../inc/STM32_USB_OTG_Driver/src/usb_core.c **** /**
  50:../inc/STM32_USB_OTG_Driver/src/usb_core.c **** * @}
  51:../inc/STM32_USB_OTG_Driver/src/usb_core.c **** */ 
  52:../inc/STM32_USB_OTG_Driver/src/usb_core.c **** 
  53:../inc/STM32_USB_OTG_Driver/src/usb_core.c **** 
  54:../inc/STM32_USB_OTG_Driver/src/usb_core.c **** 
  55:../inc/STM32_USB_OTG_Driver/src/usb_core.c **** /** @defgroup USB_CORE_Private_Macros
  56:../inc/STM32_USB_OTG_Driver/src/usb_core.c **** * @{
  57:../inc/STM32_USB_OTG_Driver/src/usb_core.c **** */ 
  58:../inc/STM32_USB_OTG_Driver/src/usb_core.c **** /**
  59:../inc/STM32_USB_OTG_Driver/src/usb_core.c **** * @}
  60:../inc/STM32_USB_OTG_Driver/src/usb_core.c **** */ 
  61:../inc/STM32_USB_OTG_Driver/src/usb_core.c **** 
  62:../inc/STM32_USB_OTG_Driver/src/usb_core.c **** 
  63:../inc/STM32_USB_OTG_Driver/src/usb_core.c **** /** @defgroup USB_CORE_Private_Variables
  64:../inc/STM32_USB_OTG_Driver/src/usb_core.c **** * @{
  65:../inc/STM32_USB_OTG_Driver/src/usb_core.c **** */ 
  66:../inc/STM32_USB_OTG_Driver/src/usb_core.c **** /**
  67:../inc/STM32_USB_OTG_Driver/src/usb_core.c **** * @}
  68:../inc/STM32_USB_OTG_Driver/src/usb_core.c **** */ 
  69:../inc/STM32_USB_OTG_Driver/src/usb_core.c **** 
  70:../inc/STM32_USB_OTG_Driver/src/usb_core.c **** 
  71:../inc/STM32_USB_OTG_Driver/src/usb_core.c **** /** @defgroup USB_CORE_Private_FunctionPrototypes
  72:../inc/STM32_USB_OTG_Driver/src/usb_core.c **** * @{
  73:../inc/STM32_USB_OTG_Driver/src/usb_core.c **** */ 
  74:../inc/STM32_USB_OTG_Driver/src/usb_core.c **** /**
  75:../inc/STM32_USB_OTG_Driver/src/usb_core.c **** * @}
  76:../inc/STM32_USB_OTG_Driver/src/usb_core.c **** */ 
  77:../inc/STM32_USB_OTG_Driver/src/usb_core.c **** 
  78:../inc/STM32_USB_OTG_Driver/src/usb_core.c **** 
  79:../inc/STM32_USB_OTG_Driver/src/usb_core.c **** /** @defgroup USB_CORE_Private_Functions
  80:../inc/STM32_USB_OTG_Driver/src/usb_core.c **** * @{
  81:../inc/STM32_USB_OTG_Driver/src/usb_core.c **** */ 
  82:../inc/STM32_USB_OTG_Driver/src/usb_core.c **** 
  83:../inc/STM32_USB_OTG_Driver/src/usb_core.c **** /**
  84:../inc/STM32_USB_OTG_Driver/src/usb_core.c **** * @brief  USB_OTG_EnableCommonInt
  85:../inc/STM32_USB_OTG_Driver/src/usb_core.c **** *         Initializes the commmon interrupts, used in both device and modes
  86:../inc/STM32_USB_OTG_Driver/src/usb_core.c **** * @param  pdev : Selected device
  87:../inc/STM32_USB_OTG_Driver/src/usb_core.c **** * @retval None
  88:../inc/STM32_USB_OTG_Driver/src/usb_core.c **** */
  89:../inc/STM32_USB_OTG_Driver/src/usb_core.c **** static void USB_OTG_EnableCommonInt(USB_OTG_CORE_HANDLE *pdev)
  90:../inc/STM32_USB_OTG_Driver/src/usb_core.c **** {
 24999              		.loc 1 90 0
 25000              		.cfi_startproc
 25001              		@ args = 0, pretend = 0, frame = 16
 25002              		@ frame_needed = 1, uses_anonymous_args = 0
 25003              		@ link register save eliminated.
 25004 0000 80B4     		push	{r7}
 25005              	.LCFI0:
 25006              		.cfi_def_cfa_offset 4
 25007 0002 85B0     		sub	sp, sp, #20
 25008              	.LCFI1:
 25009              		.cfi_def_cfa_offset 24
 25010 0004 00AF     		add	r7, sp, #0
 25011              		.cfi_offset 7, -4
 25012              	.LCFI2:
 25013              		.cfi_def_cfa_register 7
 25014 0006 7860     		str	r0, [r7, #4]
  91:../inc/STM32_USB_OTG_Driver/src/usb_core.c ****   USB_OTG_GINTMSK_TypeDef  int_mask;
  92:../inc/STM32_USB_OTG_Driver/src/usb_core.c ****   
  93:../inc/STM32_USB_OTG_Driver/src/usb_core.c ****   int_mask.d32 = 0;
 25015              		.loc 1 93 0
 25016 0008 4FF00003 		mov	r3, #0
 25017 000c FB60     		str	r3, [r7, #12]
  94:../inc/STM32_USB_OTG_Driver/src/usb_core.c ****   /* Clear any pending USB_OTG Interrupts */
  95:../inc/STM32_USB_OTG_Driver/src/usb_core.c **** #ifndef USE_OTG_MODE
  96:../inc/STM32_USB_OTG_Driver/src/usb_core.c ****   USB_OTG_WRITE_REG32( &pdev->regs.GREGS->GOTGINT, 0xFFFFFFFF);
 25018              		.loc 1 96 0
 25019 000e 7B68     		ldr	r3, [r7, #4]
 25020 0010 DB68     		ldr	r3, [r3, #12]
 25021 0012 4FF0FF32 		mov	r2, #-1
 25022 0016 5A60     		str	r2, [r3, #4]
  97:../inc/STM32_USB_OTG_Driver/src/usb_core.c **** #endif
  98:../inc/STM32_USB_OTG_Driver/src/usb_core.c ****   /* Clear any pending interrupts */
  99:../inc/STM32_USB_OTG_Driver/src/usb_core.c ****   USB_OTG_WRITE_REG32( &pdev->regs.GREGS->GINTSTS, 0xFFFFFFFF);
 25023              		.loc 1 99 0
 25024 0018 7B68     		ldr	r3, [r7, #4]
 25025 001a DB68     		ldr	r3, [r3, #12]
 25026 001c 4FF0FF32 		mov	r2, #-1
 25027 0020 5A61     		str	r2, [r3, #20]
 100:../inc/STM32_USB_OTG_Driver/src/usb_core.c ****   /* Enable the interrupts in the INTMSK */
 101:../inc/STM32_USB_OTG_Driver/src/usb_core.c ****   int_mask.b.wkupintr = 1;
 25028              		.loc 1 101 0
 25029 0022 FB68     		ldr	r3, [r7, #12]
 25030 0024 43F00043 		orr	r3, r3, #-2147483648
 25031 0028 FB60     		str	r3, [r7, #12]
 102:../inc/STM32_USB_OTG_Driver/src/usb_core.c ****   int_mask.b.usbsuspend = 1; 
 25032              		.loc 1 102 0
 25033 002a FB68     		ldr	r3, [r7, #12]
 25034 002c 43F40063 		orr	r3, r3, #2048
 25035 0030 FB60     		str	r3, [r7, #12]
 103:../inc/STM32_USB_OTG_Driver/src/usb_core.c ****   
 104:../inc/STM32_USB_OTG_Driver/src/usb_core.c **** #ifdef USE_OTG_MODE
 105:../inc/STM32_USB_OTG_Driver/src/usb_core.c ****   int_mask.b.otgintr = 1;
 106:../inc/STM32_USB_OTG_Driver/src/usb_core.c ****   int_mask.b.sessreqintr = 1;
 107:../inc/STM32_USB_OTG_Driver/src/usb_core.c ****   int_mask.b.conidstschng = 1;
 108:../inc/STM32_USB_OTG_Driver/src/usb_core.c **** #endif
 109:../inc/STM32_USB_OTG_Driver/src/usb_core.c ****   USB_OTG_WRITE_REG32( &pdev->regs.GREGS->GINTMSK, int_mask.d32);
 25036              		.loc 1 109 0
 25037 0032 7B68     		ldr	r3, [r7, #4]
 25038 0034 DB68     		ldr	r3, [r3, #12]
 25039 0036 FA68     		ldr	r2, [r7, #12]
 25040 0038 9A61     		str	r2, [r3, #24]
 110:../inc/STM32_USB_OTG_Driver/src/usb_core.c **** }
 25041              		.loc 1 110 0
 25042 003a 07F11407 		add	r7, r7, #20
 25043 003e BD46     		mov	sp, r7
 25044 0040 80BC     		pop	{r7}
 25045 0042 7047     		bx	lr
 25046              		.cfi_endproc
 25047              	.LFE110:
 25049              		.section	.text.USB_OTG_CoreReset,"ax",%progbits
 25050              		.align	2
 25051              		.thumb
 25052              		.thumb_func
 25054              	USB_OTG_CoreReset:
 25055              	.LFB111:
 111:../inc/STM32_USB_OTG_Driver/src/usb_core.c **** 
 112:../inc/STM32_USB_OTG_Driver/src/usb_core.c **** /**
 113:../inc/STM32_USB_OTG_Driver/src/usb_core.c **** * @brief  USB_OTG_CoreReset : Soft reset of the core
 114:../inc/STM32_USB_OTG_Driver/src/usb_core.c **** * @param  pdev : Selected device
 115:../inc/STM32_USB_OTG_Driver/src/usb_core.c **** * @retval USB_OTG_STS : status
 116:../inc/STM32_USB_OTG_Driver/src/usb_core.c **** */
 117:../inc/STM32_USB_OTG_Driver/src/usb_core.c **** static USB_OTG_STS USB_OTG_CoreReset(USB_OTG_CORE_HANDLE *pdev)
 118:../inc/STM32_USB_OTG_Driver/src/usb_core.c **** {
 25056              		.loc 1 118 0
 25057              		.cfi_startproc
 25058              		@ args = 0, pretend = 0, frame = 24
 25059              		@ frame_needed = 1, uses_anonymous_args = 0
 25060 0000 80B5     		push	{r7, lr}
 25061              	.LCFI3:
 25062              		.cfi_def_cfa_offset 8
 25063 0002 86B0     		sub	sp, sp, #24
 25064              	.LCFI4:
 25065              		.cfi_def_cfa_offset 32
 25066 0004 00AF     		add	r7, sp, #0
 25067              		.cfi_offset 14, -4
 25068              		.cfi_offset 7, -8
 25069              	.LCFI5:
 25070              		.cfi_def_cfa_register 7
 25071 0006 7860     		str	r0, [r7, #4]
 119:../inc/STM32_USB_OTG_Driver/src/usb_core.c ****   USB_OTG_STS status = USB_OTG_OK;
 25072              		.loc 1 119 0
 25073 0008 4FF00003 		mov	r3, #0
 25074 000c FB74     		strb	r3, [r7, #19]
 120:../inc/STM32_USB_OTG_Driver/src/usb_core.c ****   __IO USB_OTG_GRSTCTL_TypeDef  greset;
 121:../inc/STM32_USB_OTG_Driver/src/usb_core.c ****   uint32_t count = 0;
 25075              		.loc 1 121 0
 25076 000e 4FF00003 		mov	r3, #0
 25077 0012 7B61     		str	r3, [r7, #20]
 122:../inc/STM32_USB_OTG_Driver/src/usb_core.c ****   
 123:../inc/STM32_USB_OTG_Driver/src/usb_core.c ****   greset.d32 = 0;
 25078              		.loc 1 123 0
 25079 0014 4FF00003 		mov	r3, #0
 25080 0018 FB60     		str	r3, [r7, #12]
 25081              	.L5:
 124:../inc/STM32_USB_OTG_Driver/src/usb_core.c ****   /* Wait for AHB master IDLE state. */
 125:../inc/STM32_USB_OTG_Driver/src/usb_core.c ****   do
 126:../inc/STM32_USB_OTG_Driver/src/usb_core.c ****   {
 127:../inc/STM32_USB_OTG_Driver/src/usb_core.c ****     USB_OTG_BSP_uDelay(3);
 25082              		.loc 1 127 0
 25083 001a 4FF00300 		mov	r0, #3
 25084 001e FFF7FEFF 		bl	USB_OTG_BSP_uDelay
 128:../inc/STM32_USB_OTG_Driver/src/usb_core.c ****     greset.d32 = USB_OTG_READ_REG32(&pdev->regs.GREGS->GRSTCTL);
 25085              		.loc 1 128 0
 25086 0022 7B68     		ldr	r3, [r7, #4]
 25087 0024 DB68     		ldr	r3, [r3, #12]
 25088 0026 1B69     		ldr	r3, [r3, #16]
 25089 0028 FB60     		str	r3, [r7, #12]
 129:../inc/STM32_USB_OTG_Driver/src/usb_core.c ****     if (++count > 200000)
 25090              		.loc 1 129 0
 25091 002a 7B69     		ldr	r3, [r7, #20]
 25092 002c 03F10103 		add	r3, r3, #1
 25093 0030 7B61     		str	r3, [r7, #20]
 25094 0032 7A69     		ldr	r2, [r7, #20]
 25095 0034 194B     		ldr	r3, .L10
 25096 0036 9A42     		cmp	r2, r3
 25097 0038 02D9     		bls	.L3
 130:../inc/STM32_USB_OTG_Driver/src/usb_core.c ****     {
 131:../inc/STM32_USB_OTG_Driver/src/usb_core.c ****       return USB_OTG_OK;
 25098              		.loc 1 131 0
 25099 003a 4FF00003 		mov	r3, #0
 25100 003e 27E0     		b	.L4
 25101              	.L3:
 132:../inc/STM32_USB_OTG_Driver/src/usb_core.c ****     }
 133:../inc/STM32_USB_OTG_Driver/src/usb_core.c ****   }
 134:../inc/STM32_USB_OTG_Driver/src/usb_core.c ****   while (greset.b.ahbidle == 0);
 25102              		.loc 1 134 0
 25103 0040 FB68     		ldr	r3, [r7, #12]
 25104 0042 03F00043 		and	r3, r3, #-2147483648
 25105 0046 002B     		cmp	r3, #0
 25106 0048 E7D0     		beq	.L5
 135:../inc/STM32_USB_OTG_Driver/src/usb_core.c ****   /* Core Soft Reset */
 136:../inc/STM32_USB_OTG_Driver/src/usb_core.c ****   count = 0;
 25107              		.loc 1 136 0
 25108 004a 4FF00003 		mov	r3, #0
 25109 004e 7B61     		str	r3, [r7, #20]
 137:../inc/STM32_USB_OTG_Driver/src/usb_core.c ****   greset.b.csftrst = 1;
 25110              		.loc 1 137 0
 25111 0050 FB68     		ldr	r3, [r7, #12]
 25112 0052 43F00103 		orr	r3, r3, #1
 25113 0056 FB60     		str	r3, [r7, #12]
 138:../inc/STM32_USB_OTG_Driver/src/usb_core.c ****   USB_OTG_WRITE_REG32(&pdev->regs.GREGS->GRSTCTL, greset.d32 );
 25114              		.loc 1 138 0
 25115 0058 7B68     		ldr	r3, [r7, #4]
 25116 005a DB68     		ldr	r3, [r3, #12]
 25117 005c FA68     		ldr	r2, [r7, #12]
 25118 005e 1A61     		str	r2, [r3, #16]
 25119              	.L8:
 139:../inc/STM32_USB_OTG_Driver/src/usb_core.c ****   do
 140:../inc/STM32_USB_OTG_Driver/src/usb_core.c ****   {
 141:../inc/STM32_USB_OTG_Driver/src/usb_core.c ****     greset.d32 = USB_OTG_READ_REG32(&pdev->regs.GREGS->GRSTCTL);
 25120              		.loc 1 141 0
 25121 0060 7B68     		ldr	r3, [r7, #4]
 25122 0062 DB68     		ldr	r3, [r3, #12]
 25123 0064 1B69     		ldr	r3, [r3, #16]
 25124 0066 FB60     		str	r3, [r7, #12]
 142:../inc/STM32_USB_OTG_Driver/src/usb_core.c ****     if (++count > 200000)
 25125              		.loc 1 142 0
 25126 0068 7B69     		ldr	r3, [r7, #20]
 25127 006a 03F10103 		add	r3, r3, #1
 25128 006e 7B61     		str	r3, [r7, #20]
 25129 0070 7A69     		ldr	r2, [r7, #20]
 25130 0072 0A4B     		ldr	r3, .L10
 25131 0074 9A42     		cmp	r2, r3
 25132 0076 05D8     		bhi	.L9
 25133              	.L6:
 143:../inc/STM32_USB_OTG_Driver/src/usb_core.c ****     {
 144:../inc/STM32_USB_OTG_Driver/src/usb_core.c ****       break;
 145:../inc/STM32_USB_OTG_Driver/src/usb_core.c ****     }
 146:../inc/STM32_USB_OTG_Driver/src/usb_core.c ****   }
 147:../inc/STM32_USB_OTG_Driver/src/usb_core.c ****   while (greset.b.csftrst == 1);
 25134              		.loc 1 147 0
 25135 0078 FB68     		ldr	r3, [r7, #12]
 25136 007a 03F00103 		and	r3, r3, #1
 25137 007e 002B     		cmp	r3, #0
 25138 0080 EED1     		bne	.L8
 25139 0082 00E0     		b	.L7
 25140              	.L9:
 144:../inc/STM32_USB_OTG_Driver/src/usb_core.c ****       break;
 25141              		.loc 1 144 0
 25142 0084 00BF     		nop
 25143              	.L7:
 148:../inc/STM32_USB_OTG_Driver/src/usb_core.c ****   /* Wait for 3 PHY Clocks*/
 149:../inc/STM32_USB_OTG_Driver/src/usb_core.c ****   USB_OTG_BSP_uDelay(3);
 25144              		.loc 1 149 0
 25145 0086 4FF00300 		mov	r0, #3
 25146 008a FFF7FEFF 		bl	USB_OTG_BSP_uDelay
 150:../inc/STM32_USB_OTG_Driver/src/usb_core.c ****   return status;
 25147              		.loc 1 150 0
 25148 008e FB7C     		ldrb	r3, [r7, #19]	@ zero_extendqisi2
 25149              	.L4:
 151:../inc/STM32_USB_OTG_Driver/src/usb_core.c **** }
 25150              		.loc 1 151 0
 25151 0090 1846     		mov	r0, r3
 25152 0092 07F11807 		add	r7, r7, #24
 25153 0096 BD46     		mov	sp, r7
 25154 0098 80BD     		pop	{r7, pc}
 25155              	.L11:
 25156 009a 00BF     		.align	2
 25157              	.L10:
 25158 009c 400D0300 		.word	200000
 25159              		.cfi_endproc
 25160              	.LFE111:
 25162              		.section	.text.USB_OTG_WritePacket,"ax",%progbits
 25163              		.align	2
 25164              		.global	USB_OTG_WritePacket
 25165              		.thumb
 25166              		.thumb_func
 25168              	USB_OTG_WritePacket:
 25169              	.LFB112:
 152:../inc/STM32_USB_OTG_Driver/src/usb_core.c **** 
 153:../inc/STM32_USB_OTG_Driver/src/usb_core.c **** /**
 154:../inc/STM32_USB_OTG_Driver/src/usb_core.c **** * @brief  USB_OTG_WritePacket : Writes a packet into the Tx FIFO associated 
 155:../inc/STM32_USB_OTG_Driver/src/usb_core.c **** *         with the EP
 156:../inc/STM32_USB_OTG_Driver/src/usb_core.c **** * @param  pdev : Selected device
 157:../inc/STM32_USB_OTG_Driver/src/usb_core.c **** * @param  src : source pointer
 158:../inc/STM32_USB_OTG_Driver/src/usb_core.c **** * @param  ch_ep_num : end point number
 159:../inc/STM32_USB_OTG_Driver/src/usb_core.c **** * @param  bytes : No. of bytes
 160:../inc/STM32_USB_OTG_Driver/src/usb_core.c **** * @retval USB_OTG_STS : status
 161:../inc/STM32_USB_OTG_Driver/src/usb_core.c **** */
 162:../inc/STM32_USB_OTG_Driver/src/usb_core.c **** USB_OTG_STS USB_OTG_WritePacket(USB_OTG_CORE_HANDLE *pdev, 
 163:../inc/STM32_USB_OTG_Driver/src/usb_core.c ****                                 uint8_t             *src, 
 164:../inc/STM32_USB_OTG_Driver/src/usb_core.c ****                                 uint8_t             ch_ep_num, 
 165:../inc/STM32_USB_OTG_Driver/src/usb_core.c ****                                 uint16_t            len)
 166:../inc/STM32_USB_OTG_Driver/src/usb_core.c **** {
 25170              		.loc 1 166 0
 25171              		.cfi_startproc
 25172              		@ args = 0, pretend = 0, frame = 32
 25173              		@ frame_needed = 1, uses_anonymous_args = 0
 25174              		@ link register save eliminated.
 25175 0000 80B4     		push	{r7}
 25176              	.LCFI6:
 25177              		.cfi_def_cfa_offset 4
 25178 0002 89B0     		sub	sp, sp, #36
 25179              	.LCFI7:
 25180              		.cfi_def_cfa_offset 40
 25181 0004 00AF     		add	r7, sp, #0
 25182              		.cfi_offset 7, -4
 25183              	.LCFI8:
 25184              		.cfi_def_cfa_register 7
 25185 0006 F860     		str	r0, [r7, #12]
 25186 0008 B960     		str	r1, [r7, #8]
 25187 000a FA71     		strb	r2, [r7, #7]
 25188 000c BB80     		strh	r3, [r7, #4]	@ movhi
 167:../inc/STM32_USB_OTG_Driver/src/usb_core.c ****   USB_OTG_STS status = USB_OTG_OK;
 25189              		.loc 1 167 0
 25190 000e 4FF00003 		mov	r3, #0
 25191 0012 FB76     		strb	r3, [r7, #27]
 168:../inc/STM32_USB_OTG_Driver/src/usb_core.c ****   if (pdev->cfg.dma_enable == 0)
 25192              		.loc 1 168 0
 25193 0014 FB68     		ldr	r3, [r7, #12]
 25194 0016 DB78     		ldrb	r3, [r3, #3]	@ zero_extendqisi2
 25195 0018 002B     		cmp	r3, #0
 25196 001a 2CD1     		bne	.L13
 25197              	.LBB2:
 169:../inc/STM32_USB_OTG_Driver/src/usb_core.c ****   {
 170:../inc/STM32_USB_OTG_Driver/src/usb_core.c ****     uint32_t count32b= 0 , i= 0;
 25198              		.loc 1 170 0
 25199 001c 4FF00003 		mov	r3, #0
 25200 0020 7B61     		str	r3, [r7, #20]
 25201 0022 4FF00003 		mov	r3, #0
 25202 0026 FB61     		str	r3, [r7, #28]
 171:../inc/STM32_USB_OTG_Driver/src/usb_core.c ****     __IO uint32_t *fifo;
 172:../inc/STM32_USB_OTG_Driver/src/usb_core.c ****     
 173:../inc/STM32_USB_OTG_Driver/src/usb_core.c ****     count32b =  (len + 3) / 4;
 25203              		.loc 1 173 0
 25204 0028 BB88     		ldrh	r3, [r7, #4]
 25205 002a 03F10303 		add	r3, r3, #3
 25206 002e 002B     		cmp	r3, #0
 25207 0030 01DA     		bge	.L14
 25208 0032 03F10303 		add	r3, r3, #3
 25209              	.L14:
 25210 0036 4FEAA303 		asr	r3, r3, #2
 25211 003a 7B61     		str	r3, [r7, #20]
 174:../inc/STM32_USB_OTG_Driver/src/usb_core.c ****     fifo = pdev->regs.DFIFO[ch_ep_num];
 25212              		.loc 1 174 0
 25213 003c FB79     		ldrb	r3, [r7, #7]	@ zero_extendqisi2
 25214 003e FA68     		ldr	r2, [r7, #12]
 25215 0040 03F13203 		add	r3, r3, #50
 25216 0044 4FEA8303 		lsl	r3, r3, #2
 25217 0048 D318     		adds	r3, r2, r3
 25218 004a 9B68     		ldr	r3, [r3, #8]
 25219 004c 3B61     		str	r3, [r7, #16]
 175:../inc/STM32_USB_OTG_Driver/src/usb_core.c ****     for (i = 0; i < count32b; i++, src+=4)
 25220              		.loc 1 175 0
 25221 004e 4FF00003 		mov	r3, #0
 25222 0052 FB61     		str	r3, [r7, #28]
 25223 0054 0BE0     		b	.L15
 25224              	.L16:
 176:../inc/STM32_USB_OTG_Driver/src/usb_core.c ****     {
 177:../inc/STM32_USB_OTG_Driver/src/usb_core.c ****       USB_OTG_WRITE_REG32( fifo, *((__packed uint32_t *)src) );
 25225              		.loc 1 177 0 discriminator 2
 25226 0056 BB68     		ldr	r3, [r7, #8]
 25227 0058 1A68     		ldr	r2, [r3, #0]
 25228 005a 3B69     		ldr	r3, [r7, #16]
 25229 005c 1A60     		str	r2, [r3, #0]
 175:../inc/STM32_USB_OTG_Driver/src/usb_core.c ****     for (i = 0; i < count32b; i++, src+=4)
 25230              		.loc 1 175 0 discriminator 2
 25231 005e FB69     		ldr	r3, [r7, #28]
 25232 0060 03F10103 		add	r3, r3, #1
 25233 0064 FB61     		str	r3, [r7, #28]
 25234 0066 BB68     		ldr	r3, [r7, #8]
 25235 0068 03F10403 		add	r3, r3, #4
 25236 006c BB60     		str	r3, [r7, #8]
 25237              	.L15:
 175:../inc/STM32_USB_OTG_Driver/src/usb_core.c ****     for (i = 0; i < count32b; i++, src+=4)
 25238              		.loc 1 175 0 is_stmt 0 discriminator 1
 25239 006e FA69     		ldr	r2, [r7, #28]
 25240 0070 7B69     		ldr	r3, [r7, #20]
 25241 0072 9A42     		cmp	r2, r3
 25242 0074 EFD3     		bcc	.L16
 25243              	.L13:
 25244              	.LBE2:
 178:../inc/STM32_USB_OTG_Driver/src/usb_core.c ****     }
 179:../inc/STM32_USB_OTG_Driver/src/usb_core.c ****   }
 180:../inc/STM32_USB_OTG_Driver/src/usb_core.c ****   return status;
 25245              		.loc 1 180 0 is_stmt 1
 25246 0076 FB7E     		ldrb	r3, [r7, #27]	@ zero_extendqisi2
 181:../inc/STM32_USB_OTG_Driver/src/usb_core.c **** }
 25247              		.loc 1 181 0
 25248 0078 1846     		mov	r0, r3
 25249 007a 07F12407 		add	r7, r7, #36
 25250 007e BD46     		mov	sp, r7
 25251 0080 80BC     		pop	{r7}
 25252 0082 7047     		bx	lr
 25253              		.cfi_endproc
 25254              	.LFE112:
 25256              		.section	.text.USB_OTG_ReadPacket,"ax",%progbits
 25257              		.align	2
 25258              		.global	USB_OTG_ReadPacket
 25259              		.thumb
 25260              		.thumb_func
 25262              	USB_OTG_ReadPacket:
 25263              	.LFB113:
 182:../inc/STM32_USB_OTG_Driver/src/usb_core.c **** 
 183:../inc/STM32_USB_OTG_Driver/src/usb_core.c **** 
 184:../inc/STM32_USB_OTG_Driver/src/usb_core.c **** /**
 185:../inc/STM32_USB_OTG_Driver/src/usb_core.c **** * @brief  USB_OTG_ReadPacket : Reads a packet from the Rx FIFO
 186:../inc/STM32_USB_OTG_Driver/src/usb_core.c **** * @param  pdev : Selected device
 187:../inc/STM32_USB_OTG_Driver/src/usb_core.c **** * @param  dest : Destination Pointer
 188:../inc/STM32_USB_OTG_Driver/src/usb_core.c **** * @param  bytes : No. of bytes
 189:../inc/STM32_USB_OTG_Driver/src/usb_core.c **** * @retval None
 190:../inc/STM32_USB_OTG_Driver/src/usb_core.c **** */
 191:../inc/STM32_USB_OTG_Driver/src/usb_core.c **** void *USB_OTG_ReadPacket(USB_OTG_CORE_HANDLE *pdev, 
 192:../inc/STM32_USB_OTG_Driver/src/usb_core.c ****                          uint8_t *dest, 
 193:../inc/STM32_USB_OTG_Driver/src/usb_core.c ****                          uint16_t len)
 194:../inc/STM32_USB_OTG_Driver/src/usb_core.c **** {
 25264              		.loc 1 194 0
 25265              		.cfi_startproc
 25266              		@ args = 0, pretend = 0, frame = 32
 25267              		@ frame_needed = 1, uses_anonymous_args = 0
 25268              		@ link register save eliminated.
 25269 0000 80B4     		push	{r7}
 25270              	.LCFI9:
 25271              		.cfi_def_cfa_offset 4
 25272 0002 89B0     		sub	sp, sp, #36
 25273              	.LCFI10:
 25274              		.cfi_def_cfa_offset 40
 25275 0004 00AF     		add	r7, sp, #0
 25276              		.cfi_offset 7, -4
 25277              	.LCFI11:
 25278              		.cfi_def_cfa_register 7
 25279 0006 F860     		str	r0, [r7, #12]
 25280 0008 B960     		str	r1, [r7, #8]
 25281 000a 1346     		mov	r3, r2
 25282 000c FB80     		strh	r3, [r7, #6]	@ movhi
 195:../inc/STM32_USB_OTG_Driver/src/usb_core.c ****   uint32_t i=0;
 25283              		.loc 1 195 0
 25284 000e 4FF00003 		mov	r3, #0
 25285 0012 FB61     		str	r3, [r7, #28]
 196:../inc/STM32_USB_OTG_Driver/src/usb_core.c ****   uint32_t count32b = (len + 3) / 4;
 25286              		.loc 1 196 0
 25287 0014 FB88     		ldrh	r3, [r7, #6]
 25288 0016 03F10303 		add	r3, r3, #3
 25289 001a 002B     		cmp	r3, #0
 25290 001c 01DA     		bge	.L18
 25291 001e 03F10303 		add	r3, r3, #3
 25292              	.L18:
 25293 0022 4FEAA303 		asr	r3, r3, #2
 25294 0026 BB61     		str	r3, [r7, #24]
 197:../inc/STM32_USB_OTG_Driver/src/usb_core.c ****   
 198:../inc/STM32_USB_OTG_Driver/src/usb_core.c ****   __IO uint32_t *fifo = pdev->regs.DFIFO[0];
 25295              		.loc 1 198 0
 25296 0028 FB68     		ldr	r3, [r7, #12]
 25297 002a D3F8D030 		ldr	r3, [r3, #208]
 25298 002e 7B61     		str	r3, [r7, #20]
 199:../inc/STM32_USB_OTG_Driver/src/usb_core.c ****   
 200:../inc/STM32_USB_OTG_Driver/src/usb_core.c ****   for ( i = 0; i < count32b; i++, dest += 4 )
 25299              		.loc 1 200 0
 25300 0030 4FF00003 		mov	r3, #0
 25301 0034 FB61     		str	r3, [r7, #28]
 25302 0036 0BE0     		b	.L19
 25303              	.L20:
 201:../inc/STM32_USB_OTG_Driver/src/usb_core.c ****   {
 202:../inc/STM32_USB_OTG_Driver/src/usb_core.c ****     *(__packed uint32_t *)dest = USB_OTG_READ_REG32(fifo);
 25304              		.loc 1 202 0 discriminator 2
 25305 0038 BB68     		ldr	r3, [r7, #8]
 25306 003a 7A69     		ldr	r2, [r7, #20]
 25307 003c 1268     		ldr	r2, [r2, #0]
 25308 003e 1A60     		str	r2, [r3, #0]
 200:../inc/STM32_USB_OTG_Driver/src/usb_core.c ****   for ( i = 0; i < count32b; i++, dest += 4 )
 25309              		.loc 1 200 0 discriminator 2
 25310 0040 FB69     		ldr	r3, [r7, #28]
 25311 0042 03F10103 		add	r3, r3, #1
 25312 0046 FB61     		str	r3, [r7, #28]
 25313 0048 BB68     		ldr	r3, [r7, #8]
 25314 004a 03F10403 		add	r3, r3, #4
 25315 004e BB60     		str	r3, [r7, #8]
 25316              	.L19:
 200:../inc/STM32_USB_OTG_Driver/src/usb_core.c ****   for ( i = 0; i < count32b; i++, dest += 4 )
 25317              		.loc 1 200 0 is_stmt 0 discriminator 1
 25318 0050 FA69     		ldr	r2, [r7, #28]
 25319 0052 BB69     		ldr	r3, [r7, #24]
 25320 0054 9A42     		cmp	r2, r3
 25321 0056 EFD3     		bcc	.L20
 203:../inc/STM32_USB_OTG_Driver/src/usb_core.c ****     
 204:../inc/STM32_USB_OTG_Driver/src/usb_core.c ****   }
 205:../inc/STM32_USB_OTG_Driver/src/usb_core.c ****   return ((void *)dest);
 25322              		.loc 1 205 0 is_stmt 1
 25323 0058 BB68     		ldr	r3, [r7, #8]
 206:../inc/STM32_USB_OTG_Driver/src/usb_core.c **** }
 25324              		.loc 1 206 0
 25325 005a 1846     		mov	r0, r3
 25326 005c 07F12407 		add	r7, r7, #36
 25327 0060 BD46     		mov	sp, r7
 25328 0062 80BC     		pop	{r7}
 25329 0064 7047     		bx	lr
 25330              		.cfi_endproc
 25331              	.LFE113:
 25333 0066 00BF     		.section	.text.USB_OTG_SelectCore,"ax",%progbits
 25334              		.align	2
 25335              		.global	USB_OTG_SelectCore
 25336              		.thumb
 25337              		.thumb_func
 25339              	USB_OTG_SelectCore:
 25340              	.LFB114:
 207:../inc/STM32_USB_OTG_Driver/src/usb_core.c **** 
 208:../inc/STM32_USB_OTG_Driver/src/usb_core.c **** /**
 209:../inc/STM32_USB_OTG_Driver/src/usb_core.c **** * @brief  USB_OTG_SelectCore 
 210:../inc/STM32_USB_OTG_Driver/src/usb_core.c **** *         Initialize core registers address.
 211:../inc/STM32_USB_OTG_Driver/src/usb_core.c **** * @param  pdev : Selected device
 212:../inc/STM32_USB_OTG_Driver/src/usb_core.c **** * @param  coreID : USB OTG Core ID
 213:../inc/STM32_USB_OTG_Driver/src/usb_core.c **** * @retval USB_OTG_STS : status
 214:../inc/STM32_USB_OTG_Driver/src/usb_core.c **** */
 215:../inc/STM32_USB_OTG_Driver/src/usb_core.c **** USB_OTG_STS USB_OTG_SelectCore(USB_OTG_CORE_HANDLE *pdev, 
 216:../inc/STM32_USB_OTG_Driver/src/usb_core.c ****                                USB_OTG_CORE_ID_TypeDef coreID)
 217:../inc/STM32_USB_OTG_Driver/src/usb_core.c **** {
 25341              		.loc 1 217 0
 25342              		.cfi_startproc
 25343              		@ args = 0, pretend = 0, frame = 24
 25344              		@ frame_needed = 1, uses_anonymous_args = 0
 25345              		@ link register save eliminated.
 25346 0000 80B4     		push	{r7}
 25347              	.LCFI12:
 25348              		.cfi_def_cfa_offset 4
 25349 0002 87B0     		sub	sp, sp, #28
 25350              	.LCFI13:
 25351              		.cfi_def_cfa_offset 32
 25352 0004 00AF     		add	r7, sp, #0
 25353              		.cfi_offset 7, -4
 25354              	.LCFI14:
 25355              		.cfi_def_cfa_register 7
 25356 0006 7860     		str	r0, [r7, #4]
 25357 0008 0B46     		mov	r3, r1
 25358 000a FB70     		strb	r3, [r7, #3]
 218:../inc/STM32_USB_OTG_Driver/src/usb_core.c ****   uint32_t i , baseAddress = 0;
 25359              		.loc 1 218 0
 25360 000c 4FF00003 		mov	r3, #0
 25361 0010 3B61     		str	r3, [r7, #16]
 219:../inc/STM32_USB_OTG_Driver/src/usb_core.c ****   USB_OTG_STS status = USB_OTG_OK;
 25362              		.loc 1 219 0
 25363 0012 4FF00003 		mov	r3, #0
 25364 0016 FB73     		strb	r3, [r7, #15]
 220:../inc/STM32_USB_OTG_Driver/src/usb_core.c ****   
 221:../inc/STM32_USB_OTG_Driver/src/usb_core.c ****   pdev->cfg.dma_enable       = 0;
 25365              		.loc 1 221 0
 25366 0018 7B68     		ldr	r3, [r7, #4]
 25367 001a 4FF00002 		mov	r2, #0
 25368 001e DA70     		strb	r2, [r3, #3]
 222:../inc/STM32_USB_OTG_Driver/src/usb_core.c ****   
 223:../inc/STM32_USB_OTG_Driver/src/usb_core.c ****   /* at startup the core is in FS mode */
 224:../inc/STM32_USB_OTG_Driver/src/usb_core.c ****   pdev->cfg.speed            = USB_OTG_SPEED_FULL;
 25369              		.loc 1 224 0
 25370 0020 7B68     		ldr	r3, [r7, #4]
 25371 0022 4FF00102 		mov	r2, #1
 25372 0026 9A70     		strb	r2, [r3, #2]
 225:../inc/STM32_USB_OTG_Driver/src/usb_core.c ****   pdev->cfg.mps              = USB_OTG_FS_MAX_PACKET_SIZE ;    
 25373              		.loc 1 225 0
 25374 0028 7B68     		ldr	r3, [r7, #4]
 25375 002a 4FF04002 		mov	r2, #64
 25376 002e 9A80     		strh	r2, [r3, #4]	@ movhi
 226:../inc/STM32_USB_OTG_Driver/src/usb_core.c ****     
 227:../inc/STM32_USB_OTG_Driver/src/usb_core.c ****   /* initialize device cfg following its address */
 228:../inc/STM32_USB_OTG_Driver/src/usb_core.c ****   if (coreID == USB_OTG_FS_CORE_ID)
 25377              		.loc 1 228 0
 25378 0030 FB78     		ldrb	r3, [r7, #3]	@ zero_extendqisi2
 25379 0032 012B     		cmp	r3, #1
 25380 0034 17D1     		bne	.L22
 229:../inc/STM32_USB_OTG_Driver/src/usb_core.c ****   {
 230:../inc/STM32_USB_OTG_Driver/src/usb_core.c ****     baseAddress                = USB_OTG_FS_BASE_ADDR;
 25381              		.loc 1 230 0
 25382 0036 4FF0A043 		mov	r3, #1342177280
 25383 003a 3B61     		str	r3, [r7, #16]
 231:../inc/STM32_USB_OTG_Driver/src/usb_core.c ****     pdev->cfg.coreID           = USB_OTG_FS_CORE_ID;
 25384              		.loc 1 231 0
 25385 003c 7B68     		ldr	r3, [r7, #4]
 25386 003e 4FF00102 		mov	r2, #1
 25387 0042 DA72     		strb	r2, [r3, #11]
 232:../inc/STM32_USB_OTG_Driver/src/usb_core.c ****     pdev->cfg.host_channels    = 8 ;
 25388              		.loc 1 232 0
 25389 0044 7B68     		ldr	r3, [r7, #4]
 25390 0046 4FF00802 		mov	r2, #8
 25391 004a 1A70     		strb	r2, [r3, #0]
 233:../inc/STM32_USB_OTG_Driver/src/usb_core.c ****     pdev->cfg.dev_endpoints    = 4 ;
 25392              		.loc 1 233 0
 25393 004c 7B68     		ldr	r3, [r7, #4]
 25394 004e 4FF00402 		mov	r2, #4
 25395 0052 5A70     		strb	r2, [r3, #1]
 234:../inc/STM32_USB_OTG_Driver/src/usb_core.c ****     pdev->cfg.TotalFifoSize    = 320; /* in 32-bits */
 25396              		.loc 1 234 0
 25397 0054 7B68     		ldr	r3, [r7, #4]
 25398 0056 4FF4A072 		mov	r2, #320
 25399 005a DA80     		strh	r2, [r3, #6]	@ movhi
 235:../inc/STM32_USB_OTG_Driver/src/usb_core.c ****     pdev->cfg.phy_itface       = USB_OTG_EMBEDDED_PHY;     
 25400              		.loc 1 235 0
 25401 005c 7B68     		ldr	r3, [r7, #4]
 25402 005e 4FF00202 		mov	r2, #2
 25403 0062 1A72     		strb	r2, [r3, #8]
 25404 0064 14E0     		b	.L23
 25405              	.L22:
 236:../inc/STM32_USB_OTG_Driver/src/usb_core.c ****     
 237:../inc/STM32_USB_OTG_Driver/src/usb_core.c **** #ifdef USB_OTG_FS_SOF_OUTPUT_ENABLED    
 238:../inc/STM32_USB_OTG_Driver/src/usb_core.c ****     pdev->cfg.Sof_output       = 1;    
 239:../inc/STM32_USB_OTG_Driver/src/usb_core.c **** #endif 
 240:../inc/STM32_USB_OTG_Driver/src/usb_core.c ****     
 241:../inc/STM32_USB_OTG_Driver/src/usb_core.c **** #ifdef USB_OTG_FS_LOW_PWR_MGMT_SUPPORT    
 242:../inc/STM32_USB_OTG_Driver/src/usb_core.c ****     pdev->cfg.low_power        = 1;    
 243:../inc/STM32_USB_OTG_Driver/src/usb_core.c **** #endif     
 244:../inc/STM32_USB_OTG_Driver/src/usb_core.c ****   }
 245:../inc/STM32_USB_OTG_Driver/src/usb_core.c ****   else if (coreID == USB_OTG_HS_CORE_ID)
 25406              		.loc 1 245 0
 25407 0066 FB78     		ldrb	r3, [r7, #3]	@ zero_extendqisi2
 25408 0068 002B     		cmp	r3, #0
 25409 006a 11D1     		bne	.L23
 246:../inc/STM32_USB_OTG_Driver/src/usb_core.c ****   {
 247:../inc/STM32_USB_OTG_Driver/src/usb_core.c ****     baseAddress                = USB_OTG_HS_BASE_ADDR;
 25410              		.loc 1 247 0
 25411 006c 4F4B     		ldr	r3, .L30
 25412 006e 3B61     		str	r3, [r7, #16]
 248:../inc/STM32_USB_OTG_Driver/src/usb_core.c ****     pdev->cfg.coreID           = USB_OTG_HS_CORE_ID;    
 25413              		.loc 1 248 0
 25414 0070 7B68     		ldr	r3, [r7, #4]
 25415 0072 4FF00002 		mov	r2, #0
 25416 0076 DA72     		strb	r2, [r3, #11]
 249:../inc/STM32_USB_OTG_Driver/src/usb_core.c ****     pdev->cfg.host_channels    = 12 ;
 25417              		.loc 1 249 0
 25418 0078 7B68     		ldr	r3, [r7, #4]
 25419 007a 4FF00C02 		mov	r2, #12
 25420 007e 1A70     		strb	r2, [r3, #0]
 250:../inc/STM32_USB_OTG_Driver/src/usb_core.c ****     pdev->cfg.dev_endpoints    = 6 ;
 25421              		.loc 1 250 0
 25422 0080 7B68     		ldr	r3, [r7, #4]
 25423 0082 4FF00602 		mov	r2, #6
 25424 0086 5A70     		strb	r2, [r3, #1]
 251:../inc/STM32_USB_OTG_Driver/src/usb_core.c ****     pdev->cfg.TotalFifoSize    = 1280;/* in 32-bits */
 25425              		.loc 1 251 0
 25426 0088 7B68     		ldr	r3, [r7, #4]
 25427 008a 4FF4A062 		mov	r2, #1280
 25428 008e DA80     		strh	r2, [r3, #6]	@ movhi
 25429              	.L23:
 252:../inc/STM32_USB_OTG_Driver/src/usb_core.c ****     
 253:../inc/STM32_USB_OTG_Driver/src/usb_core.c **** #ifdef USB_OTG_ULPI_PHY_ENABLED
 254:../inc/STM32_USB_OTG_Driver/src/usb_core.c ****     pdev->cfg.phy_itface       = USB_OTG_ULPI_PHY;
 255:../inc/STM32_USB_OTG_Driver/src/usb_core.c **** #else    
 256:../inc/STM32_USB_OTG_Driver/src/usb_core.c ****  #ifdef USB_OTG_EMBEDDED_PHY_ENABLED
 257:../inc/STM32_USB_OTG_Driver/src/usb_core.c ****     pdev->cfg.phy_itface       = USB_OTG_EMBEDDED_PHY;
 258:../inc/STM32_USB_OTG_Driver/src/usb_core.c ****  #else   
 259:../inc/STM32_USB_OTG_Driver/src/usb_core.c ****    #ifdef USB_OTG_I2C_PHY_ENABLED    
 260:../inc/STM32_USB_OTG_Driver/src/usb_core.c ****     pdev->cfg.phy_itface       = USB_OTG_I2C_PHY; 
 261:../inc/STM32_USB_OTG_Driver/src/usb_core.c ****    #endif
 262:../inc/STM32_USB_OTG_Driver/src/usb_core.c ****  #endif  
 263:../inc/STM32_USB_OTG_Driver/src/usb_core.c **** #endif      
 264:../inc/STM32_USB_OTG_Driver/src/usb_core.c ****     
 265:../inc/STM32_USB_OTG_Driver/src/usb_core.c **** #ifdef USB_OTG_HS_INTERNAL_DMA_ENABLED    
 266:../inc/STM32_USB_OTG_Driver/src/usb_core.c ****     pdev->cfg.dma_enable       = 1;    
 267:../inc/STM32_USB_OTG_Driver/src/usb_core.c **** #endif
 268:../inc/STM32_USB_OTG_Driver/src/usb_core.c ****     
 269:../inc/STM32_USB_OTG_Driver/src/usb_core.c **** #ifdef USB_OTG_HS_SOF_OUTPUT_ENABLED    
 270:../inc/STM32_USB_OTG_Driver/src/usb_core.c ****     pdev->cfg.Sof_output       = 1;    
 271:../inc/STM32_USB_OTG_Driver/src/usb_core.c **** #endif 
 272:../inc/STM32_USB_OTG_Driver/src/usb_core.c ****     
 273:../inc/STM32_USB_OTG_Driver/src/usb_core.c **** #ifdef USB_OTG_HS_LOW_PWR_MGMT_SUPPORT    
 274:../inc/STM32_USB_OTG_Driver/src/usb_core.c ****     pdev->cfg.low_power        = 1;    
 275:../inc/STM32_USB_OTG_Driver/src/usb_core.c **** #endif 
 276:../inc/STM32_USB_OTG_Driver/src/usb_core.c ****     
 277:../inc/STM32_USB_OTG_Driver/src/usb_core.c ****   }
 278:../inc/STM32_USB_OTG_Driver/src/usb_core.c ****   
 279:../inc/STM32_USB_OTG_Driver/src/usb_core.c ****   pdev->regs.GREGS = (USB_OTG_GREGS *)(baseAddress + \
 25430              		.loc 1 279 0
 25431 0090 3A69     		ldr	r2, [r7, #16]
 25432 0092 7B68     		ldr	r3, [r7, #4]
 25433 0094 DA60     		str	r2, [r3, #12]
 280:../inc/STM32_USB_OTG_Driver/src/usb_core.c ****     USB_OTG_CORE_GLOBAL_REGS_OFFSET);
 281:../inc/STM32_USB_OTG_Driver/src/usb_core.c ****   pdev->regs.DREGS =  (USB_OTG_DREGS  *)  (baseAddress + \
 25434              		.loc 1 281 0
 25435 0096 3B69     		ldr	r3, [r7, #16]
 25436 0098 03F50063 		add	r3, r3, #2048
 25437 009c 1A46     		mov	r2, r3
 25438 009e 7B68     		ldr	r3, [r7, #4]
 25439 00a0 1A61     		str	r2, [r3, #16]
 282:../inc/STM32_USB_OTG_Driver/src/usb_core.c ****     USB_OTG_DEV_GLOBAL_REG_OFFSET);
 283:../inc/STM32_USB_OTG_Driver/src/usb_core.c ****   
 284:../inc/STM32_USB_OTG_Driver/src/usb_core.c ****   for (i = 0; i < pdev->cfg.dev_endpoints; i++)
 25440              		.loc 1 284 0
 25441 00a2 4FF00003 		mov	r3, #0
 25442 00a6 7B61     		str	r3, [r7, #20]
 25443 00a8 23E0     		b	.L24
 25444              	.L25:
 285:../inc/STM32_USB_OTG_Driver/src/usb_core.c ****   {
 286:../inc/STM32_USB_OTG_Driver/src/usb_core.c ****     pdev->regs.INEP_REGS[i]  = (USB_OTG_INEPREGS *)  \
 287:../inc/STM32_USB_OTG_Driver/src/usb_core.c ****       (baseAddress + USB_OTG_DEV_IN_EP_REG_OFFSET + \
 288:../inc/STM32_USB_OTG_Driver/src/usb_core.c ****         (i * USB_OTG_EP_REG_OFFSET));
 25445              		.loc 1 288 0 discriminator 2
 25446 00aa 7B69     		ldr	r3, [r7, #20]
 25447 00ac 4FEA4312 		lsl	r2, r3, #5
 287:../inc/STM32_USB_OTG_Driver/src/usb_core.c ****       (baseAddress + USB_OTG_DEV_IN_EP_REG_OFFSET + \
 25448              		.loc 1 287 0 discriminator 2
 25449 00b0 3B69     		ldr	r3, [r7, #16]
 25450 00b2 D318     		adds	r3, r2, r3
 25451 00b4 03F51063 		add	r3, r3, #2304
 286:../inc/STM32_USB_OTG_Driver/src/usb_core.c ****     pdev->regs.INEP_REGS[i]  = (USB_OTG_INEPREGS *)  \
 25452              		.loc 1 286 0 discriminator 2
 25453 00b8 1A46     		mov	r2, r3
 25454 00ba 7968     		ldr	r1, [r7, #4]
 25455 00bc 7B69     		ldr	r3, [r7, #20]
 25456 00be 03F10403 		add	r3, r3, #4
 25457 00c2 4FEA8303 		lsl	r3, r3, #2
 25458 00c6 CB18     		adds	r3, r1, r3
 25459 00c8 9A60     		str	r2, [r3, #8]
 289:../inc/STM32_USB_OTG_Driver/src/usb_core.c ****     pdev->regs.OUTEP_REGS[i] = (USB_OTG_OUTEPREGS *) \
 290:../inc/STM32_USB_OTG_Driver/src/usb_core.c ****       (baseAddress + USB_OTG_DEV_OUT_EP_REG_OFFSET + \
 291:../inc/STM32_USB_OTG_Driver/src/usb_core.c ****         (i * USB_OTG_EP_REG_OFFSET));
 25460              		.loc 1 291 0 discriminator 2
 25461 00ca 7B69     		ldr	r3, [r7, #20]
 25462 00cc 4FEA4312 		lsl	r2, r3, #5
 290:../inc/STM32_USB_OTG_Driver/src/usb_core.c ****       (baseAddress + USB_OTG_DEV_OUT_EP_REG_OFFSET + \
 25463              		.loc 1 290 0 discriminator 2
 25464 00d0 3B69     		ldr	r3, [r7, #16]
 25465 00d2 D318     		adds	r3, r2, r3
 25466 00d4 03F53063 		add	r3, r3, #2816
 289:../inc/STM32_USB_OTG_Driver/src/usb_core.c ****     pdev->regs.OUTEP_REGS[i] = (USB_OTG_OUTEPREGS *) \
 25467              		.loc 1 289 0 discriminator 2
 25468 00d8 1A46     		mov	r2, r3
 25469 00da 7968     		ldr	r1, [r7, #4]
 25470 00dc 7B69     		ldr	r3, [r7, #20]
 25471 00de 03F11403 		add	r3, r3, #20
 25472 00e2 4FEA8303 		lsl	r3, r3, #2
 25473 00e6 CB18     		adds	r3, r1, r3
 25474 00e8 5A60     		str	r2, [r3, #4]
 284:../inc/STM32_USB_OTG_Driver/src/usb_core.c ****   for (i = 0; i < pdev->cfg.dev_endpoints; i++)
 25475              		.loc 1 284 0 discriminator 2
 25476 00ea 7B69     		ldr	r3, [r7, #20]
 25477 00ec 03F10103 		add	r3, r3, #1
 25478 00f0 7B61     		str	r3, [r7, #20]
 25479              	.L24:
 284:../inc/STM32_USB_OTG_Driver/src/usb_core.c ****   for (i = 0; i < pdev->cfg.dev_endpoints; i++)
 25480              		.loc 1 284 0 is_stmt 0 discriminator 1
 25481 00f2 7B68     		ldr	r3, [r7, #4]
 25482 00f4 5B78     		ldrb	r3, [r3, #1]	@ zero_extendqisi2
 25483 00f6 1A46     		mov	r2, r3
 25484 00f8 7B69     		ldr	r3, [r7, #20]
 25485 00fa 9A42     		cmp	r2, r3
 25486 00fc D5D8     		bhi	.L25
 292:../inc/STM32_USB_OTG_Driver/src/usb_core.c ****   }
 293:../inc/STM32_USB_OTG_Driver/src/usb_core.c ****   pdev->regs.HREGS = (USB_OTG_HREGS *)(baseAddress + \
 25487              		.loc 1 293 0 is_stmt 1
 25488 00fe 3B69     		ldr	r3, [r7, #16]
 25489 0100 03F58063 		add	r3, r3, #1024
 25490 0104 1A46     		mov	r2, r3
 25491 0106 7B68     		ldr	r3, [r7, #4]
 25492 0108 5A61     		str	r2, [r3, #20]
 294:../inc/STM32_USB_OTG_Driver/src/usb_core.c ****     USB_OTG_HOST_GLOBAL_REG_OFFSET);
 295:../inc/STM32_USB_OTG_Driver/src/usb_core.c ****   pdev->regs.HPRT0 = (uint32_t *)(baseAddress + USB_OTG_HOST_PORT_REGS_OFFSET);
 25493              		.loc 1 295 0
 25494 010a 3B69     		ldr	r3, [r7, #16]
 25495 010c 03F58863 		add	r3, r3, #1088
 25496 0110 1A46     		mov	r2, r3
 25497 0112 7B68     		ldr	r3, [r7, #4]
 25498 0114 C3F8CC20 		str	r2, [r3, #204]
 296:../inc/STM32_USB_OTG_Driver/src/usb_core.c ****   
 297:../inc/STM32_USB_OTG_Driver/src/usb_core.c ****   for (i = 0; i < pdev->cfg.host_channels; i++)
 25499              		.loc 1 297 0
 25500 0118 4FF00003 		mov	r3, #0
 25501 011c 7B61     		str	r3, [r7, #20]
 25502 011e 13E0     		b	.L26
 25503              	.L27:
 298:../inc/STM32_USB_OTG_Driver/src/usb_core.c ****   {
 299:../inc/STM32_USB_OTG_Driver/src/usb_core.c ****     pdev->regs.HC_REGS[i] = (USB_OTG_HC_REGS *)(baseAddress + \
 300:../inc/STM32_USB_OTG_Driver/src/usb_core.c ****       USB_OTG_HOST_CHAN_REGS_OFFSET + \
 301:../inc/STM32_USB_OTG_Driver/src/usb_core.c ****         (i * USB_OTG_CHAN_REGS_OFFSET));
 25504              		.loc 1 301 0 discriminator 2
 25505 0120 7B69     		ldr	r3, [r7, #20]
 25506 0122 4FEA4312 		lsl	r2, r3, #5
 300:../inc/STM32_USB_OTG_Driver/src/usb_core.c ****       USB_OTG_HOST_CHAN_REGS_OFFSET + \
 25507              		.loc 1 300 0 discriminator 2
 25508 0126 3B69     		ldr	r3, [r7, #16]
 25509 0128 D318     		adds	r3, r2, r3
 25510 012a 03F5A063 		add	r3, r3, #1280
 299:../inc/STM32_USB_OTG_Driver/src/usb_core.c ****     pdev->regs.HC_REGS[i] = (USB_OTG_HC_REGS *)(baseAddress + \
 25511              		.loc 1 299 0 discriminator 2
 25512 012e 1A46     		mov	r2, r3
 25513 0130 7968     		ldr	r1, [r7, #4]
 25514 0132 7B69     		ldr	r3, [r7, #20]
 25515 0134 03F12203 		add	r3, r3, #34
 25516 0138 4FEA8303 		lsl	r3, r3, #2
 25517 013c CB18     		adds	r3, r1, r3
 25518 013e 9A60     		str	r2, [r3, #8]
 297:../inc/STM32_USB_OTG_Driver/src/usb_core.c ****   for (i = 0; i < pdev->cfg.host_channels; i++)
 25519              		.loc 1 297 0 discriminator 2
 25520 0140 7B69     		ldr	r3, [r7, #20]
 25521 0142 03F10103 		add	r3, r3, #1
 25522 0146 7B61     		str	r3, [r7, #20]
 25523              	.L26:
 297:../inc/STM32_USB_OTG_Driver/src/usb_core.c ****   for (i = 0; i < pdev->cfg.host_channels; i++)
 25524              		.loc 1 297 0 is_stmt 0 discriminator 1
 25525 0148 7B68     		ldr	r3, [r7, #4]
 25526 014a 1B78     		ldrb	r3, [r3, #0]	@ zero_extendqisi2
 25527 014c 1A46     		mov	r2, r3
 25528 014e 7B69     		ldr	r3, [r7, #20]
 25529 0150 9A42     		cmp	r2, r3
 25530 0152 E5D8     		bhi	.L27
 302:../inc/STM32_USB_OTG_Driver/src/usb_core.c ****   }
 303:../inc/STM32_USB_OTG_Driver/src/usb_core.c ****   for (i = 0; i < pdev->cfg.host_channels; i++)
 25531              		.loc 1 303 0 is_stmt 1
 25532 0154 4FF00003 		mov	r3, #0
 25533 0158 7B61     		str	r3, [r7, #20]
 25534 015a 13E0     		b	.L28
 25535              	.L29:
 304:../inc/STM32_USB_OTG_Driver/src/usb_core.c ****   {
 305:../inc/STM32_USB_OTG_Driver/src/usb_core.c ****     pdev->regs.DFIFO[i] = (uint32_t *)(baseAddress + USB_OTG_DATA_FIFO_OFFSET +\
 306:../inc/STM32_USB_OTG_Driver/src/usb_core.c ****       (i * USB_OTG_DATA_FIFO_SIZE));
 25536              		.loc 1 306 0 discriminator 2
 25537 015c 7B69     		ldr	r3, [r7, #20]
 25538 015e 4FEA0332 		lsl	r2, r3, #12
 305:../inc/STM32_USB_OTG_Driver/src/usb_core.c ****     pdev->regs.DFIFO[i] = (uint32_t *)(baseAddress + USB_OTG_DATA_FIFO_OFFSET +\
 25539              		.loc 1 305 0 discriminator 2
 25540 0162 3B69     		ldr	r3, [r7, #16]
 25541 0164 D318     		adds	r3, r2, r3
 25542 0166 03F58053 		add	r3, r3, #4096
 25543 016a 1A46     		mov	r2, r3
 25544 016c 7968     		ldr	r1, [r7, #4]
 25545 016e 7B69     		ldr	r3, [r7, #20]
 25546 0170 03F13203 		add	r3, r3, #50
 25547 0174 4FEA8303 		lsl	r3, r3, #2
 25548 0178 CB18     		adds	r3, r1, r3
 25549 017a 9A60     		str	r2, [r3, #8]
 303:../inc/STM32_USB_OTG_Driver/src/usb_core.c ****   for (i = 0; i < pdev->cfg.host_channels; i++)
 25550              		.loc 1 303 0 discriminator 2
 25551 017c 7B69     		ldr	r3, [r7, #20]
 25552 017e 03F10103 		add	r3, r3, #1
 25553 0182 7B61     		str	r3, [r7, #20]
 25554              	.L28:
 303:../inc/STM32_USB_OTG_Driver/src/usb_core.c ****   for (i = 0; i < pdev->cfg.host_channels; i++)
 25555              		.loc 1 303 0 is_stmt 0 discriminator 1
 25556 0184 7B68     		ldr	r3, [r7, #4]
 25557 0186 1B78     		ldrb	r3, [r3, #0]	@ zero_extendqisi2
 25558 0188 1A46     		mov	r2, r3
 25559 018a 7B69     		ldr	r3, [r7, #20]
 25560 018c 9A42     		cmp	r2, r3
 25561 018e E5D8     		bhi	.L29
 307:../inc/STM32_USB_OTG_Driver/src/usb_core.c ****   }
 308:../inc/STM32_USB_OTG_Driver/src/usb_core.c ****   pdev->regs.PCGCCTL = (uint32_t *)(baseAddress + USB_OTG_PCGCCTL_OFFSET);
 25562              		.loc 1 308 0 is_stmt 1
 25563 0190 3B69     		ldr	r3, [r7, #16]
 25564 0192 03F56063 		add	r3, r3, #3584
 25565 0196 1A46     		mov	r2, r3
 25566 0198 7B68     		ldr	r3, [r7, #4]
 25567 019a C3F80C21 		str	r2, [r3, #268]
 309:../inc/STM32_USB_OTG_Driver/src/usb_core.c ****   
 310:../inc/STM32_USB_OTG_Driver/src/usb_core.c ****   return status;
 25568              		.loc 1 310 0
 25569 019e FB7B     		ldrb	r3, [r7, #15]	@ zero_extendqisi2
 311:../inc/STM32_USB_OTG_Driver/src/usb_core.c **** }
 25570              		.loc 1 311 0
 25571 01a0 1846     		mov	r0, r3
 25572 01a2 07F11C07 		add	r7, r7, #28
 25573 01a6 BD46     		mov	sp, r7
 25574 01a8 80BC     		pop	{r7}
 25575 01aa 7047     		bx	lr
 25576              	.L31:
 25577              		.align	2
 25578              	.L30:
 25579 01ac 00000440 		.word	1074003968
 25580              		.cfi_endproc
 25581              	.LFE114:
 25583              		.section	.text.USB_OTG_CoreInit,"ax",%progbits
 25584              		.align	2
 25585              		.global	USB_OTG_CoreInit
 25586              		.thumb
 25587              		.thumb_func
 25589              	USB_OTG_CoreInit:
 25590              	.LFB115:
 312:../inc/STM32_USB_OTG_Driver/src/usb_core.c **** 
 313:../inc/STM32_USB_OTG_Driver/src/usb_core.c **** 
 314:../inc/STM32_USB_OTG_Driver/src/usb_core.c **** /**
 315:../inc/STM32_USB_OTG_Driver/src/usb_core.c **** * @brief  USB_OTG_CoreInit
 316:../inc/STM32_USB_OTG_Driver/src/usb_core.c **** *         Initializes the USB_OTG controller registers and prepares the core
 317:../inc/STM32_USB_OTG_Driver/src/usb_core.c **** *         device mode or host mode operation.
 318:../inc/STM32_USB_OTG_Driver/src/usb_core.c **** * @param  pdev : Selected device
 319:../inc/STM32_USB_OTG_Driver/src/usb_core.c **** * @retval USB_OTG_STS : status
 320:../inc/STM32_USB_OTG_Driver/src/usb_core.c **** */
 321:../inc/STM32_USB_OTG_Driver/src/usb_core.c **** USB_OTG_STS USB_OTG_CoreInit(USB_OTG_CORE_HANDLE *pdev)
 322:../inc/STM32_USB_OTG_Driver/src/usb_core.c **** {
 25591              		.loc 1 322 0
 25592              		.cfi_startproc
 25593              		@ args = 0, pretend = 0, frame = 32
 25594              		@ frame_needed = 1, uses_anonymous_args = 0
 25595 0000 80B5     		push	{r7, lr}
 25596              	.LCFI15:
 25597              		.cfi_def_cfa_offset 8
 25598 0002 88B0     		sub	sp, sp, #32
 25599              	.LCFI16:
 25600              		.cfi_def_cfa_offset 40
 25601 0004 00AF     		add	r7, sp, #0
 25602              		.cfi_offset 14, -4
 25603              		.cfi_offset 7, -8
 25604              	.LCFI17:
 25605              		.cfi_def_cfa_register 7
 25606 0006 7860     		str	r0, [r7, #4]
 323:../inc/STM32_USB_OTG_Driver/src/usb_core.c ****   USB_OTG_STS status = USB_OTG_OK;
 25607              		.loc 1 323 0
 25608 0008 4FF00003 		mov	r3, #0
 25609 000c FB77     		strb	r3, [r7, #31]
 324:../inc/STM32_USB_OTG_Driver/src/usb_core.c ****   USB_OTG_GUSBCFG_TypeDef  usbcfg;
 325:../inc/STM32_USB_OTG_Driver/src/usb_core.c ****   USB_OTG_GCCFG_TypeDef    gccfg;
 326:../inc/STM32_USB_OTG_Driver/src/usb_core.c ****   USB_OTG_GI2CCTL_TypeDef  i2cctl;
 327:../inc/STM32_USB_OTG_Driver/src/usb_core.c ****   USB_OTG_GAHBCFG_TypeDef  ahbcfg;
 328:../inc/STM32_USB_OTG_Driver/src/usb_core.c ****   
 329:../inc/STM32_USB_OTG_Driver/src/usb_core.c ****   usbcfg.d32 = 0;
 25610              		.loc 1 329 0
 25611 000e 4FF00003 		mov	r3, #0
 25612 0012 BB61     		str	r3, [r7, #24]
 330:../inc/STM32_USB_OTG_Driver/src/usb_core.c ****   gccfg.d32 = 0;
 25613              		.loc 1 330 0
 25614 0014 4FF00003 		mov	r3, #0
 25615 0018 7B61     		str	r3, [r7, #20]
 331:../inc/STM32_USB_OTG_Driver/src/usb_core.c ****   ahbcfg.d32 = 0;
 25616              		.loc 1 331 0
 25617 001a 4FF00003 		mov	r3, #0
 25618 001e FB60     		str	r3, [r7, #12]
 332:../inc/STM32_USB_OTG_Driver/src/usb_core.c ****   
 333:../inc/STM32_USB_OTG_Driver/src/usb_core.c **** 
 334:../inc/STM32_USB_OTG_Driver/src/usb_core.c ****   
 335:../inc/STM32_USB_OTG_Driver/src/usb_core.c ****   if (pdev->cfg.phy_itface == USB_OTG_ULPI_PHY)
 25619              		.loc 1 335 0
 25620 0020 7B68     		ldr	r3, [r7, #4]
 25621 0022 1B7A     		ldrb	r3, [r3, #8]	@ zero_extendqisi2
 25622 0024 012B     		cmp	r3, #1
 25623 0026 51D1     		bne	.L33
 336:../inc/STM32_USB_OTG_Driver/src/usb_core.c ****   {
 337:../inc/STM32_USB_OTG_Driver/src/usb_core.c ****     gccfg.d32 = USB_OTG_READ_REG32(&pdev->regs.GREGS->GCCFG);
 25624              		.loc 1 337 0
 25625 0028 7B68     		ldr	r3, [r7, #4]
 25626 002a DB68     		ldr	r3, [r3, #12]
 25627 002c 9B6B     		ldr	r3, [r3, #56]
 25628 002e 7B61     		str	r3, [r7, #20]
 338:../inc/STM32_USB_OTG_Driver/src/usb_core.c ****     gccfg.b.pwdn = 0;
 25629              		.loc 1 338 0
 25630 0030 7B69     		ldr	r3, [r7, #20]
 25631 0032 6FF31043 		bfc	r3, #16, #1
 25632 0036 7B61     		str	r3, [r7, #20]
 339:../inc/STM32_USB_OTG_Driver/src/usb_core.c ****     
 340:../inc/STM32_USB_OTG_Driver/src/usb_core.c ****     if (pdev->cfg.Sof_output)
 25633              		.loc 1 340 0
 25634 0038 7B68     		ldr	r3, [r7, #4]
 25635 003a 5B7A     		ldrb	r3, [r3, #9]	@ zero_extendqisi2
 25636 003c 002B     		cmp	r3, #0
 25637 003e 03D0     		beq	.L34
 341:../inc/STM32_USB_OTG_Driver/src/usb_core.c ****     {
 342:../inc/STM32_USB_OTG_Driver/src/usb_core.c ****       gccfg.b.sofouten = 1;   
 25638              		.loc 1 342 0
 25639 0040 7B69     		ldr	r3, [r7, #20]
 25640 0042 43F48013 		orr	r3, r3, #1048576
 25641 0046 7B61     		str	r3, [r7, #20]
 25642              	.L34:
 343:../inc/STM32_USB_OTG_Driver/src/usb_core.c ****     }
 344:../inc/STM32_USB_OTG_Driver/src/usb_core.c ****     USB_OTG_WRITE_REG32 (&pdev->regs.GREGS->GCCFG, gccfg.d32);
 25643              		.loc 1 344 0
 25644 0048 7B68     		ldr	r3, [r7, #4]
 25645 004a DB68     		ldr	r3, [r3, #12]
 25646 004c 7A69     		ldr	r2, [r7, #20]
 25647 004e 9A63     		str	r2, [r3, #56]
 345:../inc/STM32_USB_OTG_Driver/src/usb_core.c ****     
 346:../inc/STM32_USB_OTG_Driver/src/usb_core.c ****     /* Init The ULPI Interface */
 347:../inc/STM32_USB_OTG_Driver/src/usb_core.c ****     usbcfg.d32 = 0;
 25648              		.loc 1 347 0
 25649 0050 4FF00003 		mov	r3, #0
 25650 0054 BB61     		str	r3, [r7, #24]
 348:../inc/STM32_USB_OTG_Driver/src/usb_core.c ****     usbcfg.d32 = USB_OTG_READ_REG32(&pdev->regs.GREGS->GUSBCFG);
 25651              		.loc 1 348 0
 25652 0056 7B68     		ldr	r3, [r7, #4]
 25653 0058 DB68     		ldr	r3, [r3, #12]
 25654 005a DB68     		ldr	r3, [r3, #12]
 25655 005c BB61     		str	r3, [r7, #24]
 349:../inc/STM32_USB_OTG_Driver/src/usb_core.c ****     
 350:../inc/STM32_USB_OTG_Driver/src/usb_core.c ****     usbcfg.b.physel            = 0; /* HS Interface */
 25656              		.loc 1 350 0
 25657 005e BB69     		ldr	r3, [r7, #24]
 25658 0060 6FF38613 		bfc	r3, #6, #1
 25659 0064 BB61     		str	r3, [r7, #24]
 351:../inc/STM32_USB_OTG_Driver/src/usb_core.c **** #ifdef USB_OTG_INTERNAL_VBUS_ENABLED
 352:../inc/STM32_USB_OTG_Driver/src/usb_core.c ****     usbcfg.b.ulpi_ext_vbus_drv = 0; /* Use internal VBUS */
 353:../inc/STM32_USB_OTG_Driver/src/usb_core.c **** #else
 354:../inc/STM32_USB_OTG_Driver/src/usb_core.c ****  #ifdef USB_OTG_EXTERNAL_VBUS_ENABLED    
 355:../inc/STM32_USB_OTG_Driver/src/usb_core.c ****     usbcfg.b.ulpi_ext_vbus_drv = 1; /* Use external VBUS */
 356:../inc/STM32_USB_OTG_Driver/src/usb_core.c ****  #endif
 357:../inc/STM32_USB_OTG_Driver/src/usb_core.c **** #endif 
 358:../inc/STM32_USB_OTG_Driver/src/usb_core.c ****     usbcfg.b.term_sel_dl_pulse = 0; /* Data line pulsing using utmi_txvalid */    
 25660              		.loc 1 358 0
 25661 0066 BB69     		ldr	r3, [r7, #24]
 25662 0068 6FF39653 		bfc	r3, #22, #1
 25663 006c BB61     		str	r3, [r7, #24]
 359:../inc/STM32_USB_OTG_Driver/src/usb_core.c ****     usbcfg.b.ulpi_utmi_sel     = 1; /* ULPI seleInterfacect */
 25664              		.loc 1 359 0
 25665 006e BB69     		ldr	r3, [r7, #24]
 25666 0070 43F01003 		orr	r3, r3, #16
 25667 0074 BB61     		str	r3, [r7, #24]
 360:../inc/STM32_USB_OTG_Driver/src/usb_core.c ****     
 361:../inc/STM32_USB_OTG_Driver/src/usb_core.c ****     usbcfg.b.phyif             = 0; /* 8 bits */
 25668              		.loc 1 361 0
 25669 0076 BB69     		ldr	r3, [r7, #24]
 25670 0078 6FF3C303 		bfc	r3, #3, #1
 25671 007c BB61     		str	r3, [r7, #24]
 362:../inc/STM32_USB_OTG_Driver/src/usb_core.c ****     usbcfg.b.ddrsel            = 0; /* single data rate */
 25672              		.loc 1 362 0
 25673 007e BB69     		ldr	r3, [r7, #24]
 25674 0080 6FF3C713 		bfc	r3, #7, #1
 25675 0084 BB61     		str	r3, [r7, #24]
 363:../inc/STM32_USB_OTG_Driver/src/usb_core.c ****     
 364:../inc/STM32_USB_OTG_Driver/src/usb_core.c ****     usbcfg.b.ulpi_fsls = 0;
 25676              		.loc 1 364 0
 25677 0086 BB69     		ldr	r3, [r7, #24]
 25678 0088 6FF35143 		bfc	r3, #17, #1
 25679 008c BB61     		str	r3, [r7, #24]
 365:../inc/STM32_USB_OTG_Driver/src/usb_core.c ****     usbcfg.b.ulpi_clk_sus_m = 0;
 25680              		.loc 1 365 0
 25681 008e BB69     		ldr	r3, [r7, #24]
 25682 0090 6FF3D343 		bfc	r3, #19, #1
 25683 0094 BB61     		str	r3, [r7, #24]
 366:../inc/STM32_USB_OTG_Driver/src/usb_core.c ****     USB_OTG_WRITE_REG32 (&pdev->regs.GREGS->GUSBCFG, usbcfg.d32);
 25684              		.loc 1 366 0
 25685 0096 7B68     		ldr	r3, [r7, #4]
 25686 0098 DB68     		ldr	r3, [r3, #12]
 25687 009a BA69     		ldr	r2, [r7, #24]
 25688 009c DA60     		str	r2, [r3, #12]
 367:../inc/STM32_USB_OTG_Driver/src/usb_core.c ****     
 368:../inc/STM32_USB_OTG_Driver/src/usb_core.c ****     /* Reset after a PHY select  */
 369:../inc/STM32_USB_OTG_Driver/src/usb_core.c ****     USB_OTG_CoreReset(pdev);
 25689              		.loc 1 369 0
 25690 009e 7868     		ldr	r0, [r7, #4]
 25691 00a0 FFF7FEFF 		bl	USB_OTG_CoreReset
 370:../inc/STM32_USB_OTG_Driver/src/usb_core.c ****     
 371:../inc/STM32_USB_OTG_Driver/src/usb_core.c ****     if(pdev->cfg.dma_enable == 1)
 25692              		.loc 1 371 0
 25693 00a4 7B68     		ldr	r3, [r7, #4]
 25694 00a6 DB78     		ldrb	r3, [r3, #3]	@ zero_extendqisi2
 25695 00a8 012B     		cmp	r3, #1
 25696 00aa 40F08980 		bne	.L35
 372:../inc/STM32_USB_OTG_Driver/src/usb_core.c ****     {
 373:../inc/STM32_USB_OTG_Driver/src/usb_core.c ****       
 374:../inc/STM32_USB_OTG_Driver/src/usb_core.c ****       ahbcfg.b.hburstlen = 5; /* 64 x 32-bits*/
 25697              		.loc 1 374 0
 25698 00ae FB68     		ldr	r3, [r7, #12]
 25699 00b0 4FF00502 		mov	r2, #5
 25700 00b4 62F34403 		bfi	r3, r2, #1, #4
 25701 00b8 FB60     		str	r3, [r7, #12]
 375:../inc/STM32_USB_OTG_Driver/src/usb_core.c ****       ahbcfg.b.dmaenable = 1;
 25702              		.loc 1 375 0
 25703 00ba FB68     		ldr	r3, [r7, #12]
 25704 00bc 43F02003 		orr	r3, r3, #32
 25705 00c0 FB60     		str	r3, [r7, #12]
 376:../inc/STM32_USB_OTG_Driver/src/usb_core.c ****       USB_OTG_WRITE_REG32(&pdev->regs.GREGS->GAHBCFG, ahbcfg.d32);
 25706              		.loc 1 376 0
 25707 00c2 7B68     		ldr	r3, [r7, #4]
 25708 00c4 DB68     		ldr	r3, [r3, #12]
 25709 00c6 FA68     		ldr	r2, [r7, #12]
 25710 00c8 9A60     		str	r2, [r3, #8]
 25711 00ca 79E0     		b	.L35
 25712              	.L33:
 377:../inc/STM32_USB_OTG_Driver/src/usb_core.c ****       
 378:../inc/STM32_USB_OTG_Driver/src/usb_core.c ****     }    
 379:../inc/STM32_USB_OTG_Driver/src/usb_core.c ****   }
 380:../inc/STM32_USB_OTG_Driver/src/usb_core.c ****   else /* FS interface (embedded Phy or I2C Phy) */
 381:../inc/STM32_USB_OTG_Driver/src/usb_core.c ****   {
 382:../inc/STM32_USB_OTG_Driver/src/usb_core.c ****     
 383:../inc/STM32_USB_OTG_Driver/src/usb_core.c ****     usbcfg.d32 = USB_OTG_READ_REG32(&pdev->regs.GREGS->GUSBCFG);;
 25713              		.loc 1 383 0
 25714 00cc 7B68     		ldr	r3, [r7, #4]
 25715 00ce DB68     		ldr	r3, [r3, #12]
 25716 00d0 DB68     		ldr	r3, [r3, #12]
 25717 00d2 BB61     		str	r3, [r7, #24]
 384:../inc/STM32_USB_OTG_Driver/src/usb_core.c ****     usbcfg.b.physel  = 1; /* FS Interface */
 25718              		.loc 1 384 0
 25719 00d4 BB69     		ldr	r3, [r7, #24]
 25720 00d6 43F04003 		orr	r3, r3, #64
 25721 00da BB61     		str	r3, [r7, #24]
 385:../inc/STM32_USB_OTG_Driver/src/usb_core.c ****     USB_OTG_WRITE_REG32 (&pdev->regs.GREGS->GUSBCFG, usbcfg.d32);
 25722              		.loc 1 385 0
 25723 00dc 7B68     		ldr	r3, [r7, #4]
 25724 00de DB68     		ldr	r3, [r3, #12]
 25725 00e0 BA69     		ldr	r2, [r7, #24]
 25726 00e2 DA60     		str	r2, [r3, #12]
 386:../inc/STM32_USB_OTG_Driver/src/usb_core.c ****     /* Reset after a PHY select and set Host mode */
 387:../inc/STM32_USB_OTG_Driver/src/usb_core.c ****     USB_OTG_CoreReset(pdev);
 25727              		.loc 1 387 0
 25728 00e4 7868     		ldr	r0, [r7, #4]
 25729 00e6 FFF7FEFF 		bl	USB_OTG_CoreReset
 388:../inc/STM32_USB_OTG_Driver/src/usb_core.c ****     /* Enable the I2C interface and deactivate the power down*/
 389:../inc/STM32_USB_OTG_Driver/src/usb_core.c ****     gccfg.d32 = 0;
 25730              		.loc 1 389 0
 25731 00ea 4FF00003 		mov	r3, #0
 25732 00ee 7B61     		str	r3, [r7, #20]
 390:../inc/STM32_USB_OTG_Driver/src/usb_core.c ****     gccfg.b.pwdn = 1;
 25733              		.loc 1 390 0
 25734 00f0 7B69     		ldr	r3, [r7, #20]
 25735 00f2 43F48033 		orr	r3, r3, #65536
 25736 00f6 7B61     		str	r3, [r7, #20]
 391:../inc/STM32_USB_OTG_Driver/src/usb_core.c ****     
 392:../inc/STM32_USB_OTG_Driver/src/usb_core.c ****     if(pdev->cfg.phy_itface == USB_OTG_I2C_PHY)
 25737              		.loc 1 392 0
 25738 00f8 7B68     		ldr	r3, [r7, #4]
 25739 00fa 1B7A     		ldrb	r3, [r3, #8]	@ zero_extendqisi2
 25740 00fc 032B     		cmp	r3, #3
 25741 00fe 03D1     		bne	.L36
 393:../inc/STM32_USB_OTG_Driver/src/usb_core.c ****     {
 394:../inc/STM32_USB_OTG_Driver/src/usb_core.c ****       gccfg.b.i2cifen = 1;
 25742              		.loc 1 394 0
 25743 0100 7B69     		ldr	r3, [r7, #20]
 25744 0102 43F40033 		orr	r3, r3, #131072
 25745 0106 7B61     		str	r3, [r7, #20]
 25746              	.L36:
 395:../inc/STM32_USB_OTG_Driver/src/usb_core.c ****     }   
 396:../inc/STM32_USB_OTG_Driver/src/usb_core.c ****     gccfg.b.vbussensingA = 1 ;
 25747              		.loc 1 396 0
 25748 0108 7B69     		ldr	r3, [r7, #20]
 25749 010a 43F48023 		orr	r3, r3, #262144
 25750 010e 7B61     		str	r3, [r7, #20]
 397:../inc/STM32_USB_OTG_Driver/src/usb_core.c ****     gccfg.b.vbussensingB = 1 ;     
 25751              		.loc 1 397 0
 25752 0110 7B69     		ldr	r3, [r7, #20]
 25753 0112 43F40023 		orr	r3, r3, #524288
 25754 0116 7B61     		str	r3, [r7, #20]
 398:../inc/STM32_USB_OTG_Driver/src/usb_core.c **** #ifndef VBUS_SENSING_ENABLED
 399:../inc/STM32_USB_OTG_Driver/src/usb_core.c ****     gccfg.b.disablevbussensing = 1; 
 25755              		.loc 1 399 0
 25756 0118 7B69     		ldr	r3, [r7, #20]
 25757 011a 43F40013 		orr	r3, r3, #2097152
 25758 011e 7B61     		str	r3, [r7, #20]
 400:../inc/STM32_USB_OTG_Driver/src/usb_core.c **** #endif    
 401:../inc/STM32_USB_OTG_Driver/src/usb_core.c ****     
 402:../inc/STM32_USB_OTG_Driver/src/usb_core.c ****     if(pdev->cfg.Sof_output)
 25759              		.loc 1 402 0
 25760 0120 7B68     		ldr	r3, [r7, #4]
 25761 0122 5B7A     		ldrb	r3, [r3, #9]	@ zero_extendqisi2
 25762 0124 002B     		cmp	r3, #0
 25763 0126 03D0     		beq	.L37
 403:../inc/STM32_USB_OTG_Driver/src/usb_core.c ****     {
 404:../inc/STM32_USB_OTG_Driver/src/usb_core.c ****       gccfg.b.sofouten = 1;  
 25764              		.loc 1 404 0
 25765 0128 7B69     		ldr	r3, [r7, #20]
 25766 012a 43F48013 		orr	r3, r3, #1048576
 25767 012e 7B61     		str	r3, [r7, #20]
 25768              	.L37:
 405:../inc/STM32_USB_OTG_Driver/src/usb_core.c ****     }
 406:../inc/STM32_USB_OTG_Driver/src/usb_core.c ****     
 407:../inc/STM32_USB_OTG_Driver/src/usb_core.c ****     USB_OTG_WRITE_REG32 (&pdev->regs.GREGS->GCCFG, gccfg.d32);
 25769              		.loc 1 407 0
 25770 0130 7B68     		ldr	r3, [r7, #4]
 25771 0132 DB68     		ldr	r3, [r3, #12]
 25772 0134 7A69     		ldr	r2, [r7, #20]
 25773 0136 9A63     		str	r2, [r3, #56]
 408:../inc/STM32_USB_OTG_Driver/src/usb_core.c ****     USB_OTG_BSP_mDelay(20);
 25774              		.loc 1 408 0
 25775 0138 4FF01400 		mov	r0, #20
 25776 013c FFF7FEFF 		bl	USB_OTG_BSP_mDelay
 409:../inc/STM32_USB_OTG_Driver/src/usb_core.c ****     /* Program GUSBCFG.OtgUtmifsSel to I2C*/
 410:../inc/STM32_USB_OTG_Driver/src/usb_core.c ****     usbcfg.d32 = USB_OTG_READ_REG32(&pdev->regs.GREGS->GUSBCFG);
 25777              		.loc 1 410 0
 25778 0140 7B68     		ldr	r3, [r7, #4]
 25779 0142 DB68     		ldr	r3, [r3, #12]
 25780 0144 DB68     		ldr	r3, [r3, #12]
 25781 0146 BB61     		str	r3, [r7, #24]
 411:../inc/STM32_USB_OTG_Driver/src/usb_core.c ****     
 412:../inc/STM32_USB_OTG_Driver/src/usb_core.c ****     if(pdev->cfg.phy_itface == USB_OTG_I2C_PHY)
 25782              		.loc 1 412 0
 25783 0148 7B68     		ldr	r3, [r7, #4]
 25784 014a 1B7A     		ldrb	r3, [r3, #8]	@ zero_extendqisi2
 25785 014c 032B     		cmp	r3, #3
 25786 014e 03D1     		bne	.L38
 413:../inc/STM32_USB_OTG_Driver/src/usb_core.c ****     {
 414:../inc/STM32_USB_OTG_Driver/src/usb_core.c ****       usbcfg.b.otgutmifssel = 1;
 25787              		.loc 1 414 0
 25788 0150 BB69     		ldr	r3, [r7, #24]
 25789 0152 43F48033 		orr	r3, r3, #65536
 25790 0156 BB61     		str	r3, [r7, #24]
 25791              	.L38:
 415:../inc/STM32_USB_OTG_Driver/src/usb_core.c ****     }
 416:../inc/STM32_USB_OTG_Driver/src/usb_core.c ****     
 417:../inc/STM32_USB_OTG_Driver/src/usb_core.c ****     USB_OTG_WRITE_REG32 (&pdev->regs.GREGS->GUSBCFG, usbcfg.d32);
 25792              		.loc 1 417 0
 25793 0158 7B68     		ldr	r3, [r7, #4]
 25794 015a DB68     		ldr	r3, [r3, #12]
 25795 015c BA69     		ldr	r2, [r7, #24]
 25796 015e DA60     		str	r2, [r3, #12]
 418:../inc/STM32_USB_OTG_Driver/src/usb_core.c ****     
 419:../inc/STM32_USB_OTG_Driver/src/usb_core.c ****     if(pdev->cfg.phy_itface == USB_OTG_I2C_PHY)
 25797              		.loc 1 419 0
 25798 0160 7B68     		ldr	r3, [r7, #4]
 25799 0162 1B7A     		ldrb	r3, [r3, #8]	@ zero_extendqisi2
 25800 0164 032B     		cmp	r3, #3
 25801 0166 2BD1     		bne	.L35
 420:../inc/STM32_USB_OTG_Driver/src/usb_core.c ****     {
 421:../inc/STM32_USB_OTG_Driver/src/usb_core.c ****       /*Program GI2CCTL.I2CEn*/
 422:../inc/STM32_USB_OTG_Driver/src/usb_core.c ****       i2cctl.d32 = USB_OTG_READ_REG32(&pdev->regs.GREGS->GI2CCTL);
 25802              		.loc 1 422 0
 25803 0168 7B68     		ldr	r3, [r7, #4]
 25804 016a DB68     		ldr	r3, [r3, #12]
 25805 016c 1B6B     		ldr	r3, [r3, #48]
 25806 016e 3B61     		str	r3, [r7, #16]
 423:../inc/STM32_USB_OTG_Driver/src/usb_core.c ****       i2cctl.b.i2cdevaddr = 1;
 25807              		.loc 1 423 0
 25808 0170 3B69     		ldr	r3, [r7, #16]
 25809 0172 4FF00102 		mov	r2, #1
 25810 0176 62F39B63 		bfi	r3, r2, #26, #2
 25811 017a 3B61     		str	r3, [r7, #16]
 424:../inc/STM32_USB_OTG_Driver/src/usb_core.c ****       i2cctl.b.i2cen = 0;
 25812              		.loc 1 424 0
 25813 017c 3B69     		ldr	r3, [r7, #16]
 25814 017e 6FF3D753 		bfc	r3, #23, #1
 25815 0182 3B61     		str	r3, [r7, #16]
 425:../inc/STM32_USB_OTG_Driver/src/usb_core.c ****       i2cctl.b.dat_se0 = 1;
 25816              		.loc 1 425 0
 25817 0184 3B69     		ldr	r3, [r7, #16]
 25818 0186 43F08053 		orr	r3, r3, #268435456
 25819 018a 3B61     		str	r3, [r7, #16]
 426:../inc/STM32_USB_OTG_Driver/src/usb_core.c ****       i2cctl.b.addr = 0x2D;
 25820              		.loc 1 426 0
 25821 018c 3B69     		ldr	r3, [r7, #16]
 25822 018e 4FF02D02 		mov	r2, #45
 25823 0192 62F31643 		bfi	r3, r2, #16, #7
 25824 0196 3B61     		str	r3, [r7, #16]
 427:../inc/STM32_USB_OTG_Driver/src/usb_core.c ****       USB_OTG_WRITE_REG32 (&pdev->regs.GREGS->GI2CCTL, i2cctl.d32);
 25825              		.loc 1 427 0
 25826 0198 7B68     		ldr	r3, [r7, #4]
 25827 019a DB68     		ldr	r3, [r3, #12]
 25828 019c 3A69     		ldr	r2, [r7, #16]
 25829 019e 1A63     		str	r2, [r3, #48]
 428:../inc/STM32_USB_OTG_Driver/src/usb_core.c ****       
 429:../inc/STM32_USB_OTG_Driver/src/usb_core.c ****       USB_OTG_BSP_mDelay(200);
 25830              		.loc 1 429 0
 25831 01a0 4FF0C800 		mov	r0, #200
 25832 01a4 FFF7FEFF 		bl	USB_OTG_BSP_mDelay
 430:../inc/STM32_USB_OTG_Driver/src/usb_core.c ****       
 431:../inc/STM32_USB_OTG_Driver/src/usb_core.c ****       i2cctl.b.i2cen = 1;
 25833              		.loc 1 431 0
 25834 01a8 3B69     		ldr	r3, [r7, #16]
 25835 01aa 43F40003 		orr	r3, r3, #8388608
 25836 01ae 3B61     		str	r3, [r7, #16]
 432:../inc/STM32_USB_OTG_Driver/src/usb_core.c ****       USB_OTG_WRITE_REG32 (&pdev->regs.GREGS->GI2CCTL, i2cctl.d32);
 25837              		.loc 1 432 0
 25838 01b0 7B68     		ldr	r3, [r7, #4]
 25839 01b2 DB68     		ldr	r3, [r3, #12]
 25840 01b4 3A69     		ldr	r2, [r7, #16]
 25841 01b6 1A63     		str	r2, [r3, #48]
 433:../inc/STM32_USB_OTG_Driver/src/usb_core.c ****       USB_OTG_BSP_mDelay(200);
 25842              		.loc 1 433 0
 25843 01b8 4FF0C800 		mov	r0, #200
 25844 01bc FFF7FEFF 		bl	USB_OTG_BSP_mDelay
 25845              	.L35:
 434:../inc/STM32_USB_OTG_Driver/src/usb_core.c ****     }
 435:../inc/STM32_USB_OTG_Driver/src/usb_core.c ****   }
 436:../inc/STM32_USB_OTG_Driver/src/usb_core.c ****   /* case the HS core is working in FS mode */
 437:../inc/STM32_USB_OTG_Driver/src/usb_core.c ****   if(pdev->cfg.dma_enable == 1)
 25846              		.loc 1 437 0
 25847 01c0 7B68     		ldr	r3, [r7, #4]
 25848 01c2 DB78     		ldrb	r3, [r3, #3]	@ zero_extendqisi2
 25849 01c4 012B     		cmp	r3, #1
 25850 01c6 11D1     		bne	.L39
 438:../inc/STM32_USB_OTG_Driver/src/usb_core.c ****   {
 439:../inc/STM32_USB_OTG_Driver/src/usb_core.c ****     
 440:../inc/STM32_USB_OTG_Driver/src/usb_core.c ****     ahbcfg.d32 = USB_OTG_READ_REG32(&pdev->regs.GREGS->GAHBCFG);
 25851              		.loc 1 440 0
 25852 01c8 7B68     		ldr	r3, [r7, #4]
 25853 01ca DB68     		ldr	r3, [r3, #12]
 25854 01cc 9B68     		ldr	r3, [r3, #8]
 25855 01ce FB60     		str	r3, [r7, #12]
 441:../inc/STM32_USB_OTG_Driver/src/usb_core.c ****     ahbcfg.b.hburstlen = 5; /* 64 x 32-bits*/
 25856              		.loc 1 441 0
 25857 01d0 FB68     		ldr	r3, [r7, #12]
 25858 01d2 4FF00502 		mov	r2, #5
 25859 01d6 62F34403 		bfi	r3, r2, #1, #4
 25860 01da FB60     		str	r3, [r7, #12]
 442:../inc/STM32_USB_OTG_Driver/src/usb_core.c ****     ahbcfg.b.dmaenable = 1;
 25861              		.loc 1 442 0
 25862 01dc FB68     		ldr	r3, [r7, #12]
 25863 01de 43F02003 		orr	r3, r3, #32
 25864 01e2 FB60     		str	r3, [r7, #12]
 443:../inc/STM32_USB_OTG_Driver/src/usb_core.c ****     USB_OTG_WRITE_REG32(&pdev->regs.GREGS->GAHBCFG, ahbcfg.d32);
 25865              		.loc 1 443 0
 25866 01e4 7B68     		ldr	r3, [r7, #4]
 25867 01e6 DB68     		ldr	r3, [r3, #12]
 25868 01e8 FA68     		ldr	r2, [r7, #12]
 25869 01ea 9A60     		str	r2, [r3, #8]
 25870              	.L39:
 444:../inc/STM32_USB_OTG_Driver/src/usb_core.c ****     
 445:../inc/STM32_USB_OTG_Driver/src/usb_core.c ****   }
 446:../inc/STM32_USB_OTG_Driver/src/usb_core.c ****   /* initialize OTG features */
 447:../inc/STM32_USB_OTG_Driver/src/usb_core.c **** #ifdef  USE_OTG_MODE
 448:../inc/STM32_USB_OTG_Driver/src/usb_core.c ****   usbcfg.d32 = USB_OTG_READ_REG32(&pdev->regs.GREGS->GUSBCFG);
 449:../inc/STM32_USB_OTG_Driver/src/usb_core.c ****   usbcfg.b.hnpcap = 1;
 450:../inc/STM32_USB_OTG_Driver/src/usb_core.c ****   usbcfg.b.srpcap = 1;
 451:../inc/STM32_USB_OTG_Driver/src/usb_core.c ****   USB_OTG_WRITE_REG32(&pdev->regs.GREGS->GUSBCFG, usbcfg.d32);
 452:../inc/STM32_USB_OTG_Driver/src/usb_core.c ****   USB_OTG_EnableCommonInt(pdev);
 453:../inc/STM32_USB_OTG_Driver/src/usb_core.c **** #endif
 454:../inc/STM32_USB_OTG_Driver/src/usb_core.c ****   return status;
 25871              		.loc 1 454 0
 25872 01ec FB7F     		ldrb	r3, [r7, #31]	@ zero_extendqisi2
 455:../inc/STM32_USB_OTG_Driver/src/usb_core.c **** }
 25873              		.loc 1 455 0
 25874 01ee 1846     		mov	r0, r3
 25875 01f0 07F12007 		add	r7, r7, #32
 25876 01f4 BD46     		mov	sp, r7
 25877 01f6 80BD     		pop	{r7, pc}
 25878              		.cfi_endproc
 25879              	.LFE115:
 25881              		.section	.text.USB_OTG_EnableGlobalInt,"ax",%progbits
 25882              		.align	2
 25883              		.global	USB_OTG_EnableGlobalInt
 25884              		.thumb
 25885              		.thumb_func
 25887              	USB_OTG_EnableGlobalInt:
 25888              	.LFB116:
 456:../inc/STM32_USB_OTG_Driver/src/usb_core.c **** /**
 457:../inc/STM32_USB_OTG_Driver/src/usb_core.c **** * @brief  USB_OTG_EnableGlobalInt
 458:../inc/STM32_USB_OTG_Driver/src/usb_core.c **** *         Enables the controller's Global Int in the AHB Config reg
 459:../inc/STM32_USB_OTG_Driver/src/usb_core.c **** * @param  pdev : Selected device
 460:../inc/STM32_USB_OTG_Driver/src/usb_core.c **** * @retval USB_OTG_STS : status
 461:../inc/STM32_USB_OTG_Driver/src/usb_core.c **** */
 462:../inc/STM32_USB_OTG_Driver/src/usb_core.c **** USB_OTG_STS USB_OTG_EnableGlobalInt(USB_OTG_CORE_HANDLE *pdev)
 463:../inc/STM32_USB_OTG_Driver/src/usb_core.c **** {
 25889              		.loc 1 463 0
 25890              		.cfi_startproc
 25891              		@ args = 0, pretend = 0, frame = 16
 25892              		@ frame_needed = 1, uses_anonymous_args = 0
 25893              		@ link register save eliminated.
 25894 0000 80B4     		push	{r7}
 25895              	.LCFI18:
 25896              		.cfi_def_cfa_offset 4
 25897 0002 85B0     		sub	sp, sp, #20
 25898              	.LCFI19:
 25899              		.cfi_def_cfa_offset 24
 25900 0004 00AF     		add	r7, sp, #0
 25901              		.cfi_offset 7, -4
 25902              	.LCFI20:
 25903              		.cfi_def_cfa_register 7
 25904 0006 7860     		str	r0, [r7, #4]
 464:../inc/STM32_USB_OTG_Driver/src/usb_core.c ****   USB_OTG_STS status = USB_OTG_OK;
 25905              		.loc 1 464 0
 25906 0008 4FF00003 		mov	r3, #0
 25907 000c FB73     		strb	r3, [r7, #15]
 465:../inc/STM32_USB_OTG_Driver/src/usb_core.c ****   USB_OTG_GAHBCFG_TypeDef  ahbcfg;
 466:../inc/STM32_USB_OTG_Driver/src/usb_core.c ****   
 467:../inc/STM32_USB_OTG_Driver/src/usb_core.c ****   ahbcfg.d32 = 0;
 25908              		.loc 1 467 0
 25909 000e 4FF00003 		mov	r3, #0
 25910 0012 BB60     		str	r3, [r7, #8]
 468:../inc/STM32_USB_OTG_Driver/src/usb_core.c ****   ahbcfg.b.glblintrmsk = 1; /* Enable interrupts */
 25911              		.loc 1 468 0
 25912 0014 BB68     		ldr	r3, [r7, #8]
 25913 0016 43F00103 		orr	r3, r3, #1
 25914 001a BB60     		str	r3, [r7, #8]
 469:../inc/STM32_USB_OTG_Driver/src/usb_core.c ****   USB_OTG_MODIFY_REG32(&pdev->regs.GREGS->GAHBCFG, 0, ahbcfg.d32);
 25915              		.loc 1 469 0
 25916 001c 7B68     		ldr	r3, [r7, #4]
 25917 001e DB68     		ldr	r3, [r3, #12]
 25918 0020 7A68     		ldr	r2, [r7, #4]
 25919 0022 D268     		ldr	r2, [r2, #12]
 25920 0024 9168     		ldr	r1, [r2, #8]
 25921 0026 BA68     		ldr	r2, [r7, #8]
 25922 0028 41EA0202 		orr	r2, r1, r2
 25923 002c 9A60     		str	r2, [r3, #8]
 470:../inc/STM32_USB_OTG_Driver/src/usb_core.c ****   return status;
 25924              		.loc 1 470 0
 25925 002e FB7B     		ldrb	r3, [r7, #15]	@ zero_extendqisi2
 471:../inc/STM32_USB_OTG_Driver/src/usb_core.c **** }
 25926              		.loc 1 471 0
 25927 0030 1846     		mov	r0, r3
 25928 0032 07F11407 		add	r7, r7, #20
 25929 0036 BD46     		mov	sp, r7
 25930 0038 80BC     		pop	{r7}
 25931 003a 7047     		bx	lr
 25932              		.cfi_endproc
 25933              	.LFE116:
 25935              		.section	.text.USB_OTG_DisableGlobalInt,"ax",%progbits
 25936              		.align	2
 25937              		.global	USB_OTG_DisableGlobalInt
 25938              		.thumb
 25939              		.thumb_func
 25941              	USB_OTG_DisableGlobalInt:
 25942              	.LFB117:
 472:../inc/STM32_USB_OTG_Driver/src/usb_core.c **** 
 473:../inc/STM32_USB_OTG_Driver/src/usb_core.c **** 
 474:../inc/STM32_USB_OTG_Driver/src/usb_core.c **** /**
 475:../inc/STM32_USB_OTG_Driver/src/usb_core.c **** * @brief  USB_OTG_DisableGlobalInt
 476:../inc/STM32_USB_OTG_Driver/src/usb_core.c **** *         Enables the controller's Global Int in the AHB Config reg
 477:../inc/STM32_USB_OTG_Driver/src/usb_core.c **** * @param  pdev : Selected device
 478:../inc/STM32_USB_OTG_Driver/src/usb_core.c **** * @retval USB_OTG_STS : status
 479:../inc/STM32_USB_OTG_Driver/src/usb_core.c **** */
 480:../inc/STM32_USB_OTG_Driver/src/usb_core.c **** USB_OTG_STS USB_OTG_DisableGlobalInt(USB_OTG_CORE_HANDLE *pdev)
 481:../inc/STM32_USB_OTG_Driver/src/usb_core.c **** {
 25943              		.loc 1 481 0
 25944              		.cfi_startproc
 25945              		@ args = 0, pretend = 0, frame = 16
 25946              		@ frame_needed = 1, uses_anonymous_args = 0
 25947              		@ link register save eliminated.
 25948 0000 80B4     		push	{r7}
 25949              	.LCFI21:
 25950              		.cfi_def_cfa_offset 4
 25951 0002 85B0     		sub	sp, sp, #20
 25952              	.LCFI22:
 25953              		.cfi_def_cfa_offset 24
 25954 0004 00AF     		add	r7, sp, #0
 25955              		.cfi_offset 7, -4
 25956              	.LCFI23:
 25957              		.cfi_def_cfa_register 7
 25958 0006 7860     		str	r0, [r7, #4]
 482:../inc/STM32_USB_OTG_Driver/src/usb_core.c ****   USB_OTG_STS status = USB_OTG_OK;
 25959              		.loc 1 482 0
 25960 0008 4FF00003 		mov	r3, #0
 25961 000c FB73     		strb	r3, [r7, #15]
 483:../inc/STM32_USB_OTG_Driver/src/usb_core.c ****   USB_OTG_GAHBCFG_TypeDef  ahbcfg;
 484:../inc/STM32_USB_OTG_Driver/src/usb_core.c ****   ahbcfg.d32 = 0;
 25962              		.loc 1 484 0
 25963 000e 4FF00003 		mov	r3, #0
 25964 0012 BB60     		str	r3, [r7, #8]
 485:../inc/STM32_USB_OTG_Driver/src/usb_core.c ****   ahbcfg.b.glblintrmsk = 1; /* Enable interrupts */
 25965              		.loc 1 485 0
 25966 0014 BB68     		ldr	r3, [r7, #8]
 25967 0016 43F00103 		orr	r3, r3, #1
 25968 001a BB60     		str	r3, [r7, #8]
 486:../inc/STM32_USB_OTG_Driver/src/usb_core.c ****   USB_OTG_MODIFY_REG32(&pdev->regs.GREGS->GAHBCFG, ahbcfg.d32, 0);
 25969              		.loc 1 486 0
 25970 001c 7B68     		ldr	r3, [r7, #4]
 25971 001e DB68     		ldr	r3, [r3, #12]
 25972 0020 7A68     		ldr	r2, [r7, #4]
 25973 0022 D268     		ldr	r2, [r2, #12]
 25974 0024 9168     		ldr	r1, [r2, #8]
 25975 0026 BA68     		ldr	r2, [r7, #8]
 25976 0028 6FEA0202 		mvn	r2, r2
 25977 002c 01EA0202 		and	r2, r1, r2
 25978 0030 9A60     		str	r2, [r3, #8]
 487:../inc/STM32_USB_OTG_Driver/src/usb_core.c ****   return status;
 25979              		.loc 1 487 0
 25980 0032 FB7B     		ldrb	r3, [r7, #15]	@ zero_extendqisi2
 488:../inc/STM32_USB_OTG_Driver/src/usb_core.c **** }
 25981              		.loc 1 488 0
 25982 0034 1846     		mov	r0, r3
 25983 0036 07F11407 		add	r7, r7, #20
 25984 003a BD46     		mov	sp, r7
 25985 003c 80BC     		pop	{r7}
 25986 003e 7047     		bx	lr
 25987              		.cfi_endproc
 25988              	.LFE117:
 25990              		.section	.text.USB_OTG_FlushTxFifo,"ax",%progbits
 25991              		.align	2
 25992              		.global	USB_OTG_FlushTxFifo
 25993              		.thumb
 25994              		.thumb_func
 25996              	USB_OTG_FlushTxFifo:
 25997              	.LFB118:
 489:../inc/STM32_USB_OTG_Driver/src/usb_core.c **** 
 490:../inc/STM32_USB_OTG_Driver/src/usb_core.c **** 
 491:../inc/STM32_USB_OTG_Driver/src/usb_core.c **** /**
 492:../inc/STM32_USB_OTG_Driver/src/usb_core.c **** * @brief  USB_OTG_FlushTxFifo : Flush a Tx FIFO
 493:../inc/STM32_USB_OTG_Driver/src/usb_core.c **** * @param  pdev : Selected device
 494:../inc/STM32_USB_OTG_Driver/src/usb_core.c **** * @param  num : FO num
 495:../inc/STM32_USB_OTG_Driver/src/usb_core.c **** * @retval USB_OTG_STS : status
 496:../inc/STM32_USB_OTG_Driver/src/usb_core.c **** */
 497:../inc/STM32_USB_OTG_Driver/src/usb_core.c **** USB_OTG_STS USB_OTG_FlushTxFifo (USB_OTG_CORE_HANDLE *pdev , uint32_t num )
 498:../inc/STM32_USB_OTG_Driver/src/usb_core.c **** {
 25998              		.loc 1 498 0
 25999              		.cfi_startproc
 26000              		@ args = 0, pretend = 0, frame = 24
 26001              		@ frame_needed = 1, uses_anonymous_args = 0
 26002 0000 80B5     		push	{r7, lr}
 26003              	.LCFI24:
 26004              		.cfi_def_cfa_offset 8
 26005 0002 86B0     		sub	sp, sp, #24
 26006              	.LCFI25:
 26007              		.cfi_def_cfa_offset 32
 26008 0004 00AF     		add	r7, sp, #0
 26009              		.cfi_offset 14, -4
 26010              		.cfi_offset 7, -8
 26011              	.LCFI26:
 26012              		.cfi_def_cfa_register 7
 26013 0006 7860     		str	r0, [r7, #4]
 26014 0008 3960     		str	r1, [r7, #0]
 499:../inc/STM32_USB_OTG_Driver/src/usb_core.c ****   USB_OTG_STS status = USB_OTG_OK;
 26015              		.loc 1 499 0
 26016 000a 4FF00003 		mov	r3, #0
 26017 000e FB74     		strb	r3, [r7, #19]
 500:../inc/STM32_USB_OTG_Driver/src/usb_core.c ****   __IO USB_OTG_GRSTCTL_TypeDef  greset;
 501:../inc/STM32_USB_OTG_Driver/src/usb_core.c ****   
 502:../inc/STM32_USB_OTG_Driver/src/usb_core.c ****   uint32_t count = 0;
 26018              		.loc 1 502 0
 26019 0010 4FF00003 		mov	r3, #0
 26020 0014 7B61     		str	r3, [r7, #20]
 503:../inc/STM32_USB_OTG_Driver/src/usb_core.c ****   greset.d32 = 0;
 26021              		.loc 1 503 0
 26022 0016 4FF00003 		mov	r3, #0
 26023 001a FB60     		str	r3, [r7, #12]
 504:../inc/STM32_USB_OTG_Driver/src/usb_core.c ****   greset.b.txfflsh = 1;
 26024              		.loc 1 504 0
 26025 001c FB68     		ldr	r3, [r7, #12]
 26026 001e 43F02003 		orr	r3, r3, #32
 26027 0022 FB60     		str	r3, [r7, #12]
 505:../inc/STM32_USB_OTG_Driver/src/usb_core.c ****   greset.b.txfnum  = num;
 26028              		.loc 1 505 0
 26029 0024 3B68     		ldr	r3, [r7, #0]
 26030 0026 DBB2     		uxtb	r3, r3
 26031 0028 03F01F03 		and	r3, r3, #31
 26032 002c DAB2     		uxtb	r2, r3
 26033 002e FB68     		ldr	r3, [r7, #12]
 26034 0030 62F38A13 		bfi	r3, r2, #6, #5
 26035 0034 FB60     		str	r3, [r7, #12]
 506:../inc/STM32_USB_OTG_Driver/src/usb_core.c ****   USB_OTG_WRITE_REG32( &pdev->regs.GREGS->GRSTCTL, greset.d32 );
 26036              		.loc 1 506 0
 26037 0036 7B68     		ldr	r3, [r7, #4]
 26038 0038 DB68     		ldr	r3, [r3, #12]
 26039 003a FA68     		ldr	r2, [r7, #12]
 26040 003c 1A61     		str	r2, [r3, #16]
 26041              	.L45:
 507:../inc/STM32_USB_OTG_Driver/src/usb_core.c ****   do
 508:../inc/STM32_USB_OTG_Driver/src/usb_core.c ****   {
 509:../inc/STM32_USB_OTG_Driver/src/usb_core.c ****     greset.d32 = USB_OTG_READ_REG32( &pdev->regs.GREGS->GRSTCTL);
 26042              		.loc 1 509 0
 26043 003e 7B68     		ldr	r3, [r7, #4]
 26044 0040 DB68     		ldr	r3, [r3, #12]
 26045 0042 1B69     		ldr	r3, [r3, #16]
 26046 0044 FB60     		str	r3, [r7, #12]
 510:../inc/STM32_USB_OTG_Driver/src/usb_core.c ****     if (++count > 200000)
 26047              		.loc 1 510 0
 26048 0046 7B69     		ldr	r3, [r7, #20]
 26049 0048 03F10103 		add	r3, r3, #1
 26050 004c 7B61     		str	r3, [r7, #20]
 26051 004e 7A69     		ldr	r2, [r7, #20]
 26052 0050 094B     		ldr	r3, .L47
 26053 0052 9A42     		cmp	r2, r3
 26054 0054 05D8     		bhi	.L46
 26055              	.L43:
 511:../inc/STM32_USB_OTG_Driver/src/usb_core.c ****     {
 512:../inc/STM32_USB_OTG_Driver/src/usb_core.c ****       break;
 513:../inc/STM32_USB_OTG_Driver/src/usb_core.c ****     }
 514:../inc/STM32_USB_OTG_Driver/src/usb_core.c ****   }
 515:../inc/STM32_USB_OTG_Driver/src/usb_core.c ****   while (greset.b.txfflsh == 1);
 26056              		.loc 1 515 0
 26057 0056 FB68     		ldr	r3, [r7, #12]
 26058 0058 03F02003 		and	r3, r3, #32
 26059 005c 002B     		cmp	r3, #0
 26060 005e EED1     		bne	.L45
 26061 0060 00E0     		b	.L44
 26062              	.L46:
 512:../inc/STM32_USB_OTG_Driver/src/usb_core.c ****       break;
 26063              		.loc 1 512 0
 26064 0062 00BF     		nop
 26065              	.L44:
 516:../inc/STM32_USB_OTG_Driver/src/usb_core.c ****   /* Wait for 3 PHY Clocks*/
 517:../inc/STM32_USB_OTG_Driver/src/usb_core.c ****   USB_OTG_BSP_uDelay(3);
 26066              		.loc 1 517 0
 26067 0064 4FF00300 		mov	r0, #3
 26068 0068 FFF7FEFF 		bl	USB_OTG_BSP_uDelay
 518:../inc/STM32_USB_OTG_Driver/src/usb_core.c ****   return status;
 26069              		.loc 1 518 0
 26070 006c FB7C     		ldrb	r3, [r7, #19]	@ zero_extendqisi2
 519:../inc/STM32_USB_OTG_Driver/src/usb_core.c **** }
 26071              		.loc 1 519 0
 26072 006e 1846     		mov	r0, r3
 26073 0070 07F11807 		add	r7, r7, #24
 26074 0074 BD46     		mov	sp, r7
 26075 0076 80BD     		pop	{r7, pc}
 26076              	.L48:
 26077              		.align	2
 26078              	.L47:
 26079 0078 400D0300 		.word	200000
 26080              		.cfi_endproc
 26081              	.LFE118:
 26083              		.section	.text.USB_OTG_FlushRxFifo,"ax",%progbits
 26084              		.align	2
 26085              		.global	USB_OTG_FlushRxFifo
 26086              		.thumb
 26087              		.thumb_func
 26089              	USB_OTG_FlushRxFifo:
 26090              	.LFB119:
 520:../inc/STM32_USB_OTG_Driver/src/usb_core.c **** 
 521:../inc/STM32_USB_OTG_Driver/src/usb_core.c **** 
 522:../inc/STM32_USB_OTG_Driver/src/usb_core.c **** /**
 523:../inc/STM32_USB_OTG_Driver/src/usb_core.c **** * @brief  USB_OTG_FlushRxFifo : Flush a Rx FIFO
 524:../inc/STM32_USB_OTG_Driver/src/usb_core.c **** * @param  pdev : Selected device
 525:../inc/STM32_USB_OTG_Driver/src/usb_core.c **** * @retval USB_OTG_STS : status
 526:../inc/STM32_USB_OTG_Driver/src/usb_core.c **** */
 527:../inc/STM32_USB_OTG_Driver/src/usb_core.c **** USB_OTG_STS USB_OTG_FlushRxFifo( USB_OTG_CORE_HANDLE *pdev )
 528:../inc/STM32_USB_OTG_Driver/src/usb_core.c **** {
 26091              		.loc 1 528 0
 26092              		.cfi_startproc
 26093              		@ args = 0, pretend = 0, frame = 24
 26094              		@ frame_needed = 1, uses_anonymous_args = 0
 26095 0000 80B5     		push	{r7, lr}
 26096              	.LCFI27:
 26097              		.cfi_def_cfa_offset 8
 26098 0002 86B0     		sub	sp, sp, #24
 26099              	.LCFI28:
 26100              		.cfi_def_cfa_offset 32
 26101 0004 00AF     		add	r7, sp, #0
 26102              		.cfi_offset 14, -4
 26103              		.cfi_offset 7, -8
 26104              	.LCFI29:
 26105              		.cfi_def_cfa_register 7
 26106 0006 7860     		str	r0, [r7, #4]
 529:../inc/STM32_USB_OTG_Driver/src/usb_core.c ****   USB_OTG_STS status = USB_OTG_OK;
 26107              		.loc 1 529 0
 26108 0008 4FF00003 		mov	r3, #0
 26109 000c FB74     		strb	r3, [r7, #19]
 530:../inc/STM32_USB_OTG_Driver/src/usb_core.c ****   __IO USB_OTG_GRSTCTL_TypeDef  greset;
 531:../inc/STM32_USB_OTG_Driver/src/usb_core.c ****   uint32_t count = 0;
 26110              		.loc 1 531 0
 26111 000e 4FF00003 		mov	r3, #0
 26112 0012 7B61     		str	r3, [r7, #20]
 532:../inc/STM32_USB_OTG_Driver/src/usb_core.c ****   
 533:../inc/STM32_USB_OTG_Driver/src/usb_core.c ****   greset.d32 = 0;
 26113              		.loc 1 533 0
 26114 0014 4FF00003 		mov	r3, #0
 26115 0018 FB60     		str	r3, [r7, #12]
 534:../inc/STM32_USB_OTG_Driver/src/usb_core.c ****   greset.b.rxfflsh = 1;
 26116              		.loc 1 534 0
 26117 001a FB68     		ldr	r3, [r7, #12]
 26118 001c 43F01003 		orr	r3, r3, #16
 26119 0020 FB60     		str	r3, [r7, #12]
 535:../inc/STM32_USB_OTG_Driver/src/usb_core.c ****   USB_OTG_WRITE_REG32( &pdev->regs.GREGS->GRSTCTL, greset.d32 );
 26120              		.loc 1 535 0
 26121 0022 7B68     		ldr	r3, [r7, #4]
 26122 0024 DB68     		ldr	r3, [r3, #12]
 26123 0026 FA68     		ldr	r2, [r7, #12]
 26124 0028 1A61     		str	r2, [r3, #16]
 26125              	.L52:
 536:../inc/STM32_USB_OTG_Driver/src/usb_core.c ****   do
 537:../inc/STM32_USB_OTG_Driver/src/usb_core.c ****   {
 538:../inc/STM32_USB_OTG_Driver/src/usb_core.c ****     greset.d32 = USB_OTG_READ_REG32( &pdev->regs.GREGS->GRSTCTL);
 26126              		.loc 1 538 0
 26127 002a 7B68     		ldr	r3, [r7, #4]
 26128 002c DB68     		ldr	r3, [r3, #12]
 26129 002e 1B69     		ldr	r3, [r3, #16]
 26130 0030 FB60     		str	r3, [r7, #12]
 539:../inc/STM32_USB_OTG_Driver/src/usb_core.c ****     if (++count > 200000)
 26131              		.loc 1 539 0
 26132 0032 7B69     		ldr	r3, [r7, #20]
 26133 0034 03F10103 		add	r3, r3, #1
 26134 0038 7B61     		str	r3, [r7, #20]
 26135 003a 7A69     		ldr	r2, [r7, #20]
 26136 003c 094B     		ldr	r3, .L54
 26137 003e 9A42     		cmp	r2, r3
 26138 0040 05D8     		bhi	.L53
 26139              	.L50:
 540:../inc/STM32_USB_OTG_Driver/src/usb_core.c ****     {
 541:../inc/STM32_USB_OTG_Driver/src/usb_core.c ****       break;
 542:../inc/STM32_USB_OTG_Driver/src/usb_core.c ****     }
 543:../inc/STM32_USB_OTG_Driver/src/usb_core.c ****   }
 544:../inc/STM32_USB_OTG_Driver/src/usb_core.c ****   while (greset.b.rxfflsh == 1);
 26140              		.loc 1 544 0
 26141 0042 FB68     		ldr	r3, [r7, #12]
 26142 0044 03F01003 		and	r3, r3, #16
 26143 0048 002B     		cmp	r3, #0
 26144 004a EED1     		bne	.L52
 26145 004c 00E0     		b	.L51
 26146              	.L53:
 541:../inc/STM32_USB_OTG_Driver/src/usb_core.c ****       break;
 26147              		.loc 1 541 0
 26148 004e 00BF     		nop
 26149              	.L51:
 545:../inc/STM32_USB_OTG_Driver/src/usb_core.c ****   /* Wait for 3 PHY Clocks*/
 546:../inc/STM32_USB_OTG_Driver/src/usb_core.c ****   USB_OTG_BSP_uDelay(3);
 26150              		.loc 1 546 0
 26151 0050 4FF00300 		mov	r0, #3
 26152 0054 FFF7FEFF 		bl	USB_OTG_BSP_uDelay
 547:../inc/STM32_USB_OTG_Driver/src/usb_core.c ****   return status;
 26153              		.loc 1 547 0
 26154 0058 FB7C     		ldrb	r3, [r7, #19]	@ zero_extendqisi2
 548:../inc/STM32_USB_OTG_Driver/src/usb_core.c **** }
 26155              		.loc 1 548 0
 26156 005a 1846     		mov	r0, r3
 26157 005c 07F11807 		add	r7, r7, #24
 26158 0060 BD46     		mov	sp, r7
 26159 0062 80BD     		pop	{r7, pc}
 26160              	.L55:
 26161              		.align	2
 26162              	.L54:
 26163 0064 400D0300 		.word	200000
 26164              		.cfi_endproc
 26165              	.LFE119:
 26167              		.section	.text.USB_OTG_SetCurrentMode,"ax",%progbits
 26168              		.align	2
 26169              		.global	USB_OTG_SetCurrentMode
 26170              		.thumb
 26171              		.thumb_func
 26173              	USB_OTG_SetCurrentMode:
 26174              	.LFB120:
 549:../inc/STM32_USB_OTG_Driver/src/usb_core.c **** 
 550:../inc/STM32_USB_OTG_Driver/src/usb_core.c **** 
 551:../inc/STM32_USB_OTG_Driver/src/usb_core.c **** /**
 552:../inc/STM32_USB_OTG_Driver/src/usb_core.c **** * @brief  USB_OTG_SetCurrentMode : Set ID line
 553:../inc/STM32_USB_OTG_Driver/src/usb_core.c **** * @param  pdev : Selected device
 554:../inc/STM32_USB_OTG_Driver/src/usb_core.c **** * @param  mode :  (Host/device)
 555:../inc/STM32_USB_OTG_Driver/src/usb_core.c **** * @retval USB_OTG_STS : status
 556:../inc/STM32_USB_OTG_Driver/src/usb_core.c **** */
 557:../inc/STM32_USB_OTG_Driver/src/usb_core.c **** USB_OTG_STS USB_OTG_SetCurrentMode(USB_OTG_CORE_HANDLE *pdev , uint8_t mode)
 558:../inc/STM32_USB_OTG_Driver/src/usb_core.c **** {
 26175              		.loc 1 558 0
 26176              		.cfi_startproc
 26177              		@ args = 0, pretend = 0, frame = 16
 26178              		@ frame_needed = 1, uses_anonymous_args = 0
 26179 0000 80B5     		push	{r7, lr}
 26180              	.LCFI30:
 26181              		.cfi_def_cfa_offset 8
 26182 0002 84B0     		sub	sp, sp, #16
 26183              	.LCFI31:
 26184              		.cfi_def_cfa_offset 24
 26185 0004 00AF     		add	r7, sp, #0
 26186              		.cfi_offset 14, -4
 26187              		.cfi_offset 7, -8
 26188              	.LCFI32:
 26189              		.cfi_def_cfa_register 7
 26190 0006 7860     		str	r0, [r7, #4]
 26191 0008 0B46     		mov	r3, r1
 26192 000a FB70     		strb	r3, [r7, #3]
 559:../inc/STM32_USB_OTG_Driver/src/usb_core.c ****   USB_OTG_STS status = USB_OTG_OK;
 26193              		.loc 1 559 0
 26194 000c 4FF00003 		mov	r3, #0
 26195 0010 FB73     		strb	r3, [r7, #15]
 560:../inc/STM32_USB_OTG_Driver/src/usb_core.c ****   USB_OTG_GUSBCFG_TypeDef  usbcfg;
 561:../inc/STM32_USB_OTG_Driver/src/usb_core.c ****   
 562:../inc/STM32_USB_OTG_Driver/src/usb_core.c ****   usbcfg.d32 = USB_OTG_READ_REG32(&pdev->regs.GREGS->GUSBCFG);
 26196              		.loc 1 562 0
 26197 0012 7B68     		ldr	r3, [r7, #4]
 26198 0014 DB68     		ldr	r3, [r3, #12]
 26199 0016 DB68     		ldr	r3, [r3, #12]
 26200 0018 BB60     		str	r3, [r7, #8]
 563:../inc/STM32_USB_OTG_Driver/src/usb_core.c ****   
 564:../inc/STM32_USB_OTG_Driver/src/usb_core.c ****   usbcfg.b.force_host = 0;
 26201              		.loc 1 564 0
 26202 001a BB68     		ldr	r3, [r7, #8]
 26203 001c 6FF35D73 		bfc	r3, #29, #1
 26204 0020 BB60     		str	r3, [r7, #8]
 565:../inc/STM32_USB_OTG_Driver/src/usb_core.c ****   usbcfg.b.force_dev = 0;
 26205              		.loc 1 565 0
 26206 0022 BB68     		ldr	r3, [r7, #8]
 26207 0024 6FF39E73 		bfc	r3, #30, #1
 26208 0028 BB60     		str	r3, [r7, #8]
 566:../inc/STM32_USB_OTG_Driver/src/usb_core.c ****   
 567:../inc/STM32_USB_OTG_Driver/src/usb_core.c ****   if ( mode == HOST_MODE)
 26209              		.loc 1 567 0
 26210 002a FB78     		ldrb	r3, [r7, #3]	@ zero_extendqisi2
 26211 002c 012B     		cmp	r3, #1
 26212 002e 04D1     		bne	.L57
 568:../inc/STM32_USB_OTG_Driver/src/usb_core.c ****   {
 569:../inc/STM32_USB_OTG_Driver/src/usb_core.c ****     usbcfg.b.force_host = 1;
 26213              		.loc 1 569 0
 26214 0030 BB68     		ldr	r3, [r7, #8]
 26215 0032 43F00053 		orr	r3, r3, #536870912
 26216 0036 BB60     		str	r3, [r7, #8]
 26217 0038 06E0     		b	.L58
 26218              	.L57:
 570:../inc/STM32_USB_OTG_Driver/src/usb_core.c ****   }
 571:../inc/STM32_USB_OTG_Driver/src/usb_core.c ****   else if ( mode == DEVICE_MODE)
 26219              		.loc 1 571 0
 26220 003a FB78     		ldrb	r3, [r7, #3]	@ zero_extendqisi2
 26221 003c 002B     		cmp	r3, #0
 26222 003e 03D1     		bne	.L58
 572:../inc/STM32_USB_OTG_Driver/src/usb_core.c ****   {
 573:../inc/STM32_USB_OTG_Driver/src/usb_core.c ****     usbcfg.b.force_dev = 1;
 26223              		.loc 1 573 0
 26224 0040 BB68     		ldr	r3, [r7, #8]
 26225 0042 43F08043 		orr	r3, r3, #1073741824
 26226 0046 BB60     		str	r3, [r7, #8]
 26227              	.L58:
 574:../inc/STM32_USB_OTG_Driver/src/usb_core.c ****   }
 575:../inc/STM32_USB_OTG_Driver/src/usb_core.c ****   
 576:../inc/STM32_USB_OTG_Driver/src/usb_core.c ****   USB_OTG_WRITE_REG32(&pdev->regs.GREGS->GUSBCFG, usbcfg.d32);
 26228              		.loc 1 576 0
 26229 0048 7B68     		ldr	r3, [r7, #4]
 26230 004a DB68     		ldr	r3, [r3, #12]
 26231 004c BA68     		ldr	r2, [r7, #8]
 26232 004e DA60     		str	r2, [r3, #12]
 577:../inc/STM32_USB_OTG_Driver/src/usb_core.c ****   USB_OTG_BSP_mDelay(50);
 26233              		.loc 1 577 0
 26234 0050 4FF03200 		mov	r0, #50
 26235 0054 FFF7FEFF 		bl	USB_OTG_BSP_mDelay
 578:../inc/STM32_USB_OTG_Driver/src/usb_core.c ****   return status;
 26236              		.loc 1 578 0
 26237 0058 FB7B     		ldrb	r3, [r7, #15]	@ zero_extendqisi2
 579:../inc/STM32_USB_OTG_Driver/src/usb_core.c **** }
 26238              		.loc 1 579 0
 26239 005a 1846     		mov	r0, r3
 26240 005c 07F11007 		add	r7, r7, #16
 26241 0060 BD46     		mov	sp, r7
 26242 0062 80BD     		pop	{r7, pc}
 26243              		.cfi_endproc
 26244              	.LFE120:
 26246              		.section	.text.USB_OTG_GetMode,"ax",%progbits
 26247              		.align	2
 26248              		.global	USB_OTG_GetMode
 26249              		.thumb
 26250              		.thumb_func
 26252              	USB_OTG_GetMode:
 26253              	.LFB121:
 580:../inc/STM32_USB_OTG_Driver/src/usb_core.c **** 
 581:../inc/STM32_USB_OTG_Driver/src/usb_core.c **** 
 582:../inc/STM32_USB_OTG_Driver/src/usb_core.c **** /**
 583:../inc/STM32_USB_OTG_Driver/src/usb_core.c **** * @brief  USB_OTG_GetMode : Get current mode
 584:../inc/STM32_USB_OTG_Driver/src/usb_core.c **** * @param  pdev : Selected device
 585:../inc/STM32_USB_OTG_Driver/src/usb_core.c **** * @retval current mode
 586:../inc/STM32_USB_OTG_Driver/src/usb_core.c **** */
 587:../inc/STM32_USB_OTG_Driver/src/usb_core.c **** uint32_t USB_OTG_GetMode(USB_OTG_CORE_HANDLE *pdev)
 588:../inc/STM32_USB_OTG_Driver/src/usb_core.c **** {
 26254              		.loc 1 588 0
 26255              		.cfi_startproc
 26256              		@ args = 0, pretend = 0, frame = 8
 26257              		@ frame_needed = 1, uses_anonymous_args = 0
 26258              		@ link register save eliminated.
 26259 0000 80B4     		push	{r7}
 26260              	.LCFI33:
 26261              		.cfi_def_cfa_offset 4
 26262 0002 83B0     		sub	sp, sp, #12
 26263              	.LCFI34:
 26264              		.cfi_def_cfa_offset 16
 26265 0004 00AF     		add	r7, sp, #0
 26266              		.cfi_offset 7, -4
 26267              	.LCFI35:
 26268              		.cfi_def_cfa_register 7
 26269 0006 7860     		str	r0, [r7, #4]
 589:../inc/STM32_USB_OTG_Driver/src/usb_core.c ****   return (USB_OTG_READ_REG32(&pdev->regs.GREGS->GINTSTS ) & 0x1);
 26270              		.loc 1 589 0
 26271 0008 7B68     		ldr	r3, [r7, #4]
 26272 000a DB68     		ldr	r3, [r3, #12]
 26273 000c 5B69     		ldr	r3, [r3, #20]
 26274 000e 03F00103 		and	r3, r3, #1
 590:../inc/STM32_USB_OTG_Driver/src/usb_core.c **** }
 26275              		.loc 1 590 0
 26276 0012 1846     		mov	r0, r3
 26277 0014 07F10C07 		add	r7, r7, #12
 26278 0018 BD46     		mov	sp, r7
 26279 001a 80BC     		pop	{r7}
 26280 001c 7047     		bx	lr
 26281              		.cfi_endproc
 26282              	.LFE121:
 26284 001e 00BF     		.section	.text.USB_OTG_IsDeviceMode,"ax",%progbits
 26285              		.align	2
 26286              		.global	USB_OTG_IsDeviceMode
 26287              		.thumb
 26288              		.thumb_func
 26290              	USB_OTG_IsDeviceMode:
 26291              	.LFB122:
 591:../inc/STM32_USB_OTG_Driver/src/usb_core.c **** 
 592:../inc/STM32_USB_OTG_Driver/src/usb_core.c **** 
 593:../inc/STM32_USB_OTG_Driver/src/usb_core.c **** /**
 594:../inc/STM32_USB_OTG_Driver/src/usb_core.c **** * @brief  USB_OTG_IsDeviceMode : Check if it is device mode
 595:../inc/STM32_USB_OTG_Driver/src/usb_core.c **** * @param  pdev : Selected device
 596:../inc/STM32_USB_OTG_Driver/src/usb_core.c **** * @retval num_in_ep
 597:../inc/STM32_USB_OTG_Driver/src/usb_core.c **** */
 598:../inc/STM32_USB_OTG_Driver/src/usb_core.c **** uint8_t USB_OTG_IsDeviceMode(USB_OTG_CORE_HANDLE *pdev)
 599:../inc/STM32_USB_OTG_Driver/src/usb_core.c **** {
 26292              		.loc 1 599 0
 26293              		.cfi_startproc
 26294              		@ args = 0, pretend = 0, frame = 8
 26295              		@ frame_needed = 1, uses_anonymous_args = 0
 26296 0000 80B5     		push	{r7, lr}
 26297              	.LCFI36:
 26298              		.cfi_def_cfa_offset 8
 26299 0002 82B0     		sub	sp, sp, #8
 26300              	.LCFI37:
 26301              		.cfi_def_cfa_offset 16
 26302 0004 00AF     		add	r7, sp, #0
 26303              		.cfi_offset 14, -4
 26304              		.cfi_offset 7, -8
 26305              	.LCFI38:
 26306              		.cfi_def_cfa_register 7
 26307 0006 7860     		str	r0, [r7, #4]
 600:../inc/STM32_USB_OTG_Driver/src/usb_core.c ****   return (USB_OTG_GetMode(pdev) != HOST_MODE);
 26308              		.loc 1 600 0
 26309 0008 7868     		ldr	r0, [r7, #4]
 26310 000a FFF7FEFF 		bl	USB_OTG_GetMode
 26311 000e 0346     		mov	r3, r0
 26312 0010 012B     		cmp	r3, #1
 26313 0012 0CBF     		ite	eq
 26314 0014 0023     		moveq	r3, #0
 26315 0016 0123     		movne	r3, #1
 26316 0018 DBB2     		uxtb	r3, r3
 601:../inc/STM32_USB_OTG_Driver/src/usb_core.c **** }
 26317              		.loc 1 601 0
 26318 001a 1846     		mov	r0, r3
 26319 001c 07F10807 		add	r7, r7, #8
 26320 0020 BD46     		mov	sp, r7
 26321 0022 80BD     		pop	{r7, pc}
 26322              		.cfi_endproc
 26323              	.LFE122:
 26325              		.section	.text.USB_OTG_IsHostMode,"ax",%progbits
 26326              		.align	2
 26327              		.global	USB_OTG_IsHostMode
 26328              		.thumb
 26329              		.thumb_func
 26331              	USB_OTG_IsHostMode:
 26332              	.LFB123:
 602:../inc/STM32_USB_OTG_Driver/src/usb_core.c **** 
 603:../inc/STM32_USB_OTG_Driver/src/usb_core.c **** 
 604:../inc/STM32_USB_OTG_Driver/src/usb_core.c **** /**
 605:../inc/STM32_USB_OTG_Driver/src/usb_core.c **** * @brief  USB_OTG_IsHostMode : Check if it is host mode
 606:../inc/STM32_USB_OTG_Driver/src/usb_core.c **** * @param  pdev : Selected device
 607:../inc/STM32_USB_OTG_Driver/src/usb_core.c **** * @retval num_in_ep
 608:../inc/STM32_USB_OTG_Driver/src/usb_core.c **** */
 609:../inc/STM32_USB_OTG_Driver/src/usb_core.c **** uint8_t USB_OTG_IsHostMode(USB_OTG_CORE_HANDLE *pdev)
 610:../inc/STM32_USB_OTG_Driver/src/usb_core.c **** {
 26333              		.loc 1 610 0
 26334              		.cfi_startproc
 26335              		@ args = 0, pretend = 0, frame = 8
 26336              		@ frame_needed = 1, uses_anonymous_args = 0
 26337 0000 80B5     		push	{r7, lr}
 26338              	.LCFI39:
 26339              		.cfi_def_cfa_offset 8
 26340 0002 82B0     		sub	sp, sp, #8
 26341              	.LCFI40:
 26342              		.cfi_def_cfa_offset 16
 26343 0004 00AF     		add	r7, sp, #0
 26344              		.cfi_offset 14, -4
 26345              		.cfi_offset 7, -8
 26346              	.LCFI41:
 26347              		.cfi_def_cfa_register 7
 26348 0006 7860     		str	r0, [r7, #4]
 611:../inc/STM32_USB_OTG_Driver/src/usb_core.c ****   return (USB_OTG_GetMode(pdev) == HOST_MODE);
 26349              		.loc 1 611 0
 26350 0008 7868     		ldr	r0, [r7, #4]
 26351 000a FFF7FEFF 		bl	USB_OTG_GetMode
 26352 000e 0346     		mov	r3, r0
 26353 0010 012B     		cmp	r3, #1
 26354 0012 14BF     		ite	ne
 26355 0014 0023     		movne	r3, #0
 26356 0016 0123     		moveq	r3, #1
 26357 0018 DBB2     		uxtb	r3, r3
 612:../inc/STM32_USB_OTG_Driver/src/usb_core.c **** }
 26358              		.loc 1 612 0
 26359 001a 1846     		mov	r0, r3
 26360 001c 07F10807 		add	r7, r7, #8
 26361 0020 BD46     		mov	sp, r7
 26362 0022 80BD     		pop	{r7, pc}
 26363              		.cfi_endproc
 26364              	.LFE123:
 26366              		.section	.text.USB_OTG_ReadCoreItr,"ax",%progbits
 26367              		.align	2
 26368              		.global	USB_OTG_ReadCoreItr
 26369              		.thumb
 26370              		.thumb_func
 26372              	USB_OTG_ReadCoreItr:
 26373              	.LFB124:
 613:../inc/STM32_USB_OTG_Driver/src/usb_core.c **** 
 614:../inc/STM32_USB_OTG_Driver/src/usb_core.c **** 
 615:../inc/STM32_USB_OTG_Driver/src/usb_core.c **** /**
 616:../inc/STM32_USB_OTG_Driver/src/usb_core.c **** * @brief  USB_OTG_ReadCoreItr : returns the Core Interrupt register
 617:../inc/STM32_USB_OTG_Driver/src/usb_core.c **** * @param  pdev : Selected device
 618:../inc/STM32_USB_OTG_Driver/src/usb_core.c **** * @retval Status
 619:../inc/STM32_USB_OTG_Driver/src/usb_core.c **** */
 620:../inc/STM32_USB_OTG_Driver/src/usb_core.c **** uint32_t USB_OTG_ReadCoreItr(USB_OTG_CORE_HANDLE *pdev)
 621:../inc/STM32_USB_OTG_Driver/src/usb_core.c **** {
 26374              		.loc 1 621 0
 26375              		.cfi_startproc
 26376              		@ args = 0, pretend = 0, frame = 16
 26377              		@ frame_needed = 1, uses_anonymous_args = 0
 26378              		@ link register save eliminated.
 26379 0000 80B4     		push	{r7}
 26380              	.LCFI42:
 26381              		.cfi_def_cfa_offset 4
 26382 0002 85B0     		sub	sp, sp, #20
 26383              	.LCFI43:
 26384              		.cfi_def_cfa_offset 24
 26385 0004 00AF     		add	r7, sp, #0
 26386              		.cfi_offset 7, -4
 26387              	.LCFI44:
 26388              		.cfi_def_cfa_register 7
 26389 0006 7860     		str	r0, [r7, #4]
 622:../inc/STM32_USB_OTG_Driver/src/usb_core.c ****   uint32_t v = 0;
 26390              		.loc 1 622 0
 26391 0008 4FF00003 		mov	r3, #0
 26392 000c FB60     		str	r3, [r7, #12]
 623:../inc/STM32_USB_OTG_Driver/src/usb_core.c ****   v = USB_OTG_READ_REG32(&pdev->regs.GREGS->GINTSTS);
 26393              		.loc 1 623 0
 26394 000e 7B68     		ldr	r3, [r7, #4]
 26395 0010 DB68     		ldr	r3, [r3, #12]
 26396 0012 5B69     		ldr	r3, [r3, #20]
 26397 0014 FB60     		str	r3, [r7, #12]
 624:../inc/STM32_USB_OTG_Driver/src/usb_core.c ****   v &= USB_OTG_READ_REG32(&pdev->regs.GREGS->GINTMSK);
 26398              		.loc 1 624 0
 26399 0016 7B68     		ldr	r3, [r7, #4]
 26400 0018 DB68     		ldr	r3, [r3, #12]
 26401 001a 9B69     		ldr	r3, [r3, #24]
 26402 001c FA68     		ldr	r2, [r7, #12]
 26403 001e 02EA0303 		and	r3, r2, r3
 26404 0022 FB60     		str	r3, [r7, #12]
 625:../inc/STM32_USB_OTG_Driver/src/usb_core.c ****   return v;
 26405              		.loc 1 625 0
 26406 0024 FB68     		ldr	r3, [r7, #12]
 626:../inc/STM32_USB_OTG_Driver/src/usb_core.c **** }
 26407              		.loc 1 626 0
 26408 0026 1846     		mov	r0, r3
 26409 0028 07F11407 		add	r7, r7, #20
 26410 002c BD46     		mov	sp, r7
 26411 002e 80BC     		pop	{r7}
 26412 0030 7047     		bx	lr
 26413              		.cfi_endproc
 26414              	.LFE124:
 26416 0032 00BF     		.section	.text.USB_OTG_ReadOtgItr,"ax",%progbits
 26417              		.align	2
 26418              		.global	USB_OTG_ReadOtgItr
 26419              		.thumb
 26420              		.thumb_func
 26422              	USB_OTG_ReadOtgItr:
 26423              	.LFB125:
 627:../inc/STM32_USB_OTG_Driver/src/usb_core.c **** 
 628:../inc/STM32_USB_OTG_Driver/src/usb_core.c **** 
 629:../inc/STM32_USB_OTG_Driver/src/usb_core.c **** /**
 630:../inc/STM32_USB_OTG_Driver/src/usb_core.c **** * @brief  USB_OTG_ReadOtgItr : returns the USB_OTG Interrupt register
 631:../inc/STM32_USB_OTG_Driver/src/usb_core.c **** * @param  pdev : Selected device
 632:../inc/STM32_USB_OTG_Driver/src/usb_core.c **** * @retval Status
 633:../inc/STM32_USB_OTG_Driver/src/usb_core.c **** */
 634:../inc/STM32_USB_OTG_Driver/src/usb_core.c **** uint32_t USB_OTG_ReadOtgItr (USB_OTG_CORE_HANDLE *pdev)
 635:../inc/STM32_USB_OTG_Driver/src/usb_core.c **** {
 26424              		.loc 1 635 0
 26425              		.cfi_startproc
 26426              		@ args = 0, pretend = 0, frame = 8
 26427              		@ frame_needed = 1, uses_anonymous_args = 0
 26428              		@ link register save eliminated.
 26429 0000 80B4     		push	{r7}
 26430              	.LCFI45:
 26431              		.cfi_def_cfa_offset 4
 26432 0002 83B0     		sub	sp, sp, #12
 26433              	.LCFI46:
 26434              		.cfi_def_cfa_offset 16
 26435 0004 00AF     		add	r7, sp, #0
 26436              		.cfi_offset 7, -4
 26437              	.LCFI47:
 26438              		.cfi_def_cfa_register 7
 26439 0006 7860     		str	r0, [r7, #4]
 636:../inc/STM32_USB_OTG_Driver/src/usb_core.c ****   return (USB_OTG_READ_REG32 (&pdev->regs.GREGS->GOTGINT));
 26440              		.loc 1 636 0
 26441 0008 7B68     		ldr	r3, [r7, #4]
 26442 000a DB68     		ldr	r3, [r3, #12]
 26443 000c 5B68     		ldr	r3, [r3, #4]
 637:../inc/STM32_USB_OTG_Driver/src/usb_core.c **** }
 26444              		.loc 1 637 0
 26445 000e 1846     		mov	r0, r3
 26446 0010 07F10C07 		add	r7, r7, #12
 26447 0014 BD46     		mov	sp, r7
 26448 0016 80BC     		pop	{r7}
 26449 0018 7047     		bx	lr
 26450              		.cfi_endproc
 26451              	.LFE125:
 26453 001a 00BF     		.section	.text.USB_OTG_InitDevSpeed,"ax",%progbits
 26454              		.align	2
 26455              		.global	USB_OTG_InitDevSpeed
 26456              		.thumb
 26457              		.thumb_func
 26459              	USB_OTG_InitDevSpeed:
 26460              	.LFB126:
 638:../inc/STM32_USB_OTG_Driver/src/usb_core.c **** 
 639:../inc/STM32_USB_OTG_Driver/src/usb_core.c **** #ifdef USE_HOST_MODE
 640:../inc/STM32_USB_OTG_Driver/src/usb_core.c **** /**
 641:../inc/STM32_USB_OTG_Driver/src/usb_core.c **** * @brief  USB_OTG_CoreInitHost : Initializes USB_OTG controller for host mode
 642:../inc/STM32_USB_OTG_Driver/src/usb_core.c **** * @param  pdev : Selected device
 643:../inc/STM32_USB_OTG_Driver/src/usb_core.c **** * @retval status
 644:../inc/STM32_USB_OTG_Driver/src/usb_core.c **** */
 645:../inc/STM32_USB_OTG_Driver/src/usb_core.c **** USB_OTG_STS USB_OTG_CoreInitHost(USB_OTG_CORE_HANDLE *pdev)
 646:../inc/STM32_USB_OTG_Driver/src/usb_core.c **** {
 647:../inc/STM32_USB_OTG_Driver/src/usb_core.c ****   USB_OTG_STS                     status = USB_OTG_OK;
 648:../inc/STM32_USB_OTG_Driver/src/usb_core.c ****   USB_OTG_FSIZ_TypeDef            nptxfifosize;
 649:../inc/STM32_USB_OTG_Driver/src/usb_core.c ****   USB_OTG_FSIZ_TypeDef            ptxfifosize;  
 650:../inc/STM32_USB_OTG_Driver/src/usb_core.c ****   USB_OTG_HCFG_TypeDef            hcfg;
 651:../inc/STM32_USB_OTG_Driver/src/usb_core.c ****   
 652:../inc/STM32_USB_OTG_Driver/src/usb_core.c **** #ifdef USE_OTG_MODE
 653:../inc/STM32_USB_OTG_Driver/src/usb_core.c ****   USB_OTG_OTGCTL_TypeDef          gotgctl;
 654:../inc/STM32_USB_OTG_Driver/src/usb_core.c **** #endif
 655:../inc/STM32_USB_OTG_Driver/src/usb_core.c ****   
 656:../inc/STM32_USB_OTG_Driver/src/usb_core.c ****   uint32_t                        i = 0;
 657:../inc/STM32_USB_OTG_Driver/src/usb_core.c ****   
 658:../inc/STM32_USB_OTG_Driver/src/usb_core.c ****   nptxfifosize.d32 = 0;  
 659:../inc/STM32_USB_OTG_Driver/src/usb_core.c ****   ptxfifosize.d32 = 0;
 660:../inc/STM32_USB_OTG_Driver/src/usb_core.c **** #ifdef USE_OTG_MODE
 661:../inc/STM32_USB_OTG_Driver/src/usb_core.c ****   gotgctl.d32 = 0;
 662:../inc/STM32_USB_OTG_Driver/src/usb_core.c **** #endif
 663:../inc/STM32_USB_OTG_Driver/src/usb_core.c ****   hcfg.d32 = 0;
 664:../inc/STM32_USB_OTG_Driver/src/usb_core.c ****   
 665:../inc/STM32_USB_OTG_Driver/src/usb_core.c ****   
 666:../inc/STM32_USB_OTG_Driver/src/usb_core.c ****   /* configure charge pump IO */
 667:../inc/STM32_USB_OTG_Driver/src/usb_core.c ****   USB_OTG_BSP_ConfigVBUS(pdev);
 668:../inc/STM32_USB_OTG_Driver/src/usb_core.c ****   
 669:../inc/STM32_USB_OTG_Driver/src/usb_core.c ****   /* Restart the Phy Clock */
 670:../inc/STM32_USB_OTG_Driver/src/usb_core.c ****   USB_OTG_WRITE_REG32(pdev->regs.PCGCCTL, 0);
 671:../inc/STM32_USB_OTG_Driver/src/usb_core.c ****   
 672:../inc/STM32_USB_OTG_Driver/src/usb_core.c ****   /* Initialize Host Configuration Register */
 673:../inc/STM32_USB_OTG_Driver/src/usb_core.c ****   USB_OTG_InitFSLSPClkSel(pdev , HCFG_48_MHZ); /* in init phase */
 674:../inc/STM32_USB_OTG_Driver/src/usb_core.c ****   
 675:../inc/STM32_USB_OTG_Driver/src/usb_core.c ****   hcfg.d32 = USB_OTG_READ_REG32(&pdev->regs.HREGS->HCFG);
 676:../inc/STM32_USB_OTG_Driver/src/usb_core.c ****   hcfg.b.fslssupp = 0;
 677:../inc/STM32_USB_OTG_Driver/src/usb_core.c ****   USB_OTG_WRITE_REG32(&pdev->regs.HREGS->HCFG, hcfg.d32);
 678:../inc/STM32_USB_OTG_Driver/src/usb_core.c ****   
 679:../inc/STM32_USB_OTG_Driver/src/usb_core.c ****   /* Configure data FIFO sizes */
 680:../inc/STM32_USB_OTG_Driver/src/usb_core.c ****   /* Rx FIFO */
 681:../inc/STM32_USB_OTG_Driver/src/usb_core.c **** #ifdef USB_OTG_FS_CORE
 682:../inc/STM32_USB_OTG_Driver/src/usb_core.c ****   if(pdev->cfg.coreID == USB_OTG_FS_CORE_ID)
 683:../inc/STM32_USB_OTG_Driver/src/usb_core.c ****   {
 684:../inc/STM32_USB_OTG_Driver/src/usb_core.c ****     /* set Rx FIFO size */
 685:../inc/STM32_USB_OTG_Driver/src/usb_core.c ****     USB_OTG_WRITE_REG32(&pdev->regs.GREGS->GRXFSIZ, RX_FIFO_FS_SIZE);
 686:../inc/STM32_USB_OTG_Driver/src/usb_core.c ****     nptxfifosize.b.startaddr = RX_FIFO_FS_SIZE;   
 687:../inc/STM32_USB_OTG_Driver/src/usb_core.c ****     nptxfifosize.b.depth = TXH_NP_FS_FIFOSIZ;  
 688:../inc/STM32_USB_OTG_Driver/src/usb_core.c ****     USB_OTG_WRITE_REG32(&pdev->regs.GREGS->DIEPTXF0_HNPTXFSIZ, nptxfifosize.d32);
 689:../inc/STM32_USB_OTG_Driver/src/usb_core.c ****     
 690:../inc/STM32_USB_OTG_Driver/src/usb_core.c ****     ptxfifosize.b.startaddr = RX_FIFO_FS_SIZE + TXH_NP_FS_FIFOSIZ;
 691:../inc/STM32_USB_OTG_Driver/src/usb_core.c ****     ptxfifosize.b.depth     = TXH_P_FS_FIFOSIZ;
 692:../inc/STM32_USB_OTG_Driver/src/usb_core.c ****     USB_OTG_WRITE_REG32(&pdev->regs.GREGS->HPTXFSIZ, ptxfifosize.d32);      
 693:../inc/STM32_USB_OTG_Driver/src/usb_core.c ****   }
 694:../inc/STM32_USB_OTG_Driver/src/usb_core.c **** #endif
 695:../inc/STM32_USB_OTG_Driver/src/usb_core.c **** #ifdef USB_OTG_HS_CORE  
 696:../inc/STM32_USB_OTG_Driver/src/usb_core.c ****    if (pdev->cfg.coreID == USB_OTG_HS_CORE_ID)
 697:../inc/STM32_USB_OTG_Driver/src/usb_core.c ****   {
 698:../inc/STM32_USB_OTG_Driver/src/usb_core.c ****    /* set Rx FIFO size */
 699:../inc/STM32_USB_OTG_Driver/src/usb_core.c ****     USB_OTG_WRITE_REG32(&pdev->regs.GREGS->GRXFSIZ, RX_FIFO_HS_SIZE);
 700:../inc/STM32_USB_OTG_Driver/src/usb_core.c ****     nptxfifosize.b.startaddr = RX_FIFO_HS_SIZE;   
 701:../inc/STM32_USB_OTG_Driver/src/usb_core.c ****     nptxfifosize.b.depth = TXH_NP_HS_FIFOSIZ;  
 702:../inc/STM32_USB_OTG_Driver/src/usb_core.c ****     USB_OTG_WRITE_REG32(&pdev->regs.GREGS->DIEPTXF0_HNPTXFSIZ, nptxfifosize.d32);
 703:../inc/STM32_USB_OTG_Driver/src/usb_core.c ****     
 704:../inc/STM32_USB_OTG_Driver/src/usb_core.c ****     ptxfifosize.b.startaddr = RX_FIFO_HS_SIZE + TXH_NP_HS_FIFOSIZ;
 705:../inc/STM32_USB_OTG_Driver/src/usb_core.c ****     ptxfifosize.b.depth     = TXH_P_HS_FIFOSIZ;
 706:../inc/STM32_USB_OTG_Driver/src/usb_core.c ****     USB_OTG_WRITE_REG32(&pdev->regs.GREGS->HPTXFSIZ, ptxfifosize.d32);      
 707:../inc/STM32_USB_OTG_Driver/src/usb_core.c ****   }
 708:../inc/STM32_USB_OTG_Driver/src/usb_core.c **** #endif  
 709:../inc/STM32_USB_OTG_Driver/src/usb_core.c ****   
 710:../inc/STM32_USB_OTG_Driver/src/usb_core.c **** #ifdef USE_OTG_MODE
 711:../inc/STM32_USB_OTG_Driver/src/usb_core.c ****   /* Clear Host Set HNP Enable in the USB_OTG Control Register */
 712:../inc/STM32_USB_OTG_Driver/src/usb_core.c ****   gotgctl.b.hstsethnpen = 1;
 713:../inc/STM32_USB_OTG_Driver/src/usb_core.c ****   USB_OTG_MODIFY_REG32( &pdev->regs.GREGS->GOTGCTL, gotgctl.d32, 0);
 714:../inc/STM32_USB_OTG_Driver/src/usb_core.c **** #endif
 715:../inc/STM32_USB_OTG_Driver/src/usb_core.c ****   
 716:../inc/STM32_USB_OTG_Driver/src/usb_core.c ****   /* Make sure the FIFOs are flushed. */
 717:../inc/STM32_USB_OTG_Driver/src/usb_core.c ****   USB_OTG_FlushTxFifo(pdev, 0x10 );         /* all Tx FIFOs */
 718:../inc/STM32_USB_OTG_Driver/src/usb_core.c ****   USB_OTG_FlushRxFifo(pdev);
 719:../inc/STM32_USB_OTG_Driver/src/usb_core.c ****   
 720:../inc/STM32_USB_OTG_Driver/src/usb_core.c ****   
 721:../inc/STM32_USB_OTG_Driver/src/usb_core.c ****   /* Clear all pending HC Interrupts */
 722:../inc/STM32_USB_OTG_Driver/src/usb_core.c ****   for (i = 0; i < pdev->cfg.host_channels; i++)
 723:../inc/STM32_USB_OTG_Driver/src/usb_core.c ****   {
 724:../inc/STM32_USB_OTG_Driver/src/usb_core.c ****     USB_OTG_WRITE_REG32( &pdev->regs.HC_REGS[i]->HCINT, 0xFFFFFFFF );
 725:../inc/STM32_USB_OTG_Driver/src/usb_core.c ****     USB_OTG_WRITE_REG32( &pdev->regs.HC_REGS[i]->HCGINTMSK, 0 );
 726:../inc/STM32_USB_OTG_Driver/src/usb_core.c ****   }
 727:../inc/STM32_USB_OTG_Driver/src/usb_core.c **** #ifndef USE_OTG_MODE
 728:../inc/STM32_USB_OTG_Driver/src/usb_core.c ****   USB_OTG_DriveVbus(pdev, 1);
 729:../inc/STM32_USB_OTG_Driver/src/usb_core.c **** #endif
 730:../inc/STM32_USB_OTG_Driver/src/usb_core.c ****   
 731:../inc/STM32_USB_OTG_Driver/src/usb_core.c ****   USB_OTG_EnableHostInt(pdev);
 732:../inc/STM32_USB_OTG_Driver/src/usb_core.c ****   return status;
 733:../inc/STM32_USB_OTG_Driver/src/usb_core.c **** }
 734:../inc/STM32_USB_OTG_Driver/src/usb_core.c **** 
 735:../inc/STM32_USB_OTG_Driver/src/usb_core.c **** /**
 736:../inc/STM32_USB_OTG_Driver/src/usb_core.c **** * @brief  USB_OTG_IsEvenFrame 
 737:../inc/STM32_USB_OTG_Driver/src/usb_core.c **** *         This function returns the frame number for sof packet
 738:../inc/STM32_USB_OTG_Driver/src/usb_core.c **** * @param  pdev : Selected device
 739:../inc/STM32_USB_OTG_Driver/src/usb_core.c **** * @retval Frame number
 740:../inc/STM32_USB_OTG_Driver/src/usb_core.c **** */
 741:../inc/STM32_USB_OTG_Driver/src/usb_core.c **** uint8_t USB_OTG_IsEvenFrame (USB_OTG_CORE_HANDLE *pdev) 
 742:../inc/STM32_USB_OTG_Driver/src/usb_core.c **** {
 743:../inc/STM32_USB_OTG_Driver/src/usb_core.c ****   return !(USB_OTG_READ_REG32(&pdev->regs.HREGS->HFNUM) & 0x1);
 744:../inc/STM32_USB_OTG_Driver/src/usb_core.c **** }
 745:../inc/STM32_USB_OTG_Driver/src/usb_core.c **** 
 746:../inc/STM32_USB_OTG_Driver/src/usb_core.c **** /**
 747:../inc/STM32_USB_OTG_Driver/src/usb_core.c **** * @brief  USB_OTG_DriveVbus : set/reset vbus
 748:../inc/STM32_USB_OTG_Driver/src/usb_core.c **** * @param  pdev : Selected device
 749:../inc/STM32_USB_OTG_Driver/src/usb_core.c **** * @param  state : VBUS state
 750:../inc/STM32_USB_OTG_Driver/src/usb_core.c **** * @retval None
 751:../inc/STM32_USB_OTG_Driver/src/usb_core.c **** */
 752:../inc/STM32_USB_OTG_Driver/src/usb_core.c **** void USB_OTG_DriveVbus (USB_OTG_CORE_HANDLE *pdev, uint8_t state)
 753:../inc/STM32_USB_OTG_Driver/src/usb_core.c **** {
 754:../inc/STM32_USB_OTG_Driver/src/usb_core.c ****   USB_OTG_HPRT0_TypeDef     hprt0;
 755:../inc/STM32_USB_OTG_Driver/src/usb_core.c ****   
 756:../inc/STM32_USB_OTG_Driver/src/usb_core.c ****   hprt0.d32 = 0;
 757:../inc/STM32_USB_OTG_Driver/src/usb_core.c ****   
 758:../inc/STM32_USB_OTG_Driver/src/usb_core.c ****   /* enable disable the external charge pump */
 759:../inc/STM32_USB_OTG_Driver/src/usb_core.c ****   USB_OTG_BSP_DriveVBUS(pdev, state);
 760:../inc/STM32_USB_OTG_Driver/src/usb_core.c ****   
 761:../inc/STM32_USB_OTG_Driver/src/usb_core.c ****   /* Turn on the Host port power. */
 762:../inc/STM32_USB_OTG_Driver/src/usb_core.c ****   hprt0.d32 = USB_OTG_ReadHPRT0(pdev);
 763:../inc/STM32_USB_OTG_Driver/src/usb_core.c ****   if ((hprt0.b.prtpwr == 0 ) && (state == 1 ))
 764:../inc/STM32_USB_OTG_Driver/src/usb_core.c ****   {
 765:../inc/STM32_USB_OTG_Driver/src/usb_core.c ****     hprt0.b.prtpwr = 1;
 766:../inc/STM32_USB_OTG_Driver/src/usb_core.c ****     USB_OTG_WRITE_REG32(pdev->regs.HPRT0, hprt0.d32);
 767:../inc/STM32_USB_OTG_Driver/src/usb_core.c ****   }
 768:../inc/STM32_USB_OTG_Driver/src/usb_core.c ****   if ((hprt0.b.prtpwr == 1 ) && (state == 0 ))
 769:../inc/STM32_USB_OTG_Driver/src/usb_core.c ****   {
 770:../inc/STM32_USB_OTG_Driver/src/usb_core.c ****     hprt0.b.prtpwr = 0;
 771:../inc/STM32_USB_OTG_Driver/src/usb_core.c ****     USB_OTG_WRITE_REG32(pdev->regs.HPRT0, hprt0.d32);
 772:../inc/STM32_USB_OTG_Driver/src/usb_core.c ****   }
 773:../inc/STM32_USB_OTG_Driver/src/usb_core.c ****   
 774:../inc/STM32_USB_OTG_Driver/src/usb_core.c ****   USB_OTG_BSP_mDelay(200);
 775:../inc/STM32_USB_OTG_Driver/src/usb_core.c **** }
 776:../inc/STM32_USB_OTG_Driver/src/usb_core.c **** /**
 777:../inc/STM32_USB_OTG_Driver/src/usb_core.c **** * @brief  USB_OTG_EnableHostInt: Enables the Host mode interrupts
 778:../inc/STM32_USB_OTG_Driver/src/usb_core.c **** * @param  pdev : Selected device
 779:../inc/STM32_USB_OTG_Driver/src/usb_core.c **** * @retval USB_OTG_STS : status
 780:../inc/STM32_USB_OTG_Driver/src/usb_core.c **** */
 781:../inc/STM32_USB_OTG_Driver/src/usb_core.c **** USB_OTG_STS USB_OTG_EnableHostInt(USB_OTG_CORE_HANDLE *pdev)
 782:../inc/STM32_USB_OTG_Driver/src/usb_core.c **** {
 783:../inc/STM32_USB_OTG_Driver/src/usb_core.c ****   USB_OTG_STS       status = USB_OTG_OK;
 784:../inc/STM32_USB_OTG_Driver/src/usb_core.c ****   USB_OTG_GINTMSK_TypeDef  intmsk;
 785:../inc/STM32_USB_OTG_Driver/src/usb_core.c ****   intmsk.d32 = 0;
 786:../inc/STM32_USB_OTG_Driver/src/usb_core.c ****   /* Disable all interrupts. */
 787:../inc/STM32_USB_OTG_Driver/src/usb_core.c ****   USB_OTG_WRITE_REG32(&pdev->regs.GREGS->GINTMSK, 0);
 788:../inc/STM32_USB_OTG_Driver/src/usb_core.c ****   
 789:../inc/STM32_USB_OTG_Driver/src/usb_core.c ****   /* Clear any pending interrupts. */
 790:../inc/STM32_USB_OTG_Driver/src/usb_core.c ****   USB_OTG_WRITE_REG32(&pdev->regs.GREGS->GINTSTS, 0xFFFFFFFF);
 791:../inc/STM32_USB_OTG_Driver/src/usb_core.c ****   
 792:../inc/STM32_USB_OTG_Driver/src/usb_core.c ****   /* Enable the common interrupts */
 793:../inc/STM32_USB_OTG_Driver/src/usb_core.c ****   USB_OTG_EnableCommonInt(pdev);
 794:../inc/STM32_USB_OTG_Driver/src/usb_core.c ****   
 795:../inc/STM32_USB_OTG_Driver/src/usb_core.c ****   if (pdev->cfg.dma_enable == 0)
 796:../inc/STM32_USB_OTG_Driver/src/usb_core.c ****   {  
 797:../inc/STM32_USB_OTG_Driver/src/usb_core.c ****     intmsk.b.rxstsqlvl  = 1;
 798:../inc/STM32_USB_OTG_Driver/src/usb_core.c ****   }  
 799:../inc/STM32_USB_OTG_Driver/src/usb_core.c ****   intmsk.b.portintr   = 1;
 800:../inc/STM32_USB_OTG_Driver/src/usb_core.c ****   intmsk.b.hcintr     = 1;
 801:../inc/STM32_USB_OTG_Driver/src/usb_core.c ****   intmsk.b.disconnect = 1;  
 802:../inc/STM32_USB_OTG_Driver/src/usb_core.c ****   intmsk.b.sofintr    = 1;  
 803:../inc/STM32_USB_OTG_Driver/src/usb_core.c ****   intmsk.b.incomplisoout  = 1; 
 804:../inc/STM32_USB_OTG_Driver/src/usb_core.c ****   USB_OTG_MODIFY_REG32(&pdev->regs.GREGS->GINTMSK, intmsk.d32, intmsk.d32);
 805:../inc/STM32_USB_OTG_Driver/src/usb_core.c ****   return status;
 806:../inc/STM32_USB_OTG_Driver/src/usb_core.c **** }
 807:../inc/STM32_USB_OTG_Driver/src/usb_core.c **** 
 808:../inc/STM32_USB_OTG_Driver/src/usb_core.c **** /**
 809:../inc/STM32_USB_OTG_Driver/src/usb_core.c **** * @brief  USB_OTG_InitFSLSPClkSel : Initializes the FSLSPClkSel field of the 
 810:../inc/STM32_USB_OTG_Driver/src/usb_core.c **** *         HCFG register on the PHY type
 811:../inc/STM32_USB_OTG_Driver/src/usb_core.c **** * @param  pdev : Selected device
 812:../inc/STM32_USB_OTG_Driver/src/usb_core.c **** * @param  freq : clock frequency
 813:../inc/STM32_USB_OTG_Driver/src/usb_core.c **** * @retval None
 814:../inc/STM32_USB_OTG_Driver/src/usb_core.c **** */
 815:../inc/STM32_USB_OTG_Driver/src/usb_core.c **** void USB_OTG_InitFSLSPClkSel(USB_OTG_CORE_HANDLE *pdev , uint8_t freq)
 816:../inc/STM32_USB_OTG_Driver/src/usb_core.c **** {
 817:../inc/STM32_USB_OTG_Driver/src/usb_core.c ****   USB_OTG_HCFG_TypeDef   hcfg;
 818:../inc/STM32_USB_OTG_Driver/src/usb_core.c ****   
 819:../inc/STM32_USB_OTG_Driver/src/usb_core.c ****   hcfg.d32 = USB_OTG_READ_REG32(&pdev->regs.HREGS->HCFG);
 820:../inc/STM32_USB_OTG_Driver/src/usb_core.c ****   hcfg.b.fslspclksel = freq;
 821:../inc/STM32_USB_OTG_Driver/src/usb_core.c ****   USB_OTG_WRITE_REG32(&pdev->regs.HREGS->HCFG, hcfg.d32);
 822:../inc/STM32_USB_OTG_Driver/src/usb_core.c **** }
 823:../inc/STM32_USB_OTG_Driver/src/usb_core.c **** 
 824:../inc/STM32_USB_OTG_Driver/src/usb_core.c **** 
 825:../inc/STM32_USB_OTG_Driver/src/usb_core.c **** /**
 826:../inc/STM32_USB_OTG_Driver/src/usb_core.c **** * @brief  USB_OTG_ReadHPRT0 : Reads HPRT0 to modify later
 827:../inc/STM32_USB_OTG_Driver/src/usb_core.c **** * @param  pdev : Selected device
 828:../inc/STM32_USB_OTG_Driver/src/usb_core.c **** * @retval HPRT0 value
 829:../inc/STM32_USB_OTG_Driver/src/usb_core.c **** */
 830:../inc/STM32_USB_OTG_Driver/src/usb_core.c **** uint32_t USB_OTG_ReadHPRT0(USB_OTG_CORE_HANDLE *pdev)
 831:../inc/STM32_USB_OTG_Driver/src/usb_core.c **** {
 832:../inc/STM32_USB_OTG_Driver/src/usb_core.c ****   USB_OTG_HPRT0_TypeDef  hprt0;
 833:../inc/STM32_USB_OTG_Driver/src/usb_core.c ****   
 834:../inc/STM32_USB_OTG_Driver/src/usb_core.c ****   hprt0.d32 = USB_OTG_READ_REG32(pdev->regs.HPRT0);
 835:../inc/STM32_USB_OTG_Driver/src/usb_core.c ****   hprt0.b.prtena = 0;
 836:../inc/STM32_USB_OTG_Driver/src/usb_core.c ****   hprt0.b.prtconndet = 0;
 837:../inc/STM32_USB_OTG_Driver/src/usb_core.c ****   hprt0.b.prtenchng = 0;
 838:../inc/STM32_USB_OTG_Driver/src/usb_core.c ****   hprt0.b.prtovrcurrchng = 0;
 839:../inc/STM32_USB_OTG_Driver/src/usb_core.c ****   return hprt0.d32;
 840:../inc/STM32_USB_OTG_Driver/src/usb_core.c **** }
 841:../inc/STM32_USB_OTG_Driver/src/usb_core.c **** 
 842:../inc/STM32_USB_OTG_Driver/src/usb_core.c **** 
 843:../inc/STM32_USB_OTG_Driver/src/usb_core.c **** /**
 844:../inc/STM32_USB_OTG_Driver/src/usb_core.c **** * @brief  USB_OTG_ReadHostAllChannels_intr : Register PCD Callbacks
 845:../inc/STM32_USB_OTG_Driver/src/usb_core.c **** * @param  pdev : Selected device
 846:../inc/STM32_USB_OTG_Driver/src/usb_core.c **** * @retval Status
 847:../inc/STM32_USB_OTG_Driver/src/usb_core.c **** */
 848:../inc/STM32_USB_OTG_Driver/src/usb_core.c **** uint32_t USB_OTG_ReadHostAllChannels_intr (USB_OTG_CORE_HANDLE *pdev)
 849:../inc/STM32_USB_OTG_Driver/src/usb_core.c **** {
 850:../inc/STM32_USB_OTG_Driver/src/usb_core.c ****   return (USB_OTG_READ_REG32 (&pdev->regs.HREGS->HAINT));
 851:../inc/STM32_USB_OTG_Driver/src/usb_core.c **** }
 852:../inc/STM32_USB_OTG_Driver/src/usb_core.c **** 
 853:../inc/STM32_USB_OTG_Driver/src/usb_core.c **** 
 854:../inc/STM32_USB_OTG_Driver/src/usb_core.c **** /**
 855:../inc/STM32_USB_OTG_Driver/src/usb_core.c **** * @brief  USB_OTG_ResetPort : Reset Host Port
 856:../inc/STM32_USB_OTG_Driver/src/usb_core.c **** * @param  pdev : Selected device
 857:../inc/STM32_USB_OTG_Driver/src/usb_core.c **** * @retval status
 858:../inc/STM32_USB_OTG_Driver/src/usb_core.c **** * @note : (1)The application must wait at least 10 ms (+ 10 ms security)
 859:../inc/STM32_USB_OTG_Driver/src/usb_core.c **** *   before clearing the reset bit.
 860:../inc/STM32_USB_OTG_Driver/src/usb_core.c **** */
 861:../inc/STM32_USB_OTG_Driver/src/usb_core.c **** uint32_t USB_OTG_ResetPort(USB_OTG_CORE_HANDLE *pdev)
 862:../inc/STM32_USB_OTG_Driver/src/usb_core.c **** {
 863:../inc/STM32_USB_OTG_Driver/src/usb_core.c ****   USB_OTG_HPRT0_TypeDef  hprt0;
 864:../inc/STM32_USB_OTG_Driver/src/usb_core.c ****   
 865:../inc/STM32_USB_OTG_Driver/src/usb_core.c ****   hprt0.d32 = USB_OTG_ReadHPRT0(pdev);
 866:../inc/STM32_USB_OTG_Driver/src/usb_core.c ****   hprt0.b.prtrst = 1;
 867:../inc/STM32_USB_OTG_Driver/src/usb_core.c ****   USB_OTG_WRITE_REG32(pdev->regs.HPRT0, hprt0.d32);
 868:../inc/STM32_USB_OTG_Driver/src/usb_core.c ****   USB_OTG_BSP_mDelay (10);                                /* See Note #1 */
 869:../inc/STM32_USB_OTG_Driver/src/usb_core.c ****   hprt0.b.prtrst = 0;
 870:../inc/STM32_USB_OTG_Driver/src/usb_core.c ****   USB_OTG_WRITE_REG32(pdev->regs.HPRT0, hprt0.d32);
 871:../inc/STM32_USB_OTG_Driver/src/usb_core.c ****   USB_OTG_BSP_mDelay (20);   
 872:../inc/STM32_USB_OTG_Driver/src/usb_core.c ****   return 1;
 873:../inc/STM32_USB_OTG_Driver/src/usb_core.c **** }
 874:../inc/STM32_USB_OTG_Driver/src/usb_core.c **** 
 875:../inc/STM32_USB_OTG_Driver/src/usb_core.c **** 
 876:../inc/STM32_USB_OTG_Driver/src/usb_core.c **** /**
 877:../inc/STM32_USB_OTG_Driver/src/usb_core.c **** * @brief  USB_OTG_HC_Init : Prepares a host channel for transferring packets
 878:../inc/STM32_USB_OTG_Driver/src/usb_core.c **** * @param  pdev : Selected device
 879:../inc/STM32_USB_OTG_Driver/src/usb_core.c **** * @param  hc_num : channel number
 880:../inc/STM32_USB_OTG_Driver/src/usb_core.c **** * @retval USB_OTG_STS : status
 881:../inc/STM32_USB_OTG_Driver/src/usb_core.c **** */
 882:../inc/STM32_USB_OTG_Driver/src/usb_core.c **** USB_OTG_STS USB_OTG_HC_Init(USB_OTG_CORE_HANDLE *pdev , uint8_t hc_num)
 883:../inc/STM32_USB_OTG_Driver/src/usb_core.c **** {
 884:../inc/STM32_USB_OTG_Driver/src/usb_core.c ****   USB_OTG_STS status = USB_OTG_OK;
 885:../inc/STM32_USB_OTG_Driver/src/usb_core.c ****   uint32_t intr_enable = 0;
 886:../inc/STM32_USB_OTG_Driver/src/usb_core.c ****   USB_OTG_HCGINTMSK_TypeDef  hcintmsk;
 887:../inc/STM32_USB_OTG_Driver/src/usb_core.c ****   USB_OTG_GINTMSK_TypeDef    gintmsk;
 888:../inc/STM32_USB_OTG_Driver/src/usb_core.c ****   USB_OTG_HCCHAR_TypeDef     hcchar;
 889:../inc/STM32_USB_OTG_Driver/src/usb_core.c ****   USB_OTG_HCINTn_TypeDef     hcint;
 890:../inc/STM32_USB_OTG_Driver/src/usb_core.c ****   
 891:../inc/STM32_USB_OTG_Driver/src/usb_core.c ****   
 892:../inc/STM32_USB_OTG_Driver/src/usb_core.c ****   gintmsk.d32 = 0;
 893:../inc/STM32_USB_OTG_Driver/src/usb_core.c ****   hcintmsk.d32 = 0;
 894:../inc/STM32_USB_OTG_Driver/src/usb_core.c ****   hcchar.d32 = 0;
 895:../inc/STM32_USB_OTG_Driver/src/usb_core.c ****   
 896:../inc/STM32_USB_OTG_Driver/src/usb_core.c ****   /* Clear old interrupt conditions for this host channel. */
 897:../inc/STM32_USB_OTG_Driver/src/usb_core.c ****   hcint.d32 = 0xFFFFFFFF;
 898:../inc/STM32_USB_OTG_Driver/src/usb_core.c ****   USB_OTG_WRITE_REG32(&pdev->regs.HC_REGS[hc_num]->HCINT, hcint.d32);
 899:../inc/STM32_USB_OTG_Driver/src/usb_core.c ****   
 900:../inc/STM32_USB_OTG_Driver/src/usb_core.c ****   /* Enable channel interrupts required for this transfer. */
 901:../inc/STM32_USB_OTG_Driver/src/usb_core.c ****   hcintmsk.d32 = 0;
 902:../inc/STM32_USB_OTG_Driver/src/usb_core.c ****   
 903:../inc/STM32_USB_OTG_Driver/src/usb_core.c ****   if (pdev->cfg.dma_enable == 1)
 904:../inc/STM32_USB_OTG_Driver/src/usb_core.c ****   {
 905:../inc/STM32_USB_OTG_Driver/src/usb_core.c ****     hcintmsk.b.ahberr = 1;
 906:../inc/STM32_USB_OTG_Driver/src/usb_core.c ****   }
 907:../inc/STM32_USB_OTG_Driver/src/usb_core.c ****   
 908:../inc/STM32_USB_OTG_Driver/src/usb_core.c ****   switch (pdev->host.hc[hc_num].ep_type) 
 909:../inc/STM32_USB_OTG_Driver/src/usb_core.c ****   {
 910:../inc/STM32_USB_OTG_Driver/src/usb_core.c ****   case EP_TYPE_CTRL:
 911:../inc/STM32_USB_OTG_Driver/src/usb_core.c ****   case EP_TYPE_BULK:
 912:../inc/STM32_USB_OTG_Driver/src/usb_core.c ****     hcintmsk.b.xfercompl = 1;
 913:../inc/STM32_USB_OTG_Driver/src/usb_core.c ****     hcintmsk.b.stall = 1;
 914:../inc/STM32_USB_OTG_Driver/src/usb_core.c ****     hcintmsk.b.xacterr = 1;
 915:../inc/STM32_USB_OTG_Driver/src/usb_core.c ****     hcintmsk.b.datatglerr = 1;
 916:../inc/STM32_USB_OTG_Driver/src/usb_core.c ****     hcintmsk.b.nak = 1;  
 917:../inc/STM32_USB_OTG_Driver/src/usb_core.c ****     if (pdev->host.hc[hc_num].ep_is_in) 
 918:../inc/STM32_USB_OTG_Driver/src/usb_core.c ****     {
 919:../inc/STM32_USB_OTG_Driver/src/usb_core.c ****       hcintmsk.b.bblerr = 1;
 920:../inc/STM32_USB_OTG_Driver/src/usb_core.c ****     } 
 921:../inc/STM32_USB_OTG_Driver/src/usb_core.c ****     else 
 922:../inc/STM32_USB_OTG_Driver/src/usb_core.c ****     {
 923:../inc/STM32_USB_OTG_Driver/src/usb_core.c ****       hcintmsk.b.nyet = 1;
 924:../inc/STM32_USB_OTG_Driver/src/usb_core.c ****       if (pdev->host.hc[hc_num].do_ping) 
 925:../inc/STM32_USB_OTG_Driver/src/usb_core.c ****       {
 926:../inc/STM32_USB_OTG_Driver/src/usb_core.c ****         hcintmsk.b.ack = 1;
 927:../inc/STM32_USB_OTG_Driver/src/usb_core.c ****       }
 928:../inc/STM32_USB_OTG_Driver/src/usb_core.c ****     }
 929:../inc/STM32_USB_OTG_Driver/src/usb_core.c ****     break;
 930:../inc/STM32_USB_OTG_Driver/src/usb_core.c ****   case EP_TYPE_INTR:
 931:../inc/STM32_USB_OTG_Driver/src/usb_core.c ****     hcintmsk.b.xfercompl = 1;
 932:../inc/STM32_USB_OTG_Driver/src/usb_core.c ****     hcintmsk.b.nak = 1;
 933:../inc/STM32_USB_OTG_Driver/src/usb_core.c ****     hcintmsk.b.stall = 1;
 934:../inc/STM32_USB_OTG_Driver/src/usb_core.c ****     hcintmsk.b.xacterr = 1;
 935:../inc/STM32_USB_OTG_Driver/src/usb_core.c ****     hcintmsk.b.datatglerr = 1;
 936:../inc/STM32_USB_OTG_Driver/src/usb_core.c ****     hcintmsk.b.frmovrun = 1;
 937:../inc/STM32_USB_OTG_Driver/src/usb_core.c ****     
 938:../inc/STM32_USB_OTG_Driver/src/usb_core.c ****     if (pdev->host.hc[hc_num].ep_is_in) 
 939:../inc/STM32_USB_OTG_Driver/src/usb_core.c ****     {
 940:../inc/STM32_USB_OTG_Driver/src/usb_core.c ****       hcintmsk.b.bblerr = 1;
 941:../inc/STM32_USB_OTG_Driver/src/usb_core.c ****     }
 942:../inc/STM32_USB_OTG_Driver/src/usb_core.c ****     
 943:../inc/STM32_USB_OTG_Driver/src/usb_core.c ****     break;
 944:../inc/STM32_USB_OTG_Driver/src/usb_core.c ****   case EP_TYPE_ISOC:
 945:../inc/STM32_USB_OTG_Driver/src/usb_core.c ****     hcintmsk.b.xfercompl = 1;
 946:../inc/STM32_USB_OTG_Driver/src/usb_core.c ****     hcintmsk.b.frmovrun = 1;
 947:../inc/STM32_USB_OTG_Driver/src/usb_core.c ****     hcintmsk.b.ack = 1;
 948:../inc/STM32_USB_OTG_Driver/src/usb_core.c ****     
 949:../inc/STM32_USB_OTG_Driver/src/usb_core.c ****     if (pdev->host.hc[hc_num].ep_is_in) 
 950:../inc/STM32_USB_OTG_Driver/src/usb_core.c ****     {
 951:../inc/STM32_USB_OTG_Driver/src/usb_core.c ****       hcintmsk.b.xacterr = 1;
 952:../inc/STM32_USB_OTG_Driver/src/usb_core.c ****       hcintmsk.b.bblerr = 1;
 953:../inc/STM32_USB_OTG_Driver/src/usb_core.c ****     }
 954:../inc/STM32_USB_OTG_Driver/src/usb_core.c ****     break;
 955:../inc/STM32_USB_OTG_Driver/src/usb_core.c ****   }
 956:../inc/STM32_USB_OTG_Driver/src/usb_core.c ****   
 957:../inc/STM32_USB_OTG_Driver/src/usb_core.c ****   
 958:../inc/STM32_USB_OTG_Driver/src/usb_core.c ****   USB_OTG_WRITE_REG32(&pdev->regs.HC_REGS[hc_num]->HCGINTMSK, hcintmsk.d32);
 959:../inc/STM32_USB_OTG_Driver/src/usb_core.c ****   
 960:../inc/STM32_USB_OTG_Driver/src/usb_core.c ****   
 961:../inc/STM32_USB_OTG_Driver/src/usb_core.c ****   /* Enable the top level host channel interrupt. */
 962:../inc/STM32_USB_OTG_Driver/src/usb_core.c ****   intr_enable = (1 << hc_num);
 963:../inc/STM32_USB_OTG_Driver/src/usb_core.c ****   USB_OTG_MODIFY_REG32(&pdev->regs.HREGS->HAINTMSK, 0, intr_enable);
 964:../inc/STM32_USB_OTG_Driver/src/usb_core.c ****   
 965:../inc/STM32_USB_OTG_Driver/src/usb_core.c ****   /* Make sure host channel interrupts are enabled. */
 966:../inc/STM32_USB_OTG_Driver/src/usb_core.c ****   gintmsk.b.hcintr = 1;
 967:../inc/STM32_USB_OTG_Driver/src/usb_core.c ****   USB_OTG_MODIFY_REG32(&pdev->regs.GREGS->GINTMSK, 0, gintmsk.d32);
 968:../inc/STM32_USB_OTG_Driver/src/usb_core.c ****   
 969:../inc/STM32_USB_OTG_Driver/src/usb_core.c ****   /* Program the HCCHAR register */
 970:../inc/STM32_USB_OTG_Driver/src/usb_core.c ****   hcchar.d32 = 0;
 971:../inc/STM32_USB_OTG_Driver/src/usb_core.c ****   hcchar.b.devaddr = pdev->host.hc[hc_num].dev_addr;
 972:../inc/STM32_USB_OTG_Driver/src/usb_core.c ****   hcchar.b.epnum   = pdev->host.hc[hc_num].ep_num;
 973:../inc/STM32_USB_OTG_Driver/src/usb_core.c ****   hcchar.b.epdir   = pdev->host.hc[hc_num].ep_is_in;
 974:../inc/STM32_USB_OTG_Driver/src/usb_core.c ****   hcchar.b.lspddev = (pdev->host.hc[hc_num].speed == HPRT0_PRTSPD_LOW_SPEED);
 975:../inc/STM32_USB_OTG_Driver/src/usb_core.c ****   hcchar.b.eptype  = pdev->host.hc[hc_num].ep_type;
 976:../inc/STM32_USB_OTG_Driver/src/usb_core.c ****   hcchar.b.mps     = pdev->host.hc[hc_num].max_packet;
 977:../inc/STM32_USB_OTG_Driver/src/usb_core.c ****   if (pdev->host.hc[hc_num].ep_type == HCCHAR_INTR)
 978:../inc/STM32_USB_OTG_Driver/src/usb_core.c ****   {
 979:../inc/STM32_USB_OTG_Driver/src/usb_core.c ****     hcchar.b.oddfrm  = 1;
 980:../inc/STM32_USB_OTG_Driver/src/usb_core.c ****   }
 981:../inc/STM32_USB_OTG_Driver/src/usb_core.c ****   USB_OTG_WRITE_REG32(&pdev->regs.HC_REGS[hc_num]->HCCHAR, hcchar.d32);
 982:../inc/STM32_USB_OTG_Driver/src/usb_core.c ****   return status;
 983:../inc/STM32_USB_OTG_Driver/src/usb_core.c **** }
 984:../inc/STM32_USB_OTG_Driver/src/usb_core.c **** 
 985:../inc/STM32_USB_OTG_Driver/src/usb_core.c **** 
 986:../inc/STM32_USB_OTG_Driver/src/usb_core.c **** /**
 987:../inc/STM32_USB_OTG_Driver/src/usb_core.c **** * @brief  USB_OTG_HC_StartXfer : Start transfer
 988:../inc/STM32_USB_OTG_Driver/src/usb_core.c **** * @param  pdev : Selected device
 989:../inc/STM32_USB_OTG_Driver/src/usb_core.c **** * @param  hc_num : channel number
 990:../inc/STM32_USB_OTG_Driver/src/usb_core.c **** * @retval USB_OTG_STS : status
 991:../inc/STM32_USB_OTG_Driver/src/usb_core.c **** */
 992:../inc/STM32_USB_OTG_Driver/src/usb_core.c **** USB_OTG_STS USB_OTG_HC_StartXfer(USB_OTG_CORE_HANDLE *pdev , uint8_t hc_num)
 993:../inc/STM32_USB_OTG_Driver/src/usb_core.c **** {
 994:../inc/STM32_USB_OTG_Driver/src/usb_core.c ****   USB_OTG_STS status = USB_OTG_OK;
 995:../inc/STM32_USB_OTG_Driver/src/usb_core.c ****   USB_OTG_HCCHAR_TypeDef   hcchar;
 996:../inc/STM32_USB_OTG_Driver/src/usb_core.c ****   USB_OTG_HCTSIZn_TypeDef  hctsiz;
 997:../inc/STM32_USB_OTG_Driver/src/usb_core.c ****   USB_OTG_HNPTXSTS_TypeDef hnptxsts; 
 998:../inc/STM32_USB_OTG_Driver/src/usb_core.c ****   USB_OTG_HPTXSTS_TypeDef  hptxsts; 
 999:../inc/STM32_USB_OTG_Driver/src/usb_core.c ****   USB_OTG_GINTMSK_TypeDef  intmsk;
1000:../inc/STM32_USB_OTG_Driver/src/usb_core.c ****   uint16_t                 len_words = 0;   
1001:../inc/STM32_USB_OTG_Driver/src/usb_core.c ****   
1002:../inc/STM32_USB_OTG_Driver/src/usb_core.c ****   uint16_t num_packets;
1003:../inc/STM32_USB_OTG_Driver/src/usb_core.c ****   uint16_t max_hc_pkt_count;
1004:../inc/STM32_USB_OTG_Driver/src/usb_core.c ****   
1005:../inc/STM32_USB_OTG_Driver/src/usb_core.c ****   max_hc_pkt_count = 256;
1006:../inc/STM32_USB_OTG_Driver/src/usb_core.c ****   hctsiz.d32 = 0;
1007:../inc/STM32_USB_OTG_Driver/src/usb_core.c ****   hcchar.d32 = 0;
1008:../inc/STM32_USB_OTG_Driver/src/usb_core.c ****   intmsk.d32 = 0;
1009:../inc/STM32_USB_OTG_Driver/src/usb_core.c ****   
1010:../inc/STM32_USB_OTG_Driver/src/usb_core.c ****   /* Compute the expected number of packets associated to the transfer */
1011:../inc/STM32_USB_OTG_Driver/src/usb_core.c ****   if (pdev->host.hc[hc_num].xfer_len > 0)
1012:../inc/STM32_USB_OTG_Driver/src/usb_core.c ****   {
1013:../inc/STM32_USB_OTG_Driver/src/usb_core.c ****     num_packets = (pdev->host.hc[hc_num].xfer_len + \
1014:../inc/STM32_USB_OTG_Driver/src/usb_core.c ****       pdev->host.hc[hc_num].max_packet - 1) / pdev->host.hc[hc_num].max_packet;
1015:../inc/STM32_USB_OTG_Driver/src/usb_core.c ****     
1016:../inc/STM32_USB_OTG_Driver/src/usb_core.c ****     if (num_packets > max_hc_pkt_count)
1017:../inc/STM32_USB_OTG_Driver/src/usb_core.c ****     {
1018:../inc/STM32_USB_OTG_Driver/src/usb_core.c ****       num_packets = max_hc_pkt_count;
1019:../inc/STM32_USB_OTG_Driver/src/usb_core.c ****       pdev->host.hc[hc_num].xfer_len = num_packets * \
1020:../inc/STM32_USB_OTG_Driver/src/usb_core.c ****         pdev->host.hc[hc_num].max_packet;
1021:../inc/STM32_USB_OTG_Driver/src/usb_core.c ****     }
1022:../inc/STM32_USB_OTG_Driver/src/usb_core.c ****   }
1023:../inc/STM32_USB_OTG_Driver/src/usb_core.c ****   else
1024:../inc/STM32_USB_OTG_Driver/src/usb_core.c ****   {
1025:../inc/STM32_USB_OTG_Driver/src/usb_core.c ****     num_packets = 1;
1026:../inc/STM32_USB_OTG_Driver/src/usb_core.c ****   }
1027:../inc/STM32_USB_OTG_Driver/src/usb_core.c ****   if (pdev->host.hc[hc_num].ep_is_in)
1028:../inc/STM32_USB_OTG_Driver/src/usb_core.c ****   {
1029:../inc/STM32_USB_OTG_Driver/src/usb_core.c ****     pdev->host.hc[hc_num].xfer_len = num_packets * \
1030:../inc/STM32_USB_OTG_Driver/src/usb_core.c ****       pdev->host.hc[hc_num].max_packet;
1031:../inc/STM32_USB_OTG_Driver/src/usb_core.c ****   }
1032:../inc/STM32_USB_OTG_Driver/src/usb_core.c ****   /* Initialize the HCTSIZn register */
1033:../inc/STM32_USB_OTG_Driver/src/usb_core.c ****   hctsiz.b.xfersize = pdev->host.hc[hc_num].xfer_len;
1034:../inc/STM32_USB_OTG_Driver/src/usb_core.c ****   hctsiz.b.pktcnt = num_packets;
1035:../inc/STM32_USB_OTG_Driver/src/usb_core.c ****   hctsiz.b.pid = pdev->host.hc[hc_num].data_pid;
1036:../inc/STM32_USB_OTG_Driver/src/usb_core.c ****   USB_OTG_WRITE_REG32(&pdev->regs.HC_REGS[hc_num]->HCTSIZ, hctsiz.d32);
1037:../inc/STM32_USB_OTG_Driver/src/usb_core.c ****   
1038:../inc/STM32_USB_OTG_Driver/src/usb_core.c ****   if (pdev->cfg.dma_enable == 1)
1039:../inc/STM32_USB_OTG_Driver/src/usb_core.c ****   {
1040:../inc/STM32_USB_OTG_Driver/src/usb_core.c ****     USB_OTG_WRITE_REG32(&pdev->regs.HC_REGS[hc_num]->HCDMA, (unsigned int)pdev->host.hc[hc_num].xfe
1041:../inc/STM32_USB_OTG_Driver/src/usb_core.c ****   }
1042:../inc/STM32_USB_OTG_Driver/src/usb_core.c ****   
1043:../inc/STM32_USB_OTG_Driver/src/usb_core.c ****   
1044:../inc/STM32_USB_OTG_Driver/src/usb_core.c ****   hcchar.d32 = USB_OTG_READ_REG32(&pdev->regs.HC_REGS[hc_num]->HCCHAR);
1045:../inc/STM32_USB_OTG_Driver/src/usb_core.c ****   hcchar.b.oddfrm = USB_OTG_IsEvenFrame(pdev);
1046:../inc/STM32_USB_OTG_Driver/src/usb_core.c ****   
1047:../inc/STM32_USB_OTG_Driver/src/usb_core.c ****   /* Set host channel enable */
1048:../inc/STM32_USB_OTG_Driver/src/usb_core.c ****   hcchar.b.chen = 1;
1049:../inc/STM32_USB_OTG_Driver/src/usb_core.c ****   hcchar.b.chdis = 0;
1050:../inc/STM32_USB_OTG_Driver/src/usb_core.c ****   USB_OTG_WRITE_REG32(&pdev->regs.HC_REGS[hc_num]->HCCHAR, hcchar.d32);
1051:../inc/STM32_USB_OTG_Driver/src/usb_core.c **** 
1052:../inc/STM32_USB_OTG_Driver/src/usb_core.c ****   if (pdev->cfg.dma_enable == 0) /* Slave mode */
1053:../inc/STM32_USB_OTG_Driver/src/usb_core.c ****   {  
1054:../inc/STM32_USB_OTG_Driver/src/usb_core.c ****     if((pdev->host.hc[hc_num].ep_is_in == 0) && 
1055:../inc/STM32_USB_OTG_Driver/src/usb_core.c ****         (pdev->host.hc[hc_num].xfer_len > 0))
1056:../inc/STM32_USB_OTG_Driver/src/usb_core.c ****     {
1057:../inc/STM32_USB_OTG_Driver/src/usb_core.c ****       switch(pdev->host.hc[hc_num].ep_type) 
1058:../inc/STM32_USB_OTG_Driver/src/usb_core.c ****       {
1059:../inc/STM32_USB_OTG_Driver/src/usb_core.c ****         /* Non periodic transfer */
1060:../inc/STM32_USB_OTG_Driver/src/usb_core.c ****       case EP_TYPE_CTRL:
1061:../inc/STM32_USB_OTG_Driver/src/usb_core.c ****       case EP_TYPE_BULK:
1062:../inc/STM32_USB_OTG_Driver/src/usb_core.c ****         
1063:../inc/STM32_USB_OTG_Driver/src/usb_core.c ****         hnptxsts.d32 = USB_OTG_READ_REG32(&pdev->regs.GREGS->HNPTXSTS);
1064:../inc/STM32_USB_OTG_Driver/src/usb_core.c ****         len_words = (pdev->host.hc[hc_num].xfer_len + 3) / 4;
1065:../inc/STM32_USB_OTG_Driver/src/usb_core.c ****         
1066:../inc/STM32_USB_OTG_Driver/src/usb_core.c ****         /* check if there is enough space in FIFO space */
1067:../inc/STM32_USB_OTG_Driver/src/usb_core.c ****         if(len_words > hnptxsts.b.nptxfspcavail)
1068:../inc/STM32_USB_OTG_Driver/src/usb_core.c ****         {
1069:../inc/STM32_USB_OTG_Driver/src/usb_core.c ****           /* need to process data in nptxfempty interrupt */
1070:../inc/STM32_USB_OTG_Driver/src/usb_core.c ****           intmsk.b.nptxfempty = 1;
1071:../inc/STM32_USB_OTG_Driver/src/usb_core.c ****           USB_OTG_MODIFY_REG32( &pdev->regs.GREGS->GINTMSK, 0, intmsk.d32);  
1072:../inc/STM32_USB_OTG_Driver/src/usb_core.c ****         }
1073:../inc/STM32_USB_OTG_Driver/src/usb_core.c ****         
1074:../inc/STM32_USB_OTG_Driver/src/usb_core.c ****         break;
1075:../inc/STM32_USB_OTG_Driver/src/usb_core.c ****         /* Periodic transfer */
1076:../inc/STM32_USB_OTG_Driver/src/usb_core.c ****       case EP_TYPE_INTR:
1077:../inc/STM32_USB_OTG_Driver/src/usb_core.c ****       case EP_TYPE_ISOC:
1078:../inc/STM32_USB_OTG_Driver/src/usb_core.c ****         hptxsts.d32 = USB_OTG_READ_REG32(&pdev->regs.HREGS->HPTXSTS);
1079:../inc/STM32_USB_OTG_Driver/src/usb_core.c ****         len_words = (pdev->host.hc[hc_num].xfer_len + 3) / 4;
1080:../inc/STM32_USB_OTG_Driver/src/usb_core.c ****         /* check if there is enough space in FIFO space */
1081:../inc/STM32_USB_OTG_Driver/src/usb_core.c ****         if(len_words > hptxsts.b.ptxfspcavail) /* split the transfer */
1082:../inc/STM32_USB_OTG_Driver/src/usb_core.c ****         {
1083:../inc/STM32_USB_OTG_Driver/src/usb_core.c ****           /* need to process data in ptxfempty interrupt */
1084:../inc/STM32_USB_OTG_Driver/src/usb_core.c ****           intmsk.b.ptxfempty = 1;
1085:../inc/STM32_USB_OTG_Driver/src/usb_core.c ****           USB_OTG_MODIFY_REG32( &pdev->regs.GREGS->GINTMSK, 0, intmsk.d32);  
1086:../inc/STM32_USB_OTG_Driver/src/usb_core.c ****         }
1087:../inc/STM32_USB_OTG_Driver/src/usb_core.c ****         break;
1088:../inc/STM32_USB_OTG_Driver/src/usb_core.c ****         
1089:../inc/STM32_USB_OTG_Driver/src/usb_core.c ****       default:
1090:../inc/STM32_USB_OTG_Driver/src/usb_core.c ****         break;
1091:../inc/STM32_USB_OTG_Driver/src/usb_core.c ****       }
1092:../inc/STM32_USB_OTG_Driver/src/usb_core.c ****       
1093:../inc/STM32_USB_OTG_Driver/src/usb_core.c ****       /* Write packet into the Tx FIFO. */
1094:../inc/STM32_USB_OTG_Driver/src/usb_core.c ****       USB_OTG_WritePacket(pdev, 
1095:../inc/STM32_USB_OTG_Driver/src/usb_core.c ****                           pdev->host.hc[hc_num].xfer_buff , 
1096:../inc/STM32_USB_OTG_Driver/src/usb_core.c ****                           hc_num, pdev->host.hc[hc_num].xfer_len);
1097:../inc/STM32_USB_OTG_Driver/src/usb_core.c ****     }
1098:../inc/STM32_USB_OTG_Driver/src/usb_core.c ****   }
1099:../inc/STM32_USB_OTG_Driver/src/usb_core.c ****   return status;
1100:../inc/STM32_USB_OTG_Driver/src/usb_core.c **** }
1101:../inc/STM32_USB_OTG_Driver/src/usb_core.c **** 
1102:../inc/STM32_USB_OTG_Driver/src/usb_core.c **** 
1103:../inc/STM32_USB_OTG_Driver/src/usb_core.c **** /**
1104:../inc/STM32_USB_OTG_Driver/src/usb_core.c **** * @brief  USB_OTG_HC_Halt : Halt channel
1105:../inc/STM32_USB_OTG_Driver/src/usb_core.c **** * @param  pdev : Selected device
1106:../inc/STM32_USB_OTG_Driver/src/usb_core.c **** * @param  hc_num : channel number
1107:../inc/STM32_USB_OTG_Driver/src/usb_core.c **** * @retval USB_OTG_STS : status
1108:../inc/STM32_USB_OTG_Driver/src/usb_core.c **** */
1109:../inc/STM32_USB_OTG_Driver/src/usb_core.c **** USB_OTG_STS USB_OTG_HC_Halt(USB_OTG_CORE_HANDLE *pdev , uint8_t hc_num)
1110:../inc/STM32_USB_OTG_Driver/src/usb_core.c **** {
1111:../inc/STM32_USB_OTG_Driver/src/usb_core.c ****   USB_OTG_STS status = USB_OTG_OK;
1112:../inc/STM32_USB_OTG_Driver/src/usb_core.c ****   USB_OTG_HNPTXSTS_TypeDef            nptxsts;
1113:../inc/STM32_USB_OTG_Driver/src/usb_core.c ****   USB_OTG_HPTXSTS_TypeDef             hptxsts;
1114:../inc/STM32_USB_OTG_Driver/src/usb_core.c ****   USB_OTG_HCCHAR_TypeDef              hcchar;
1115:../inc/STM32_USB_OTG_Driver/src/usb_core.c ****   
1116:../inc/STM32_USB_OTG_Driver/src/usb_core.c ****   nptxsts.d32 = 0;
1117:../inc/STM32_USB_OTG_Driver/src/usb_core.c ****   hptxsts.d32 = 0;
1118:../inc/STM32_USB_OTG_Driver/src/usb_core.c ****   hcchar.d32 = USB_OTG_READ_REG32(&pdev->regs.HC_REGS[hc_num]->HCCHAR);
1119:../inc/STM32_USB_OTG_Driver/src/usb_core.c ****   hcchar.b.chen = 1;
1120:../inc/STM32_USB_OTG_Driver/src/usb_core.c ****   hcchar.b.chdis = 1;
1121:../inc/STM32_USB_OTG_Driver/src/usb_core.c ****   
1122:../inc/STM32_USB_OTG_Driver/src/usb_core.c ****   /* Check for space in the request queue to issue the halt. */
1123:../inc/STM32_USB_OTG_Driver/src/usb_core.c ****   if (hcchar.b.eptype == HCCHAR_CTRL || hcchar.b.eptype == HCCHAR_BULK)
1124:../inc/STM32_USB_OTG_Driver/src/usb_core.c ****   {
1125:../inc/STM32_USB_OTG_Driver/src/usb_core.c ****     nptxsts.d32 = USB_OTG_READ_REG32(&pdev->regs.GREGS->HNPTXSTS);
1126:../inc/STM32_USB_OTG_Driver/src/usb_core.c ****     if (nptxsts.b.nptxqspcavail == 0)
1127:../inc/STM32_USB_OTG_Driver/src/usb_core.c ****     {
1128:../inc/STM32_USB_OTG_Driver/src/usb_core.c ****       hcchar.b.chen = 0;
1129:../inc/STM32_USB_OTG_Driver/src/usb_core.c ****     }
1130:../inc/STM32_USB_OTG_Driver/src/usb_core.c ****   }
1131:../inc/STM32_USB_OTG_Driver/src/usb_core.c ****   else
1132:../inc/STM32_USB_OTG_Driver/src/usb_core.c ****   {
1133:../inc/STM32_USB_OTG_Driver/src/usb_core.c ****     hptxsts.d32 = USB_OTG_READ_REG32(&pdev->regs.HREGS->HPTXSTS);
1134:../inc/STM32_USB_OTG_Driver/src/usb_core.c ****     if (hptxsts.b.ptxqspcavail == 0)
1135:../inc/STM32_USB_OTG_Driver/src/usb_core.c ****     {
1136:../inc/STM32_USB_OTG_Driver/src/usb_core.c ****       hcchar.b.chen = 0;
1137:../inc/STM32_USB_OTG_Driver/src/usb_core.c ****     }
1138:../inc/STM32_USB_OTG_Driver/src/usb_core.c ****   }
1139:../inc/STM32_USB_OTG_Driver/src/usb_core.c ****   USB_OTG_WRITE_REG32(&pdev->regs.HC_REGS[hc_num]->HCCHAR, hcchar.d32);
1140:../inc/STM32_USB_OTG_Driver/src/usb_core.c ****   return status;
1141:../inc/STM32_USB_OTG_Driver/src/usb_core.c **** }
1142:../inc/STM32_USB_OTG_Driver/src/usb_core.c **** 
1143:../inc/STM32_USB_OTG_Driver/src/usb_core.c **** /**
1144:../inc/STM32_USB_OTG_Driver/src/usb_core.c **** * @brief  Issue a ping token
1145:../inc/STM32_USB_OTG_Driver/src/usb_core.c **** * @param  None
1146:../inc/STM32_USB_OTG_Driver/src/usb_core.c **** * @retval : None
1147:../inc/STM32_USB_OTG_Driver/src/usb_core.c **** */
1148:../inc/STM32_USB_OTG_Driver/src/usb_core.c **** USB_OTG_STS USB_OTG_HC_DoPing(USB_OTG_CORE_HANDLE *pdev , uint8_t hc_num)
1149:../inc/STM32_USB_OTG_Driver/src/usb_core.c **** {
1150:../inc/STM32_USB_OTG_Driver/src/usb_core.c ****   USB_OTG_STS               status = USB_OTG_OK;
1151:../inc/STM32_USB_OTG_Driver/src/usb_core.c ****   USB_OTG_HCCHAR_TypeDef    hcchar;
1152:../inc/STM32_USB_OTG_Driver/src/usb_core.c ****   USB_OTG_HCTSIZn_TypeDef   hctsiz;  
1153:../inc/STM32_USB_OTG_Driver/src/usb_core.c ****  
1154:../inc/STM32_USB_OTG_Driver/src/usb_core.c ****   hctsiz.d32 = 0;
1155:../inc/STM32_USB_OTG_Driver/src/usb_core.c ****   hctsiz.b.dopng = 1;
1156:../inc/STM32_USB_OTG_Driver/src/usb_core.c ****   hctsiz.b.pktcnt = 1;
1157:../inc/STM32_USB_OTG_Driver/src/usb_core.c ****   USB_OTG_WRITE_REG32(&pdev->regs.HC_REGS[hc_num]->HCTSIZ, hctsiz.d32);
1158:../inc/STM32_USB_OTG_Driver/src/usb_core.c ****   
1159:../inc/STM32_USB_OTG_Driver/src/usb_core.c ****   hcchar.d32 = USB_OTG_READ_REG32(&pdev->regs.HC_REGS[hc_num]->HCCHAR);
1160:../inc/STM32_USB_OTG_Driver/src/usb_core.c ****   hcchar.b.chen = 1;
1161:../inc/STM32_USB_OTG_Driver/src/usb_core.c ****   hcchar.b.chdis = 0;
1162:../inc/STM32_USB_OTG_Driver/src/usb_core.c ****   USB_OTG_WRITE_REG32(&pdev->regs.HC_REGS[hc_num]->HCCHAR, hcchar.d32);
1163:../inc/STM32_USB_OTG_Driver/src/usb_core.c ****   return status;  
1164:../inc/STM32_USB_OTG_Driver/src/usb_core.c **** }
1165:../inc/STM32_USB_OTG_Driver/src/usb_core.c **** 
1166:../inc/STM32_USB_OTG_Driver/src/usb_core.c **** /**
1167:../inc/STM32_USB_OTG_Driver/src/usb_core.c **** * @brief  Stop the device and clean up fifo's
1168:../inc/STM32_USB_OTG_Driver/src/usb_core.c **** * @param  None
1169:../inc/STM32_USB_OTG_Driver/src/usb_core.c **** * @retval : None
1170:../inc/STM32_USB_OTG_Driver/src/usb_core.c **** */
1171:../inc/STM32_USB_OTG_Driver/src/usb_core.c **** void USB_OTG_StopHost(USB_OTG_CORE_HANDLE *pdev)
1172:../inc/STM32_USB_OTG_Driver/src/usb_core.c **** {
1173:../inc/STM32_USB_OTG_Driver/src/usb_core.c ****   USB_OTG_HCCHAR_TypeDef  hcchar;
1174:../inc/STM32_USB_OTG_Driver/src/usb_core.c ****   uint32_t                i;
1175:../inc/STM32_USB_OTG_Driver/src/usb_core.c ****   
1176:../inc/STM32_USB_OTG_Driver/src/usb_core.c ****   USB_OTG_WRITE_REG32(&pdev->regs.HREGS->HAINTMSK , 0);
1177:../inc/STM32_USB_OTG_Driver/src/usb_core.c ****   USB_OTG_WRITE_REG32(&pdev->regs.HREGS->HAINT,      0xFFFFFFFF);
1178:../inc/STM32_USB_OTG_Driver/src/usb_core.c ****   /* Flush out any leftover queued requests. */
1179:../inc/STM32_USB_OTG_Driver/src/usb_core.c ****   
1180:../inc/STM32_USB_OTG_Driver/src/usb_core.c ****   for (i = 0; i < pdev->cfg.host_channels; i++)
1181:../inc/STM32_USB_OTG_Driver/src/usb_core.c ****   {
1182:../inc/STM32_USB_OTG_Driver/src/usb_core.c ****     hcchar.d32 = USB_OTG_READ_REG32(&pdev->regs.HC_REGS[i]->HCCHAR);
1183:../inc/STM32_USB_OTG_Driver/src/usb_core.c ****     hcchar.b.chen = 0;
1184:../inc/STM32_USB_OTG_Driver/src/usb_core.c ****     hcchar.b.chdis = 1;
1185:../inc/STM32_USB_OTG_Driver/src/usb_core.c ****     hcchar.b.epdir = 0;
1186:../inc/STM32_USB_OTG_Driver/src/usb_core.c ****     USB_OTG_WRITE_REG32(&pdev->regs.HC_REGS[i]->HCCHAR, hcchar.d32);
1187:../inc/STM32_USB_OTG_Driver/src/usb_core.c ****   }
1188:../inc/STM32_USB_OTG_Driver/src/usb_core.c ****   
1189:../inc/STM32_USB_OTG_Driver/src/usb_core.c ****   /* Flush the FIFO */
1190:../inc/STM32_USB_OTG_Driver/src/usb_core.c ****   USB_OTG_FlushRxFifo(pdev);
1191:../inc/STM32_USB_OTG_Driver/src/usb_core.c ****   USB_OTG_FlushTxFifo(pdev ,  0x10 );  
1192:../inc/STM32_USB_OTG_Driver/src/usb_core.c **** }
1193:../inc/STM32_USB_OTG_Driver/src/usb_core.c **** #endif
1194:../inc/STM32_USB_OTG_Driver/src/usb_core.c **** #ifdef USE_DEVICE_MODE
1195:../inc/STM32_USB_OTG_Driver/src/usb_core.c **** /*         PCD Core Layer       */
1196:../inc/STM32_USB_OTG_Driver/src/usb_core.c **** 
1197:../inc/STM32_USB_OTG_Driver/src/usb_core.c **** /**
1198:../inc/STM32_USB_OTG_Driver/src/usb_core.c **** * @brief  USB_OTG_InitDevSpeed :Initializes the DevSpd field of DCFG register 
1199:../inc/STM32_USB_OTG_Driver/src/usb_core.c **** *         depending the PHY type and the enumeration speed of the device.
1200:../inc/STM32_USB_OTG_Driver/src/usb_core.c **** * @param  pdev : Selected device
1201:../inc/STM32_USB_OTG_Driver/src/usb_core.c **** * @retval : None
1202:../inc/STM32_USB_OTG_Driver/src/usb_core.c **** */
1203:../inc/STM32_USB_OTG_Driver/src/usb_core.c **** void USB_OTG_InitDevSpeed(USB_OTG_CORE_HANDLE *pdev , uint8_t speed)
1204:../inc/STM32_USB_OTG_Driver/src/usb_core.c **** {
 26461              		.loc 1 1204 0
 26462              		.cfi_startproc
 26463              		@ args = 0, pretend = 0, frame = 16
 26464              		@ frame_needed = 1, uses_anonymous_args = 0
 26465              		@ link register save eliminated.
 26466 0000 80B4     		push	{r7}
 26467              	.LCFI48:
 26468              		.cfi_def_cfa_offset 4
 26469 0002 85B0     		sub	sp, sp, #20
 26470              	.LCFI49:
 26471              		.cfi_def_cfa_offset 24
 26472 0004 00AF     		add	r7, sp, #0
 26473              		.cfi_offset 7, -4
 26474              	.LCFI50:
 26475              		.cfi_def_cfa_register 7
 26476 0006 7860     		str	r0, [r7, #4]
 26477 0008 0B46     		mov	r3, r1
 26478 000a FB70     		strb	r3, [r7, #3]
1205:../inc/STM32_USB_OTG_Driver/src/usb_core.c ****   USB_OTG_DCFG_TypeDef   dcfg;
1206:../inc/STM32_USB_OTG_Driver/src/usb_core.c ****   
1207:../inc/STM32_USB_OTG_Driver/src/usb_core.c ****   dcfg.d32 = USB_OTG_READ_REG32(&pdev->regs.DREGS->DCFG);
 26479              		.loc 1 1207 0
 26480 000c 7B68     		ldr	r3, [r7, #4]
 26481 000e 1B69     		ldr	r3, [r3, #16]
 26482 0010 1B68     		ldr	r3, [r3, #0]
 26483 0012 FB60     		str	r3, [r7, #12]
1208:../inc/STM32_USB_OTG_Driver/src/usb_core.c ****   dcfg.b.devspd = speed;
 26484              		.loc 1 1208 0
 26485 0014 FB78     		ldrb	r3, [r7, #3]
 26486 0016 03F00303 		and	r3, r3, #3
 26487 001a DAB2     		uxtb	r2, r3
 26488 001c FB68     		ldr	r3, [r7, #12]
 26489 001e 62F30103 		bfi	r3, r2, #0, #2
 26490 0022 FB60     		str	r3, [r7, #12]
1209:../inc/STM32_USB_OTG_Driver/src/usb_core.c ****   USB_OTG_WRITE_REG32(&pdev->regs.DREGS->DCFG, dcfg.d32);
 26491              		.loc 1 1209 0
 26492 0024 7B68     		ldr	r3, [r7, #4]
 26493 0026 1B69     		ldr	r3, [r3, #16]
 26494 0028 FA68     		ldr	r2, [r7, #12]
 26495 002a 1A60     		str	r2, [r3, #0]
1210:../inc/STM32_USB_OTG_Driver/src/usb_core.c **** }
 26496              		.loc 1 1210 0
 26497 002c 07F11407 		add	r7, r7, #20
 26498 0030 BD46     		mov	sp, r7
 26499 0032 80BC     		pop	{r7}
 26500 0034 7047     		bx	lr
 26501              		.cfi_endproc
 26502              	.LFE126:
 26504 0036 00BF     		.section	.text.USB_OTG_CoreInitDev,"ax",%progbits
 26505              		.align	2
 26506              		.global	USB_OTG_CoreInitDev
 26507              		.thumb
 26508              		.thumb_func
 26510              	USB_OTG_CoreInitDev:
 26511              	.LFB127:
1211:../inc/STM32_USB_OTG_Driver/src/usb_core.c **** 
1212:../inc/STM32_USB_OTG_Driver/src/usb_core.c **** 
1213:../inc/STM32_USB_OTG_Driver/src/usb_core.c **** /**
1214:../inc/STM32_USB_OTG_Driver/src/usb_core.c **** * @brief  USB_OTG_CoreInitDev : Initializes the USB_OTG controller registers 
1215:../inc/STM32_USB_OTG_Driver/src/usb_core.c **** *         for device mode
1216:../inc/STM32_USB_OTG_Driver/src/usb_core.c **** * @param  pdev : Selected device
1217:../inc/STM32_USB_OTG_Driver/src/usb_core.c **** * @retval USB_OTG_STS : status
1218:../inc/STM32_USB_OTG_Driver/src/usb_core.c **** */
1219:../inc/STM32_USB_OTG_Driver/src/usb_core.c **** USB_OTG_STS USB_OTG_CoreInitDev (USB_OTG_CORE_HANDLE *pdev)
1220:../inc/STM32_USB_OTG_Driver/src/usb_core.c **** {
 26512              		.loc 1 1220 0
 26513              		.cfi_startproc
 26514              		@ args = 0, pretend = 0, frame = 48
 26515              		@ frame_needed = 1, uses_anonymous_args = 0
 26516 0000 80B5     		push	{r7, lr}
 26517              	.LCFI51:
 26518              		.cfi_def_cfa_offset 8
 26519 0002 8CB0     		sub	sp, sp, #48
 26520              	.LCFI52:
 26521              		.cfi_def_cfa_offset 56
 26522 0004 00AF     		add	r7, sp, #0
 26523              		.cfi_offset 14, -4
 26524              		.cfi_offset 7, -8
 26525              	.LCFI53:
 26526              		.cfi_def_cfa_register 7
 26527 0006 7860     		str	r0, [r7, #4]
1221:../inc/STM32_USB_OTG_Driver/src/usb_core.c ****   USB_OTG_STS             status       = USB_OTG_OK;
 26528              		.loc 1 1221 0
 26529 0008 4FF00003 		mov	r3, #0
 26530 000c 87F82B30 		strb	r3, [r7, #43]
1222:../inc/STM32_USB_OTG_Driver/src/usb_core.c ****   USB_OTG_DEPCTL_TypeDef  depctl;
1223:../inc/STM32_USB_OTG_Driver/src/usb_core.c ****   uint32_t i;
1224:../inc/STM32_USB_OTG_Driver/src/usb_core.c ****   USB_OTG_DCFG_TypeDef    dcfg;
1225:../inc/STM32_USB_OTG_Driver/src/usb_core.c ****   USB_OTG_FSIZ_TypeDef    nptxfifosize;
1226:../inc/STM32_USB_OTG_Driver/src/usb_core.c ****   USB_OTG_FSIZ_TypeDef    txfifosize;
1227:../inc/STM32_USB_OTG_Driver/src/usb_core.c ****   USB_OTG_DIEPMSK_TypeDef msk;
1228:../inc/STM32_USB_OTG_Driver/src/usb_core.c ****   USB_OTG_DTHRCTL_TypeDef dthrctl;  
1229:../inc/STM32_USB_OTG_Driver/src/usb_core.c ****   
1230:../inc/STM32_USB_OTG_Driver/src/usb_core.c ****   depctl.d32 = 0;
 26531              		.loc 1 1230 0
 26532 0010 4FF00003 		mov	r3, #0
 26533 0014 7B62     		str	r3, [r7, #36]
1231:../inc/STM32_USB_OTG_Driver/src/usb_core.c ****   dcfg.d32 = 0;
 26534              		.loc 1 1231 0
 26535 0016 4FF00003 		mov	r3, #0
 26536 001a 3B62     		str	r3, [r7, #32]
1232:../inc/STM32_USB_OTG_Driver/src/usb_core.c ****   nptxfifosize.d32 = 0;
 26537              		.loc 1 1232 0
 26538 001c 4FF00003 		mov	r3, #0
 26539 0020 FB61     		str	r3, [r7, #28]
1233:../inc/STM32_USB_OTG_Driver/src/usb_core.c ****   txfifosize.d32 = 0;
 26540              		.loc 1 1233 0
 26541 0022 4FF00003 		mov	r3, #0
 26542 0026 BB61     		str	r3, [r7, #24]
1234:../inc/STM32_USB_OTG_Driver/src/usb_core.c ****   msk.d32 = 0;
 26543              		.loc 1 1234 0
 26544 0028 4FF00003 		mov	r3, #0
 26545 002c 7B61     		str	r3, [r7, #20]
1235:../inc/STM32_USB_OTG_Driver/src/usb_core.c ****   
1236:../inc/STM32_USB_OTG_Driver/src/usb_core.c ****   /* Restart the Phy Clock */
1237:../inc/STM32_USB_OTG_Driver/src/usb_core.c ****   USB_OTG_WRITE_REG32(pdev->regs.PCGCCTL, 0);
 26546              		.loc 1 1237 0
 26547 002e 7B68     		ldr	r3, [r7, #4]
 26548 0030 D3F80C31 		ldr	r3, [r3, #268]
 26549 0034 4FF00002 		mov	r2, #0
 26550 0038 1A60     		str	r2, [r3, #0]
1238:../inc/STM32_USB_OTG_Driver/src/usb_core.c ****   /* Device configuration register */
1239:../inc/STM32_USB_OTG_Driver/src/usb_core.c ****   dcfg.d32 = USB_OTG_READ_REG32( &pdev->regs.DREGS->DCFG);
 26551              		.loc 1 1239 0
 26552 003a 7B68     		ldr	r3, [r7, #4]
 26553 003c 1B69     		ldr	r3, [r3, #16]
 26554 003e 1B68     		ldr	r3, [r3, #0]
 26555 0040 3B62     		str	r3, [r7, #32]
1240:../inc/STM32_USB_OTG_Driver/src/usb_core.c ****   dcfg.b.perfrint = DCFG_FRAME_INTERVAL_80;
 26556              		.loc 1 1240 0
 26557 0042 3B6A     		ldr	r3, [r7, #32]
 26558 0044 6FF3CC23 		bfc	r3, #11, #2
 26559 0048 3B62     		str	r3, [r7, #32]
1241:../inc/STM32_USB_OTG_Driver/src/usb_core.c ****   USB_OTG_WRITE_REG32( &pdev->regs.DREGS->DCFG, dcfg.d32 );
 26560              		.loc 1 1241 0
 26561 004a 7B68     		ldr	r3, [r7, #4]
 26562 004c 1B69     		ldr	r3, [r3, #16]
 26563 004e 3A6A     		ldr	r2, [r7, #32]
 26564 0050 1A60     		str	r2, [r3, #0]
1242:../inc/STM32_USB_OTG_Driver/src/usb_core.c ****   
1243:../inc/STM32_USB_OTG_Driver/src/usb_core.c **** #ifdef USB_OTG_FS_CORE
1244:../inc/STM32_USB_OTG_Driver/src/usb_core.c ****   if(pdev->cfg.coreID == USB_OTG_FS_CORE_ID  )
 26565              		.loc 1 1244 0
 26566 0052 7B68     		ldr	r3, [r7, #4]
 26567 0054 DB7A     		ldrb	r3, [r3, #11]	@ zero_extendqisi2
 26568 0056 012B     		cmp	r3, #1
 26569 0058 4DD1     		bne	.L66
1245:../inc/STM32_USB_OTG_Driver/src/usb_core.c ****   {  
1246:../inc/STM32_USB_OTG_Driver/src/usb_core.c ****     
1247:../inc/STM32_USB_OTG_Driver/src/usb_core.c ****     /* Set Full speed phy */
1248:../inc/STM32_USB_OTG_Driver/src/usb_core.c ****     USB_OTG_InitDevSpeed (pdev , USB_OTG_SPEED_PARAM_FULL);
 26570              		.loc 1 1248 0
 26571 005a 7868     		ldr	r0, [r7, #4]
 26572 005c 4FF00301 		mov	r1, #3
 26573 0060 FFF7FEFF 		bl	USB_OTG_InitDevSpeed
1249:../inc/STM32_USB_OTG_Driver/src/usb_core.c ****     
1250:../inc/STM32_USB_OTG_Driver/src/usb_core.c ****     /* set Rx FIFO size */
1251:../inc/STM32_USB_OTG_Driver/src/usb_core.c ****     USB_OTG_WRITE_REG32(&pdev->regs.GREGS->GRXFSIZ, RX_FIFO_FS_SIZE);
 26574              		.loc 1 1251 0
 26575 0064 7B68     		ldr	r3, [r7, #4]
 26576 0066 DB68     		ldr	r3, [r3, #12]
 26577 0068 4FF08002 		mov	r2, #128
 26578 006c 5A62     		str	r2, [r3, #36]
1252:../inc/STM32_USB_OTG_Driver/src/usb_core.c ****     
1253:../inc/STM32_USB_OTG_Driver/src/usb_core.c ****     /* EP0 TX*/
1254:../inc/STM32_USB_OTG_Driver/src/usb_core.c ****     nptxfifosize.b.depth     = TX0_FIFO_FS_SIZE;
 26579              		.loc 1 1254 0
 26580 006e FB69     		ldr	r3, [r7, #28]
 26581 0070 4FF02002 		mov	r2, #32
 26582 0074 62F31F43 		bfi	r3, r2, #16, #16
 26583 0078 FB61     		str	r3, [r7, #28]
1255:../inc/STM32_USB_OTG_Driver/src/usb_core.c ****     nptxfifosize.b.startaddr = RX_FIFO_FS_SIZE;
 26584              		.loc 1 1255 0
 26585 007a FB69     		ldr	r3, [r7, #28]
 26586 007c 4FF08002 		mov	r2, #128
 26587 0080 62F30F03 		bfi	r3, r2, #0, #16
 26588 0084 FB61     		str	r3, [r7, #28]
1256:../inc/STM32_USB_OTG_Driver/src/usb_core.c ****     USB_OTG_WRITE_REG32( &pdev->regs.GREGS->DIEPTXF0_HNPTXFSIZ, nptxfifosize.d32 );
 26589              		.loc 1 1256 0
 26590 0086 7B68     		ldr	r3, [r7, #4]
 26591 0088 DB68     		ldr	r3, [r3, #12]
 26592 008a FA69     		ldr	r2, [r7, #28]
 26593 008c 9A62     		str	r2, [r3, #40]
1257:../inc/STM32_USB_OTG_Driver/src/usb_core.c ****     
1258:../inc/STM32_USB_OTG_Driver/src/usb_core.c ****     
1259:../inc/STM32_USB_OTG_Driver/src/usb_core.c ****     /* EP1 TX*/
1260:../inc/STM32_USB_OTG_Driver/src/usb_core.c ****     txfifosize.b.startaddr = nptxfifosize.b.startaddr + nptxfifosize.b.depth;
 26594              		.loc 1 1260 0
 26595 008e BA8B     		ldrh	r2, [r7, #28]
 26596 0090 FB8B     		ldrh	r3, [r7, #30]
 26597 0092 D318     		adds	r3, r2, r3
 26598 0094 9BB2     		uxth	r3, r3
 26599 0096 3B83     		strh	r3, [r7, #24]	@ unaligned
1261:../inc/STM32_USB_OTG_Driver/src/usb_core.c ****     txfifosize.b.depth = TX1_FIFO_FS_SIZE;
 26600              		.loc 1 1261 0
 26601 0098 BB69     		ldr	r3, [r7, #24]
 26602 009a 4FF08002 		mov	r2, #128
 26603 009e 62F31F43 		bfi	r3, r2, #16, #16
 26604 00a2 BB61     		str	r3, [r7, #24]
1262:../inc/STM32_USB_OTG_Driver/src/usb_core.c ****     USB_OTG_WRITE_REG32( &pdev->regs.GREGS->DIEPTXF[0], txfifosize.d32 );
 26605              		.loc 1 1262 0
 26606 00a4 7B68     		ldr	r3, [r7, #4]
 26607 00a6 DB68     		ldr	r3, [r3, #12]
 26608 00a8 BA69     		ldr	r2, [r7, #24]
 26609 00aa C3F80421 		str	r2, [r3, #260]
1263:../inc/STM32_USB_OTG_Driver/src/usb_core.c ****     
1264:../inc/STM32_USB_OTG_Driver/src/usb_core.c ****     
1265:../inc/STM32_USB_OTG_Driver/src/usb_core.c ****     /* EP2 TX*/
1266:../inc/STM32_USB_OTG_Driver/src/usb_core.c ****     txfifosize.b.startaddr += txfifosize.b.depth;
 26610              		.loc 1 1266 0
 26611 00ae 3A8B     		ldrh	r2, [r7, #24]
 26612 00b0 7B8B     		ldrh	r3, [r7, #26]
 26613 00b2 D318     		adds	r3, r2, r3
 26614 00b4 9BB2     		uxth	r3, r3
 26615 00b6 3B83     		strh	r3, [r7, #24]	@ unaligned
1267:../inc/STM32_USB_OTG_Driver/src/usb_core.c ****     txfifosize.b.depth = TX2_FIFO_FS_SIZE;
 26616              		.loc 1 1267 0
 26617 00b8 BB69     		ldr	r3, [r7, #24]
 26618 00ba 4FF02002 		mov	r2, #32
 26619 00be 62F31F43 		bfi	r3, r2, #16, #16
 26620 00c2 BB61     		str	r3, [r7, #24]
1268:../inc/STM32_USB_OTG_Driver/src/usb_core.c ****     USB_OTG_WRITE_REG32( &pdev->regs.GREGS->DIEPTXF[1], txfifosize.d32 );
 26621              		.loc 1 1268 0
 26622 00c4 7B68     		ldr	r3, [r7, #4]
 26623 00c6 DB68     		ldr	r3, [r3, #12]
 26624 00c8 03F58273 		add	r3, r3, #260
 26625 00cc 03F10403 		add	r3, r3, #4
 26626 00d0 BA69     		ldr	r2, [r7, #24]
 26627 00d2 1A60     		str	r2, [r3, #0]
1269:../inc/STM32_USB_OTG_Driver/src/usb_core.c ****     
1270:../inc/STM32_USB_OTG_Driver/src/usb_core.c ****     
1271:../inc/STM32_USB_OTG_Driver/src/usb_core.c ****     /* EP3 TX*/  
1272:../inc/STM32_USB_OTG_Driver/src/usb_core.c ****     txfifosize.b.startaddr += txfifosize.b.depth;
 26628              		.loc 1 1272 0
 26629 00d4 3A8B     		ldrh	r2, [r7, #24]
 26630 00d6 7B8B     		ldrh	r3, [r7, #26]
 26631 00d8 D318     		adds	r3, r2, r3
 26632 00da 9BB2     		uxth	r3, r3
 26633 00dc 3B83     		strh	r3, [r7, #24]	@ unaligned
1273:../inc/STM32_USB_OTG_Driver/src/usb_core.c ****     txfifosize.b.depth = TX3_FIFO_FS_SIZE;
 26634              		.loc 1 1273 0
 26635 00de BB69     		ldr	r3, [r7, #24]
 26636 00e0 6FF31F43 		bfc	r3, #16, #16
 26637 00e4 BB61     		str	r3, [r7, #24]
1274:../inc/STM32_USB_OTG_Driver/src/usb_core.c ****     USB_OTG_WRITE_REG32( &pdev->regs.GREGS->DIEPTXF[2], txfifosize.d32 );
 26638              		.loc 1 1274 0
 26639 00e6 7B68     		ldr	r3, [r7, #4]
 26640 00e8 DB68     		ldr	r3, [r3, #12]
 26641 00ea 03F58273 		add	r3, r3, #260
 26642 00ee 03F10803 		add	r3, r3, #8
 26643 00f2 BA69     		ldr	r2, [r7, #24]
 26644 00f4 1A60     		str	r2, [r3, #0]
 26645              	.L66:
1275:../inc/STM32_USB_OTG_Driver/src/usb_core.c ****   }
1276:../inc/STM32_USB_OTG_Driver/src/usb_core.c **** #endif
1277:../inc/STM32_USB_OTG_Driver/src/usb_core.c **** #ifdef USB_OTG_HS_CORE
1278:../inc/STM32_USB_OTG_Driver/src/usb_core.c ****   if(pdev->cfg.coreID == USB_OTG_HS_CORE_ID  )
1279:../inc/STM32_USB_OTG_Driver/src/usb_core.c ****   {
1280:../inc/STM32_USB_OTG_Driver/src/usb_core.c ****     
1281:../inc/STM32_USB_OTG_Driver/src/usb_core.c ****     /* Set High speed phy */
1282:../inc/STM32_USB_OTG_Driver/src/usb_core.c ****     
1283:../inc/STM32_USB_OTG_Driver/src/usb_core.c ****     if(pdev->cfg.phy_itface  == USB_OTG_ULPI_PHY)
1284:../inc/STM32_USB_OTG_Driver/src/usb_core.c ****     {
1285:../inc/STM32_USB_OTG_Driver/src/usb_core.c ****        USB_OTG_InitDevSpeed (pdev , USB_OTG_SPEED_PARAM_HIGH);
1286:../inc/STM32_USB_OTG_Driver/src/usb_core.c ****     }
1287:../inc/STM32_USB_OTG_Driver/src/usb_core.c ****     else /* set High speed phy in Full speed mode */
1288:../inc/STM32_USB_OTG_Driver/src/usb_core.c ****     {
1289:../inc/STM32_USB_OTG_Driver/src/usb_core.c ****       USB_OTG_InitDevSpeed (pdev , USB_OTG_SPEED_PARAM_HIGH_IN_FULL);
1290:../inc/STM32_USB_OTG_Driver/src/usb_core.c ****     }
1291:../inc/STM32_USB_OTG_Driver/src/usb_core.c ****     
1292:../inc/STM32_USB_OTG_Driver/src/usb_core.c ****     /* set Rx FIFO size */
1293:../inc/STM32_USB_OTG_Driver/src/usb_core.c ****     USB_OTG_WRITE_REG32(&pdev->regs.GREGS->GRXFSIZ, RX_FIFO_HS_SIZE);
1294:../inc/STM32_USB_OTG_Driver/src/usb_core.c ****     
1295:../inc/STM32_USB_OTG_Driver/src/usb_core.c ****     /* EP0 TX*/
1296:../inc/STM32_USB_OTG_Driver/src/usb_core.c ****     nptxfifosize.b.depth     = TX0_FIFO_HS_SIZE;
1297:../inc/STM32_USB_OTG_Driver/src/usb_core.c ****     nptxfifosize.b.startaddr = RX_FIFO_HS_SIZE;
1298:../inc/STM32_USB_OTG_Driver/src/usb_core.c ****     USB_OTG_WRITE_REG32( &pdev->regs.GREGS->DIEPTXF0_HNPTXFSIZ, nptxfifosize.d32 );
1299:../inc/STM32_USB_OTG_Driver/src/usb_core.c ****     
1300:../inc/STM32_USB_OTG_Driver/src/usb_core.c ****     
1301:../inc/STM32_USB_OTG_Driver/src/usb_core.c ****     /* EP1 TX*/
1302:../inc/STM32_USB_OTG_Driver/src/usb_core.c ****     txfifosize.b.startaddr = nptxfifosize.b.startaddr + nptxfifosize.b.depth;
1303:../inc/STM32_USB_OTG_Driver/src/usb_core.c ****     txfifosize.b.depth = TX1_FIFO_HS_SIZE;
1304:../inc/STM32_USB_OTG_Driver/src/usb_core.c ****     USB_OTG_WRITE_REG32( &pdev->regs.GREGS->DIEPTXF[0], txfifosize.d32 );
1305:../inc/STM32_USB_OTG_Driver/src/usb_core.c ****     
1306:../inc/STM32_USB_OTG_Driver/src/usb_core.c ****     
1307:../inc/STM32_USB_OTG_Driver/src/usb_core.c ****     /* EP2 TX*/
1308:../inc/STM32_USB_OTG_Driver/src/usb_core.c ****     txfifosize.b.startaddr += txfifosize.b.depth;
1309:../inc/STM32_USB_OTG_Driver/src/usb_core.c ****     txfifosize.b.depth = TX2_FIFO_HS_SIZE;
1310:../inc/STM32_USB_OTG_Driver/src/usb_core.c ****     USB_OTG_WRITE_REG32( &pdev->regs.GREGS->DIEPTXF[1], txfifosize.d32 );
1311:../inc/STM32_USB_OTG_Driver/src/usb_core.c ****     
1312:../inc/STM32_USB_OTG_Driver/src/usb_core.c ****     
1313:../inc/STM32_USB_OTG_Driver/src/usb_core.c ****     /* EP3 TX*/  
1314:../inc/STM32_USB_OTG_Driver/src/usb_core.c ****     txfifosize.b.startaddr += txfifosize.b.depth;
1315:../inc/STM32_USB_OTG_Driver/src/usb_core.c ****     txfifosize.b.depth = TX3_FIFO_HS_SIZE;
1316:../inc/STM32_USB_OTG_Driver/src/usb_core.c ****     USB_OTG_WRITE_REG32( &pdev->regs.GREGS->DIEPTXF[2], txfifosize.d32 );
1317:../inc/STM32_USB_OTG_Driver/src/usb_core.c ****     
1318:../inc/STM32_USB_OTG_Driver/src/usb_core.c ****     /* EP4 TX*/
1319:../inc/STM32_USB_OTG_Driver/src/usb_core.c ****     txfifosize.b.startaddr += txfifosize.b.depth;
1320:../inc/STM32_USB_OTG_Driver/src/usb_core.c ****     txfifosize.b.depth = TX4_FIFO_HS_SIZE;
1321:../inc/STM32_USB_OTG_Driver/src/usb_core.c ****     USB_OTG_WRITE_REG32( &pdev->regs.GREGS->DIEPTXF[3], txfifosize.d32 );
1322:../inc/STM32_USB_OTG_Driver/src/usb_core.c ****     
1323:../inc/STM32_USB_OTG_Driver/src/usb_core.c ****     
1324:../inc/STM32_USB_OTG_Driver/src/usb_core.c ****     /* EP5 TX*/  
1325:../inc/STM32_USB_OTG_Driver/src/usb_core.c ****     txfifosize.b.startaddr += txfifosize.b.depth;
1326:../inc/STM32_USB_OTG_Driver/src/usb_core.c ****     txfifosize.b.depth = TX5_FIFO_HS_SIZE;
1327:../inc/STM32_USB_OTG_Driver/src/usb_core.c ****     USB_OTG_WRITE_REG32( &pdev->regs.GREGS->DIEPTXF[4], txfifosize.d32 );
1328:../inc/STM32_USB_OTG_Driver/src/usb_core.c ****   }
1329:../inc/STM32_USB_OTG_Driver/src/usb_core.c **** #endif  
1330:../inc/STM32_USB_OTG_Driver/src/usb_core.c ****   /* Flush the FIFOs */
1331:../inc/STM32_USB_OTG_Driver/src/usb_core.c ****   USB_OTG_FlushTxFifo(pdev , 0x10); /* all Tx FIFOs */
 26646              		.loc 1 1331 0
 26647 00f6 7868     		ldr	r0, [r7, #4]
 26648 00f8 4FF01001 		mov	r1, #16
 26649 00fc FFF7FEFF 		bl	USB_OTG_FlushTxFifo
1332:../inc/STM32_USB_OTG_Driver/src/usb_core.c ****   USB_OTG_FlushRxFifo(pdev);
 26650              		.loc 1 1332 0
 26651 0100 7868     		ldr	r0, [r7, #4]
 26652 0102 FFF7FEFF 		bl	USB_OTG_FlushRxFifo
1333:../inc/STM32_USB_OTG_Driver/src/usb_core.c ****   /* Clear all pending Device Interrupts */
1334:../inc/STM32_USB_OTG_Driver/src/usb_core.c ****   USB_OTG_WRITE_REG32( &pdev->regs.DREGS->DIEPMSK, 0 );
 26653              		.loc 1 1334 0
 26654 0106 7B68     		ldr	r3, [r7, #4]
 26655 0108 1B69     		ldr	r3, [r3, #16]
 26656 010a 4FF00002 		mov	r2, #0
 26657 010e 1A61     		str	r2, [r3, #16]
1335:../inc/STM32_USB_OTG_Driver/src/usb_core.c ****   USB_OTG_WRITE_REG32( &pdev->regs.DREGS->DOEPMSK, 0 );
 26658              		.loc 1 1335 0
 26659 0110 7B68     		ldr	r3, [r7, #4]
 26660 0112 1B69     		ldr	r3, [r3, #16]
 26661 0114 4FF00002 		mov	r2, #0
 26662 0118 5A61     		str	r2, [r3, #20]
1336:../inc/STM32_USB_OTG_Driver/src/usb_core.c ****   USB_OTG_WRITE_REG32( &pdev->regs.DREGS->DAINT, 0xFFFFFFFF );
 26663              		.loc 1 1336 0
 26664 011a 7B68     		ldr	r3, [r7, #4]
 26665 011c 1B69     		ldr	r3, [r3, #16]
 26666 011e 4FF0FF32 		mov	r2, #-1
 26667 0122 9A61     		str	r2, [r3, #24]
1337:../inc/STM32_USB_OTG_Driver/src/usb_core.c ****   USB_OTG_WRITE_REG32( &pdev->regs.DREGS->DAINTMSK, 0 );
 26668              		.loc 1 1337 0
 26669 0124 7B68     		ldr	r3, [r7, #4]
 26670 0126 1B69     		ldr	r3, [r3, #16]
 26671 0128 4FF00002 		mov	r2, #0
 26672 012c DA61     		str	r2, [r3, #28]
1338:../inc/STM32_USB_OTG_Driver/src/usb_core.c ****   
1339:../inc/STM32_USB_OTG_Driver/src/usb_core.c ****   for (i = 0; i < pdev->cfg.dev_endpoints; i++)
 26673              		.loc 1 1339 0
 26674 012e 4FF00003 		mov	r3, #0
 26675 0132 FB62     		str	r3, [r7, #44]
 26676 0134 43E0     		b	.L67
 26677              	.L70:
1340:../inc/STM32_USB_OTG_Driver/src/usb_core.c ****   {
1341:../inc/STM32_USB_OTG_Driver/src/usb_core.c ****     depctl.d32 = USB_OTG_READ_REG32(&pdev->regs.INEP_REGS[i]->DIEPCTL);
 26678              		.loc 1 1341 0
 26679 0136 7A68     		ldr	r2, [r7, #4]
 26680 0138 FB6A     		ldr	r3, [r7, #44]
 26681 013a 03F10403 		add	r3, r3, #4
 26682 013e 4FEA8303 		lsl	r3, r3, #2
 26683 0142 D318     		adds	r3, r2, r3
 26684 0144 9B68     		ldr	r3, [r3, #8]
 26685 0146 1B68     		ldr	r3, [r3, #0]
 26686 0148 7B62     		str	r3, [r7, #36]
1342:../inc/STM32_USB_OTG_Driver/src/usb_core.c ****     if (depctl.b.epena)
 26687              		.loc 1 1342 0
 26688 014a 97F82730 		ldrb	r3, [r7, #39]	@ zero_extendqisi2
 26689 014e 23F07F03 		bic	r3, r3, #127
 26690 0152 DBB2     		uxtb	r3, r3
 26691 0154 002B     		cmp	r3, #0
 26692 0156 0BD0     		beq	.L68
1343:../inc/STM32_USB_OTG_Driver/src/usb_core.c ****     {
1344:../inc/STM32_USB_OTG_Driver/src/usb_core.c ****       depctl.d32 = 0;
 26693              		.loc 1 1344 0
 26694 0158 4FF00003 		mov	r3, #0
 26695 015c 7B62     		str	r3, [r7, #36]
1345:../inc/STM32_USB_OTG_Driver/src/usb_core.c ****       depctl.b.epdis = 1;
 26696              		.loc 1 1345 0
 26697 015e 7B6A     		ldr	r3, [r7, #36]
 26698 0160 43F08043 		orr	r3, r3, #1073741824
 26699 0164 7B62     		str	r3, [r7, #36]
1346:../inc/STM32_USB_OTG_Driver/src/usb_core.c ****       depctl.b.snak = 1;
 26700              		.loc 1 1346 0
 26701 0166 7B6A     		ldr	r3, [r7, #36]
 26702 0168 43F00063 		orr	r3, r3, #134217728
 26703 016c 7B62     		str	r3, [r7, #36]
 26704 016e 02E0     		b	.L69
 26705              	.L68:
1347:../inc/STM32_USB_OTG_Driver/src/usb_core.c ****     }
1348:../inc/STM32_USB_OTG_Driver/src/usb_core.c ****     else
1349:../inc/STM32_USB_OTG_Driver/src/usb_core.c ****     {
1350:../inc/STM32_USB_OTG_Driver/src/usb_core.c ****       depctl.d32 = 0;
 26706              		.loc 1 1350 0
 26707 0170 4FF00003 		mov	r3, #0
 26708 0174 7B62     		str	r3, [r7, #36]
 26709              	.L69:
1351:../inc/STM32_USB_OTG_Driver/src/usb_core.c ****     }
1352:../inc/STM32_USB_OTG_Driver/src/usb_core.c ****     USB_OTG_WRITE_REG32( &pdev->regs.INEP_REGS[i]->DIEPCTL, depctl.d32);
 26710              		.loc 1 1352 0
 26711 0176 7A68     		ldr	r2, [r7, #4]
 26712 0178 FB6A     		ldr	r3, [r7, #44]
 26713 017a 03F10403 		add	r3, r3, #4
 26714 017e 4FEA8303 		lsl	r3, r3, #2
 26715 0182 D318     		adds	r3, r2, r3
 26716 0184 9B68     		ldr	r3, [r3, #8]
 26717 0186 7A6A     		ldr	r2, [r7, #36]
 26718 0188 1A60     		str	r2, [r3, #0]
1353:../inc/STM32_USB_OTG_Driver/src/usb_core.c ****     USB_OTG_WRITE_REG32( &pdev->regs.INEP_REGS[i]->DIEPTSIZ, 0);
 26719              		.loc 1 1353 0
 26720 018a 7A68     		ldr	r2, [r7, #4]
 26721 018c FB6A     		ldr	r3, [r7, #44]
 26722 018e 03F10403 		add	r3, r3, #4
 26723 0192 4FEA8303 		lsl	r3, r3, #2
 26724 0196 D318     		adds	r3, r2, r3
 26725 0198 9B68     		ldr	r3, [r3, #8]
 26726 019a 4FF00002 		mov	r2, #0
 26727 019e 1A61     		str	r2, [r3, #16]
1354:../inc/STM32_USB_OTG_Driver/src/usb_core.c ****     USB_OTG_WRITE_REG32( &pdev->regs.INEP_REGS[i]->DIEPINT, 0xFF);
 26728              		.loc 1 1354 0
 26729 01a0 7A68     		ldr	r2, [r7, #4]
 26730 01a2 FB6A     		ldr	r3, [r7, #44]
 26731 01a4 03F10403 		add	r3, r3, #4
 26732 01a8 4FEA8303 		lsl	r3, r3, #2
 26733 01ac D318     		adds	r3, r2, r3
 26734 01ae 9B68     		ldr	r3, [r3, #8]
 26735 01b0 4FF0FF02 		mov	r2, #255
 26736 01b4 9A60     		str	r2, [r3, #8]
1339:../inc/STM32_USB_OTG_Driver/src/usb_core.c ****   for (i = 0; i < pdev->cfg.dev_endpoints; i++)
 26737              		.loc 1 1339 0
 26738 01b6 FB6A     		ldr	r3, [r7, #44]
 26739 01b8 03F10103 		add	r3, r3, #1
 26740 01bc FB62     		str	r3, [r7, #44]
 26741              	.L67:
1339:../inc/STM32_USB_OTG_Driver/src/usb_core.c ****   for (i = 0; i < pdev->cfg.dev_endpoints; i++)
 26742              		.loc 1 1339 0 is_stmt 0 discriminator 1
 26743 01be 7B68     		ldr	r3, [r7, #4]
 26744 01c0 5B78     		ldrb	r3, [r3, #1]	@ zero_extendqisi2
 26745 01c2 1A46     		mov	r2, r3
 26746 01c4 FB6A     		ldr	r3, [r7, #44]
 26747 01c6 9A42     		cmp	r2, r3
 26748 01c8 B5D8     		bhi	.L70
1355:../inc/STM32_USB_OTG_Driver/src/usb_core.c ****   }
1356:../inc/STM32_USB_OTG_Driver/src/usb_core.c ****   for (i = 0; i <  pdev->cfg.dev_endpoints; i++)
 26749              		.loc 1 1356 0 is_stmt 1
 26750 01ca 4FF00003 		mov	r3, #0
 26751 01ce FB62     		str	r3, [r7, #44]
 26752 01d0 42E0     		b	.L71
 26753              	.L74:
 26754              	.LBB3:
1357:../inc/STM32_USB_OTG_Driver/src/usb_core.c ****   {
1358:../inc/STM32_USB_OTG_Driver/src/usb_core.c ****     USB_OTG_DEPCTL_TypeDef  depctl;
1359:../inc/STM32_USB_OTG_Driver/src/usb_core.c ****     depctl.d32 = USB_OTG_READ_REG32(&pdev->regs.OUTEP_REGS[i]->DOEPCTL);
 26755              		.loc 1 1359 0
 26756 01d2 7A68     		ldr	r2, [r7, #4]
 26757 01d4 FB6A     		ldr	r3, [r7, #44]
 26758 01d6 03F11403 		add	r3, r3, #20
 26759 01da 4FEA8303 		lsl	r3, r3, #2
 26760 01de D318     		adds	r3, r2, r3
 26761 01e0 5B68     		ldr	r3, [r3, #4]
 26762 01e2 1B68     		ldr	r3, [r3, #0]
 26763 01e4 FB60     		str	r3, [r7, #12]
1360:../inc/STM32_USB_OTG_Driver/src/usb_core.c ****     if (depctl.b.epena)
 26764              		.loc 1 1360 0
 26765 01e6 FB7B     		ldrb	r3, [r7, #15]	@ zero_extendqisi2
 26766 01e8 23F07F03 		bic	r3, r3, #127
 26767 01ec DBB2     		uxtb	r3, r3
 26768 01ee 002B     		cmp	r3, #0
 26769 01f0 0BD0     		beq	.L72
1361:../inc/STM32_USB_OTG_Driver/src/usb_core.c ****     {
1362:../inc/STM32_USB_OTG_Driver/src/usb_core.c ****       depctl.d32 = 0;
 26770              		.loc 1 1362 0
 26771 01f2 4FF00003 		mov	r3, #0
 26772 01f6 FB60     		str	r3, [r7, #12]
1363:../inc/STM32_USB_OTG_Driver/src/usb_core.c ****       depctl.b.epdis = 1;
 26773              		.loc 1 1363 0
 26774 01f8 FB68     		ldr	r3, [r7, #12]
 26775 01fa 43F08043 		orr	r3, r3, #1073741824
 26776 01fe FB60     		str	r3, [r7, #12]
1364:../inc/STM32_USB_OTG_Driver/src/usb_core.c ****       depctl.b.snak = 1;
 26777              		.loc 1 1364 0
 26778 0200 FB68     		ldr	r3, [r7, #12]
 26779 0202 43F00063 		orr	r3, r3, #134217728
 26780 0206 FB60     		str	r3, [r7, #12]
 26781 0208 02E0     		b	.L73
 26782              	.L72:
1365:../inc/STM32_USB_OTG_Driver/src/usb_core.c ****     }
1366:../inc/STM32_USB_OTG_Driver/src/usb_core.c ****     else
1367:../inc/STM32_USB_OTG_Driver/src/usb_core.c ****     {
1368:../inc/STM32_USB_OTG_Driver/src/usb_core.c ****       depctl.d32 = 0;
 26783              		.loc 1 1368 0
 26784 020a 4FF00003 		mov	r3, #0
 26785 020e FB60     		str	r3, [r7, #12]
 26786              	.L73:
1369:../inc/STM32_USB_OTG_Driver/src/usb_core.c ****     }
1370:../inc/STM32_USB_OTG_Driver/src/usb_core.c ****     USB_OTG_WRITE_REG32( &pdev->regs.OUTEP_REGS[i]->DOEPCTL, depctl.d32);
 26787              		.loc 1 1370 0
 26788 0210 7A68     		ldr	r2, [r7, #4]
 26789 0212 FB6A     		ldr	r3, [r7, #44]
 26790 0214 03F11403 		add	r3, r3, #20
 26791 0218 4FEA8303 		lsl	r3, r3, #2
 26792 021c D318     		adds	r3, r2, r3
 26793 021e 5B68     		ldr	r3, [r3, #4]
 26794 0220 FA68     		ldr	r2, [r7, #12]
 26795 0222 1A60     		str	r2, [r3, #0]
1371:../inc/STM32_USB_OTG_Driver/src/usb_core.c ****     USB_OTG_WRITE_REG32( &pdev->regs.OUTEP_REGS[i]->DOEPTSIZ, 0);
 26796              		.loc 1 1371 0
 26797 0224 7A68     		ldr	r2, [r7, #4]
 26798 0226 FB6A     		ldr	r3, [r7, #44]
 26799 0228 03F11403 		add	r3, r3, #20
 26800 022c 4FEA8303 		lsl	r3, r3, #2
 26801 0230 D318     		adds	r3, r2, r3
 26802 0232 5B68     		ldr	r3, [r3, #4]
 26803 0234 4FF00002 		mov	r2, #0
 26804 0238 1A61     		str	r2, [r3, #16]
1372:../inc/STM32_USB_OTG_Driver/src/usb_core.c ****     USB_OTG_WRITE_REG32( &pdev->regs.OUTEP_REGS[i]->DOEPINT, 0xFF);
 26805              		.loc 1 1372 0
 26806 023a 7A68     		ldr	r2, [r7, #4]
 26807 023c FB6A     		ldr	r3, [r7, #44]
 26808 023e 03F11403 		add	r3, r3, #20
 26809 0242 4FEA8303 		lsl	r3, r3, #2
 26810 0246 D318     		adds	r3, r2, r3
 26811 0248 5B68     		ldr	r3, [r3, #4]
 26812 024a 4FF0FF02 		mov	r2, #255
 26813 024e 9A60     		str	r2, [r3, #8]
 26814              	.LBE3:
1356:../inc/STM32_USB_OTG_Driver/src/usb_core.c ****   for (i = 0; i <  pdev->cfg.dev_endpoints; i++)
 26815              		.loc 1 1356 0
 26816 0250 FB6A     		ldr	r3, [r7, #44]
 26817 0252 03F10103 		add	r3, r3, #1
 26818 0256 FB62     		str	r3, [r7, #44]
 26819              	.L71:
1356:../inc/STM32_USB_OTG_Driver/src/usb_core.c ****   for (i = 0; i <  pdev->cfg.dev_endpoints; i++)
 26820              		.loc 1 1356 0 is_stmt 0 discriminator 1
 26821 0258 7B68     		ldr	r3, [r7, #4]
 26822 025a 5B78     		ldrb	r3, [r3, #1]	@ zero_extendqisi2
 26823 025c 1A46     		mov	r2, r3
 26824 025e FB6A     		ldr	r3, [r7, #44]
 26825 0260 9A42     		cmp	r2, r3
 26826 0262 B6D8     		bhi	.L74
1373:../inc/STM32_USB_OTG_Driver/src/usb_core.c ****   }
1374:../inc/STM32_USB_OTG_Driver/src/usb_core.c ****   msk.d32 = 0;
 26827              		.loc 1 1374 0 is_stmt 1
 26828 0264 4FF00003 		mov	r3, #0
 26829 0268 7B61     		str	r3, [r7, #20]
1375:../inc/STM32_USB_OTG_Driver/src/usb_core.c ****   msk.b.txfifoundrn = 1;
 26830              		.loc 1 1375 0
 26831 026a 7B69     		ldr	r3, [r7, #20]
 26832 026c 43F48073 		orr	r3, r3, #256
 26833 0270 7B61     		str	r3, [r7, #20]
1376:../inc/STM32_USB_OTG_Driver/src/usb_core.c ****   USB_OTG_MODIFY_REG32(&pdev->regs.DREGS->DIEPMSK, msk.d32, msk.d32);
 26834              		.loc 1 1376 0
 26835 0272 7B68     		ldr	r3, [r7, #4]
 26836 0274 1B69     		ldr	r3, [r3, #16]
 26837 0276 7A68     		ldr	r2, [r7, #4]
 26838 0278 1269     		ldr	r2, [r2, #16]
 26839 027a 1169     		ldr	r1, [r2, #16]
 26840 027c 7A69     		ldr	r2, [r7, #20]
 26841 027e 6FEA0202 		mvn	r2, r2
 26842 0282 1140     		ands	r1, r1, r2
 26843 0284 7A69     		ldr	r2, [r7, #20]
 26844 0286 41EA0202 		orr	r2, r1, r2
 26845 028a 1A61     		str	r2, [r3, #16]
1377:../inc/STM32_USB_OTG_Driver/src/usb_core.c ****   
1378:../inc/STM32_USB_OTG_Driver/src/usb_core.c ****   if (pdev->cfg.dma_enable == 1)
 26846              		.loc 1 1378 0
 26847 028c 7B68     		ldr	r3, [r7, #4]
 26848 028e DB78     		ldrb	r3, [r3, #3]	@ zero_extendqisi2
 26849 0290 012B     		cmp	r3, #1
 26850 0292 1ED1     		bne	.L75
1379:../inc/STM32_USB_OTG_Driver/src/usb_core.c ****   {
1380:../inc/STM32_USB_OTG_Driver/src/usb_core.c ****     dthrctl.d32 = 0;
 26851              		.loc 1 1380 0
 26852 0294 4FF00003 		mov	r3, #0
 26853 0298 3B61     		str	r3, [r7, #16]
1381:../inc/STM32_USB_OTG_Driver/src/usb_core.c ****     dthrctl.b.non_iso_thr_en = 1;
 26854              		.loc 1 1381 0
 26855 029a 3B69     		ldr	r3, [r7, #16]
 26856 029c 43F00103 		orr	r3, r3, #1
 26857 02a0 3B61     		str	r3, [r7, #16]
1382:../inc/STM32_USB_OTG_Driver/src/usb_core.c ****     dthrctl.b.iso_thr_en = 1;
 26858              		.loc 1 1382 0
 26859 02a2 3B69     		ldr	r3, [r7, #16]
 26860 02a4 43F00203 		orr	r3, r3, #2
 26861 02a8 3B61     		str	r3, [r7, #16]
1383:../inc/STM32_USB_OTG_Driver/src/usb_core.c ****     dthrctl.b.tx_thr_len = 64;
 26862              		.loc 1 1383 0
 26863 02aa 3B69     		ldr	r3, [r7, #16]
 26864 02ac 4FF04002 		mov	r2, #64
 26865 02b0 62F38A03 		bfi	r3, r2, #2, #9
 26866 02b4 3B61     		str	r3, [r7, #16]
1384:../inc/STM32_USB_OTG_Driver/src/usb_core.c ****     dthrctl.b.rx_thr_en = 1;
 26867              		.loc 1 1384 0
 26868 02b6 3B69     		ldr	r3, [r7, #16]
 26869 02b8 43F48033 		orr	r3, r3, #65536
 26870 02bc 3B61     		str	r3, [r7, #16]
1385:../inc/STM32_USB_OTG_Driver/src/usb_core.c ****     dthrctl.b.rx_thr_len = 64;
 26871              		.loc 1 1385 0
 26872 02be 3B69     		ldr	r3, [r7, #16]
 26873 02c0 4FF04002 		mov	r2, #64
 26874 02c4 62F35943 		bfi	r3, r2, #17, #9
 26875 02c8 3B61     		str	r3, [r7, #16]
1386:../inc/STM32_USB_OTG_Driver/src/usb_core.c ****     USB_OTG_WRITE_REG32(&pdev->regs.DREGS->DTHRCTL, dthrctl.d32);  
 26876              		.loc 1 1386 0
 26877 02ca 7B68     		ldr	r3, [r7, #4]
 26878 02cc 1B69     		ldr	r3, [r3, #16]
 26879 02ce 3A69     		ldr	r2, [r7, #16]
 26880 02d0 1A63     		str	r2, [r3, #48]
 26881              	.L75:
1387:../inc/STM32_USB_OTG_Driver/src/usb_core.c ****   }
1388:../inc/STM32_USB_OTG_Driver/src/usb_core.c ****   USB_OTG_EnableDevInt(pdev);
 26882              		.loc 1 1388 0
 26883 02d2 7868     		ldr	r0, [r7, #4]
 26884 02d4 FFF7FEFF 		bl	USB_OTG_EnableDevInt
1389:../inc/STM32_USB_OTG_Driver/src/usb_core.c ****   return status;
 26885              		.loc 1 1389 0
 26886 02d8 97F82B30 		ldrb	r3, [r7, #43]	@ zero_extendqisi2
1390:../inc/STM32_USB_OTG_Driver/src/usb_core.c **** }
 26887              		.loc 1 1390 0
 26888 02dc 1846     		mov	r0, r3
 26889 02de 07F13007 		add	r7, r7, #48
 26890 02e2 BD46     		mov	sp, r7
 26891 02e4 80BD     		pop	{r7, pc}
 26892              		.cfi_endproc
 26893              	.LFE127:
 26895 02e6 00BF     		.section	.text.USB_OTG_EnableDevInt,"ax",%progbits
 26896              		.align	2
 26897              		.global	USB_OTG_EnableDevInt
 26898              		.thumb
 26899              		.thumb_func
 26901              	USB_OTG_EnableDevInt:
 26902              	.LFB128:
1391:../inc/STM32_USB_OTG_Driver/src/usb_core.c **** 
1392:../inc/STM32_USB_OTG_Driver/src/usb_core.c **** 
1393:../inc/STM32_USB_OTG_Driver/src/usb_core.c **** /**
1394:../inc/STM32_USB_OTG_Driver/src/usb_core.c **** * @brief  USB_OTG_EnableDevInt : Enables the Device mode interrupts
1395:../inc/STM32_USB_OTG_Driver/src/usb_core.c **** * @param  pdev : Selected device
1396:../inc/STM32_USB_OTG_Driver/src/usb_core.c **** * @retval USB_OTG_STS : status
1397:../inc/STM32_USB_OTG_Driver/src/usb_core.c **** */
1398:../inc/STM32_USB_OTG_Driver/src/usb_core.c **** USB_OTG_STS USB_OTG_EnableDevInt(USB_OTG_CORE_HANDLE *pdev)
1399:../inc/STM32_USB_OTG_Driver/src/usb_core.c **** {
 26903              		.loc 1 1399 0
 26904              		.cfi_startproc
 26905              		@ args = 0, pretend = 0, frame = 16
 26906              		@ frame_needed = 1, uses_anonymous_args = 0
 26907 0000 80B5     		push	{r7, lr}
 26908              	.LCFI54:
 26909              		.cfi_def_cfa_offset 8
 26910 0002 84B0     		sub	sp, sp, #16
 26911              	.LCFI55:
 26912              		.cfi_def_cfa_offset 24
 26913 0004 00AF     		add	r7, sp, #0
 26914              		.cfi_offset 14, -4
 26915              		.cfi_offset 7, -8
 26916              	.LCFI56:
 26917              		.cfi_def_cfa_register 7
 26918 0006 7860     		str	r0, [r7, #4]
1400:../inc/STM32_USB_OTG_Driver/src/usb_core.c ****   USB_OTG_STS status = USB_OTG_OK;
 26919              		.loc 1 1400 0
 26920 0008 4FF00003 		mov	r3, #0
 26921 000c FB73     		strb	r3, [r7, #15]
1401:../inc/STM32_USB_OTG_Driver/src/usb_core.c ****   USB_OTG_GINTMSK_TypeDef  intmsk;
1402:../inc/STM32_USB_OTG_Driver/src/usb_core.c ****   
1403:../inc/STM32_USB_OTG_Driver/src/usb_core.c ****   intmsk.d32 = 0;
 26922              		.loc 1 1403 0
 26923 000e 4FF00003 		mov	r3, #0
 26924 0012 BB60     		str	r3, [r7, #8]
1404:../inc/STM32_USB_OTG_Driver/src/usb_core.c ****   
1405:../inc/STM32_USB_OTG_Driver/src/usb_core.c ****   /* Disable all interrupts. */
1406:../inc/STM32_USB_OTG_Driver/src/usb_core.c ****   USB_OTG_WRITE_REG32( &pdev->regs.GREGS->GINTMSK, 0);
 26925              		.loc 1 1406 0
 26926 0014 7B68     		ldr	r3, [r7, #4]
 26927 0016 DB68     		ldr	r3, [r3, #12]
 26928 0018 4FF00002 		mov	r2, #0
 26929 001c 9A61     		str	r2, [r3, #24]
1407:../inc/STM32_USB_OTG_Driver/src/usb_core.c ****   /* Clear any pending interrupts */
1408:../inc/STM32_USB_OTG_Driver/src/usb_core.c ****   USB_OTG_WRITE_REG32( &pdev->regs.GREGS->GINTSTS, 0xFFFFFFFF);
 26930              		.loc 1 1408 0
 26931 001e 7B68     		ldr	r3, [r7, #4]
 26932 0020 DB68     		ldr	r3, [r3, #12]
 26933 0022 4FF0FF32 		mov	r2, #-1
 26934 0026 5A61     		str	r2, [r3, #20]
1409:../inc/STM32_USB_OTG_Driver/src/usb_core.c ****   /* Enable the common interrupts */
1410:../inc/STM32_USB_OTG_Driver/src/usb_core.c ****   USB_OTG_EnableCommonInt(pdev);
 26935              		.loc 1 1410 0
 26936 0028 7868     		ldr	r0, [r7, #4]
 26937 002a FFF7FEFF 		bl	USB_OTG_EnableCommonInt
1411:../inc/STM32_USB_OTG_Driver/src/usb_core.c ****   
1412:../inc/STM32_USB_OTG_Driver/src/usb_core.c ****   if (pdev->cfg.dma_enable == 0)
 26938              		.loc 1 1412 0
 26939 002e 7B68     		ldr	r3, [r7, #4]
 26940 0030 DB78     		ldrb	r3, [r3, #3]	@ zero_extendqisi2
 26941 0032 002B     		cmp	r3, #0
 26942 0034 03D1     		bne	.L77
1413:../inc/STM32_USB_OTG_Driver/src/usb_core.c ****   {
1414:../inc/STM32_USB_OTG_Driver/src/usb_core.c ****     intmsk.b.rxstsqlvl = 1;
 26943              		.loc 1 1414 0
 26944 0036 BB68     		ldr	r3, [r7, #8]
 26945 0038 43F01003 		orr	r3, r3, #16
 26946 003c BB60     		str	r3, [r7, #8]
 26947              	.L77:
1415:../inc/STM32_USB_OTG_Driver/src/usb_core.c ****   }
1416:../inc/STM32_USB_OTG_Driver/src/usb_core.c ****   
1417:../inc/STM32_USB_OTG_Driver/src/usb_core.c ****   /* Enable interrupts matching to the Device mode ONLY */
1418:../inc/STM32_USB_OTG_Driver/src/usb_core.c ****   intmsk.b.usbsuspend = 1;
 26948              		.loc 1 1418 0
 26949 003e BB68     		ldr	r3, [r7, #8]
 26950 0040 43F40063 		orr	r3, r3, #2048
 26951 0044 BB60     		str	r3, [r7, #8]
1419:../inc/STM32_USB_OTG_Driver/src/usb_core.c ****   intmsk.b.usbreset   = 1;
 26952              		.loc 1 1419 0
 26953 0046 BB68     		ldr	r3, [r7, #8]
 26954 0048 43F48053 		orr	r3, r3, #4096
 26955 004c BB60     		str	r3, [r7, #8]
1420:../inc/STM32_USB_OTG_Driver/src/usb_core.c ****   intmsk.b.enumdone   = 1;
 26956              		.loc 1 1420 0
 26957 004e BB68     		ldr	r3, [r7, #8]
 26958 0050 43F40053 		orr	r3, r3, #8192
 26959 0054 BB60     		str	r3, [r7, #8]
1421:../inc/STM32_USB_OTG_Driver/src/usb_core.c ****   intmsk.b.inepintr   = 1;
 26960              		.loc 1 1421 0
 26961 0056 BB68     		ldr	r3, [r7, #8]
 26962 0058 43F48023 		orr	r3, r3, #262144
 26963 005c BB60     		str	r3, [r7, #8]
1422:../inc/STM32_USB_OTG_Driver/src/usb_core.c ****   intmsk.b.outepintr  = 1;
 26964              		.loc 1 1422 0
 26965 005e BB68     		ldr	r3, [r7, #8]
 26966 0060 43F40023 		orr	r3, r3, #524288
 26967 0064 BB60     		str	r3, [r7, #8]
1423:../inc/STM32_USB_OTG_Driver/src/usb_core.c ****   intmsk.b.sofintr    = 1; 
 26968              		.loc 1 1423 0
 26969 0066 BB68     		ldr	r3, [r7, #8]
 26970 0068 43F00803 		orr	r3, r3, #8
 26971 006c BB60     		str	r3, [r7, #8]
1424:../inc/STM32_USB_OTG_Driver/src/usb_core.c **** 
1425:../inc/STM32_USB_OTG_Driver/src/usb_core.c ****   intmsk.b.incomplisoin    = 1; 
 26972              		.loc 1 1425 0
 26973 006e BB68     		ldr	r3, [r7, #8]
 26974 0070 43F48013 		orr	r3, r3, #1048576
 26975 0074 BB60     		str	r3, [r7, #8]
1426:../inc/STM32_USB_OTG_Driver/src/usb_core.c ****   intmsk.b.incomplisoout    = 1;   
 26976              		.loc 1 1426 0
 26977 0076 BB68     		ldr	r3, [r7, #8]
 26978 0078 43F40013 		orr	r3, r3, #2097152
 26979 007c BB60     		str	r3, [r7, #8]
1427:../inc/STM32_USB_OTG_Driver/src/usb_core.c **** #ifdef VBUS_SENSING_ENABLED
1428:../inc/STM32_USB_OTG_Driver/src/usb_core.c ****   intmsk.b.sessreqintr    = 1; 
1429:../inc/STM32_USB_OTG_Driver/src/usb_core.c ****   intmsk.b.otgintr    = 1;    
1430:../inc/STM32_USB_OTG_Driver/src/usb_core.c **** #endif  
1431:../inc/STM32_USB_OTG_Driver/src/usb_core.c ****   USB_OTG_MODIFY_REG32( &pdev->regs.GREGS->GINTMSK, intmsk.d32, intmsk.d32);
 26980              		.loc 1 1431 0
 26981 007e 7B68     		ldr	r3, [r7, #4]
 26982 0080 DB68     		ldr	r3, [r3, #12]
 26983 0082 7A68     		ldr	r2, [r7, #4]
 26984 0084 D268     		ldr	r2, [r2, #12]
 26985 0086 9169     		ldr	r1, [r2, #24]
 26986 0088 BA68     		ldr	r2, [r7, #8]
 26987 008a 6FEA0202 		mvn	r2, r2
 26988 008e 1140     		ands	r1, r1, r2
 26989 0090 BA68     		ldr	r2, [r7, #8]
 26990 0092 41EA0202 		orr	r2, r1, r2
 26991 0096 9A61     		str	r2, [r3, #24]
1432:../inc/STM32_USB_OTG_Driver/src/usb_core.c ****   return status;
 26992              		.loc 1 1432 0
 26993 0098 FB7B     		ldrb	r3, [r7, #15]	@ zero_extendqisi2
1433:../inc/STM32_USB_OTG_Driver/src/usb_core.c **** }
 26994              		.loc 1 1433 0
 26995 009a 1846     		mov	r0, r3
 26996 009c 07F11007 		add	r7, r7, #16
 26997 00a0 BD46     		mov	sp, r7
 26998 00a2 80BD     		pop	{r7, pc}
 26999              		.cfi_endproc
 27000              	.LFE128:
 27002              		.section	.text.USB_OTG_GetDeviceSpeed,"ax",%progbits
 27003              		.align	2
 27004              		.global	USB_OTG_GetDeviceSpeed
 27005              		.thumb
 27006              		.thumb_func
 27008              	USB_OTG_GetDeviceSpeed:
 27009              	.LFB129:
1434:../inc/STM32_USB_OTG_Driver/src/usb_core.c **** 
1435:../inc/STM32_USB_OTG_Driver/src/usb_core.c **** 
1436:../inc/STM32_USB_OTG_Driver/src/usb_core.c **** /**
1437:../inc/STM32_USB_OTG_Driver/src/usb_core.c **** * @brief  USB_OTG_GetDeviceSpeed
1438:../inc/STM32_USB_OTG_Driver/src/usb_core.c **** *         Get the device speed from the device status register
1439:../inc/STM32_USB_OTG_Driver/src/usb_core.c **** * @param  None
1440:../inc/STM32_USB_OTG_Driver/src/usb_core.c **** * @retval status
1441:../inc/STM32_USB_OTG_Driver/src/usb_core.c **** */
1442:../inc/STM32_USB_OTG_Driver/src/usb_core.c **** enum USB_OTG_SPEED USB_OTG_GetDeviceSpeed (USB_OTG_CORE_HANDLE *pdev)
1443:../inc/STM32_USB_OTG_Driver/src/usb_core.c **** {
 27010              		.loc 1 1443 0
 27011              		.cfi_startproc
 27012              		@ args = 0, pretend = 0, frame = 16
 27013              		@ frame_needed = 1, uses_anonymous_args = 0
 27014              		@ link register save eliminated.
 27015 0000 80B4     		push	{r7}
 27016              	.LCFI57:
 27017              		.cfi_def_cfa_offset 4
 27018 0002 85B0     		sub	sp, sp, #20
 27019              	.LCFI58:
 27020              		.cfi_def_cfa_offset 24
 27021 0004 00AF     		add	r7, sp, #0
 27022              		.cfi_offset 7, -4
 27023              	.LCFI59:
 27024              		.cfi_def_cfa_register 7
 27025 0006 7860     		str	r0, [r7, #4]
1444:../inc/STM32_USB_OTG_Driver/src/usb_core.c ****   USB_OTG_DSTS_TypeDef  dsts;
1445:../inc/STM32_USB_OTG_Driver/src/usb_core.c ****   enum USB_OTG_SPEED speed = USB_SPEED_UNKNOWN;
 27026              		.loc 1 1445 0
 27027 0008 4FF00003 		mov	r3, #0
 27028 000c FB73     		strb	r3, [r7, #15]
1446:../inc/STM32_USB_OTG_Driver/src/usb_core.c ****   
1447:../inc/STM32_USB_OTG_Driver/src/usb_core.c ****   
1448:../inc/STM32_USB_OTG_Driver/src/usb_core.c ****   dsts.d32 = USB_OTG_READ_REG32(&pdev->regs.DREGS->DSTS);
 27029              		.loc 1 1448 0
 27030 000e 7B68     		ldr	r3, [r7, #4]
 27031 0010 1B69     		ldr	r3, [r3, #16]
 27032 0012 9B68     		ldr	r3, [r3, #8]
 27033 0014 BB60     		str	r3, [r7, #8]
1449:../inc/STM32_USB_OTG_Driver/src/usb_core.c ****   
1450:../inc/STM32_USB_OTG_Driver/src/usb_core.c ****   switch (dsts.b.enumspd)
 27034              		.loc 1 1450 0
 27035 0016 BB68     		ldr	r3, [r7, #8]
 27036 0018 C3F34103 		ubfx	r3, r3, #1, #2
 27037 001c DBB2     		uxtb	r3, r3
 27038 001e 022B     		cmp	r3, #2
 27039 0020 0BD0     		beq	.L81
 27040 0022 032B     		cmp	r3, #3
 27041 0024 05D0     		beq	.L80
 27042 0026 012B     		cmp	r3, #1
 27043 0028 03D0     		beq	.L80
1451:../inc/STM32_USB_OTG_Driver/src/usb_core.c ****   {
1452:../inc/STM32_USB_OTG_Driver/src/usb_core.c ****   case DSTS_ENUMSPD_HS_PHY_30MHZ_OR_60MHZ:
1453:../inc/STM32_USB_OTG_Driver/src/usb_core.c ****     speed = USB_SPEED_HIGH;
 27044              		.loc 1 1453 0
 27045 002a 4FF00303 		mov	r3, #3
 27046 002e FB73     		strb	r3, [r7, #15]
1454:../inc/STM32_USB_OTG_Driver/src/usb_core.c ****     break;
 27047              		.loc 1 1454 0
 27048 0030 07E0     		b	.L82
 27049              	.L80:
1455:../inc/STM32_USB_OTG_Driver/src/usb_core.c ****   case DSTS_ENUMSPD_FS_PHY_30MHZ_OR_60MHZ:
1456:../inc/STM32_USB_OTG_Driver/src/usb_core.c ****   case DSTS_ENUMSPD_FS_PHY_48MHZ:
1457:../inc/STM32_USB_OTG_Driver/src/usb_core.c ****     speed = USB_SPEED_FULL;
 27050              		.loc 1 1457 0
 27051 0032 4FF00203 		mov	r3, #2
 27052 0036 FB73     		strb	r3, [r7, #15]
1458:../inc/STM32_USB_OTG_Driver/src/usb_core.c ****     break;
 27053              		.loc 1 1458 0
 27054 0038 03E0     		b	.L82
 27055              	.L81:
1459:../inc/STM32_USB_OTG_Driver/src/usb_core.c ****     
1460:../inc/STM32_USB_OTG_Driver/src/usb_core.c ****   case DSTS_ENUMSPD_LS_PHY_6MHZ:
1461:../inc/STM32_USB_OTG_Driver/src/usb_core.c ****     speed = USB_SPEED_LOW;
 27056              		.loc 1 1461 0
 27057 003a 4FF00103 		mov	r3, #1
 27058 003e FB73     		strb	r3, [r7, #15]
1462:../inc/STM32_USB_OTG_Driver/src/usb_core.c ****     break;
 27059              		.loc 1 1462 0
 27060 0040 00BF     		nop
 27061              	.L82:
1463:../inc/STM32_USB_OTG_Driver/src/usb_core.c ****   }
1464:../inc/STM32_USB_OTG_Driver/src/usb_core.c ****   
1465:../inc/STM32_USB_OTG_Driver/src/usb_core.c ****   return speed;
 27062              		.loc 1 1465 0
 27063 0042 FB7B     		ldrb	r3, [r7, #15]	@ zero_extendqisi2
1466:../inc/STM32_USB_OTG_Driver/src/usb_core.c **** }
 27064              		.loc 1 1466 0
 27065 0044 1846     		mov	r0, r3
 27066 0046 07F11407 		add	r7, r7, #20
 27067 004a BD46     		mov	sp, r7
 27068 004c 80BC     		pop	{r7}
 27069 004e 7047     		bx	lr
 27070              		.cfi_endproc
 27071              	.LFE129:
 27073              		.section	.text.USB_OTG_EP0Activate,"ax",%progbits
 27074              		.align	2
 27075              		.global	USB_OTG_EP0Activate
 27076              		.thumb
 27077              		.thumb_func
 27079              	USB_OTG_EP0Activate:
 27080              	.LFB130:
1467:../inc/STM32_USB_OTG_Driver/src/usb_core.c **** /**
1468:../inc/STM32_USB_OTG_Driver/src/usb_core.c **** * @brief  enables EP0 OUT to receive SETUP packets and configures EP0
1469:../inc/STM32_USB_OTG_Driver/src/usb_core.c **** *   for transmitting packets
1470:../inc/STM32_USB_OTG_Driver/src/usb_core.c **** * @param  None
1471:../inc/STM32_USB_OTG_Driver/src/usb_core.c **** * @retval USB_OTG_STS : status
1472:../inc/STM32_USB_OTG_Driver/src/usb_core.c **** */
1473:../inc/STM32_USB_OTG_Driver/src/usb_core.c **** USB_OTG_STS  USB_OTG_EP0Activate(USB_OTG_CORE_HANDLE *pdev)
1474:../inc/STM32_USB_OTG_Driver/src/usb_core.c **** {
 27081              		.loc 1 1474 0
 27082              		.cfi_startproc
 27083              		@ args = 0, pretend = 0, frame = 24
 27084              		@ frame_needed = 1, uses_anonymous_args = 0
 27085              		@ link register save eliminated.
 27086 0000 80B4     		push	{r7}
 27087              	.LCFI60:
 27088              		.cfi_def_cfa_offset 4
 27089 0002 87B0     		sub	sp, sp, #28
 27090              	.LCFI61:
 27091              		.cfi_def_cfa_offset 32
 27092 0004 00AF     		add	r7, sp, #0
 27093              		.cfi_offset 7, -4
 27094              	.LCFI62:
 27095              		.cfi_def_cfa_register 7
 27096 0006 7860     		str	r0, [r7, #4]
1475:../inc/STM32_USB_OTG_Driver/src/usb_core.c ****   USB_OTG_STS             status = USB_OTG_OK;
 27097              		.loc 1 1475 0
 27098 0008 4FF00003 		mov	r3, #0
 27099 000c FB75     		strb	r3, [r7, #23]
1476:../inc/STM32_USB_OTG_Driver/src/usb_core.c ****   USB_OTG_DSTS_TypeDef    dsts;
1477:../inc/STM32_USB_OTG_Driver/src/usb_core.c ****   USB_OTG_DEPCTL_TypeDef  diepctl;
1478:../inc/STM32_USB_OTG_Driver/src/usb_core.c ****   USB_OTG_DCTL_TypeDef    dctl;
1479:../inc/STM32_USB_OTG_Driver/src/usb_core.c ****   
1480:../inc/STM32_USB_OTG_Driver/src/usb_core.c ****   dctl.d32 = 0;
 27100              		.loc 1 1480 0
 27101 000e 4FF00003 		mov	r3, #0
 27102 0012 BB60     		str	r3, [r7, #8]
1481:../inc/STM32_USB_OTG_Driver/src/usb_core.c ****   /* Read the Device Status and Endpoint 0 Control registers */
1482:../inc/STM32_USB_OTG_Driver/src/usb_core.c ****   dsts.d32 = USB_OTG_READ_REG32(&pdev->regs.DREGS->DSTS);
 27103              		.loc 1 1482 0
 27104 0014 7B68     		ldr	r3, [r7, #4]
 27105 0016 1B69     		ldr	r3, [r3, #16]
 27106 0018 9B68     		ldr	r3, [r3, #8]
 27107 001a 3B61     		str	r3, [r7, #16]
1483:../inc/STM32_USB_OTG_Driver/src/usb_core.c ****   diepctl.d32 = USB_OTG_READ_REG32(&pdev->regs.INEP_REGS[0]->DIEPCTL);
 27108              		.loc 1 1483 0
 27109 001c 7B68     		ldr	r3, [r7, #4]
 27110 001e 9B69     		ldr	r3, [r3, #24]
 27111 0020 1B68     		ldr	r3, [r3, #0]
 27112 0022 FB60     		str	r3, [r7, #12]
1484:../inc/STM32_USB_OTG_Driver/src/usb_core.c ****   /* Set the MPS of the IN EP based on the enumeration speed */
1485:../inc/STM32_USB_OTG_Driver/src/usb_core.c ****   switch (dsts.b.enumspd)
 27113              		.loc 1 1485 0
 27114 0024 3B69     		ldr	r3, [r7, #16]
 27115 0026 C3F34103 		ubfx	r3, r3, #1, #2
 27116 002a DBB2     		uxtb	r3, r3
 27117 002c 022B     		cmp	r3, #2
 27118 002e 04D0     		beq	.L85
1486:../inc/STM32_USB_OTG_Driver/src/usb_core.c ****   {
1487:../inc/STM32_USB_OTG_Driver/src/usb_core.c ****   case DSTS_ENUMSPD_HS_PHY_30MHZ_OR_60MHZ:
1488:../inc/STM32_USB_OTG_Driver/src/usb_core.c ****   case DSTS_ENUMSPD_FS_PHY_30MHZ_OR_60MHZ:
1489:../inc/STM32_USB_OTG_Driver/src/usb_core.c ****   case DSTS_ENUMSPD_FS_PHY_48MHZ:
1490:../inc/STM32_USB_OTG_Driver/src/usb_core.c ****     diepctl.b.mps = DEP0CTL_MPS_64;
 27119              		.loc 1 1490 0
 27120 0030 FB68     		ldr	r3, [r7, #12]
 27121 0032 6FF30A03 		bfc	r3, #0, #11
 27122 0036 FB60     		str	r3, [r7, #12]
1491:../inc/STM32_USB_OTG_Driver/src/usb_core.c ****     break;
 27123              		.loc 1 1491 0
 27124 0038 06E0     		b	.L86
 27125              	.L85:
1492:../inc/STM32_USB_OTG_Driver/src/usb_core.c ****   case DSTS_ENUMSPD_LS_PHY_6MHZ:
1493:../inc/STM32_USB_OTG_Driver/src/usb_core.c ****     diepctl.b.mps = DEP0CTL_MPS_8;
 27126              		.loc 1 1493 0
 27127 003a FB68     		ldr	r3, [r7, #12]
 27128 003c 4FF00302 		mov	r2, #3
 27129 0040 62F30A03 		bfi	r3, r2, #0, #11
 27130 0044 FB60     		str	r3, [r7, #12]
1494:../inc/STM32_USB_OTG_Driver/src/usb_core.c ****     break;
 27131              		.loc 1 1494 0
 27132 0046 00BF     		nop
 27133              	.L86:
1495:../inc/STM32_USB_OTG_Driver/src/usb_core.c ****   }
1496:../inc/STM32_USB_OTG_Driver/src/usb_core.c ****   USB_OTG_WRITE_REG32(&pdev->regs.INEP_REGS[0]->DIEPCTL, diepctl.d32);
 27134              		.loc 1 1496 0
 27135 0048 7B68     		ldr	r3, [r7, #4]
 27136 004a 9B69     		ldr	r3, [r3, #24]
 27137 004c FA68     		ldr	r2, [r7, #12]
 27138 004e 1A60     		str	r2, [r3, #0]
1497:../inc/STM32_USB_OTG_Driver/src/usb_core.c ****   dctl.b.cgnpinnak = 1;
 27139              		.loc 1 1497 0
 27140 0050 BB68     		ldr	r3, [r7, #8]
 27141 0052 43F48073 		orr	r3, r3, #256
 27142 0056 BB60     		str	r3, [r7, #8]
1498:../inc/STM32_USB_OTG_Driver/src/usb_core.c ****   USB_OTG_MODIFY_REG32(&pdev->regs.DREGS->DCTL, dctl.d32, dctl.d32);
 27143              		.loc 1 1498 0
 27144 0058 7B68     		ldr	r3, [r7, #4]
 27145 005a 1B69     		ldr	r3, [r3, #16]
 27146 005c 7A68     		ldr	r2, [r7, #4]
 27147 005e 1269     		ldr	r2, [r2, #16]
 27148 0060 5168     		ldr	r1, [r2, #4]
 27149 0062 BA68     		ldr	r2, [r7, #8]
 27150 0064 6FEA0202 		mvn	r2, r2
 27151 0068 1140     		ands	r1, r1, r2
 27152 006a BA68     		ldr	r2, [r7, #8]
 27153 006c 41EA0202 		orr	r2, r1, r2
 27154 0070 5A60     		str	r2, [r3, #4]
1499:../inc/STM32_USB_OTG_Driver/src/usb_core.c ****   return status;
 27155              		.loc 1 1499 0
 27156 0072 FB7D     		ldrb	r3, [r7, #23]	@ zero_extendqisi2
1500:../inc/STM32_USB_OTG_Driver/src/usb_core.c **** }
 27157              		.loc 1 1500 0
 27158 0074 1846     		mov	r0, r3
 27159 0076 07F11C07 		add	r7, r7, #28
 27160 007a BD46     		mov	sp, r7
 27161 007c 80BC     		pop	{r7}
 27162 007e 7047     		bx	lr
 27163              		.cfi_endproc
 27164              	.LFE130:
 27166              		.section	.text.USB_OTG_EPActivate,"ax",%progbits
 27167              		.align	2
 27168              		.global	USB_OTG_EPActivate
 27169              		.thumb
 27170              		.thumb_func
 27172              	USB_OTG_EPActivate:
 27173              	.LFB131:
1501:../inc/STM32_USB_OTG_Driver/src/usb_core.c **** 
1502:../inc/STM32_USB_OTG_Driver/src/usb_core.c **** 
1503:../inc/STM32_USB_OTG_Driver/src/usb_core.c **** /**
1504:../inc/STM32_USB_OTG_Driver/src/usb_core.c **** * @brief  USB_OTG_EPActivate : Activates an EP
1505:../inc/STM32_USB_OTG_Driver/src/usb_core.c **** * @param  pdev : Selected device
1506:../inc/STM32_USB_OTG_Driver/src/usb_core.c **** * @retval USB_OTG_STS : status
1507:../inc/STM32_USB_OTG_Driver/src/usb_core.c **** */
1508:../inc/STM32_USB_OTG_Driver/src/usb_core.c **** USB_OTG_STS USB_OTG_EPActivate(USB_OTG_CORE_HANDLE *pdev , USB_OTG_EP *ep)
1509:../inc/STM32_USB_OTG_Driver/src/usb_core.c **** {
 27174              		.loc 1 1509 0
 27175              		.cfi_startproc
 27176              		@ args = 0, pretend = 0, frame = 24
 27177              		@ frame_needed = 1, uses_anonymous_args = 0
 27178              		@ link register save eliminated.
 27179 0000 80B4     		push	{r7}
 27180              	.LCFI63:
 27181              		.cfi_def_cfa_offset 4
 27182 0002 87B0     		sub	sp, sp, #28
 27183              	.LCFI64:
 27184              		.cfi_def_cfa_offset 32
 27185 0004 00AF     		add	r7, sp, #0
 27186              		.cfi_offset 7, -4
 27187              	.LCFI65:
 27188              		.cfi_def_cfa_register 7
 27189 0006 7860     		str	r0, [r7, #4]
 27190 0008 3960     		str	r1, [r7, #0]
1510:../inc/STM32_USB_OTG_Driver/src/usb_core.c ****   USB_OTG_STS status = USB_OTG_OK;
 27191              		.loc 1 1510 0
 27192 000a 4FF00003 		mov	r3, #0
 27193 000e FB74     		strb	r3, [r7, #19]
1511:../inc/STM32_USB_OTG_Driver/src/usb_core.c ****   USB_OTG_DEPCTL_TypeDef  depctl;
1512:../inc/STM32_USB_OTG_Driver/src/usb_core.c ****   USB_OTG_DAINT_TypeDef  daintmsk;
1513:../inc/STM32_USB_OTG_Driver/src/usb_core.c ****   __IO uint32_t *addr;
1514:../inc/STM32_USB_OTG_Driver/src/usb_core.c ****   
1515:../inc/STM32_USB_OTG_Driver/src/usb_core.c ****   
1516:../inc/STM32_USB_OTG_Driver/src/usb_core.c ****   depctl.d32 = 0;
 27194              		.loc 1 1516 0
 27195 0010 4FF00003 		mov	r3, #0
 27196 0014 FB60     		str	r3, [r7, #12]
1517:../inc/STM32_USB_OTG_Driver/src/usb_core.c ****   daintmsk.d32 = 0;
 27197              		.loc 1 1517 0
 27198 0016 4FF00003 		mov	r3, #0
 27199 001a BB60     		str	r3, [r7, #8]
1518:../inc/STM32_USB_OTG_Driver/src/usb_core.c ****   /* Read DEPCTLn register */
1519:../inc/STM32_USB_OTG_Driver/src/usb_core.c ****   if (ep->is_in == 1)
 27200              		.loc 1 1519 0
 27201 001c 3B68     		ldr	r3, [r7, #0]
 27202 001e 5B78     		ldrb	r3, [r3, #1]	@ zero_extendqisi2
 27203 0020 012B     		cmp	r3, #1
 27204 0022 12D1     		bne	.L88
1520:../inc/STM32_USB_OTG_Driver/src/usb_core.c ****   {
1521:../inc/STM32_USB_OTG_Driver/src/usb_core.c ****     addr = &pdev->regs.INEP_REGS[ep->num]->DIEPCTL;
 27205              		.loc 1 1521 0
 27206 0024 3B68     		ldr	r3, [r7, #0]
 27207 0026 1B78     		ldrb	r3, [r3, #0]	@ zero_extendqisi2
 27208 0028 7A68     		ldr	r2, [r7, #4]
 27209 002a 03F10403 		add	r3, r3, #4
 27210 002e 4FEA8303 		lsl	r3, r3, #2
 27211 0032 D318     		adds	r3, r2, r3
 27212 0034 9B68     		ldr	r3, [r3, #8]
 27213 0036 7B61     		str	r3, [r7, #20]
1522:../inc/STM32_USB_OTG_Driver/src/usb_core.c ****     daintmsk.ep.in = 1 << ep->num;
 27214              		.loc 1 1522 0
 27215 0038 3B68     		ldr	r3, [r7, #0]
 27216 003a 1B78     		ldrb	r3, [r3, #0]	@ zero_extendqisi2
 27217 003c 4FF00102 		mov	r2, #1
 27218 0040 02FA03F3 		lsl	r3, r2, r3
 27219 0044 9BB2     		uxth	r3, r3
 27220 0046 3B81     		strh	r3, [r7, #8]	@ unaligned
 27221 0048 11E0     		b	.L89
 27222              	.L88:
1523:../inc/STM32_USB_OTG_Driver/src/usb_core.c ****   }
1524:../inc/STM32_USB_OTG_Driver/src/usb_core.c ****   else
1525:../inc/STM32_USB_OTG_Driver/src/usb_core.c ****   {
1526:../inc/STM32_USB_OTG_Driver/src/usb_core.c ****     addr = &pdev->regs.OUTEP_REGS[ep->num]->DOEPCTL;
 27223              		.loc 1 1526 0
 27224 004a 3B68     		ldr	r3, [r7, #0]
 27225 004c 1B78     		ldrb	r3, [r3, #0]	@ zero_extendqisi2
 27226 004e 7A68     		ldr	r2, [r7, #4]
 27227 0050 03F11403 		add	r3, r3, #20
 27228 0054 4FEA8303 		lsl	r3, r3, #2
 27229 0058 D318     		adds	r3, r2, r3
 27230 005a 5B68     		ldr	r3, [r3, #4]
 27231 005c 7B61     		str	r3, [r7, #20]
1527:../inc/STM32_USB_OTG_Driver/src/usb_core.c ****     daintmsk.ep.out = 1 << ep->num;
 27232              		.loc 1 1527 0
 27233 005e 3B68     		ldr	r3, [r7, #0]
 27234 0060 1B78     		ldrb	r3, [r3, #0]	@ zero_extendqisi2
 27235 0062 4FF00102 		mov	r2, #1
 27236 0066 02FA03F3 		lsl	r3, r2, r3
 27237 006a 9BB2     		uxth	r3, r3
 27238 006c 7B81     		strh	r3, [r7, #10]	@ unaligned
 27239              	.L89:
1528:../inc/STM32_USB_OTG_Driver/src/usb_core.c ****   }
1529:../inc/STM32_USB_OTG_Driver/src/usb_core.c ****   /* If the EP is already active don't change the EP Control
1530:../inc/STM32_USB_OTG_Driver/src/usb_core.c ****   * register. */
1531:../inc/STM32_USB_OTG_Driver/src/usb_core.c ****   depctl.d32 = USB_OTG_READ_REG32(addr);
 27240              		.loc 1 1531 0
 27241 006e 7B69     		ldr	r3, [r7, #20]
 27242 0070 1B68     		ldr	r3, [r3, #0]
 27243 0072 FB60     		str	r3, [r7, #12]
1532:../inc/STM32_USB_OTG_Driver/src/usb_core.c ****   if (!depctl.b.usbactep)
 27244              		.loc 1 1532 0
 27245 0074 7B7B     		ldrb	r3, [r7, #13]	@ zero_extendqisi2
 27246 0076 23F07F03 		bic	r3, r3, #127
 27247 007a DBB2     		uxtb	r3, r3
 27248 007c 002B     		cmp	r3, #0
 27249 007e 29D1     		bne	.L90
1533:../inc/STM32_USB_OTG_Driver/src/usb_core.c ****   {
1534:../inc/STM32_USB_OTG_Driver/src/usb_core.c ****     depctl.b.mps    = ep->maxpacket;
 27250              		.loc 1 1534 0
 27251 0080 3B68     		ldr	r3, [r7, #0]
 27252 0082 9B68     		ldr	r3, [r3, #8]
 27253 0084 9BB2     		uxth	r3, r3
 27254 0086 4FEA4353 		lsl	r3, r3, #21
 27255 008a 4FEA5353 		lsr	r3, r3, #21
 27256 008e 9AB2     		uxth	r2, r3
 27257 0090 FB68     		ldr	r3, [r7, #12]
 27258 0092 62F30A03 		bfi	r3, r2, #0, #11
 27259 0096 FB60     		str	r3, [r7, #12]
1535:../inc/STM32_USB_OTG_Driver/src/usb_core.c ****     depctl.b.eptype = ep->type;
 27260              		.loc 1 1535 0
 27261 0098 3B68     		ldr	r3, [r7, #0]
 27262 009a DB78     		ldrb	r3, [r3, #3]	@ zero_extendqisi2
 27263 009c 03F00303 		and	r3, r3, #3
 27264 00a0 DAB2     		uxtb	r2, r3
 27265 00a2 FB68     		ldr	r3, [r7, #12]
 27266 00a4 62F39343 		bfi	r3, r2, #18, #2
 27267 00a8 FB60     		str	r3, [r7, #12]
1536:../inc/STM32_USB_OTG_Driver/src/usb_core.c ****     depctl.b.txfnum = ep->tx_fifo_num;
 27268              		.loc 1 1536 0
 27269 00aa 3B68     		ldr	r3, [r7, #0]
 27270 00ac DB88     		ldrh	r3, [r3, #6]
 27271 00ae DBB2     		uxtb	r3, r3
 27272 00b0 03F00F03 		and	r3, r3, #15
 27273 00b4 DAB2     		uxtb	r2, r3
 27274 00b6 FB68     		ldr	r3, [r7, #12]
 27275 00b8 62F39953 		bfi	r3, r2, #22, #4
 27276 00bc FB60     		str	r3, [r7, #12]
1537:../inc/STM32_USB_OTG_Driver/src/usb_core.c ****     depctl.b.setd0pid = 1;
 27277              		.loc 1 1537 0
 27278 00be FB68     		ldr	r3, [r7, #12]
 27279 00c0 43F08053 		orr	r3, r3, #268435456
 27280 00c4 FB60     		str	r3, [r7, #12]
1538:../inc/STM32_USB_OTG_Driver/src/usb_core.c ****     depctl.b.usbactep = 1;
 27281              		.loc 1 1538 0
 27282 00c6 FB68     		ldr	r3, [r7, #12]
 27283 00c8 43F40043 		orr	r3, r3, #32768
 27284 00cc FB60     		str	r3, [r7, #12]
1539:../inc/STM32_USB_OTG_Driver/src/usb_core.c ****     USB_OTG_WRITE_REG32(addr, depctl.d32);
 27285              		.loc 1 1539 0
 27286 00ce FA68     		ldr	r2, [r7, #12]
 27287 00d0 7B69     		ldr	r3, [r7, #20]
 27288 00d2 1A60     		str	r2, [r3, #0]
 27289              	.L90:
1540:../inc/STM32_USB_OTG_Driver/src/usb_core.c ****   }
1541:../inc/STM32_USB_OTG_Driver/src/usb_core.c ****   /* Enable the Interrupt for this EP */
1542:../inc/STM32_USB_OTG_Driver/src/usb_core.c **** #ifdef USB_OTG_HS_DEDICATED_EP1_ENABLED
1543:../inc/STM32_USB_OTG_Driver/src/usb_core.c ****   if((ep->num == 1)&&(pdev->cfg.coreID == USB_OTG_HS_CORE_ID))
1544:../inc/STM32_USB_OTG_Driver/src/usb_core.c ****   {
1545:../inc/STM32_USB_OTG_Driver/src/usb_core.c ****     USB_OTG_MODIFY_REG32(&pdev->regs.DREGS->DEACHMSK, 0, daintmsk.d32);
1546:../inc/STM32_USB_OTG_Driver/src/usb_core.c ****   }
1547:../inc/STM32_USB_OTG_Driver/src/usb_core.c ****   else
1548:../inc/STM32_USB_OTG_Driver/src/usb_core.c **** #endif   
1549:../inc/STM32_USB_OTG_Driver/src/usb_core.c ****     USB_OTG_MODIFY_REG32(&pdev->regs.DREGS->DAINTMSK, 0, daintmsk.d32);
 27290              		.loc 1 1549 0
 27291 00d4 7B68     		ldr	r3, [r7, #4]
 27292 00d6 1B69     		ldr	r3, [r3, #16]
 27293 00d8 7A68     		ldr	r2, [r7, #4]
 27294 00da 1269     		ldr	r2, [r2, #16]
 27295 00dc D169     		ldr	r1, [r2, #28]
 27296 00de BA68     		ldr	r2, [r7, #8]
 27297 00e0 41EA0202 		orr	r2, r1, r2
 27298 00e4 DA61     		str	r2, [r3, #28]
1550:../inc/STM32_USB_OTG_Driver/src/usb_core.c ****   return status;
 27299              		.loc 1 1550 0
 27300 00e6 FB7C     		ldrb	r3, [r7, #19]	@ zero_extendqisi2
1551:../inc/STM32_USB_OTG_Driver/src/usb_core.c **** }
 27301              		.loc 1 1551 0
 27302 00e8 1846     		mov	r0, r3
 27303 00ea 07F11C07 		add	r7, r7, #28
 27304 00ee BD46     		mov	sp, r7
 27305 00f0 80BC     		pop	{r7}
 27306 00f2 7047     		bx	lr
 27307              		.cfi_endproc
 27308              	.LFE131:
 27310              		.section	.text.USB_OTG_EPDeactivate,"ax",%progbits
 27311              		.align	2
 27312              		.global	USB_OTG_EPDeactivate
 27313              		.thumb
 27314              		.thumb_func
 27316              	USB_OTG_EPDeactivate:
 27317              	.LFB132:
1552:../inc/STM32_USB_OTG_Driver/src/usb_core.c **** 
1553:../inc/STM32_USB_OTG_Driver/src/usb_core.c **** 
1554:../inc/STM32_USB_OTG_Driver/src/usb_core.c **** /**
1555:../inc/STM32_USB_OTG_Driver/src/usb_core.c **** * @brief  USB_OTG_EPDeactivate : Deactivates an EP
1556:../inc/STM32_USB_OTG_Driver/src/usb_core.c **** * @param  pdev : Selected device
1557:../inc/STM32_USB_OTG_Driver/src/usb_core.c **** * @retval USB_OTG_STS : status
1558:../inc/STM32_USB_OTG_Driver/src/usb_core.c **** */
1559:../inc/STM32_USB_OTG_Driver/src/usb_core.c **** USB_OTG_STS USB_OTG_EPDeactivate(USB_OTG_CORE_HANDLE *pdev , USB_OTG_EP *ep)
1560:../inc/STM32_USB_OTG_Driver/src/usb_core.c **** {
 27318              		.loc 1 1560 0
 27319              		.cfi_startproc
 27320              		@ args = 0, pretend = 0, frame = 24
 27321              		@ frame_needed = 1, uses_anonymous_args = 0
 27322              		@ link register save eliminated.
 27323 0000 80B4     		push	{r7}
 27324              	.LCFI66:
 27325              		.cfi_def_cfa_offset 4
 27326 0002 87B0     		sub	sp, sp, #28
 27327              	.LCFI67:
 27328              		.cfi_def_cfa_offset 32
 27329 0004 00AF     		add	r7, sp, #0
 27330              		.cfi_offset 7, -4
 27331              	.LCFI68:
 27332              		.cfi_def_cfa_register 7
 27333 0006 7860     		str	r0, [r7, #4]
 27334 0008 3960     		str	r1, [r7, #0]
1561:../inc/STM32_USB_OTG_Driver/src/usb_core.c ****   USB_OTG_STS status = USB_OTG_OK;
 27335              		.loc 1 1561 0
 27336 000a 4FF00003 		mov	r3, #0
 27337 000e FB74     		strb	r3, [r7, #19]
1562:../inc/STM32_USB_OTG_Driver/src/usb_core.c ****   USB_OTG_DEPCTL_TypeDef  depctl;
1563:../inc/STM32_USB_OTG_Driver/src/usb_core.c ****   USB_OTG_DAINT_TypeDef  daintmsk;
1564:../inc/STM32_USB_OTG_Driver/src/usb_core.c ****   __IO uint32_t *addr;
1565:../inc/STM32_USB_OTG_Driver/src/usb_core.c ****   
1566:../inc/STM32_USB_OTG_Driver/src/usb_core.c ****   depctl.d32 = 0;
 27338              		.loc 1 1566 0
 27339 0010 4FF00003 		mov	r3, #0
 27340 0014 FB60     		str	r3, [r7, #12]
1567:../inc/STM32_USB_OTG_Driver/src/usb_core.c ****   daintmsk.d32 = 0;  
 27341              		.loc 1 1567 0
 27342 0016 4FF00003 		mov	r3, #0
 27343 001a BB60     		str	r3, [r7, #8]
1568:../inc/STM32_USB_OTG_Driver/src/usb_core.c ****   /* Read DEPCTLn register */
1569:../inc/STM32_USB_OTG_Driver/src/usb_core.c ****   if (ep->is_in == 1)
 27344              		.loc 1 1569 0
 27345 001c 3B68     		ldr	r3, [r7, #0]
 27346 001e 5B78     		ldrb	r3, [r3, #1]	@ zero_extendqisi2
 27347 0020 012B     		cmp	r3, #1
 27348 0022 12D1     		bne	.L92
1570:../inc/STM32_USB_OTG_Driver/src/usb_core.c ****   {
1571:../inc/STM32_USB_OTG_Driver/src/usb_core.c ****     addr = &pdev->regs.INEP_REGS[ep->num]->DIEPCTL;
 27349              		.loc 1 1571 0
 27350 0024 3B68     		ldr	r3, [r7, #0]
 27351 0026 1B78     		ldrb	r3, [r3, #0]	@ zero_extendqisi2
 27352 0028 7A68     		ldr	r2, [r7, #4]
 27353 002a 03F10403 		add	r3, r3, #4
 27354 002e 4FEA8303 		lsl	r3, r3, #2
 27355 0032 D318     		adds	r3, r2, r3
 27356 0034 9B68     		ldr	r3, [r3, #8]
 27357 0036 7B61     		str	r3, [r7, #20]
1572:../inc/STM32_USB_OTG_Driver/src/usb_core.c ****     daintmsk.ep.in = 1 << ep->num;
 27358              		.loc 1 1572 0
 27359 0038 3B68     		ldr	r3, [r7, #0]
 27360 003a 1B78     		ldrb	r3, [r3, #0]	@ zero_extendqisi2
 27361 003c 4FF00102 		mov	r2, #1
 27362 0040 02FA03F3 		lsl	r3, r2, r3
 27363 0044 9BB2     		uxth	r3, r3
 27364 0046 3B81     		strh	r3, [r7, #8]	@ unaligned
 27365 0048 11E0     		b	.L93
 27366              	.L92:
1573:../inc/STM32_USB_OTG_Driver/src/usb_core.c ****   }
1574:../inc/STM32_USB_OTG_Driver/src/usb_core.c ****   else
1575:../inc/STM32_USB_OTG_Driver/src/usb_core.c ****   {
1576:../inc/STM32_USB_OTG_Driver/src/usb_core.c ****     addr = &pdev->regs.OUTEP_REGS[ep->num]->DOEPCTL;
 27367              		.loc 1 1576 0
 27368 004a 3B68     		ldr	r3, [r7, #0]
 27369 004c 1B78     		ldrb	r3, [r3, #0]	@ zero_extendqisi2
 27370 004e 7A68     		ldr	r2, [r7, #4]
 27371 0050 03F11403 		add	r3, r3, #20
 27372 0054 4FEA8303 		lsl	r3, r3, #2
 27373 0058 D318     		adds	r3, r2, r3
 27374 005a 5B68     		ldr	r3, [r3, #4]
 27375 005c 7B61     		str	r3, [r7, #20]
1577:../inc/STM32_USB_OTG_Driver/src/usb_core.c ****     daintmsk.ep.out = 1 << ep->num;
 27376              		.loc 1 1577 0
 27377 005e 3B68     		ldr	r3, [r7, #0]
 27378 0060 1B78     		ldrb	r3, [r3, #0]	@ zero_extendqisi2
 27379 0062 4FF00102 		mov	r2, #1
 27380 0066 02FA03F3 		lsl	r3, r2, r3
 27381 006a 9BB2     		uxth	r3, r3
 27382 006c 7B81     		strh	r3, [r7, #10]	@ unaligned
 27383              	.L93:
1578:../inc/STM32_USB_OTG_Driver/src/usb_core.c ****   }
1579:../inc/STM32_USB_OTG_Driver/src/usb_core.c ****   depctl.b.usbactep = 0;
 27384              		.loc 1 1579 0
 27385 006e FB68     		ldr	r3, [r7, #12]
 27386 0070 6FF3CF33 		bfc	r3, #15, #1
 27387 0074 FB60     		str	r3, [r7, #12]
1580:../inc/STM32_USB_OTG_Driver/src/usb_core.c ****   USB_OTG_WRITE_REG32(addr, depctl.d32);
 27388              		.loc 1 1580 0
 27389 0076 FA68     		ldr	r2, [r7, #12]
 27390 0078 7B69     		ldr	r3, [r7, #20]
 27391 007a 1A60     		str	r2, [r3, #0]
1581:../inc/STM32_USB_OTG_Driver/src/usb_core.c ****   /* Disable the Interrupt for this EP */
1582:../inc/STM32_USB_OTG_Driver/src/usb_core.c ****   
1583:../inc/STM32_USB_OTG_Driver/src/usb_core.c **** #ifdef USB_OTG_HS_DEDICATED_EP1_ENABLED
1584:../inc/STM32_USB_OTG_Driver/src/usb_core.c ****   if((ep->num == 1)&&(pdev->cfg.coreID == USB_OTG_HS_CORE_ID))
1585:../inc/STM32_USB_OTG_Driver/src/usb_core.c ****   {
1586:../inc/STM32_USB_OTG_Driver/src/usb_core.c ****     USB_OTG_MODIFY_REG32(&pdev->regs.DREGS->DEACHMSK, daintmsk.d32, 0);
1587:../inc/STM32_USB_OTG_Driver/src/usb_core.c ****   }
1588:../inc/STM32_USB_OTG_Driver/src/usb_core.c ****   else
1589:../inc/STM32_USB_OTG_Driver/src/usb_core.c **** #endif    
1590:../inc/STM32_USB_OTG_Driver/src/usb_core.c ****     USB_OTG_MODIFY_REG32(&pdev->regs.DREGS->DAINTMSK, daintmsk.d32, 0);
 27392              		.loc 1 1590 0
 27393 007c 7B68     		ldr	r3, [r7, #4]
 27394 007e 1B69     		ldr	r3, [r3, #16]
 27395 0080 7A68     		ldr	r2, [r7, #4]
 27396 0082 1269     		ldr	r2, [r2, #16]
 27397 0084 D169     		ldr	r1, [r2, #28]
 27398 0086 BA68     		ldr	r2, [r7, #8]
 27399 0088 6FEA0202 		mvn	r2, r2
 27400 008c 01EA0202 		and	r2, r1, r2
 27401 0090 DA61     		str	r2, [r3, #28]
1591:../inc/STM32_USB_OTG_Driver/src/usb_core.c ****   return status;
 27402              		.loc 1 1591 0
 27403 0092 FB7C     		ldrb	r3, [r7, #19]	@ zero_extendqisi2
1592:../inc/STM32_USB_OTG_Driver/src/usb_core.c **** }
 27404              		.loc 1 1592 0
 27405 0094 1846     		mov	r0, r3
 27406 0096 07F11C07 		add	r7, r7, #28
 27407 009a BD46     		mov	sp, r7
 27408 009c 80BC     		pop	{r7}
 27409 009e 7047     		bx	lr
 27410              		.cfi_endproc
 27411              	.LFE132:
 27413              		.section	.text.USB_OTG_EPStartXfer,"ax",%progbits
 27414              		.align	2
 27415              		.global	USB_OTG_EPStartXfer
 27416              		.thumb
 27417              		.thumb_func
 27419              	USB_OTG_EPStartXfer:
 27420              	.LFB133:
1593:../inc/STM32_USB_OTG_Driver/src/usb_core.c **** 
1594:../inc/STM32_USB_OTG_Driver/src/usb_core.c **** 
1595:../inc/STM32_USB_OTG_Driver/src/usb_core.c **** /**
1596:../inc/STM32_USB_OTG_Driver/src/usb_core.c **** * @brief  USB_OTG_EPStartXfer : Handle the setup for data xfer for an EP and 
1597:../inc/STM32_USB_OTG_Driver/src/usb_core.c **** *         starts the xfer
1598:../inc/STM32_USB_OTG_Driver/src/usb_core.c **** * @param  pdev : Selected device
1599:../inc/STM32_USB_OTG_Driver/src/usb_core.c **** * @retval USB_OTG_STS : status
1600:../inc/STM32_USB_OTG_Driver/src/usb_core.c **** */
1601:../inc/STM32_USB_OTG_Driver/src/usb_core.c **** USB_OTG_STS USB_OTG_EPStartXfer(USB_OTG_CORE_HANDLE *pdev , USB_OTG_EP *ep)
1602:../inc/STM32_USB_OTG_Driver/src/usb_core.c **** {
 27421              		.loc 1 1602 0
 27422              		.cfi_startproc
 27423              		@ args = 0, pretend = 0, frame = 32
 27424              		@ frame_needed = 1, uses_anonymous_args = 0
 27425 0000 80B5     		push	{r7, lr}
 27426              	.LCFI69:
 27427              		.cfi_def_cfa_offset 8
 27428 0002 88B0     		sub	sp, sp, #32
 27429              	.LCFI70:
 27430              		.cfi_def_cfa_offset 40
 27431 0004 00AF     		add	r7, sp, #0
 27432              		.cfi_offset 14, -4
 27433              		.cfi_offset 7, -8
 27434              	.LCFI71:
 27435              		.cfi_def_cfa_register 7
 27436 0006 7860     		str	r0, [r7, #4]
 27437 0008 3960     		str	r1, [r7, #0]
1603:../inc/STM32_USB_OTG_Driver/src/usb_core.c ****   USB_OTG_STS status = USB_OTG_OK;
 27438              		.loc 1 1603 0
 27439 000a 4FF00003 		mov	r3, #0
 27440 000e FB77     		strb	r3, [r7, #31]
1604:../inc/STM32_USB_OTG_Driver/src/usb_core.c ****   USB_OTG_DEPCTL_TypeDef     depctl;
1605:../inc/STM32_USB_OTG_Driver/src/usb_core.c ****   USB_OTG_DEPXFRSIZ_TypeDef  deptsiz;
1606:../inc/STM32_USB_OTG_Driver/src/usb_core.c ****   USB_OTG_DSTS_TypeDef       dsts;    
1607:../inc/STM32_USB_OTG_Driver/src/usb_core.c ****   uint32_t fifoemptymsk = 0;  
 27441              		.loc 1 1607 0
 27442 0010 4FF00003 		mov	r3, #0
 27443 0014 BB61     		str	r3, [r7, #24]
1608:../inc/STM32_USB_OTG_Driver/src/usb_core.c ****   
1609:../inc/STM32_USB_OTG_Driver/src/usb_core.c ****   depctl.d32 = 0;
 27444              		.loc 1 1609 0
 27445 0016 4FF00003 		mov	r3, #0
 27446 001a 7B61     		str	r3, [r7, #20]
1610:../inc/STM32_USB_OTG_Driver/src/usb_core.c ****   deptsiz.d32 = 0;
 27447              		.loc 1 1610 0
 27448 001c 4FF00003 		mov	r3, #0
 27449 0020 3B61     		str	r3, [r7, #16]
1611:../inc/STM32_USB_OTG_Driver/src/usb_core.c ****   /* IN endpoint */
1612:../inc/STM32_USB_OTG_Driver/src/usb_core.c ****   if (ep->is_in == 1)
 27450              		.loc 1 1612 0
 27451 0022 3B68     		ldr	r3, [r7, #0]
 27452 0024 5B78     		ldrb	r3, [r3, #1]	@ zero_extendqisi2
 27453 0026 012B     		cmp	r3, #1
 27454 0028 40F0BE80 		bne	.L95
1613:../inc/STM32_USB_OTG_Driver/src/usb_core.c ****   {
1614:../inc/STM32_USB_OTG_Driver/src/usb_core.c ****     depctl.d32  = USB_OTG_READ_REG32(&(pdev->regs.INEP_REGS[ep->num]->DIEPCTL));
 27455              		.loc 1 1614 0
 27456 002c 3B68     		ldr	r3, [r7, #0]
 27457 002e 1B78     		ldrb	r3, [r3, #0]	@ zero_extendqisi2
 27458 0030 7A68     		ldr	r2, [r7, #4]
 27459 0032 03F10403 		add	r3, r3, #4
 27460 0036 4FEA8303 		lsl	r3, r3, #2
 27461 003a D318     		adds	r3, r2, r3
 27462 003c 9B68     		ldr	r3, [r3, #8]
 27463 003e 1B68     		ldr	r3, [r3, #0]
 27464 0040 7B61     		str	r3, [r7, #20]
1615:../inc/STM32_USB_OTG_Driver/src/usb_core.c ****     deptsiz.d32 = USB_OTG_READ_REG32(&(pdev->regs.INEP_REGS[ep->num]->DIEPTSIZ));
 27465              		.loc 1 1615 0
 27466 0042 3B68     		ldr	r3, [r7, #0]
 27467 0044 1B78     		ldrb	r3, [r3, #0]	@ zero_extendqisi2
 27468 0046 7A68     		ldr	r2, [r7, #4]
 27469 0048 03F10403 		add	r3, r3, #4
 27470 004c 4FEA8303 		lsl	r3, r3, #2
 27471 0050 D318     		adds	r3, r2, r3
 27472 0052 9B68     		ldr	r3, [r3, #8]
 27473 0054 1B69     		ldr	r3, [r3, #16]
 27474 0056 3B61     		str	r3, [r7, #16]
1616:../inc/STM32_USB_OTG_Driver/src/usb_core.c ****     /* Zero Length Packet? */
1617:../inc/STM32_USB_OTG_Driver/src/usb_core.c ****     if (ep->xfer_len == 0)
 27475              		.loc 1 1617 0
 27476 0058 3B68     		ldr	r3, [r7, #0]
 27477 005a 5B69     		ldr	r3, [r3, #20]
 27478 005c 002B     		cmp	r3, #0
 27479 005e 0AD1     		bne	.L96
1618:../inc/STM32_USB_OTG_Driver/src/usb_core.c ****     {
1619:../inc/STM32_USB_OTG_Driver/src/usb_core.c ****       deptsiz.b.xfersize = 0;
 27480              		.loc 1 1619 0
 27481 0060 3B69     		ldr	r3, [r7, #16]
 27482 0062 6FF31203 		bfc	r3, #0, #19
 27483 0066 3B61     		str	r3, [r7, #16]
1620:../inc/STM32_USB_OTG_Driver/src/usb_core.c ****       deptsiz.b.pktcnt = 1;
 27484              		.loc 1 1620 0
 27485 0068 3B69     		ldr	r3, [r7, #16]
 27486 006a 4FF00102 		mov	r2, #1
 27487 006e 62F3DC43 		bfi	r3, r2, #19, #10
 27488 0072 3B61     		str	r3, [r7, #16]
 27489 0074 28E0     		b	.L97
 27490              	.L96:
1621:../inc/STM32_USB_OTG_Driver/src/usb_core.c ****     }
1622:../inc/STM32_USB_OTG_Driver/src/usb_core.c ****     else
1623:../inc/STM32_USB_OTG_Driver/src/usb_core.c ****     {
1624:../inc/STM32_USB_OTG_Driver/src/usb_core.c ****       /* Program the transfer size and packet count
1625:../inc/STM32_USB_OTG_Driver/src/usb_core.c ****       * as follows: xfersize = N * maxpacket +
1626:../inc/STM32_USB_OTG_Driver/src/usb_core.c ****       * short_packet pktcnt = N + (short_packet
1627:../inc/STM32_USB_OTG_Driver/src/usb_core.c ****       * exist ? 1 : 0)
1628:../inc/STM32_USB_OTG_Driver/src/usb_core.c ****       */
1629:../inc/STM32_USB_OTG_Driver/src/usb_core.c ****       deptsiz.b.xfersize = ep->xfer_len;
 27491              		.loc 1 1629 0
 27492 0076 3B68     		ldr	r3, [r7, #0]
 27493 0078 5B69     		ldr	r3, [r3, #20]
 27494 007a 23F07F42 		bic	r2, r3, #-16777216
 27495 007e 22F47802 		bic	r2, r2, #16252928
 27496 0082 3B69     		ldr	r3, [r7, #16]
 27497 0084 62F31203 		bfi	r3, r2, #0, #19
 27498 0088 3B61     		str	r3, [r7, #16]
1630:../inc/STM32_USB_OTG_Driver/src/usb_core.c ****       deptsiz.b.pktcnt = (ep->xfer_len - 1 + ep->maxpacket) / ep->maxpacket;
 27499              		.loc 1 1630 0
 27500 008a 3B68     		ldr	r3, [r7, #0]
 27501 008c 5A69     		ldr	r2, [r3, #20]
 27502 008e 3B68     		ldr	r3, [r7, #0]
 27503 0090 9B68     		ldr	r3, [r3, #8]
 27504 0092 D318     		adds	r3, r2, r3
 27505 0094 03F1FF32 		add	r2, r3, #-1
 27506 0098 3B68     		ldr	r3, [r7, #0]
 27507 009a 9B68     		ldr	r3, [r3, #8]
 27508 009c B2FBF3F3 		udiv	r3, r2, r3
 27509 00a0 9BB2     		uxth	r3, r3
 27510 00a2 4FEA8353 		lsl	r3, r3, #22
 27511 00a6 4FEA9353 		lsr	r3, r3, #22
 27512 00aa 9AB2     		uxth	r2, r3
 27513 00ac 3B69     		ldr	r3, [r7, #16]
 27514 00ae 62F3DC43 		bfi	r3, r2, #19, #10
 27515 00b2 3B61     		str	r3, [r7, #16]
1631:../inc/STM32_USB_OTG_Driver/src/usb_core.c **** 
1632:../inc/STM32_USB_OTG_Driver/src/usb_core.c ****       if (ep->type == EP_TYPE_ISOC)
 27516              		.loc 1 1632 0
 27517 00b4 3B68     		ldr	r3, [r7, #0]
 27518 00b6 DB78     		ldrb	r3, [r3, #3]	@ zero_extendqisi2
 27519 00b8 012B     		cmp	r3, #1
 27520 00ba 05D1     		bne	.L97
1633:../inc/STM32_USB_OTG_Driver/src/usb_core.c ****       {
1634:../inc/STM32_USB_OTG_Driver/src/usb_core.c ****         deptsiz.b.mc = 1;
 27521              		.loc 1 1634 0
 27522 00bc 3B69     		ldr	r3, [r7, #16]
 27523 00be 4FF00102 		mov	r2, #1
 27524 00c2 62F35E73 		bfi	r3, r2, #29, #2
 27525 00c6 3B61     		str	r3, [r7, #16]
 27526              	.L97:
1635:../inc/STM32_USB_OTG_Driver/src/usb_core.c ****       }       
1636:../inc/STM32_USB_OTG_Driver/src/usb_core.c ****     }
1637:../inc/STM32_USB_OTG_Driver/src/usb_core.c ****     USB_OTG_WRITE_REG32(&pdev->regs.INEP_REGS[ep->num]->DIEPTSIZ, deptsiz.d32);
 27527              		.loc 1 1637 0
 27528 00c8 3B68     		ldr	r3, [r7, #0]
 27529 00ca 1B78     		ldrb	r3, [r3, #0]	@ zero_extendqisi2
 27530 00cc 7A68     		ldr	r2, [r7, #4]
 27531 00ce 03F10403 		add	r3, r3, #4
 27532 00d2 4FEA8303 		lsl	r3, r3, #2
 27533 00d6 D318     		adds	r3, r2, r3
 27534 00d8 9B68     		ldr	r3, [r3, #8]
 27535 00da 3A69     		ldr	r2, [r7, #16]
 27536 00dc 1A61     		str	r2, [r3, #16]
1638:../inc/STM32_USB_OTG_Driver/src/usb_core.c ****     
1639:../inc/STM32_USB_OTG_Driver/src/usb_core.c ****     if (pdev->cfg.dma_enable == 1)
 27537              		.loc 1 1639 0
 27538 00de 7B68     		ldr	r3, [r7, #4]
 27539 00e0 DB78     		ldrb	r3, [r3, #3]	@ zero_extendqisi2
 27540 00e2 012B     		cmp	r3, #1
 27541 00e4 0CD1     		bne	.L98
1640:../inc/STM32_USB_OTG_Driver/src/usb_core.c ****     {
1641:../inc/STM32_USB_OTG_Driver/src/usb_core.c ****       USB_OTG_WRITE_REG32(&pdev->regs.INEP_REGS[ep->num]->DIEPDMA, ep->dma_addr);
 27542              		.loc 1 1641 0
 27543 00e6 3B68     		ldr	r3, [r7, #0]
 27544 00e8 1B78     		ldrb	r3, [r3, #0]	@ zero_extendqisi2
 27545 00ea 7A68     		ldr	r2, [r7, #4]
 27546 00ec 03F10403 		add	r3, r3, #4
 27547 00f0 4FEA8303 		lsl	r3, r3, #2
 27548 00f4 D318     		adds	r3, r2, r3
 27549 00f6 9B68     		ldr	r3, [r3, #8]
 27550 00f8 3A68     		ldr	r2, [r7, #0]
 27551 00fa 1269     		ldr	r2, [r2, #16]
 27552 00fc 5A61     		str	r2, [r3, #20]
 27553 00fe 17E0     		b	.L99
 27554              	.L98:
1642:../inc/STM32_USB_OTG_Driver/src/usb_core.c ****     }
1643:../inc/STM32_USB_OTG_Driver/src/usb_core.c ****     else
1644:../inc/STM32_USB_OTG_Driver/src/usb_core.c ****     {
1645:../inc/STM32_USB_OTG_Driver/src/usb_core.c ****       if (ep->type != EP_TYPE_ISOC)
 27555              		.loc 1 1645 0
 27556 0100 3B68     		ldr	r3, [r7, #0]
 27557 0102 DB78     		ldrb	r3, [r3, #3]	@ zero_extendqisi2
 27558 0104 012B     		cmp	r3, #1
 27559 0106 13D0     		beq	.L99
1646:../inc/STM32_USB_OTG_Driver/src/usb_core.c ****       {
1647:../inc/STM32_USB_OTG_Driver/src/usb_core.c ****         /* Enable the Tx FIFO Empty Interrupt for this EP */
1648:../inc/STM32_USB_OTG_Driver/src/usb_core.c ****         if (ep->xfer_len > 0)
 27560              		.loc 1 1648 0
 27561 0108 3B68     		ldr	r3, [r7, #0]
 27562 010a 5B69     		ldr	r3, [r3, #20]
 27563 010c 002B     		cmp	r3, #0
 27564 010e 0FD0     		beq	.L99
1649:../inc/STM32_USB_OTG_Driver/src/usb_core.c ****         {
1650:../inc/STM32_USB_OTG_Driver/src/usb_core.c ****           fifoemptymsk = 1 << ep->num;
 27565              		.loc 1 1650 0
 27566 0110 3B68     		ldr	r3, [r7, #0]
 27567 0112 1B78     		ldrb	r3, [r3, #0]	@ zero_extendqisi2
 27568 0114 4FF00102 		mov	r2, #1
 27569 0118 02FA03F3 		lsl	r3, r2, r3
 27570 011c BB61     		str	r3, [r7, #24]
1651:../inc/STM32_USB_OTG_Driver/src/usb_core.c ****           USB_OTG_MODIFY_REG32(&pdev->regs.DREGS->DIEPEMPMSK, 0, fifoemptymsk);
 27571              		.loc 1 1651 0
 27572 011e 7B68     		ldr	r3, [r7, #4]
 27573 0120 1B69     		ldr	r3, [r3, #16]
 27574 0122 7A68     		ldr	r2, [r7, #4]
 27575 0124 1269     		ldr	r2, [r2, #16]
 27576 0126 516B     		ldr	r1, [r2, #52]
 27577 0128 BA69     		ldr	r2, [r7, #24]
 27578 012a 41EA0202 		orr	r2, r1, r2
 27579 012e 5A63     		str	r2, [r3, #52]
 27580              	.L99:
1652:../inc/STM32_USB_OTG_Driver/src/usb_core.c ****         }
1653:../inc/STM32_USB_OTG_Driver/src/usb_core.c ****       }
1654:../inc/STM32_USB_OTG_Driver/src/usb_core.c ****     }
1655:../inc/STM32_USB_OTG_Driver/src/usb_core.c ****     
1656:../inc/STM32_USB_OTG_Driver/src/usb_core.c ****     
1657:../inc/STM32_USB_OTG_Driver/src/usb_core.c ****     if (ep->type == EP_TYPE_ISOC)
 27581              		.loc 1 1657 0
 27582 0130 3B68     		ldr	r3, [r7, #0]
 27583 0132 DB78     		ldrb	r3, [r3, #3]	@ zero_extendqisi2
 27584 0134 012B     		cmp	r3, #1
 27585 0136 14D1     		bne	.L100
1658:../inc/STM32_USB_OTG_Driver/src/usb_core.c ****     {
1659:../inc/STM32_USB_OTG_Driver/src/usb_core.c ****       dsts.d32 = USB_OTG_READ_REG32(&pdev->regs.DREGS->DSTS);
 27586              		.loc 1 1659 0
 27587 0138 7B68     		ldr	r3, [r7, #4]
 27588 013a 1B69     		ldr	r3, [r3, #16]
 27589 013c 9B68     		ldr	r3, [r3, #8]
 27590 013e FB60     		str	r3, [r7, #12]
1660:../inc/STM32_USB_OTG_Driver/src/usb_core.c ****       
1661:../inc/STM32_USB_OTG_Driver/src/usb_core.c ****       if (((dsts.b.soffn)&0x1) == 0)
 27591              		.loc 1 1661 0
 27592 0140 FB68     		ldr	r3, [r7, #12]
 27593 0142 C3F30D23 		ubfx	r3, r3, #8, #14
 27594 0146 9BB2     		uxth	r3, r3
 27595 0148 03F00103 		and	r3, r3, #1
 27596 014c 002B     		cmp	r3, #0
 27597 014e 04D1     		bne	.L101
1662:../inc/STM32_USB_OTG_Driver/src/usb_core.c ****       {
1663:../inc/STM32_USB_OTG_Driver/src/usb_core.c ****         depctl.b.setd1pid = 1;
 27598              		.loc 1 1663 0
 27599 0150 7B69     		ldr	r3, [r7, #20]
 27600 0152 43F00053 		orr	r3, r3, #536870912
 27601 0156 7B61     		str	r3, [r7, #20]
 27602 0158 03E0     		b	.L100
 27603              	.L101:
1664:../inc/STM32_USB_OTG_Driver/src/usb_core.c ****       }
1665:../inc/STM32_USB_OTG_Driver/src/usb_core.c ****       else
1666:../inc/STM32_USB_OTG_Driver/src/usb_core.c ****       {
1667:../inc/STM32_USB_OTG_Driver/src/usb_core.c ****         depctl.b.setd0pid = 1;
 27604              		.loc 1 1667 0
 27605 015a 7B69     		ldr	r3, [r7, #20]
 27606 015c 43F08053 		orr	r3, r3, #268435456
 27607 0160 7B61     		str	r3, [r7, #20]
 27608              	.L100:
1668:../inc/STM32_USB_OTG_Driver/src/usb_core.c ****       }
1669:../inc/STM32_USB_OTG_Driver/src/usb_core.c ****     } 
1670:../inc/STM32_USB_OTG_Driver/src/usb_core.c ****     
1671:../inc/STM32_USB_OTG_Driver/src/usb_core.c ****     /* EP enable, IN data in FIFO */
1672:../inc/STM32_USB_OTG_Driver/src/usb_core.c ****     depctl.b.cnak = 1;
 27609              		.loc 1 1672 0
 27610 0162 7B69     		ldr	r3, [r7, #20]
 27611 0164 43F08063 		orr	r3, r3, #67108864
 27612 0168 7B61     		str	r3, [r7, #20]
1673:../inc/STM32_USB_OTG_Driver/src/usb_core.c ****     depctl.b.epena = 1;
 27613              		.loc 1 1673 0
 27614 016a 7B69     		ldr	r3, [r7, #20]
 27615 016c 43F00043 		orr	r3, r3, #-2147483648
 27616 0170 7B61     		str	r3, [r7, #20]
1674:../inc/STM32_USB_OTG_Driver/src/usb_core.c ****     USB_OTG_WRITE_REG32(&pdev->regs.INEP_REGS[ep->num]->DIEPCTL, depctl.d32);
 27617              		.loc 1 1674 0
 27618 0172 3B68     		ldr	r3, [r7, #0]
 27619 0174 1B78     		ldrb	r3, [r3, #0]	@ zero_extendqisi2
 27620 0176 7A68     		ldr	r2, [r7, #4]
 27621 0178 03F10403 		add	r3, r3, #4
 27622 017c 4FEA8303 		lsl	r3, r3, #2
 27623 0180 D318     		adds	r3, r2, r3
 27624 0182 9B68     		ldr	r3, [r3, #8]
 27625 0184 7A69     		ldr	r2, [r7, #20]
 27626 0186 1A60     		str	r2, [r3, #0]
1675:../inc/STM32_USB_OTG_Driver/src/usb_core.c **** 
1676:../inc/STM32_USB_OTG_Driver/src/usb_core.c ****     if (ep->type == EP_TYPE_ISOC)
 27627              		.loc 1 1676 0
 27628 0188 3B68     		ldr	r3, [r7, #0]
 27629 018a DB78     		ldrb	r3, [r3, #3]	@ zero_extendqisi2
 27630 018c 012B     		cmp	r3, #1
 27631 018e 40F09A80 		bne	.L102
1677:../inc/STM32_USB_OTG_Driver/src/usb_core.c ****     {
1678:../inc/STM32_USB_OTG_Driver/src/usb_core.c ****       USB_OTG_WritePacket(pdev, ep->xfer_buff, ep->num, ep->xfer_len);   
 27632              		.loc 1 1678 0
 27633 0192 3B68     		ldr	r3, [r7, #0]
 27634 0194 D968     		ldr	r1, [r3, #12]
 27635 0196 3B68     		ldr	r3, [r7, #0]
 27636 0198 1A78     		ldrb	r2, [r3, #0]	@ zero_extendqisi2
 27637 019a 3B68     		ldr	r3, [r7, #0]
 27638 019c 5B69     		ldr	r3, [r3, #20]
 27639 019e 9BB2     		uxth	r3, r3
 27640 01a0 7868     		ldr	r0, [r7, #4]
 27641 01a2 FFF7FEFF 		bl	USB_OTG_WritePacket
 27642 01a6 8EE0     		b	.L102
 27643              	.L95:
1679:../inc/STM32_USB_OTG_Driver/src/usb_core.c ****     }    
1680:../inc/STM32_USB_OTG_Driver/src/usb_core.c ****   }
1681:../inc/STM32_USB_OTG_Driver/src/usb_core.c ****   else
1682:../inc/STM32_USB_OTG_Driver/src/usb_core.c ****   {
1683:../inc/STM32_USB_OTG_Driver/src/usb_core.c ****     /* OUT endpoint */
1684:../inc/STM32_USB_OTG_Driver/src/usb_core.c ****     depctl.d32  = USB_OTG_READ_REG32(&(pdev->regs.OUTEP_REGS[ep->num]->DOEPCTL));
 27644              		.loc 1 1684 0
 27645 01a8 3B68     		ldr	r3, [r7, #0]
 27646 01aa 1B78     		ldrb	r3, [r3, #0]	@ zero_extendqisi2
 27647 01ac 7A68     		ldr	r2, [r7, #4]
 27648 01ae 03F11403 		add	r3, r3, #20
 27649 01b2 4FEA8303 		lsl	r3, r3, #2
 27650 01b6 D318     		adds	r3, r2, r3
 27651 01b8 5B68     		ldr	r3, [r3, #4]
 27652 01ba 1B68     		ldr	r3, [r3, #0]
 27653 01bc 7B61     		str	r3, [r7, #20]
1685:../inc/STM32_USB_OTG_Driver/src/usb_core.c ****     deptsiz.d32 = USB_OTG_READ_REG32(&(pdev->regs.OUTEP_REGS[ep->num]->DOEPTSIZ));
 27654              		.loc 1 1685 0
 27655 01be 3B68     		ldr	r3, [r7, #0]
 27656 01c0 1B78     		ldrb	r3, [r3, #0]	@ zero_extendqisi2
 27657 01c2 7A68     		ldr	r2, [r7, #4]
 27658 01c4 03F11403 		add	r3, r3, #20
 27659 01c8 4FEA8303 		lsl	r3, r3, #2
 27660 01cc D318     		adds	r3, r2, r3
 27661 01ce 5B68     		ldr	r3, [r3, #4]
 27662 01d0 1B69     		ldr	r3, [r3, #16]
 27663 01d2 3B61     		str	r3, [r7, #16]
1686:../inc/STM32_USB_OTG_Driver/src/usb_core.c ****     /* Program the transfer size and packet count as follows:
1687:../inc/STM32_USB_OTG_Driver/src/usb_core.c ****     * pktcnt = N
1688:../inc/STM32_USB_OTG_Driver/src/usb_core.c ****     * xfersize = N * maxpacket
1689:../inc/STM32_USB_OTG_Driver/src/usb_core.c ****     */
1690:../inc/STM32_USB_OTG_Driver/src/usb_core.c ****     if (ep->xfer_len == 0)
 27664              		.loc 1 1690 0
 27665 01d4 3B68     		ldr	r3, [r7, #0]
 27666 01d6 5B69     		ldr	r3, [r3, #20]
 27667 01d8 002B     		cmp	r3, #0
 27668 01da 10D1     		bne	.L103
1691:../inc/STM32_USB_OTG_Driver/src/usb_core.c ****     {
1692:../inc/STM32_USB_OTG_Driver/src/usb_core.c ****       deptsiz.b.xfersize = ep->maxpacket;
 27669              		.loc 1 1692 0
 27670 01dc 3B68     		ldr	r3, [r7, #0]
 27671 01de 9B68     		ldr	r3, [r3, #8]
 27672 01e0 23F07F42 		bic	r2, r3, #-16777216
 27673 01e4 22F47802 		bic	r2, r2, #16252928
 27674 01e8 3B69     		ldr	r3, [r7, #16]
 27675 01ea 62F31203 		bfi	r3, r2, #0, #19
 27676 01ee 3B61     		str	r3, [r7, #16]
1693:../inc/STM32_USB_OTG_Driver/src/usb_core.c ****       deptsiz.b.pktcnt = 1;
 27677              		.loc 1 1693 0
 27678 01f0 3B69     		ldr	r3, [r7, #16]
 27679 01f2 4FF00102 		mov	r2, #1
 27680 01f6 62F3DC43 		bfi	r3, r2, #19, #10
 27681 01fa 3B61     		str	r3, [r7, #16]
 27682 01fc 24E0     		b	.L104
 27683              	.L103:
1694:../inc/STM32_USB_OTG_Driver/src/usb_core.c ****     }
1695:../inc/STM32_USB_OTG_Driver/src/usb_core.c ****     else
1696:../inc/STM32_USB_OTG_Driver/src/usb_core.c ****     {
1697:../inc/STM32_USB_OTG_Driver/src/usb_core.c ****       deptsiz.b.pktcnt = (ep->xfer_len + (ep->maxpacket - 1)) / ep->maxpacket;
 27684              		.loc 1 1697 0
 27685 01fe 3B68     		ldr	r3, [r7, #0]
 27686 0200 5A69     		ldr	r2, [r3, #20]
 27687 0202 3B68     		ldr	r3, [r7, #0]
 27688 0204 9B68     		ldr	r3, [r3, #8]
 27689 0206 D318     		adds	r3, r2, r3
 27690 0208 03F1FF32 		add	r2, r3, #-1
 27691 020c 3B68     		ldr	r3, [r7, #0]
 27692 020e 9B68     		ldr	r3, [r3, #8]
 27693 0210 B2FBF3F3 		udiv	r3, r2, r3
 27694 0214 9BB2     		uxth	r3, r3
 27695 0216 4FEA8353 		lsl	r3, r3, #22
 27696 021a 4FEA9353 		lsr	r3, r3, #22
 27697 021e 9AB2     		uxth	r2, r3
 27698 0220 3B69     		ldr	r3, [r7, #16]
 27699 0222 62F3DC43 		bfi	r3, r2, #19, #10
 27700 0226 3B61     		str	r3, [r7, #16]
1698:../inc/STM32_USB_OTG_Driver/src/usb_core.c ****       deptsiz.b.xfersize = deptsiz.b.pktcnt * ep->maxpacket;
 27701              		.loc 1 1698 0
 27702 0228 3B69     		ldr	r3, [r7, #16]
 27703 022a C3F3C943 		ubfx	r3, r3, #19, #10
 27704 022e 9BB2     		uxth	r3, r3
 27705 0230 3A68     		ldr	r2, [r7, #0]
 27706 0232 9268     		ldr	r2, [r2, #8]
 27707 0234 02FB03F3 		mul	r3, r2, r3
 27708 0238 23F07F42 		bic	r2, r3, #-16777216
 27709 023c 22F47802 		bic	r2, r2, #16252928
 27710 0240 3B69     		ldr	r3, [r7, #16]
 27711 0242 62F31203 		bfi	r3, r2, #0, #19
 27712 0246 3B61     		str	r3, [r7, #16]
 27713              	.L104:
1699:../inc/STM32_USB_OTG_Driver/src/usb_core.c ****     }
1700:../inc/STM32_USB_OTG_Driver/src/usb_core.c ****     USB_OTG_WRITE_REG32(&pdev->regs.OUTEP_REGS[ep->num]->DOEPTSIZ, deptsiz.d32);
 27714              		.loc 1 1700 0
 27715 0248 3B68     		ldr	r3, [r7, #0]
 27716 024a 1B78     		ldrb	r3, [r3, #0]	@ zero_extendqisi2
 27717 024c 7A68     		ldr	r2, [r7, #4]
 27718 024e 03F11403 		add	r3, r3, #20
 27719 0252 4FEA8303 		lsl	r3, r3, #2
 27720 0256 D318     		adds	r3, r2, r3
 27721 0258 5B68     		ldr	r3, [r3, #4]
 27722 025a 3A69     		ldr	r2, [r7, #16]
 27723 025c 1A61     		str	r2, [r3, #16]
1701:../inc/STM32_USB_OTG_Driver/src/usb_core.c ****     
1702:../inc/STM32_USB_OTG_Driver/src/usb_core.c ****     if (pdev->cfg.dma_enable == 1)
 27724              		.loc 1 1702 0
 27725 025e 7B68     		ldr	r3, [r7, #4]
 27726 0260 DB78     		ldrb	r3, [r3, #3]	@ zero_extendqisi2
 27727 0262 012B     		cmp	r3, #1
 27728 0264 0BD1     		bne	.L105
1703:../inc/STM32_USB_OTG_Driver/src/usb_core.c ****     {
1704:../inc/STM32_USB_OTG_Driver/src/usb_core.c ****       USB_OTG_WRITE_REG32(&pdev->regs.OUTEP_REGS[ep->num]->DOEPDMA, ep->dma_addr);
 27729              		.loc 1 1704 0
 27730 0266 3B68     		ldr	r3, [r7, #0]
 27731 0268 1B78     		ldrb	r3, [r3, #0]	@ zero_extendqisi2
 27732 026a 7A68     		ldr	r2, [r7, #4]
 27733 026c 03F11403 		add	r3, r3, #20
 27734 0270 4FEA8303 		lsl	r3, r3, #2
 27735 0274 D318     		adds	r3, r2, r3
 27736 0276 5B68     		ldr	r3, [r3, #4]
 27737 0278 3A68     		ldr	r2, [r7, #0]
 27738 027a 1269     		ldr	r2, [r2, #16]
 27739 027c 5A61     		str	r2, [r3, #20]
 27740              	.L105:
1705:../inc/STM32_USB_OTG_Driver/src/usb_core.c ****     }
1706:../inc/STM32_USB_OTG_Driver/src/usb_core.c ****     
1707:../inc/STM32_USB_OTG_Driver/src/usb_core.c ****     if (ep->type == EP_TYPE_ISOC)
 27741              		.loc 1 1707 0
 27742 027e 3B68     		ldr	r3, [r7, #0]
 27743 0280 DB78     		ldrb	r3, [r3, #3]	@ zero_extendqisi2
 27744 0282 012B     		cmp	r3, #1
 27745 0284 0CD1     		bne	.L106
1708:../inc/STM32_USB_OTG_Driver/src/usb_core.c ****     {
1709:../inc/STM32_USB_OTG_Driver/src/usb_core.c ****       if (ep->even_odd_frame)
 27746              		.loc 1 1709 0
 27747 0286 3B68     		ldr	r3, [r7, #0]
 27748 0288 5B79     		ldrb	r3, [r3, #5]	@ zero_extendqisi2
 27749 028a 002B     		cmp	r3, #0
 27750 028c 04D0     		beq	.L107
1710:../inc/STM32_USB_OTG_Driver/src/usb_core.c ****       {
1711:../inc/STM32_USB_OTG_Driver/src/usb_core.c ****         depctl.b.setd1pid = 1;
 27751              		.loc 1 1711 0
 27752 028e 7B69     		ldr	r3, [r7, #20]
 27753 0290 43F00053 		orr	r3, r3, #536870912
 27754 0294 7B61     		str	r3, [r7, #20]
 27755 0296 03E0     		b	.L106
 27756              	.L107:
1712:../inc/STM32_USB_OTG_Driver/src/usb_core.c ****       }
1713:../inc/STM32_USB_OTG_Driver/src/usb_core.c ****       else
1714:../inc/STM32_USB_OTG_Driver/src/usb_core.c ****       {
1715:../inc/STM32_USB_OTG_Driver/src/usb_core.c ****         depctl.b.setd0pid = 1;
 27757              		.loc 1 1715 0
 27758 0298 7B69     		ldr	r3, [r7, #20]
 27759 029a 43F08053 		orr	r3, r3, #268435456
 27760 029e 7B61     		str	r3, [r7, #20]
 27761              	.L106:
1716:../inc/STM32_USB_OTG_Driver/src/usb_core.c ****       }
1717:../inc/STM32_USB_OTG_Driver/src/usb_core.c ****     }
1718:../inc/STM32_USB_OTG_Driver/src/usb_core.c ****     /* EP enable */
1719:../inc/STM32_USB_OTG_Driver/src/usb_core.c ****     depctl.b.cnak = 1;
 27762              		.loc 1 1719 0
 27763 02a0 7B69     		ldr	r3, [r7, #20]
 27764 02a2 43F08063 		orr	r3, r3, #67108864
 27765 02a6 7B61     		str	r3, [r7, #20]
1720:../inc/STM32_USB_OTG_Driver/src/usb_core.c ****     depctl.b.epena = 1;
 27766              		.loc 1 1720 0
 27767 02a8 7B69     		ldr	r3, [r7, #20]
 27768 02aa 43F00043 		orr	r3, r3, #-2147483648
 27769 02ae 7B61     		str	r3, [r7, #20]
1721:../inc/STM32_USB_OTG_Driver/src/usb_core.c ****     USB_OTG_WRITE_REG32(&pdev->regs.OUTEP_REGS[ep->num]->DOEPCTL, depctl.d32);
 27770              		.loc 1 1721 0
 27771 02b0 3B68     		ldr	r3, [r7, #0]
 27772 02b2 1B78     		ldrb	r3, [r3, #0]	@ zero_extendqisi2
 27773 02b4 7A68     		ldr	r2, [r7, #4]
 27774 02b6 03F11403 		add	r3, r3, #20
 27775 02ba 4FEA8303 		lsl	r3, r3, #2
 27776 02be D318     		adds	r3, r2, r3
 27777 02c0 5B68     		ldr	r3, [r3, #4]
 27778 02c2 7A69     		ldr	r2, [r7, #20]
 27779 02c4 1A60     		str	r2, [r3, #0]
 27780              	.L102:
1722:../inc/STM32_USB_OTG_Driver/src/usb_core.c ****   }
1723:../inc/STM32_USB_OTG_Driver/src/usb_core.c ****   return status;
 27781              		.loc 1 1723 0
 27782 02c6 FB7F     		ldrb	r3, [r7, #31]	@ zero_extendqisi2
1724:../inc/STM32_USB_OTG_Driver/src/usb_core.c **** }
 27783              		.loc 1 1724 0
 27784 02c8 1846     		mov	r0, r3
 27785 02ca 07F12007 		add	r7, r7, #32
 27786 02ce BD46     		mov	sp, r7
 27787 02d0 80BD     		pop	{r7, pc}
 27788              		.cfi_endproc
 27789              	.LFE133:
 27791 02d2 00BF     		.section	.text.USB_OTG_EP0StartXfer,"ax",%progbits
 27792              		.align	2
 27793              		.global	USB_OTG_EP0StartXfer
 27794              		.thumb
 27795              		.thumb_func
 27797              	USB_OTG_EP0StartXfer:
 27798              	.LFB134:
1725:../inc/STM32_USB_OTG_Driver/src/usb_core.c **** 
1726:../inc/STM32_USB_OTG_Driver/src/usb_core.c **** 
1727:../inc/STM32_USB_OTG_Driver/src/usb_core.c **** /**
1728:../inc/STM32_USB_OTG_Driver/src/usb_core.c **** * @brief  USB_OTG_EP0StartXfer : Handle the setup for a data xfer for EP0 and 
1729:../inc/STM32_USB_OTG_Driver/src/usb_core.c **** *         starts the xfer
1730:../inc/STM32_USB_OTG_Driver/src/usb_core.c **** * @param  pdev : Selected device
1731:../inc/STM32_USB_OTG_Driver/src/usb_core.c **** * @retval USB_OTG_STS : status
1732:../inc/STM32_USB_OTG_Driver/src/usb_core.c **** */
1733:../inc/STM32_USB_OTG_Driver/src/usb_core.c **** USB_OTG_STS USB_OTG_EP0StartXfer(USB_OTG_CORE_HANDLE *pdev , USB_OTG_EP *ep)
1734:../inc/STM32_USB_OTG_Driver/src/usb_core.c **** {
 27799              		.loc 1 1734 0
 27800              		.cfi_startproc
 27801              		@ args = 0, pretend = 0, frame = 32
 27802              		@ frame_needed = 1, uses_anonymous_args = 0
 27803              		@ link register save eliminated.
 27804 0000 80B4     		push	{r7}
 27805              	.LCFI72:
 27806              		.cfi_def_cfa_offset 4
 27807 0002 89B0     		sub	sp, sp, #36
 27808              	.LCFI73:
 27809              		.cfi_def_cfa_offset 40
 27810 0004 00AF     		add	r7, sp, #0
 27811              		.cfi_offset 7, -4
 27812              	.LCFI74:
 27813              		.cfi_def_cfa_register 7
 27814 0006 7860     		str	r0, [r7, #4]
 27815 0008 3960     		str	r1, [r7, #0]
1735:../inc/STM32_USB_OTG_Driver/src/usb_core.c ****   USB_OTG_STS                 status = USB_OTG_OK;
 27816              		.loc 1 1735 0
