   1              		.syntax unified
   2              		.cpu cortex-m4
   3              		.fpu softvfp
   4              		.eabi_attribute 20, 1
   5              		.eabi_attribute 21, 1
   6              		.eabi_attribute 23, 3
   7              		.eabi_attribute 24, 1
   8              		.eabi_attribute 25, 1
   9              		.eabi_attribute 26, 1
  10              		.eabi_attribute 30, 6
  11              		.eabi_attribute 18, 4
  12              		.thumb
  13              		.file	"usb_dcd.c"
  23              	.Ltext0:
  24              		.file 1 "../inc/STM32_USB_OTG_Driver/src/usb_dcd.c"
 25024              		.align	2
 25025              		.global	DCD_Init
 25026              		.thumb
 25027              		.thumb_func
 25029              	DCD_Init:
 25030              	.LFB110:
   1:../inc/STM32_USB_OTG_Driver/src/usb_dcd.c **** /**
   2:../inc/STM32_USB_OTG_Driver/src/usb_dcd.c ****   ******************************************************************************
   3:../inc/STM32_USB_OTG_Driver/src/usb_dcd.c ****   * @file    usb_dcd.c
   4:../inc/STM32_USB_OTG_Driver/src/usb_dcd.c ****   * @author  MCD Application Team
   5:../inc/STM32_USB_OTG_Driver/src/usb_dcd.c ****   * @version V2.0.0
   6:../inc/STM32_USB_OTG_Driver/src/usb_dcd.c ****   * @date    22-July-2011
   7:../inc/STM32_USB_OTG_Driver/src/usb_dcd.c ****   * @brief   Peripheral Device Interface Layer
   8:../inc/STM32_USB_OTG_Driver/src/usb_dcd.c ****   ******************************************************************************
   9:../inc/STM32_USB_OTG_Driver/src/usb_dcd.c ****   * @attention 
  10:../inc/STM32_USB_OTG_Driver/src/usb_dcd.c ****   *
  11:../inc/STM32_USB_OTG_Driver/src/usb_dcd.c ****   * THE PRESENT FIRMWARE WHICH IS FOR GUIDANCE ONLY AIMS AT PROVIDING CUSTOMERS
  12:../inc/STM32_USB_OTG_Driver/src/usb_dcd.c ****   * WITH CODING INFORMATION REGARDING THEIR PRODUCTS IN ORDER FOR THEM TO SAVE
  13:../inc/STM32_USB_OTG_Driver/src/usb_dcd.c ****   * TIME. AS A RESULT, STMICROELECTRONICS SHALL NOT BE HELD LIABLE FOR ANY
  14:../inc/STM32_USB_OTG_Driver/src/usb_dcd.c ****   * DIRECT, INDIRECT OR CONSEQUENTIAL DAMAGES WITH RESPECT TO ANY CLAIMS ARISING
  15:../inc/STM32_USB_OTG_Driver/src/usb_dcd.c ****   * FROM THE CONTENT OF SUCH FIRMWARE AND/OR THE USE MADE BY CUSTOMERS OF THE
  16:../inc/STM32_USB_OTG_Driver/src/usb_dcd.c ****   * CODING INFORMATION CONTAINED HEREIN IN CONNECTION WITH THEIR PRODUCTS.
  17:../inc/STM32_USB_OTG_Driver/src/usb_dcd.c ****   *
  18:../inc/STM32_USB_OTG_Driver/src/usb_dcd.c ****   * <h2><center>&copy; COPYRIGHT 2011 STMicroelectronics</center></h2>
  19:../inc/STM32_USB_OTG_Driver/src/usb_dcd.c ****   ******************************************************************************
  20:../inc/STM32_USB_OTG_Driver/src/usb_dcd.c ****   */
  21:../inc/STM32_USB_OTG_Driver/src/usb_dcd.c **** 
  22:../inc/STM32_USB_OTG_Driver/src/usb_dcd.c **** /* Includes ------------------------------------------------------------------*/
  23:../inc/STM32_USB_OTG_Driver/src/usb_dcd.c **** #include "usb_dcd.h"
  24:../inc/STM32_USB_OTG_Driver/src/usb_dcd.c **** #include "usb_bsp.h"
  25:../inc/STM32_USB_OTG_Driver/src/usb_dcd.c **** 
  26:../inc/STM32_USB_OTG_Driver/src/usb_dcd.c **** 
  27:../inc/STM32_USB_OTG_Driver/src/usb_dcd.c **** /** @addtogroup USB_OTG_DRIVER
  28:../inc/STM32_USB_OTG_Driver/src/usb_dcd.c **** * @{
  29:../inc/STM32_USB_OTG_Driver/src/usb_dcd.c **** */
  30:../inc/STM32_USB_OTG_Driver/src/usb_dcd.c **** 
  31:../inc/STM32_USB_OTG_Driver/src/usb_dcd.c **** /** @defgroup USB_DCD 
  32:../inc/STM32_USB_OTG_Driver/src/usb_dcd.c **** * @brief This file is the interface between EFSL ans Host mass-storage class
  33:../inc/STM32_USB_OTG_Driver/src/usb_dcd.c **** * @{
  34:../inc/STM32_USB_OTG_Driver/src/usb_dcd.c **** */
  35:../inc/STM32_USB_OTG_Driver/src/usb_dcd.c **** 
  36:../inc/STM32_USB_OTG_Driver/src/usb_dcd.c **** 
  37:../inc/STM32_USB_OTG_Driver/src/usb_dcd.c **** /** @defgroup USB_DCD_Private_Defines
  38:../inc/STM32_USB_OTG_Driver/src/usb_dcd.c **** * @{
  39:../inc/STM32_USB_OTG_Driver/src/usb_dcd.c **** */ 
  40:../inc/STM32_USB_OTG_Driver/src/usb_dcd.c **** /**
  41:../inc/STM32_USB_OTG_Driver/src/usb_dcd.c **** * @}
  42:../inc/STM32_USB_OTG_Driver/src/usb_dcd.c **** */ 
  43:../inc/STM32_USB_OTG_Driver/src/usb_dcd.c **** 
  44:../inc/STM32_USB_OTG_Driver/src/usb_dcd.c **** 
  45:../inc/STM32_USB_OTG_Driver/src/usb_dcd.c **** /** @defgroup USB_DCD_Private_TypesDefinitions
  46:../inc/STM32_USB_OTG_Driver/src/usb_dcd.c **** * @{
  47:../inc/STM32_USB_OTG_Driver/src/usb_dcd.c **** */ 
  48:../inc/STM32_USB_OTG_Driver/src/usb_dcd.c **** /**
  49:../inc/STM32_USB_OTG_Driver/src/usb_dcd.c **** * @}
  50:../inc/STM32_USB_OTG_Driver/src/usb_dcd.c **** */ 
  51:../inc/STM32_USB_OTG_Driver/src/usb_dcd.c **** 
  52:../inc/STM32_USB_OTG_Driver/src/usb_dcd.c **** 
  53:../inc/STM32_USB_OTG_Driver/src/usb_dcd.c **** 
  54:../inc/STM32_USB_OTG_Driver/src/usb_dcd.c **** /** @defgroup USB_DCD_Private_Macros
  55:../inc/STM32_USB_OTG_Driver/src/usb_dcd.c **** * @{
  56:../inc/STM32_USB_OTG_Driver/src/usb_dcd.c **** */ 
  57:../inc/STM32_USB_OTG_Driver/src/usb_dcd.c **** /**
  58:../inc/STM32_USB_OTG_Driver/src/usb_dcd.c **** * @}
  59:../inc/STM32_USB_OTG_Driver/src/usb_dcd.c **** */ 
  60:../inc/STM32_USB_OTG_Driver/src/usb_dcd.c **** 
  61:../inc/STM32_USB_OTG_Driver/src/usb_dcd.c **** 
  62:../inc/STM32_USB_OTG_Driver/src/usb_dcd.c **** /** @defgroup USB_DCD_Private_Variables
  63:../inc/STM32_USB_OTG_Driver/src/usb_dcd.c **** * @{
  64:../inc/STM32_USB_OTG_Driver/src/usb_dcd.c **** */ 
  65:../inc/STM32_USB_OTG_Driver/src/usb_dcd.c **** /**
  66:../inc/STM32_USB_OTG_Driver/src/usb_dcd.c **** * @}
  67:../inc/STM32_USB_OTG_Driver/src/usb_dcd.c **** */ 
  68:../inc/STM32_USB_OTG_Driver/src/usb_dcd.c **** 
  69:../inc/STM32_USB_OTG_Driver/src/usb_dcd.c **** 
  70:../inc/STM32_USB_OTG_Driver/src/usb_dcd.c **** /** @defgroup USB_DCD_Private_FunctionPrototypes
  71:../inc/STM32_USB_OTG_Driver/src/usb_dcd.c **** * @{
  72:../inc/STM32_USB_OTG_Driver/src/usb_dcd.c **** */ 
  73:../inc/STM32_USB_OTG_Driver/src/usb_dcd.c **** 
  74:../inc/STM32_USB_OTG_Driver/src/usb_dcd.c **** /**
  75:../inc/STM32_USB_OTG_Driver/src/usb_dcd.c **** * @}
  76:../inc/STM32_USB_OTG_Driver/src/usb_dcd.c **** */ 
  77:../inc/STM32_USB_OTG_Driver/src/usb_dcd.c **** 
  78:../inc/STM32_USB_OTG_Driver/src/usb_dcd.c **** 
  79:../inc/STM32_USB_OTG_Driver/src/usb_dcd.c **** /** @defgroup USB_DCD_Private_Functions
  80:../inc/STM32_USB_OTG_Driver/src/usb_dcd.c **** * @{
  81:../inc/STM32_USB_OTG_Driver/src/usb_dcd.c **** */ 
  82:../inc/STM32_USB_OTG_Driver/src/usb_dcd.c **** 
  83:../inc/STM32_USB_OTG_Driver/src/usb_dcd.c **** 
  84:../inc/STM32_USB_OTG_Driver/src/usb_dcd.c **** 
  85:../inc/STM32_USB_OTG_Driver/src/usb_dcd.c **** void DCD_Init(USB_OTG_CORE_HANDLE *pdev , 
  86:../inc/STM32_USB_OTG_Driver/src/usb_dcd.c ****               USB_OTG_CORE_ID_TypeDef coreID)
  87:../inc/STM32_USB_OTG_Driver/src/usb_dcd.c **** {
 25031              		.loc 1 87 0
 25032              		.cfi_startproc
 25033              		@ args = 0, pretend = 0, frame = 16
 25034              		@ frame_needed = 1, uses_anonymous_args = 0
 25035 0000 80B5     		push	{r7, lr}
 25036              	.LCFI0:
 25037              		.cfi_def_cfa_offset 8
 25038 0002 84B0     		sub	sp, sp, #16
 25039              	.LCFI1:
 25040              		.cfi_def_cfa_offset 24
 25041 0004 00AF     		add	r7, sp, #0
 25042              		.cfi_offset 14, -4
 25043              		.cfi_offset 7, -8
 25044              	.LCFI2:
 25045              		.cfi_def_cfa_register 7
 25046 0006 7860     		str	r0, [r7, #4]
 25047 0008 0B46     		mov	r3, r1
 25048 000a FB70     		strb	r3, [r7, #3]
  88:../inc/STM32_USB_OTG_Driver/src/usb_dcd.c ****   uint32_t i;
  89:../inc/STM32_USB_OTG_Driver/src/usb_dcd.c ****   USB_OTG_EP *ep;
  90:../inc/STM32_USB_OTG_Driver/src/usb_dcd.c ****   
  91:../inc/STM32_USB_OTG_Driver/src/usb_dcd.c ****   USB_OTG_SelectCore (pdev , coreID);
 25049              		.loc 1 91 0
 25050 000c FB78     		ldrb	r3, [r7, #3]	@ zero_extendqisi2
 25051 000e 7868     		ldr	r0, [r7, #4]
 25052 0010 1946     		mov	r1, r3
 25053 0012 FFF7FEFF 		bl	USB_OTG_SelectCore
  92:../inc/STM32_USB_OTG_Driver/src/usb_dcd.c ****   
  93:../inc/STM32_USB_OTG_Driver/src/usb_dcd.c ****   pdev->dev.device_status = USB_OTG_DEFAULT;
 25054              		.loc 1 93 0
 25055 0016 7B68     		ldr	r3, [r7, #4]
 25056 0018 4FF00102 		mov	r2, #1
 25057 001c 83F81221 		strb	r2, [r3, #274]
  94:../inc/STM32_USB_OTG_Driver/src/usb_dcd.c ****   pdev->dev.device_address = 0;
 25058              		.loc 1 94 0
 25059 0020 7B68     		ldr	r3, [r7, #4]
 25060 0022 4FF00002 		mov	r2, #0
 25061 0026 83F81321 		strb	r2, [r3, #275]
  95:../inc/STM32_USB_OTG_Driver/src/usb_dcd.c ****   
  96:../inc/STM32_USB_OTG_Driver/src/usb_dcd.c ****   /* Init ep structure */
  97:../inc/STM32_USB_OTG_Driver/src/usb_dcd.c ****   for (i = 0; i < pdev->cfg.dev_endpoints ; i++)
 25062              		.loc 1 97 0
 25063 002a 4FF00003 		mov	r3, #0
 25064 002e FB60     		str	r3, [r7, #12]
 25065 0030 2BE0     		b	.L2
 25066              	.L3:
  98:../inc/STM32_USB_OTG_Driver/src/usb_dcd.c ****   {
  99:../inc/STM32_USB_OTG_Driver/src/usb_dcd.c ****     ep = &pdev->dev.in_ep[i];
 25067              		.loc 1 99 0 discriminator 2
 25068 0032 7B68     		ldr	r3, [r7, #4]
 25069 0034 03F58C71 		add	r1, r3, #280
 25070 0038 FA68     		ldr	r2, [r7, #12]
 25071 003a 1346     		mov	r3, r2
 25072 003c 4FEA8303 		lsl	r3, r3, #2
 25073 0040 9B18     		adds	r3, r3, r2
 25074 0042 4FEAC303 		lsl	r3, r3, #3
 25075 0046 CB18     		adds	r3, r1, r3
 25076 0048 BB60     		str	r3, [r7, #8]
 100:../inc/STM32_USB_OTG_Driver/src/usb_dcd.c ****     /* Init ep structure */
 101:../inc/STM32_USB_OTG_Driver/src/usb_dcd.c ****     ep->is_in = 1;
 25077              		.loc 1 101 0 discriminator 2
 25078 004a BB68     		ldr	r3, [r7, #8]
 25079 004c 4FF00102 		mov	r2, #1
 25080 0050 5A70     		strb	r2, [r3, #1]
 102:../inc/STM32_USB_OTG_Driver/src/usb_dcd.c ****     ep->num = i;
 25081              		.loc 1 102 0 discriminator 2
 25082 0052 FB68     		ldr	r3, [r7, #12]
 25083 0054 DAB2     		uxtb	r2, r3
 25084 0056 BB68     		ldr	r3, [r7, #8]
 25085 0058 1A70     		strb	r2, [r3, #0]
 103:../inc/STM32_USB_OTG_Driver/src/usb_dcd.c ****     ep->tx_fifo_num = i;
 25086              		.loc 1 103 0 discriminator 2
 25087 005a FB68     		ldr	r3, [r7, #12]
 25088 005c 9AB2     		uxth	r2, r3
 25089 005e BB68     		ldr	r3, [r7, #8]
 25090 0060 DA80     		strh	r2, [r3, #6]	@ movhi
 104:../inc/STM32_USB_OTG_Driver/src/usb_dcd.c ****     /* Control until ep is actvated */
 105:../inc/STM32_USB_OTG_Driver/src/usb_dcd.c ****     ep->type = EP_TYPE_CTRL;
 25091              		.loc 1 105 0 discriminator 2
 25092 0062 BB68     		ldr	r3, [r7, #8]
 25093 0064 4FF00002 		mov	r2, #0
 25094 0068 DA70     		strb	r2, [r3, #3]
 106:../inc/STM32_USB_OTG_Driver/src/usb_dcd.c ****     ep->maxpacket =  USB_OTG_MAX_EP0_SIZE;
 25095              		.loc 1 106 0 discriminator 2
 25096 006a BB68     		ldr	r3, [r7, #8]
 25097 006c 4FF00802 		mov	r2, #8
 25098 0070 9A60     		str	r2, [r3, #8]
 107:../inc/STM32_USB_OTG_Driver/src/usb_dcd.c ****     ep->xfer_buff = 0;
 25099              		.loc 1 107 0 discriminator 2
 25100 0072 BB68     		ldr	r3, [r7, #8]
 25101 0074 4FF00002 		mov	r2, #0
 25102 0078 DA60     		str	r2, [r3, #12]
 108:../inc/STM32_USB_OTG_Driver/src/usb_dcd.c ****     ep->xfer_len = 0;
 25103              		.loc 1 108 0 discriminator 2
 25104 007a BB68     		ldr	r3, [r7, #8]
 25105 007c 4FF00002 		mov	r2, #0
 25106 0080 5A61     		str	r2, [r3, #20]
  97:../inc/STM32_USB_OTG_Driver/src/usb_dcd.c ****   for (i = 0; i < pdev->cfg.dev_endpoints ; i++)
 25107              		.loc 1 97 0 discriminator 2
 25108 0082 FB68     		ldr	r3, [r7, #12]
 25109 0084 03F10103 		add	r3, r3, #1
 25110 0088 FB60     		str	r3, [r7, #12]
 25111              	.L2:
  97:../inc/STM32_USB_OTG_Driver/src/usb_dcd.c ****   for (i = 0; i < pdev->cfg.dev_endpoints ; i++)
 25112              		.loc 1 97 0 is_stmt 0 discriminator 1
 25113 008a 7B68     		ldr	r3, [r7, #4]
 25114 008c 5B78     		ldrb	r3, [r3, #1]	@ zero_extendqisi2
 25115 008e 1A46     		mov	r2, r3
 25116 0090 FB68     		ldr	r3, [r7, #12]
 25117 0092 9A42     		cmp	r2, r3
 25118 0094 CDD8     		bhi	.L3
 109:../inc/STM32_USB_OTG_Driver/src/usb_dcd.c ****   }
 110:../inc/STM32_USB_OTG_Driver/src/usb_dcd.c ****   
 111:../inc/STM32_USB_OTG_Driver/src/usb_dcd.c ****   for (i = 0; i < pdev->cfg.dev_endpoints; i++)
 25119              		.loc 1 111 0 is_stmt 1
 25120 0096 4FF00003 		mov	r3, #0
 25121 009a FB60     		str	r3, [r7, #12]
 25122 009c 2BE0     		b	.L4
 25123              	.L5:
 112:../inc/STM32_USB_OTG_Driver/src/usb_dcd.c ****   {
 113:../inc/STM32_USB_OTG_Driver/src/usb_dcd.c ****     ep = &pdev->dev.out_ep[i];
 25124              		.loc 1 113 0 discriminator 2
 25125 009e 7B68     		ldr	r3, [r7, #4]
 25126 00a0 03F55C71 		add	r1, r3, #880
 25127 00a4 FA68     		ldr	r2, [r7, #12]
 25128 00a6 1346     		mov	r3, r2
 25129 00a8 4FEA8303 		lsl	r3, r3, #2
 25130 00ac 9B18     		adds	r3, r3, r2
 25131 00ae 4FEAC303 		lsl	r3, r3, #3
 25132 00b2 CB18     		adds	r3, r1, r3
 25133 00b4 BB60     		str	r3, [r7, #8]
 114:../inc/STM32_USB_OTG_Driver/src/usb_dcd.c ****     /* Init ep structure */
 115:../inc/STM32_USB_OTG_Driver/src/usb_dcd.c ****     ep->is_in = 0;
 25134              		.loc 1 115 0 discriminator 2
 25135 00b6 BB68     		ldr	r3, [r7, #8]
 25136 00b8 4FF00002 		mov	r2, #0
 25137 00bc 5A70     		strb	r2, [r3, #1]
 116:../inc/STM32_USB_OTG_Driver/src/usb_dcd.c ****     ep->num = i;
 25138              		.loc 1 116 0 discriminator 2
 25139 00be FB68     		ldr	r3, [r7, #12]
 25140 00c0 DAB2     		uxtb	r2, r3
 25141 00c2 BB68     		ldr	r3, [r7, #8]
 25142 00c4 1A70     		strb	r2, [r3, #0]
 117:../inc/STM32_USB_OTG_Driver/src/usb_dcd.c ****     ep->tx_fifo_num = i;
 25143              		.loc 1 117 0 discriminator 2
 25144 00c6 FB68     		ldr	r3, [r7, #12]
 25145 00c8 9AB2     		uxth	r2, r3
 25146 00ca BB68     		ldr	r3, [r7, #8]
 25147 00cc DA80     		strh	r2, [r3, #6]	@ movhi
 118:../inc/STM32_USB_OTG_Driver/src/usb_dcd.c ****     /* Control until ep is activated */
 119:../inc/STM32_USB_OTG_Driver/src/usb_dcd.c ****     ep->type = EP_TYPE_CTRL;
 25148              		.loc 1 119 0 discriminator 2
 25149 00ce BB68     		ldr	r3, [r7, #8]
 25150 00d0 4FF00002 		mov	r2, #0
 25151 00d4 DA70     		strb	r2, [r3, #3]
 120:../inc/STM32_USB_OTG_Driver/src/usb_dcd.c ****     ep->maxpacket = USB_OTG_MAX_EP0_SIZE;
 25152              		.loc 1 120 0 discriminator 2
 25153 00d6 BB68     		ldr	r3, [r7, #8]
 25154 00d8 4FF00802 		mov	r2, #8
 25155 00dc 9A60     		str	r2, [r3, #8]
 121:../inc/STM32_USB_OTG_Driver/src/usb_dcd.c ****     ep->xfer_buff = 0;
 25156              		.loc 1 121 0 discriminator 2
 25157 00de BB68     		ldr	r3, [r7, #8]
 25158 00e0 4FF00002 		mov	r2, #0
 25159 00e4 DA60     		str	r2, [r3, #12]
 122:../inc/STM32_USB_OTG_Driver/src/usb_dcd.c ****     ep->xfer_len = 0;
 25160              		.loc 1 122 0 discriminator 2
 25161 00e6 BB68     		ldr	r3, [r7, #8]
 25162 00e8 4FF00002 		mov	r2, #0
 25163 00ec 5A61     		str	r2, [r3, #20]
 111:../inc/STM32_USB_OTG_Driver/src/usb_dcd.c ****   for (i = 0; i < pdev->cfg.dev_endpoints; i++)
 25164              		.loc 1 111 0 discriminator 2
 25165 00ee FB68     		ldr	r3, [r7, #12]
 25166 00f0 03F10103 		add	r3, r3, #1
 25167 00f4 FB60     		str	r3, [r7, #12]
 25168              	.L4:
 111:../inc/STM32_USB_OTG_Driver/src/usb_dcd.c ****   for (i = 0; i < pdev->cfg.dev_endpoints; i++)
 25169              		.loc 1 111 0 is_stmt 0 discriminator 1
 25170 00f6 7B68     		ldr	r3, [r7, #4]
 25171 00f8 5B78     		ldrb	r3, [r3, #1]	@ zero_extendqisi2
 25172 00fa 1A46     		mov	r2, r3
 25173 00fc FB68     		ldr	r3, [r7, #12]
 25174 00fe 9A42     		cmp	r2, r3
 25175 0100 CDD8     		bhi	.L5
 123:../inc/STM32_USB_OTG_Driver/src/usb_dcd.c ****   }
 124:../inc/STM32_USB_OTG_Driver/src/usb_dcd.c ****   
 125:../inc/STM32_USB_OTG_Driver/src/usb_dcd.c ****   USB_OTG_DisableGlobalInt(pdev);
 25176              		.loc 1 125 0 is_stmt 1
 25177 0102 7868     		ldr	r0, [r7, #4]
 25178 0104 FFF7FEFF 		bl	USB_OTG_DisableGlobalInt
 126:../inc/STM32_USB_OTG_Driver/src/usb_dcd.c ****   
 127:../inc/STM32_USB_OTG_Driver/src/usb_dcd.c ****   /*Init the Core (common init.) */
 128:../inc/STM32_USB_OTG_Driver/src/usb_dcd.c ****   USB_OTG_CoreInit(pdev);
 25179              		.loc 1 128 0
 25180 0108 7868     		ldr	r0, [r7, #4]
 25181 010a FFF7FEFF 		bl	USB_OTG_CoreInit
 129:../inc/STM32_USB_OTG_Driver/src/usb_dcd.c **** 
 130:../inc/STM32_USB_OTG_Driver/src/usb_dcd.c **** 
 131:../inc/STM32_USB_OTG_Driver/src/usb_dcd.c ****   /* Force Device Mode*/
 132:../inc/STM32_USB_OTG_Driver/src/usb_dcd.c ****   USB_OTG_SetCurrentMode(pdev, DEVICE_MODE);
 25182              		.loc 1 132 0
 25183 010e 7868     		ldr	r0, [r7, #4]
 25184 0110 4FF00001 		mov	r1, #0
 25185 0114 FFF7FEFF 		bl	USB_OTG_SetCurrentMode
 133:../inc/STM32_USB_OTG_Driver/src/usb_dcd.c ****   
 134:../inc/STM32_USB_OTG_Driver/src/usb_dcd.c ****   /* Init Device */
 135:../inc/STM32_USB_OTG_Driver/src/usb_dcd.c ****   USB_OTG_CoreInitDev(pdev);
 25186              		.loc 1 135 0
 25187 0118 7868     		ldr	r0, [r7, #4]
 25188 011a FFF7FEFF 		bl	USB_OTG_CoreInitDev
 136:../inc/STM32_USB_OTG_Driver/src/usb_dcd.c ****   
 137:../inc/STM32_USB_OTG_Driver/src/usb_dcd.c ****   
 138:../inc/STM32_USB_OTG_Driver/src/usb_dcd.c ****   /* Enable USB Global interrupt */
 139:../inc/STM32_USB_OTG_Driver/src/usb_dcd.c ****   USB_OTG_EnableGlobalInt(pdev);
 25189              		.loc 1 139 0
 25190 011e 7868     		ldr	r0, [r7, #4]
 25191 0120 FFF7FEFF 		bl	USB_OTG_EnableGlobalInt
 140:../inc/STM32_USB_OTG_Driver/src/usb_dcd.c **** }
 25192              		.loc 1 140 0
 25193 0124 07F11007 		add	r7, r7, #16
 25194 0128 BD46     		mov	sp, r7
 25195 012a 80BD     		pop	{r7, pc}
 25196              		.cfi_endproc
 25197              	.LFE110:
 25199              		.section	.text.DCD_EP_Open,"ax",%progbits
 25200              		.align	2
 25201              		.global	DCD_EP_Open
 25202              		.thumb
 25203              		.thumb_func
 25205              	DCD_EP_Open:
 25206              	.LFB111:
 141:../inc/STM32_USB_OTG_Driver/src/usb_dcd.c **** 
 142:../inc/STM32_USB_OTG_Driver/src/usb_dcd.c **** 
 143:../inc/STM32_USB_OTG_Driver/src/usb_dcd.c **** /**
 144:../inc/STM32_USB_OTG_Driver/src/usb_dcd.c **** * @brief  Configure an EP
 145:../inc/STM32_USB_OTG_Driver/src/usb_dcd.c **** * @param pdev : Device instance
 146:../inc/STM32_USB_OTG_Driver/src/usb_dcd.c **** * @param epdesc : Endpoint Descriptor
 147:../inc/STM32_USB_OTG_Driver/src/usb_dcd.c **** * @retval : status
 148:../inc/STM32_USB_OTG_Driver/src/usb_dcd.c **** */
 149:../inc/STM32_USB_OTG_Driver/src/usb_dcd.c **** uint32_t DCD_EP_Open(USB_OTG_CORE_HANDLE *pdev , 
 150:../inc/STM32_USB_OTG_Driver/src/usb_dcd.c ****                      uint8_t ep_addr,
 151:../inc/STM32_USB_OTG_Driver/src/usb_dcd.c ****                      uint16_t ep_mps,
 152:../inc/STM32_USB_OTG_Driver/src/usb_dcd.c ****                      uint8_t ep_type)
 153:../inc/STM32_USB_OTG_Driver/src/usb_dcd.c **** {
 25207              		.loc 1 153 0
 25208              		.cfi_startproc
 25209              		@ args = 0, pretend = 0, frame = 24
 25210              		@ frame_needed = 1, uses_anonymous_args = 0
 25211 0000 80B5     		push	{r7, lr}
 25212              	.LCFI3:
 25213              		.cfi_def_cfa_offset 8
 25214 0002 86B0     		sub	sp, sp, #24
 25215              	.LCFI4:
 25216              		.cfi_def_cfa_offset 32
 25217 0004 00AF     		add	r7, sp, #0
 25218              		.cfi_offset 14, -4
 25219              		.cfi_offset 7, -8
 25220              	.LCFI5:
 25221              		.cfi_def_cfa_register 7
 25222 0006 F860     		str	r0, [r7, #12]
 25223 0008 F972     		strb	r1, [r7, #11]
 25224 000a 3A81     		strh	r2, [r7, #8]	@ movhi
 25225 000c FB71     		strb	r3, [r7, #7]
 154:../inc/STM32_USB_OTG_Driver/src/usb_dcd.c ****   USB_OTG_EP *ep;
 155:../inc/STM32_USB_OTG_Driver/src/usb_dcd.c ****   
 156:../inc/STM32_USB_OTG_Driver/src/usb_dcd.c ****   if ((ep_addr & 0x80) == 0x80)
 25226              		.loc 1 156 0
 25227 000e FB7A     		ldrb	r3, [r7, #11]	@ zero_extendqisi2
 25228 0010 5BB2     		sxtb	r3, r3
 25229 0012 002B     		cmp	r3, #0
 25230 0014 0EDA     		bge	.L7
 157:../inc/STM32_USB_OTG_Driver/src/usb_dcd.c ****   {
 158:../inc/STM32_USB_OTG_Driver/src/usb_dcd.c ****     ep = &pdev->dev.in_ep[ep_addr & 0x7F];
 25231              		.loc 1 158 0
 25232 0016 FB68     		ldr	r3, [r7, #12]
 25233 0018 03F58C71 		add	r1, r3, #280
 25234 001c FB7A     		ldrb	r3, [r7, #11]	@ zero_extendqisi2
 25235 001e 03F07F02 		and	r2, r3, #127
 25236 0022 1346     		mov	r3, r2
 25237 0024 4FEA8303 		lsl	r3, r3, #2
 25238 0028 9B18     		adds	r3, r3, r2
 25239 002a 4FEAC303 		lsl	r3, r3, #3
 25240 002e CB18     		adds	r3, r1, r3
 25241 0030 7B61     		str	r3, [r7, #20]
 25242 0032 0DE0     		b	.L8
 25243              	.L7:
 159:../inc/STM32_USB_OTG_Driver/src/usb_dcd.c ****   }
 160:../inc/STM32_USB_OTG_Driver/src/usb_dcd.c ****   else
 161:../inc/STM32_USB_OTG_Driver/src/usb_dcd.c ****   {
 162:../inc/STM32_USB_OTG_Driver/src/usb_dcd.c ****     ep = &pdev->dev.out_ep[ep_addr & 0x7F];
 25244              		.loc 1 162 0
 25245 0034 FB68     		ldr	r3, [r7, #12]
 25246 0036 03F55C71 		add	r1, r3, #880
 25247 003a FB7A     		ldrb	r3, [r7, #11]	@ zero_extendqisi2
 25248 003c 03F07F02 		and	r2, r3, #127
 25249 0040 1346     		mov	r3, r2
 25250 0042 4FEA8303 		lsl	r3, r3, #2
 25251 0046 9B18     		adds	r3, r3, r2
 25252 0048 4FEAC303 		lsl	r3, r3, #3
 25253 004c CB18     		adds	r3, r1, r3
 25254 004e 7B61     		str	r3, [r7, #20]
 25255              	.L8:
 163:../inc/STM32_USB_OTG_Driver/src/usb_dcd.c ****   }
 164:../inc/STM32_USB_OTG_Driver/src/usb_dcd.c ****   ep->num   = ep_addr & 0x7F;
 25256              		.loc 1 164 0
 25257 0050 FB7A     		ldrb	r3, [r7, #11]
 25258 0052 03F07F03 		and	r3, r3, #127
 25259 0056 DAB2     		uxtb	r2, r3
 25260 0058 7B69     		ldr	r3, [r7, #20]
 25261 005a 1A70     		strb	r2, [r3, #0]
 165:../inc/STM32_USB_OTG_Driver/src/usb_dcd.c ****   
 166:../inc/STM32_USB_OTG_Driver/src/usb_dcd.c ****   ep->is_in = (0x80 & ep_addr) != 0;
 25262              		.loc 1 166 0
 25263 005c FB7A     		ldrb	r3, [r7, #11]	@ zero_extendqisi2
 25264 005e 4FEAD313 		lsr	r3, r3, #7
 25265 0062 DAB2     		uxtb	r2, r3
 25266 0064 7B69     		ldr	r3, [r7, #20]
 25267 0066 5A70     		strb	r2, [r3, #1]
 167:../inc/STM32_USB_OTG_Driver/src/usb_dcd.c ****   ep->maxpacket = ep_mps;
 25268              		.loc 1 167 0
 25269 0068 3A89     		ldrh	r2, [r7, #8]
 25270 006a 7B69     		ldr	r3, [r7, #20]
 25271 006c 9A60     		str	r2, [r3, #8]
 168:../inc/STM32_USB_OTG_Driver/src/usb_dcd.c ****   ep->type = ep_type;
 25272              		.loc 1 168 0
 25273 006e 7B69     		ldr	r3, [r7, #20]
 25274 0070 FA79     		ldrb	r2, [r7, #7]
 25275 0072 DA70     		strb	r2, [r3, #3]
 169:../inc/STM32_USB_OTG_Driver/src/usb_dcd.c ****   if (ep->is_in)
 25276              		.loc 1 169 0
 25277 0074 7B69     		ldr	r3, [r7, #20]
 25278 0076 5B78     		ldrb	r3, [r3, #1]	@ zero_extendqisi2
 25279 0078 002B     		cmp	r3, #0
 25280 007a 04D0     		beq	.L9
 170:../inc/STM32_USB_OTG_Driver/src/usb_dcd.c ****   {
 171:../inc/STM32_USB_OTG_Driver/src/usb_dcd.c ****     /* Assign a Tx FIFO */
 172:../inc/STM32_USB_OTG_Driver/src/usb_dcd.c ****     ep->tx_fifo_num = ep->num;
 25281              		.loc 1 172 0
 25282 007c 7B69     		ldr	r3, [r7, #20]
 25283 007e 1B78     		ldrb	r3, [r3, #0]	@ zero_extendqisi2
 25284 0080 1A46     		mov	r2, r3
 25285 0082 7B69     		ldr	r3, [r7, #20]
 25286 0084 DA80     		strh	r2, [r3, #6]	@ movhi
 25287              	.L9:
 173:../inc/STM32_USB_OTG_Driver/src/usb_dcd.c ****   }
 174:../inc/STM32_USB_OTG_Driver/src/usb_dcd.c ****   /* Set initial data PID. */
 175:../inc/STM32_USB_OTG_Driver/src/usb_dcd.c ****   if (ep_type == USB_OTG_EP_BULK )
 25288              		.loc 1 175 0
 25289 0086 FB79     		ldrb	r3, [r7, #7]	@ zero_extendqisi2
 25290 0088 022B     		cmp	r3, #2
 25291 008a 03D1     		bne	.L10
 176:../inc/STM32_USB_OTG_Driver/src/usb_dcd.c ****   {
 177:../inc/STM32_USB_OTG_Driver/src/usb_dcd.c ****     ep->data_pid_start = 0;
 25292              		.loc 1 177 0
 25293 008c 7B69     		ldr	r3, [r7, #20]
 25294 008e 4FF00002 		mov	r2, #0
 25295 0092 1A71     		strb	r2, [r3, #4]
 25296              	.L10:
 178:../inc/STM32_USB_OTG_Driver/src/usb_dcd.c ****   }
 179:../inc/STM32_USB_OTG_Driver/src/usb_dcd.c ****   USB_OTG_EPActivate(pdev , ep );
 25297              		.loc 1 179 0
 25298 0094 F868     		ldr	r0, [r7, #12]
 25299 0096 7969     		ldr	r1, [r7, #20]
 25300 0098 FFF7FEFF 		bl	USB_OTG_EPActivate
 180:../inc/STM32_USB_OTG_Driver/src/usb_dcd.c ****   return 0;
 25301              		.loc 1 180 0
 25302 009c 4FF00003 		mov	r3, #0
 181:../inc/STM32_USB_OTG_Driver/src/usb_dcd.c **** }
 25303              		.loc 1 181 0
 25304 00a0 1846     		mov	r0, r3
 25305 00a2 07F11807 		add	r7, r7, #24
 25306 00a6 BD46     		mov	sp, r7
 25307 00a8 80BD     		pop	{r7, pc}
 25308              		.cfi_endproc
 25309              	.LFE111:
 25311 00aa 00BF     		.section	.text.DCD_EP_Close,"ax",%progbits
 25312              		.align	2
 25313              		.global	DCD_EP_Close
 25314              		.thumb
 25315              		.thumb_func
 25317              	DCD_EP_Close:
 25318              	.LFB112:
 182:../inc/STM32_USB_OTG_Driver/src/usb_dcd.c **** /**
 183:../inc/STM32_USB_OTG_Driver/src/usb_dcd.c **** * @brief  called when an EP is disabled
 184:../inc/STM32_USB_OTG_Driver/src/usb_dcd.c **** * @param pdev: device instance
 185:../inc/STM32_USB_OTG_Driver/src/usb_dcd.c **** * @param ep_addr: endpoint address
 186:../inc/STM32_USB_OTG_Driver/src/usb_dcd.c **** * @retval : status
 187:../inc/STM32_USB_OTG_Driver/src/usb_dcd.c **** */
 188:../inc/STM32_USB_OTG_Driver/src/usb_dcd.c **** uint32_t DCD_EP_Close(USB_OTG_CORE_HANDLE *pdev , uint8_t  ep_addr)
 189:../inc/STM32_USB_OTG_Driver/src/usb_dcd.c **** {
 25319              		.loc 1 189 0
 25320              		.cfi_startproc
 25321              		@ args = 0, pretend = 0, frame = 16
 25322              		@ frame_needed = 1, uses_anonymous_args = 0
 25323 0000 80B5     		push	{r7, lr}
 25324              	.LCFI6:
 25325              		.cfi_def_cfa_offset 8
 25326 0002 84B0     		sub	sp, sp, #16
 25327              	.LCFI7:
 25328              		.cfi_def_cfa_offset 24
 25329 0004 00AF     		add	r7, sp, #0
 25330              		.cfi_offset 14, -4
 25331              		.cfi_offset 7, -8
 25332              	.LCFI8:
 25333              		.cfi_def_cfa_register 7
 25334 0006 7860     		str	r0, [r7, #4]
 25335 0008 0B46     		mov	r3, r1
 25336 000a FB70     		strb	r3, [r7, #3]
 190:../inc/STM32_USB_OTG_Driver/src/usb_dcd.c ****   USB_OTG_EP *ep;
 191:../inc/STM32_USB_OTG_Driver/src/usb_dcd.c ****   
 192:../inc/STM32_USB_OTG_Driver/src/usb_dcd.c ****   if ((ep_addr&0x80) == 0x80)
 25337              		.loc 1 192 0
 25338 000c FB78     		ldrb	r3, [r7, #3]	@ zero_extendqisi2
 25339 000e 5BB2     		sxtb	r3, r3
 25340 0010 002B     		cmp	r3, #0
 25341 0012 0EDA     		bge	.L12
 193:../inc/STM32_USB_OTG_Driver/src/usb_dcd.c ****   {
 194:../inc/STM32_USB_OTG_Driver/src/usb_dcd.c ****     ep = &pdev->dev.in_ep[ep_addr & 0x7F];
 25342              		.loc 1 194 0
 25343 0014 7B68     		ldr	r3, [r7, #4]
 25344 0016 03F58C71 		add	r1, r3, #280
 25345 001a FB78     		ldrb	r3, [r7, #3]	@ zero_extendqisi2
 25346 001c 03F07F02 		and	r2, r3, #127
 25347 0020 1346     		mov	r3, r2
 25348 0022 4FEA8303 		lsl	r3, r3, #2
 25349 0026 9B18     		adds	r3, r3, r2
 25350 0028 4FEAC303 		lsl	r3, r3, #3
 25351 002c CB18     		adds	r3, r1, r3
 25352 002e FB60     		str	r3, [r7, #12]
 25353 0030 0DE0     		b	.L13
 25354              	.L12:
 195:../inc/STM32_USB_OTG_Driver/src/usb_dcd.c ****   }
 196:../inc/STM32_USB_OTG_Driver/src/usb_dcd.c ****   else
 197:../inc/STM32_USB_OTG_Driver/src/usb_dcd.c ****   {
 198:../inc/STM32_USB_OTG_Driver/src/usb_dcd.c ****     ep = &pdev->dev.out_ep[ep_addr & 0x7F];
 25355              		.loc 1 198 0
 25356 0032 7B68     		ldr	r3, [r7, #4]
 25357 0034 03F55C71 		add	r1, r3, #880
 25358 0038 FB78     		ldrb	r3, [r7, #3]	@ zero_extendqisi2
 25359 003a 03F07F02 		and	r2, r3, #127
 25360 003e 1346     		mov	r3, r2
 25361 0040 4FEA8303 		lsl	r3, r3, #2
 25362 0044 9B18     		adds	r3, r3, r2
 25363 0046 4FEAC303 		lsl	r3, r3, #3
 25364 004a CB18     		adds	r3, r1, r3
 25365 004c FB60     		str	r3, [r7, #12]
 25366              	.L13:
 199:../inc/STM32_USB_OTG_Driver/src/usb_dcd.c ****   }
 200:../inc/STM32_USB_OTG_Driver/src/usb_dcd.c ****   ep->num   = ep_addr & 0x7F;
 25367              		.loc 1 200 0
 25368 004e FB78     		ldrb	r3, [r7, #3]
 25369 0050 03F07F03 		and	r3, r3, #127
 25370 0054 DAB2     		uxtb	r2, r3
 25371 0056 FB68     		ldr	r3, [r7, #12]
 25372 0058 1A70     		strb	r2, [r3, #0]
 201:../inc/STM32_USB_OTG_Driver/src/usb_dcd.c ****   ep->is_in = (0x80 & ep_addr) != 0;
 25373              		.loc 1 201 0
 25374 005a FB78     		ldrb	r3, [r7, #3]	@ zero_extendqisi2
 25375 005c 4FEAD313 		lsr	r3, r3, #7
 25376 0060 DAB2     		uxtb	r2, r3
 25377 0062 FB68     		ldr	r3, [r7, #12]
 25378 0064 5A70     		strb	r2, [r3, #1]
 202:../inc/STM32_USB_OTG_Driver/src/usb_dcd.c ****   USB_OTG_EPDeactivate(pdev , ep );
 25379              		.loc 1 202 0
 25380 0066 7868     		ldr	r0, [r7, #4]
 25381 0068 F968     		ldr	r1, [r7, #12]
 25382 006a FFF7FEFF 		bl	USB_OTG_EPDeactivate
 203:../inc/STM32_USB_OTG_Driver/src/usb_dcd.c ****   return 0;
 25383              		.loc 1 203 0
 25384 006e 4FF00003 		mov	r3, #0
 204:../inc/STM32_USB_OTG_Driver/src/usb_dcd.c **** }
 25385              		.loc 1 204 0
 25386 0072 1846     		mov	r0, r3
 25387 0074 07F11007 		add	r7, r7, #16
 25388 0078 BD46     		mov	sp, r7
 25389 007a 80BD     		pop	{r7, pc}
 25390              		.cfi_endproc
 25391              	.LFE112:
 25393              		.section	.text.DCD_EP_PrepareRx,"ax",%progbits
 25394              		.align	2
 25395              		.global	DCD_EP_PrepareRx
 25396              		.thumb
 25397              		.thumb_func
 25399              	DCD_EP_PrepareRx:
 25400              	.LFB113:
 205:../inc/STM32_USB_OTG_Driver/src/usb_dcd.c **** 
 206:../inc/STM32_USB_OTG_Driver/src/usb_dcd.c **** 
 207:../inc/STM32_USB_OTG_Driver/src/usb_dcd.c **** /**
 208:../inc/STM32_USB_OTG_Driver/src/usb_dcd.c **** * @brief  DCD_EP_PrepareRx
 209:../inc/STM32_USB_OTG_Driver/src/usb_dcd.c **** * @param pdev: device instance
 210:../inc/STM32_USB_OTG_Driver/src/usb_dcd.c **** * @param ep_addr: endpoint address
 211:../inc/STM32_USB_OTG_Driver/src/usb_dcd.c **** * @param pbuf: pointer to Rx buffer
 212:../inc/STM32_USB_OTG_Driver/src/usb_dcd.c **** * @param buf_len: data length
 213:../inc/STM32_USB_OTG_Driver/src/usb_dcd.c **** * @retval : status
 214:../inc/STM32_USB_OTG_Driver/src/usb_dcd.c **** */
 215:../inc/STM32_USB_OTG_Driver/src/usb_dcd.c **** uint32_t   DCD_EP_PrepareRx( USB_OTG_CORE_HANDLE *pdev,
 216:../inc/STM32_USB_OTG_Driver/src/usb_dcd.c ****                             uint8_t   ep_addr,
 217:../inc/STM32_USB_OTG_Driver/src/usb_dcd.c ****                             uint8_t *pbuf,                        
 218:../inc/STM32_USB_OTG_Driver/src/usb_dcd.c ****                             uint16_t  buf_len)
 219:../inc/STM32_USB_OTG_Driver/src/usb_dcd.c **** {
 25401              		.loc 1 219 0
 25402              		.cfi_startproc
 25403              		@ args = 0, pretend = 0, frame = 24
 25404              		@ frame_needed = 1, uses_anonymous_args = 0
 25405 0000 80B5     		push	{r7, lr}
 25406              	.LCFI9:
 25407              		.cfi_def_cfa_offset 8
 25408 0002 86B0     		sub	sp, sp, #24
 25409              	.LCFI10:
 25410              		.cfi_def_cfa_offset 32
 25411 0004 00AF     		add	r7, sp, #0
 25412              		.cfi_offset 14, -4
 25413              		.cfi_offset 7, -8
 25414              	.LCFI11:
 25415              		.cfi_def_cfa_register 7
 25416 0006 F860     		str	r0, [r7, #12]
 25417 0008 7A60     		str	r2, [r7, #4]
 25418 000a 0A46     		mov	r2, r1
 25419 000c FA72     		strb	r2, [r7, #11]
 25420 000e 7B80     		strh	r3, [r7, #2]	@ movhi
 220:../inc/STM32_USB_OTG_Driver/src/usb_dcd.c ****   USB_OTG_EP *ep;
 221:../inc/STM32_USB_OTG_Driver/src/usb_dcd.c ****   
 222:../inc/STM32_USB_OTG_Driver/src/usb_dcd.c ****   ep = &pdev->dev.out_ep[ep_addr & 0x7F];
 25421              		.loc 1 222 0
 25422 0010 FB68     		ldr	r3, [r7, #12]
 25423 0012 03F55C71 		add	r1, r3, #880
 25424 0016 FB7A     		ldrb	r3, [r7, #11]	@ zero_extendqisi2
 25425 0018 03F07F02 		and	r2, r3, #127
 25426 001c 1346     		mov	r3, r2
 25427 001e 4FEA8303 		lsl	r3, r3, #2
 25428 0022 9B18     		adds	r3, r3, r2
 25429 0024 4FEAC303 		lsl	r3, r3, #3
 25430 0028 CB18     		adds	r3, r1, r3
 25431 002a 7B61     		str	r3, [r7, #20]
 223:../inc/STM32_USB_OTG_Driver/src/usb_dcd.c ****   
 224:../inc/STM32_USB_OTG_Driver/src/usb_dcd.c ****   /*setup and start the Xfer */
 225:../inc/STM32_USB_OTG_Driver/src/usb_dcd.c ****   ep->xfer_buff = pbuf;  
 25432              		.loc 1 225 0
 25433 002c 7B69     		ldr	r3, [r7, #20]
 25434 002e 7A68     		ldr	r2, [r7, #4]
 25435 0030 DA60     		str	r2, [r3, #12]
 226:../inc/STM32_USB_OTG_Driver/src/usb_dcd.c ****   ep->xfer_len = buf_len;
 25436              		.loc 1 226 0
 25437 0032 7A88     		ldrh	r2, [r7, #2]
 25438 0034 7B69     		ldr	r3, [r7, #20]
 25439 0036 5A61     		str	r2, [r3, #20]
 227:../inc/STM32_USB_OTG_Driver/src/usb_dcd.c ****   ep->xfer_count = 0;
 25440              		.loc 1 227 0
 25441 0038 7B69     		ldr	r3, [r7, #20]
 25442 003a 4FF00002 		mov	r2, #0
 25443 003e 9A61     		str	r2, [r3, #24]
 228:../inc/STM32_USB_OTG_Driver/src/usb_dcd.c ****   ep->is_in = 0;
 25444              		.loc 1 228 0
 25445 0040 7B69     		ldr	r3, [r7, #20]
 25446 0042 4FF00002 		mov	r2, #0
 25447 0046 5A70     		strb	r2, [r3, #1]
 229:../inc/STM32_USB_OTG_Driver/src/usb_dcd.c ****   ep->num = ep_addr & 0x7F;
 25448              		.loc 1 229 0
 25449 0048 FB7A     		ldrb	r3, [r7, #11]
 25450 004a 03F07F03 		and	r3, r3, #127
 25451 004e DAB2     		uxtb	r2, r3
 25452 0050 7B69     		ldr	r3, [r7, #20]
 25453 0052 1A70     		strb	r2, [r3, #0]
 230:../inc/STM32_USB_OTG_Driver/src/usb_dcd.c ****   
 231:../inc/STM32_USB_OTG_Driver/src/usb_dcd.c ****   if (pdev->cfg.dma_enable == 1)
 25454              		.loc 1 231 0
 25455 0054 FB68     		ldr	r3, [r7, #12]
 25456 0056 DB78     		ldrb	r3, [r3, #3]	@ zero_extendqisi2
 25457 0058 012B     		cmp	r3, #1
 25458 005a 02D1     		bne	.L15
 232:../inc/STM32_USB_OTG_Driver/src/usb_dcd.c ****   {
 233:../inc/STM32_USB_OTG_Driver/src/usb_dcd.c ****     ep->dma_addr = (uint32_t)pbuf;  
 25459              		.loc 1 233 0
 25460 005c 7A68     		ldr	r2, [r7, #4]
 25461 005e 7B69     		ldr	r3, [r7, #20]
 25462 0060 1A61     		str	r2, [r3, #16]
 25463              	.L15:
 234:../inc/STM32_USB_OTG_Driver/src/usb_dcd.c ****   }
 235:../inc/STM32_USB_OTG_Driver/src/usb_dcd.c ****   
 236:../inc/STM32_USB_OTG_Driver/src/usb_dcd.c ****   if ( ep->num == 0 )
 25464              		.loc 1 236 0
 25465 0062 7B69     		ldr	r3, [r7, #20]
 25466 0064 1B78     		ldrb	r3, [r3, #0]	@ zero_extendqisi2
 25467 0066 002B     		cmp	r3, #0
 25468 0068 04D1     		bne	.L16
 237:../inc/STM32_USB_OTG_Driver/src/usb_dcd.c ****   {
 238:../inc/STM32_USB_OTG_Driver/src/usb_dcd.c ****     USB_OTG_EP0StartXfer(pdev , ep);
 25469              		.loc 1 238 0
 25470 006a F868     		ldr	r0, [r7, #12]
 25471 006c 7969     		ldr	r1, [r7, #20]
 25472 006e FFF7FEFF 		bl	USB_OTG_EP0StartXfer
 25473 0072 03E0     		b	.L17
 25474              	.L16:
 239:../inc/STM32_USB_OTG_Driver/src/usb_dcd.c ****   }
 240:../inc/STM32_USB_OTG_Driver/src/usb_dcd.c ****   else
 241:../inc/STM32_USB_OTG_Driver/src/usb_dcd.c ****   {
 242:../inc/STM32_USB_OTG_Driver/src/usb_dcd.c ****     USB_OTG_EPStartXfer(pdev, ep );
 25475              		.loc 1 242 0
 25476 0074 F868     		ldr	r0, [r7, #12]
 25477 0076 7969     		ldr	r1, [r7, #20]
 25478 0078 FFF7FEFF 		bl	USB_OTG_EPStartXfer
 25479              	.L17:
 243:../inc/STM32_USB_OTG_Driver/src/usb_dcd.c ****   }
 244:../inc/STM32_USB_OTG_Driver/src/usb_dcd.c ****   return 0;
 25480              		.loc 1 244 0
 25481 007c 4FF00003 		mov	r3, #0
 245:../inc/STM32_USB_OTG_Driver/src/usb_dcd.c **** }
 25482              		.loc 1 245 0
 25483 0080 1846     		mov	r0, r3
 25484 0082 07F11807 		add	r7, r7, #24
 25485 0086 BD46     		mov	sp, r7
 25486 0088 80BD     		pop	{r7, pc}
 25487              		.cfi_endproc
 25488              	.LFE113:
 25490 008a 00BF     		.section	.text.DCD_EP_Tx,"ax",%progbits
 25491              		.align	2
 25492              		.global	DCD_EP_Tx
 25493              		.thumb
 25494              		.thumb_func
 25496              	DCD_EP_Tx:
 25497              	.LFB114:
 246:../inc/STM32_USB_OTG_Driver/src/usb_dcd.c **** 
 247:../inc/STM32_USB_OTG_Driver/src/usb_dcd.c **** /**
 248:../inc/STM32_USB_OTG_Driver/src/usb_dcd.c **** * @brief  Transmit data over USB
 249:../inc/STM32_USB_OTG_Driver/src/usb_dcd.c **** * @param pdev: device instance
 250:../inc/STM32_USB_OTG_Driver/src/usb_dcd.c **** * @param ep_addr: endpoint address
 251:../inc/STM32_USB_OTG_Driver/src/usb_dcd.c **** * @param pbuf: pointer to Tx buffer
 252:../inc/STM32_USB_OTG_Driver/src/usb_dcd.c **** * @param buf_len: data length
 253:../inc/STM32_USB_OTG_Driver/src/usb_dcd.c **** * @retval : status
 254:../inc/STM32_USB_OTG_Driver/src/usb_dcd.c **** */
 255:../inc/STM32_USB_OTG_Driver/src/usb_dcd.c **** uint32_t  DCD_EP_Tx ( USB_OTG_CORE_HANDLE *pdev,
 256:../inc/STM32_USB_OTG_Driver/src/usb_dcd.c ****                      uint8_t   ep_addr,
 257:../inc/STM32_USB_OTG_Driver/src/usb_dcd.c ****                      uint8_t   *pbuf,
 258:../inc/STM32_USB_OTG_Driver/src/usb_dcd.c ****                      uint32_t   buf_len)
 259:../inc/STM32_USB_OTG_Driver/src/usb_dcd.c **** {
 25498              		.loc 1 259 0
 25499              		.cfi_startproc
 25500              		@ args = 0, pretend = 0, frame = 24
 25501              		@ frame_needed = 1, uses_anonymous_args = 0
 25502 0000 80B5     		push	{r7, lr}
 25503              	.LCFI12:
 25504              		.cfi_def_cfa_offset 8
 25505 0002 86B0     		sub	sp, sp, #24
 25506              	.LCFI13:
 25507              		.cfi_def_cfa_offset 32
 25508 0004 00AF     		add	r7, sp, #0
 25509              		.cfi_offset 14, -4
 25510              		.cfi_offset 7, -8
 25511              	.LCFI14:
 25512              		.cfi_def_cfa_register 7
 25513 0006 F860     		str	r0, [r7, #12]
 25514 0008 7A60     		str	r2, [r7, #4]
 25515 000a 3B60     		str	r3, [r7, #0]
 25516 000c 0B46     		mov	r3, r1
 25517 000e FB72     		strb	r3, [r7, #11]
 260:../inc/STM32_USB_OTG_Driver/src/usb_dcd.c ****   USB_OTG_EP *ep;
 261:../inc/STM32_USB_OTG_Driver/src/usb_dcd.c ****   
 262:../inc/STM32_USB_OTG_Driver/src/usb_dcd.c ****   ep = &pdev->dev.in_ep[ep_addr & 0x7F];
 25518              		.loc 1 262 0
 25519 0010 FB68     		ldr	r3, [r7, #12]
 25520 0012 03F58C71 		add	r1, r3, #280
 25521 0016 FB7A     		ldrb	r3, [r7, #11]	@ zero_extendqisi2
 25522 0018 03F07F02 		and	r2, r3, #127
 25523 001c 1346     		mov	r3, r2
 25524 001e 4FEA8303 		lsl	r3, r3, #2
 25525 0022 9B18     		adds	r3, r3, r2
 25526 0024 4FEAC303 		lsl	r3, r3, #3
 25527 0028 CB18     		adds	r3, r1, r3
 25528 002a 7B61     		str	r3, [r7, #20]
 263:../inc/STM32_USB_OTG_Driver/src/usb_dcd.c ****   
 264:../inc/STM32_USB_OTG_Driver/src/usb_dcd.c ****   /* Setup and start the Transfer */
 265:../inc/STM32_USB_OTG_Driver/src/usb_dcd.c ****   ep->is_in = 1;
 25529              		.loc 1 265 0
 25530 002c 7B69     		ldr	r3, [r7, #20]
 25531 002e 4FF00102 		mov	r2, #1
 25532 0032 5A70     		strb	r2, [r3, #1]
 266:../inc/STM32_USB_OTG_Driver/src/usb_dcd.c ****   ep->num = ep_addr & 0x7F;  
 25533              		.loc 1 266 0
 25534 0034 FB7A     		ldrb	r3, [r7, #11]
 25535 0036 03F07F03 		and	r3, r3, #127
 25536 003a DAB2     		uxtb	r2, r3
 25537 003c 7B69     		ldr	r3, [r7, #20]
 25538 003e 1A70     		strb	r2, [r3, #0]
 267:../inc/STM32_USB_OTG_Driver/src/usb_dcd.c ****   ep->xfer_buff = pbuf;
 25539              		.loc 1 267 0
 25540 0040 7B69     		ldr	r3, [r7, #20]
 25541 0042 7A68     		ldr	r2, [r7, #4]
 25542 0044 DA60     		str	r2, [r3, #12]
 268:../inc/STM32_USB_OTG_Driver/src/usb_dcd.c ****   ep->dma_addr = (uint32_t)pbuf;  
 25543              		.loc 1 268 0
 25544 0046 7A68     		ldr	r2, [r7, #4]
 25545 0048 7B69     		ldr	r3, [r7, #20]
 25546 004a 1A61     		str	r2, [r3, #16]
 269:../inc/STM32_USB_OTG_Driver/src/usb_dcd.c ****   ep->xfer_count = 0;
 25547              		.loc 1 269 0
 25548 004c 7B69     		ldr	r3, [r7, #20]
 25549 004e 4FF00002 		mov	r2, #0
 25550 0052 9A61     		str	r2, [r3, #24]
 270:../inc/STM32_USB_OTG_Driver/src/usb_dcd.c ****   ep->xfer_len  = buf_len;
 25551              		.loc 1 270 0
 25552 0054 7B69     		ldr	r3, [r7, #20]
 25553 0056 3A68     		ldr	r2, [r7, #0]
 25554 0058 5A61     		str	r2, [r3, #20]
 271:../inc/STM32_USB_OTG_Driver/src/usb_dcd.c ****   
 272:../inc/STM32_USB_OTG_Driver/src/usb_dcd.c ****   if ( ep->num == 0 )
 25555              		.loc 1 272 0
 25556 005a 7B69     		ldr	r3, [r7, #20]
 25557 005c 1B78     		ldrb	r3, [r3, #0]	@ zero_extendqisi2
 25558 005e 002B     		cmp	r3, #0
 25559 0060 04D1     		bne	.L19
 273:../inc/STM32_USB_OTG_Driver/src/usb_dcd.c ****   {
 274:../inc/STM32_USB_OTG_Driver/src/usb_dcd.c ****     USB_OTG_EP0StartXfer(pdev , ep);
 25560              		.loc 1 274 0
 25561 0062 F868     		ldr	r0, [r7, #12]
 25562 0064 7969     		ldr	r1, [r7, #20]
 25563 0066 FFF7FEFF 		bl	USB_OTG_EP0StartXfer
 25564 006a 03E0     		b	.L20
 25565              	.L19:
 275:../inc/STM32_USB_OTG_Driver/src/usb_dcd.c ****   }
 276:../inc/STM32_USB_OTG_Driver/src/usb_dcd.c ****   else
 277:../inc/STM32_USB_OTG_Driver/src/usb_dcd.c ****   {
 278:../inc/STM32_USB_OTG_Driver/src/usb_dcd.c ****     USB_OTG_EPStartXfer(pdev, ep );
 25566              		.loc 1 278 0
 25567 006c F868     		ldr	r0, [r7, #12]
 25568 006e 7969     		ldr	r1, [r7, #20]
 25569 0070 FFF7FEFF 		bl	USB_OTG_EPStartXfer
 25570              	.L20:
 279:../inc/STM32_USB_OTG_Driver/src/usb_dcd.c ****   }
 280:../inc/STM32_USB_OTG_Driver/src/usb_dcd.c ****   return 0;
 25571              		.loc 1 280 0
 25572 0074 4FF00003 		mov	r3, #0
 281:../inc/STM32_USB_OTG_Driver/src/usb_dcd.c **** }
 25573              		.loc 1 281 0
 25574 0078 1846     		mov	r0, r3
 25575 007a 07F11807 		add	r7, r7, #24
 25576 007e BD46     		mov	sp, r7
 25577 0080 80BD     		pop	{r7, pc}
 25578              		.cfi_endproc
 25579              	.LFE114:
 25581 0082 00BF     		.section	.text.DCD_EP_Stall,"ax",%progbits
 25582              		.align	2
 25583              		.global	DCD_EP_Stall
 25584              		.thumb
 25585              		.thumb_func
 25587              	DCD_EP_Stall:
 25588              	.LFB115:
 282:../inc/STM32_USB_OTG_Driver/src/usb_dcd.c **** 
 283:../inc/STM32_USB_OTG_Driver/src/usb_dcd.c **** 
 284:../inc/STM32_USB_OTG_Driver/src/usb_dcd.c **** /**
 285:../inc/STM32_USB_OTG_Driver/src/usb_dcd.c **** * @brief  Stall an endpoint.
 286:../inc/STM32_USB_OTG_Driver/src/usb_dcd.c **** * @param pdev: device instance
 287:../inc/STM32_USB_OTG_Driver/src/usb_dcd.c **** * @param epnum: endpoint address
 288:../inc/STM32_USB_OTG_Driver/src/usb_dcd.c **** * @retval : status
 289:../inc/STM32_USB_OTG_Driver/src/usb_dcd.c **** */
 290:../inc/STM32_USB_OTG_Driver/src/usb_dcd.c **** uint32_t  DCD_EP_Stall (USB_OTG_CORE_HANDLE *pdev, uint8_t   epnum)
 291:../inc/STM32_USB_OTG_Driver/src/usb_dcd.c **** {
 25589              		.loc 1 291 0
 25590              		.cfi_startproc
 25591              		@ args = 0, pretend = 0, frame = 16
 25592              		@ frame_needed = 1, uses_anonymous_args = 0
 25593 0000 80B5     		push	{r7, lr}
 25594              	.LCFI15:
 25595              		.cfi_def_cfa_offset 8
 25596 0002 84B0     		sub	sp, sp, #16
 25597              	.LCFI16:
 25598              		.cfi_def_cfa_offset 24
 25599 0004 00AF     		add	r7, sp, #0
 25600              		.cfi_offset 14, -4
 25601              		.cfi_offset 7, -8
 25602              	.LCFI17:
 25603              		.cfi_def_cfa_register 7
 25604 0006 7860     		str	r0, [r7, #4]
 25605 0008 0B46     		mov	r3, r1
 25606 000a FB70     		strb	r3, [r7, #3]
 292:../inc/STM32_USB_OTG_Driver/src/usb_dcd.c ****   USB_OTG_EP *ep;
 293:../inc/STM32_USB_OTG_Driver/src/usb_dcd.c ****   if ((0x80 & epnum) == 0x80)
 25607              		.loc 1 293 0
 25608 000c FB78     		ldrb	r3, [r7, #3]	@ zero_extendqisi2
 25609 000e 5BB2     		sxtb	r3, r3
 25610 0010 002B     		cmp	r3, #0
 25611 0012 0EDA     		bge	.L22
 294:../inc/STM32_USB_OTG_Driver/src/usb_dcd.c ****   {
 295:../inc/STM32_USB_OTG_Driver/src/usb_dcd.c ****     ep = &pdev->dev.in_ep[epnum & 0x7F];
 25612              		.loc 1 295 0
 25613 0014 7B68     		ldr	r3, [r7, #4]
 25614 0016 03F58C71 		add	r1, r3, #280
 25615 001a FB78     		ldrb	r3, [r7, #3]	@ zero_extendqisi2
 25616 001c 03F07F02 		and	r2, r3, #127
 25617 0020 1346     		mov	r3, r2
 25618 0022 4FEA8303 		lsl	r3, r3, #2
 25619 0026 9B18     		adds	r3, r3, r2
 25620 0028 4FEAC303 		lsl	r3, r3, #3
 25621 002c CB18     		adds	r3, r1, r3
 25622 002e FB60     		str	r3, [r7, #12]
 25623 0030 0BE0     		b	.L23
 25624              	.L22:
 296:../inc/STM32_USB_OTG_Driver/src/usb_dcd.c ****   }
 297:../inc/STM32_USB_OTG_Driver/src/usb_dcd.c ****   else
 298:../inc/STM32_USB_OTG_Driver/src/usb_dcd.c ****   {
 299:../inc/STM32_USB_OTG_Driver/src/usb_dcd.c ****     ep = &pdev->dev.out_ep[epnum];
 25625              		.loc 1 299 0
 25626 0032 7B68     		ldr	r3, [r7, #4]
 25627 0034 03F55C71 		add	r1, r3, #880
 25628 0038 FA78     		ldrb	r2, [r7, #3]	@ zero_extendqisi2
 25629 003a 1346     		mov	r3, r2
 25630 003c 4FEA8303 		lsl	r3, r3, #2
 25631 0040 9B18     		adds	r3, r3, r2
 25632 0042 4FEAC303 		lsl	r3, r3, #3
 25633 0046 CB18     		adds	r3, r1, r3
 25634 0048 FB60     		str	r3, [r7, #12]
 25635              	.L23:
 300:../inc/STM32_USB_OTG_Driver/src/usb_dcd.c ****   }
 301:../inc/STM32_USB_OTG_Driver/src/usb_dcd.c **** 
 302:../inc/STM32_USB_OTG_Driver/src/usb_dcd.c ****   ep->is_stall = 1;
 25636              		.loc 1 302 0
 25637 004a FB68     		ldr	r3, [r7, #12]
 25638 004c 4FF00102 		mov	r2, #1
 25639 0050 9A70     		strb	r2, [r3, #2]
 303:../inc/STM32_USB_OTG_Driver/src/usb_dcd.c ****   ep->num   = epnum & 0x7F;
 25640              		.loc 1 303 0
 25641 0052 FB78     		ldrb	r3, [r7, #3]
 25642 0054 03F07F03 		and	r3, r3, #127
 25643 0058 DAB2     		uxtb	r2, r3
 25644 005a FB68     		ldr	r3, [r7, #12]
 25645 005c 1A70     		strb	r2, [r3, #0]
 304:../inc/STM32_USB_OTG_Driver/src/usb_dcd.c ****   ep->is_in = ((epnum & 0x80) == 0x80);
 25646              		.loc 1 304 0
 25647 005e FB78     		ldrb	r3, [r7, #3]	@ zero_extendqisi2
 25648 0060 4FEAD313 		lsr	r3, r3, #7
 25649 0064 DAB2     		uxtb	r2, r3
 25650 0066 FB68     		ldr	r3, [r7, #12]
 25651 0068 5A70     		strb	r2, [r3, #1]
 305:../inc/STM32_USB_OTG_Driver/src/usb_dcd.c ****   
 306:../inc/STM32_USB_OTG_Driver/src/usb_dcd.c ****   USB_OTG_EPSetStall(pdev , ep);
 25652              		.loc 1 306 0
 25653 006a 7868     		ldr	r0, [r7, #4]
 25654 006c F968     		ldr	r1, [r7, #12]
 25655 006e FFF7FEFF 		bl	USB_OTG_EPSetStall
 307:../inc/STM32_USB_OTG_Driver/src/usb_dcd.c ****   return (0);
 25656              		.loc 1 307 0
 25657 0072 4FF00003 		mov	r3, #0
 308:../inc/STM32_USB_OTG_Driver/src/usb_dcd.c **** }
 25658              		.loc 1 308 0
 25659 0076 1846     		mov	r0, r3
 25660 0078 07F11007 		add	r7, r7, #16
 25661 007c BD46     		mov	sp, r7
 25662 007e 80BD     		pop	{r7, pc}
 25663              		.cfi_endproc
 25664              	.LFE115:
 25666              		.section	.text.DCD_EP_ClrStall,"ax",%progbits
 25667              		.align	2
 25668              		.global	DCD_EP_ClrStall
 25669              		.thumb
 25670              		.thumb_func
 25672              	DCD_EP_ClrStall:
 25673              	.LFB116:
 309:../inc/STM32_USB_OTG_Driver/src/usb_dcd.c **** 
 310:../inc/STM32_USB_OTG_Driver/src/usb_dcd.c **** 
 311:../inc/STM32_USB_OTG_Driver/src/usb_dcd.c **** /**
 312:../inc/STM32_USB_OTG_Driver/src/usb_dcd.c **** * @brief  Clear stall condition on endpoints.
 313:../inc/STM32_USB_OTG_Driver/src/usb_dcd.c **** * @param pdev: device instance
 314:../inc/STM32_USB_OTG_Driver/src/usb_dcd.c **** * @param epnum: endpoint address
 315:../inc/STM32_USB_OTG_Driver/src/usb_dcd.c **** * @retval : status
 316:../inc/STM32_USB_OTG_Driver/src/usb_dcd.c **** */
 317:../inc/STM32_USB_OTG_Driver/src/usb_dcd.c **** uint32_t  DCD_EP_ClrStall (USB_OTG_CORE_HANDLE *pdev, uint8_t epnum)
 318:../inc/STM32_USB_OTG_Driver/src/usb_dcd.c **** {
 25674              		.loc 1 318 0
 25675              		.cfi_startproc
 25676              		@ args = 0, pretend = 0, frame = 16
 25677              		@ frame_needed = 1, uses_anonymous_args = 0
 25678 0000 80B5     		push	{r7, lr}
 25679              	.LCFI18:
 25680              		.cfi_def_cfa_offset 8
 25681 0002 84B0     		sub	sp, sp, #16
 25682              	.LCFI19:
 25683              		.cfi_def_cfa_offset 24
 25684 0004 00AF     		add	r7, sp, #0
 25685              		.cfi_offset 14, -4
 25686              		.cfi_offset 7, -8
 25687              	.LCFI20:
 25688              		.cfi_def_cfa_register 7
 25689 0006 7860     		str	r0, [r7, #4]
 25690 0008 0B46     		mov	r3, r1
 25691 000a FB70     		strb	r3, [r7, #3]
 319:../inc/STM32_USB_OTG_Driver/src/usb_dcd.c ****   USB_OTG_EP *ep;
 320:../inc/STM32_USB_OTG_Driver/src/usb_dcd.c ****   if ((0x80 & epnum) == 0x80)
 25692              		.loc 1 320 0
 25693 000c FB78     		ldrb	r3, [r7, #3]	@ zero_extendqisi2
 25694 000e 5BB2     		sxtb	r3, r3
 25695 0010 002B     		cmp	r3, #0
 25696 0012 0EDA     		bge	.L25
 321:../inc/STM32_USB_OTG_Driver/src/usb_dcd.c ****   {
 322:../inc/STM32_USB_OTG_Driver/src/usb_dcd.c ****     ep = &pdev->dev.in_ep[epnum & 0x7F];    
 25697              		.loc 1 322 0
 25698 0014 7B68     		ldr	r3, [r7, #4]
 25699 0016 03F58C71 		add	r1, r3, #280
 25700 001a FB78     		ldrb	r3, [r7, #3]	@ zero_extendqisi2
 25701 001c 03F07F02 		and	r2, r3, #127
 25702 0020 1346     		mov	r3, r2
 25703 0022 4FEA8303 		lsl	r3, r3, #2
 25704 0026 9B18     		adds	r3, r3, r2
 25705 0028 4FEAC303 		lsl	r3, r3, #3
 25706 002c CB18     		adds	r3, r1, r3
 25707 002e FB60     		str	r3, [r7, #12]
 25708 0030 0BE0     		b	.L26
 25709              	.L25:
 323:../inc/STM32_USB_OTG_Driver/src/usb_dcd.c ****   }
 324:../inc/STM32_USB_OTG_Driver/src/usb_dcd.c ****   else
 325:../inc/STM32_USB_OTG_Driver/src/usb_dcd.c ****   {
 326:../inc/STM32_USB_OTG_Driver/src/usb_dcd.c ****     ep = &pdev->dev.out_ep[epnum];
 25710              		.loc 1 326 0
 25711 0032 7B68     		ldr	r3, [r7, #4]
 25712 0034 03F55C71 		add	r1, r3, #880
 25713 0038 FA78     		ldrb	r2, [r7, #3]	@ zero_extendqisi2
 25714 003a 1346     		mov	r3, r2
 25715 003c 4FEA8303 		lsl	r3, r3, #2
 25716 0040 9B18     		adds	r3, r3, r2
 25717 0042 4FEAC303 		lsl	r3, r3, #3
 25718 0046 CB18     		adds	r3, r1, r3
 25719 0048 FB60     		str	r3, [r7, #12]
 25720              	.L26:
 327:../inc/STM32_USB_OTG_Driver/src/usb_dcd.c ****   }
 328:../inc/STM32_USB_OTG_Driver/src/usb_dcd.c ****   
 329:../inc/STM32_USB_OTG_Driver/src/usb_dcd.c ****   ep->is_stall = 0;  
 25721              		.loc 1 329 0
 25722 004a FB68     		ldr	r3, [r7, #12]
 25723 004c 4FF00002 		mov	r2, #0
 25724 0050 9A70     		strb	r2, [r3, #2]
 330:../inc/STM32_USB_OTG_Driver/src/usb_dcd.c ****   ep->num   = epnum & 0x7F;
 25725              		.loc 1 330 0
 25726 0052 FB78     		ldrb	r3, [r7, #3]
 25727 0054 03F07F03 		and	r3, r3, #127
 25728 0058 DAB2     		uxtb	r2, r3
 25729 005a FB68     		ldr	r3, [r7, #12]
 25730 005c 1A70     		strb	r2, [r3, #0]
 331:../inc/STM32_USB_OTG_Driver/src/usb_dcd.c ****   ep->is_in = ((epnum & 0x80) == 0x80);
 25731              		.loc 1 331 0
 25732 005e FB78     		ldrb	r3, [r7, #3]	@ zero_extendqisi2
 25733 0060 4FEAD313 		lsr	r3, r3, #7
 25734 0064 DAB2     		uxtb	r2, r3
 25735 0066 FB68     		ldr	r3, [r7, #12]
 25736 0068 5A70     		strb	r2, [r3, #1]
 332:../inc/STM32_USB_OTG_Driver/src/usb_dcd.c ****   
 333:../inc/STM32_USB_OTG_Driver/src/usb_dcd.c ****   USB_OTG_EPClearStall(pdev , ep);
 25737              		.loc 1 333 0
 25738 006a 7868     		ldr	r0, [r7, #4]
 25739 006c F968     		ldr	r1, [r7, #12]
 25740 006e FFF7FEFF 		bl	USB_OTG_EPClearStall
 334:../inc/STM32_USB_OTG_Driver/src/usb_dcd.c ****   return (0);
 25741              		.loc 1 334 0
 25742 0072 4FF00003 		mov	r3, #0
 335:../inc/STM32_USB_OTG_Driver/src/usb_dcd.c **** }
 25743              		.loc 1 335 0
 25744 0076 1846     		mov	r0, r3
 25745 0078 07F11007 		add	r7, r7, #16
 25746 007c BD46     		mov	sp, r7
 25747 007e 80BD     		pop	{r7, pc}
 25748              		.cfi_endproc
 25749              	.LFE116:
 25751              		.section	.text.DCD_EP_Flush,"ax",%progbits
 25752              		.align	2
 25753              		.global	DCD_EP_Flush
 25754              		.thumb
 25755              		.thumb_func
 25757              	DCD_EP_Flush:
 25758              	.LFB117:
 336:../inc/STM32_USB_OTG_Driver/src/usb_dcd.c **** 
 337:../inc/STM32_USB_OTG_Driver/src/usb_dcd.c **** 
 338:../inc/STM32_USB_OTG_Driver/src/usb_dcd.c **** /**
 339:../inc/STM32_USB_OTG_Driver/src/usb_dcd.c **** * @brief  This Function flushes the FIFOs.
 340:../inc/STM32_USB_OTG_Driver/src/usb_dcd.c **** * @param pdev: device instance
 341:../inc/STM32_USB_OTG_Driver/src/usb_dcd.c **** * @param epnum: endpoint address
 342:../inc/STM32_USB_OTG_Driver/src/usb_dcd.c **** * @retval : status
 343:../inc/STM32_USB_OTG_Driver/src/usb_dcd.c **** */
 344:../inc/STM32_USB_OTG_Driver/src/usb_dcd.c **** uint32_t  DCD_EP_Flush (USB_OTG_CORE_HANDLE *pdev , uint8_t epnum)
 345:../inc/STM32_USB_OTG_Driver/src/usb_dcd.c **** {
 25759              		.loc 1 345 0
 25760              		.cfi_startproc
 25761              		@ args = 0, pretend = 0, frame = 8
 25762              		@ frame_needed = 1, uses_anonymous_args = 0
 25763 0000 80B5     		push	{r7, lr}
 25764              	.LCFI21:
 25765              		.cfi_def_cfa_offset 8
 25766 0002 82B0     		sub	sp, sp, #8
 25767              	.LCFI22:
 25768              		.cfi_def_cfa_offset 16
 25769 0004 00AF     		add	r7, sp, #0
 25770              		.cfi_offset 14, -4
 25771              		.cfi_offset 7, -8
 25772              	.LCFI23:
 25773              		.cfi_def_cfa_register 7
 25774 0006 7860     		str	r0, [r7, #4]
 25775 0008 0B46     		mov	r3, r1
 25776 000a FB70     		strb	r3, [r7, #3]
 346:../inc/STM32_USB_OTG_Driver/src/usb_dcd.c **** 
 347:../inc/STM32_USB_OTG_Driver/src/usb_dcd.c ****   if ((epnum & 0x80) == 0x80)
 25777              		.loc 1 347 0
 25778 000c FB78     		ldrb	r3, [r7, #3]	@ zero_extendqisi2
 25779 000e 5BB2     		sxtb	r3, r3
 25780 0010 002B     		cmp	r3, #0
 25781 0012 07DA     		bge	.L28
 348:../inc/STM32_USB_OTG_Driver/src/usb_dcd.c ****   {
 349:../inc/STM32_USB_OTG_Driver/src/usb_dcd.c ****     USB_OTG_FlushTxFifo(pdev, epnum & 0x7F);
 25782              		.loc 1 349 0
 25783 0014 FB78     		ldrb	r3, [r7, #3]	@ zero_extendqisi2
 25784 0016 03F07F03 		and	r3, r3, #127
 25785 001a 7868     		ldr	r0, [r7, #4]
 25786 001c 1946     		mov	r1, r3
 25787 001e FFF7FEFF 		bl	USB_OTG_FlushTxFifo
 25788 0022 02E0     		b	.L29
 25789              	.L28:
 350:../inc/STM32_USB_OTG_Driver/src/usb_dcd.c ****   }
 351:../inc/STM32_USB_OTG_Driver/src/usb_dcd.c ****   else
 352:../inc/STM32_USB_OTG_Driver/src/usb_dcd.c ****   {
 353:../inc/STM32_USB_OTG_Driver/src/usb_dcd.c ****     USB_OTG_FlushRxFifo(pdev);
 25790              		.loc 1 353 0
 25791 0024 7868     		ldr	r0, [r7, #4]
 25792 0026 FFF7FEFF 		bl	USB_OTG_FlushRxFifo
 25793              	.L29:
 354:../inc/STM32_USB_OTG_Driver/src/usb_dcd.c ****   }
 355:../inc/STM32_USB_OTG_Driver/src/usb_dcd.c **** 
 356:../inc/STM32_USB_OTG_Driver/src/usb_dcd.c ****   return (0);
 25794              		.loc 1 356 0
 25795 002a 4FF00003 		mov	r3, #0
 357:../inc/STM32_USB_OTG_Driver/src/usb_dcd.c **** }
 25796              		.loc 1 357 0
 25797 002e 1846     		mov	r0, r3
 25798 0030 07F10807 		add	r7, r7, #8
 25799 0034 BD46     		mov	sp, r7
 25800 0036 80BD     		pop	{r7, pc}
 25801              		.cfi_endproc
 25802              	.LFE117:
 25804              		.section	.text.DCD_EP_SetAddress,"ax",%progbits
 25805              		.align	2
 25806              		.global	DCD_EP_SetAddress
 25807              		.thumb
 25808              		.thumb_func
 25810              	DCD_EP_SetAddress:
 25811              	.LFB118:
 358:../inc/STM32_USB_OTG_Driver/src/usb_dcd.c **** 
 359:../inc/STM32_USB_OTG_Driver/src/usb_dcd.c **** 
 360:../inc/STM32_USB_OTG_Driver/src/usb_dcd.c **** /**
 361:../inc/STM32_USB_OTG_Driver/src/usb_dcd.c **** * @brief  This Function set USB device address
 362:../inc/STM32_USB_OTG_Driver/src/usb_dcd.c **** * @param pdev: device instance
 363:../inc/STM32_USB_OTG_Driver/src/usb_dcd.c **** * @param address: new device address
 364:../inc/STM32_USB_OTG_Driver/src/usb_dcd.c **** * @retval : status
 365:../inc/STM32_USB_OTG_Driver/src/usb_dcd.c **** */
 366:../inc/STM32_USB_OTG_Driver/src/usb_dcd.c **** void  DCD_EP_SetAddress (USB_OTG_CORE_HANDLE *pdev, uint8_t address)
 367:../inc/STM32_USB_OTG_Driver/src/usb_dcd.c **** {
 25812              		.loc 1 367 0
 25813              		.cfi_startproc
 25814              		@ args = 0, pretend = 0, frame = 16
 25815              		@ frame_needed = 1, uses_anonymous_args = 0
 25816              		@ link register save eliminated.
 25817 0000 80B4     		push	{r7}
 25818              	.LCFI24:
 25819              		.cfi_def_cfa_offset 4
 25820 0002 85B0     		sub	sp, sp, #20
 25821              	.LCFI25:
 25822              		.cfi_def_cfa_offset 24
 25823 0004 00AF     		add	r7, sp, #0
 25824              		.cfi_offset 7, -4
 25825              	.LCFI26:
 25826              		.cfi_def_cfa_register 7
 25827 0006 7860     		str	r0, [r7, #4]
 25828 0008 0B46     		mov	r3, r1
 25829 000a FB70     		strb	r3, [r7, #3]
 368:../inc/STM32_USB_OTG_Driver/src/usb_dcd.c ****   USB_OTG_DCFG_TypeDef  dcfg;
 369:../inc/STM32_USB_OTG_Driver/src/usb_dcd.c ****   dcfg.d32 = 0;
 25830              		.loc 1 369 0
 25831 000c 4FF00003 		mov	r3, #0
 25832 0010 FB60     		str	r3, [r7, #12]
 370:../inc/STM32_USB_OTG_Driver/src/usb_dcd.c ****   dcfg.b.devaddr = address;
 25833              		.loc 1 370 0
 25834 0012 FB78     		ldrb	r3, [r7, #3]
 25835 0014 03F07F03 		and	r3, r3, #127
 25836 0018 DAB2     		uxtb	r2, r3
 25837 001a FB68     		ldr	r3, [r7, #12]
 25838 001c 62F30A13 		bfi	r3, r2, #4, #7
 25839 0020 FB60     		str	r3, [r7, #12]
 371:../inc/STM32_USB_OTG_Driver/src/usb_dcd.c ****   USB_OTG_MODIFY_REG32( &pdev->regs.DREGS->DCFG, 0, dcfg.d32);
 25840              		.loc 1 371 0
 25841 0022 7B68     		ldr	r3, [r7, #4]
 25842 0024 1B69     		ldr	r3, [r3, #16]
 25843 0026 7A68     		ldr	r2, [r7, #4]
 25844 0028 1269     		ldr	r2, [r2, #16]
 25845 002a 1168     		ldr	r1, [r2, #0]
 25846 002c FA68     		ldr	r2, [r7, #12]
 25847 002e 41EA0202 		orr	r2, r1, r2
 25848 0032 1A60     		str	r2, [r3, #0]
 372:../inc/STM32_USB_OTG_Driver/src/usb_dcd.c **** }
 25849              		.loc 1 372 0
 25850 0034 07F11407 		add	r7, r7, #20
 25851 0038 BD46     		mov	sp, r7
 25852 003a 80BC     		pop	{r7}
 25853 003c 7047     		bx	lr
 25854              		.cfi_endproc
 25855              	.LFE118:
 25857 003e 00BF     		.section	.text.DCD_DevConnect,"ax",%progbits
 25858              		.align	2
 25859              		.global	DCD_DevConnect
 25860              		.thumb
 25861              		.thumb_func
 25863              	DCD_DevConnect:
 25864              	.LFB119:
 373:../inc/STM32_USB_OTG_Driver/src/usb_dcd.c **** 
 374:../inc/STM32_USB_OTG_Driver/src/usb_dcd.c **** /**
 375:../inc/STM32_USB_OTG_Driver/src/usb_dcd.c **** * @brief  Connect device (enable internal pull-up)
 376:../inc/STM32_USB_OTG_Driver/src/usb_dcd.c **** * @param pdev: device instance
 377:../inc/STM32_USB_OTG_Driver/src/usb_dcd.c **** * @retval : None
 378:../inc/STM32_USB_OTG_Driver/src/usb_dcd.c **** */
 379:../inc/STM32_USB_OTG_Driver/src/usb_dcd.c **** void  DCD_DevConnect (USB_OTG_CORE_HANDLE *pdev)
 380:../inc/STM32_USB_OTG_Driver/src/usb_dcd.c **** {
 25865              		.loc 1 380 0
 25866              		.cfi_startproc
 25867              		@ args = 0, pretend = 0, frame = 16
 25868              		@ frame_needed = 1, uses_anonymous_args = 0
 25869 0000 80B5     		push	{r7, lr}
 25870              	.LCFI27:
 25871              		.cfi_def_cfa_offset 8
 25872 0002 84B0     		sub	sp, sp, #16
 25873              	.LCFI28:
 25874              		.cfi_def_cfa_offset 24
 25875 0004 00AF     		add	r7, sp, #0
 25876              		.cfi_offset 14, -4
 25877              		.cfi_offset 7, -8
 25878              	.LCFI29:
 25879              		.cfi_def_cfa_register 7
 25880 0006 7860     		str	r0, [r7, #4]
 381:../inc/STM32_USB_OTG_Driver/src/usb_dcd.c **** #ifndef USE_OTG_MODE
 382:../inc/STM32_USB_OTG_Driver/src/usb_dcd.c ****   USB_OTG_DCTL_TypeDef  dctl;
 383:../inc/STM32_USB_OTG_Driver/src/usb_dcd.c ****   dctl.d32 = USB_OTG_READ_REG32(&pdev->regs.DREGS->DCTL);
 25881              		.loc 1 383 0
 25882 0008 7B68     		ldr	r3, [r7, #4]
 25883 000a 1B69     		ldr	r3, [r3, #16]
 25884 000c 5B68     		ldr	r3, [r3, #4]
 25885 000e FB60     		str	r3, [r7, #12]
 384:../inc/STM32_USB_OTG_Driver/src/usb_dcd.c ****   /* Connect device */
 385:../inc/STM32_USB_OTG_Driver/src/usb_dcd.c ****   dctl.b.sftdiscon  = 0;
 25886              		.loc 1 385 0
 25887 0010 FB68     		ldr	r3, [r7, #12]
 25888 0012 6FF34103 		bfc	r3, #1, #1
 25889 0016 FB60     		str	r3, [r7, #12]
 386:../inc/STM32_USB_OTG_Driver/src/usb_dcd.c ****   USB_OTG_WRITE_REG32(&pdev->regs.DREGS->DCTL, dctl.d32);
 25890              		.loc 1 386 0
 25891 0018 7B68     		ldr	r3, [r7, #4]
 25892 001a 1B69     		ldr	r3, [r3, #16]
 25893 001c FA68     		ldr	r2, [r7, #12]
 25894 001e 5A60     		str	r2, [r3, #4]
 387:../inc/STM32_USB_OTG_Driver/src/usb_dcd.c ****   USB_OTG_BSP_mDelay(3);
 25895              		.loc 1 387 0
 25896 0020 4FF00300 		mov	r0, #3
 25897 0024 FFF7FEFF 		bl	USB_OTG_BSP_mDelay
 388:../inc/STM32_USB_OTG_Driver/src/usb_dcd.c **** #endif
 389:../inc/STM32_USB_OTG_Driver/src/usb_dcd.c **** }
 25898              		.loc 1 389 0
 25899 0028 07F11007 		add	r7, r7, #16
 25900 002c BD46     		mov	sp, r7
 25901 002e 80BD     		pop	{r7, pc}
 25902              		.cfi_endproc
 25903              	.LFE119:
 25905              		.section	.text.DCD_DevDisconnect,"ax",%progbits
 25906              		.align	2
 25907              		.global	DCD_DevDisconnect
 25908              		.thumb
 25909              		.thumb_func
 25911              	DCD_DevDisconnect:
 25912              	.LFB120:
 390:../inc/STM32_USB_OTG_Driver/src/usb_dcd.c **** 
 391:../inc/STM32_USB_OTG_Driver/src/usb_dcd.c **** 
 392:../inc/STM32_USB_OTG_Driver/src/usb_dcd.c **** /**
 393:../inc/STM32_USB_OTG_Driver/src/usb_dcd.c **** * @brief  Disconnect device (disable internal pull-up)
 394:../inc/STM32_USB_OTG_Driver/src/usb_dcd.c **** * @param pdev: device instance
 395:../inc/STM32_USB_OTG_Driver/src/usb_dcd.c **** * @retval : None
 396:../inc/STM32_USB_OTG_Driver/src/usb_dcd.c **** */
 397:../inc/STM32_USB_OTG_Driver/src/usb_dcd.c **** void  DCD_DevDisconnect (USB_OTG_CORE_HANDLE *pdev)
 398:../inc/STM32_USB_OTG_Driver/src/usb_dcd.c **** {
 25913              		.loc 1 398 0
 25914              		.cfi_startproc
 25915              		@ args = 0, pretend = 0, frame = 16
 25916              		@ frame_needed = 1, uses_anonymous_args = 0
 25917 0000 80B5     		push	{r7, lr}
 25918              	.LCFI30:
 25919              		.cfi_def_cfa_offset 8
 25920 0002 84B0     		sub	sp, sp, #16
 25921              	.LCFI31:
 25922              		.cfi_def_cfa_offset 24
 25923 0004 00AF     		add	r7, sp, #0
 25924              		.cfi_offset 14, -4
 25925              		.cfi_offset 7, -8
 25926              	.LCFI32:
 25927              		.cfi_def_cfa_register 7
 25928 0006 7860     		str	r0, [r7, #4]
 399:../inc/STM32_USB_OTG_Driver/src/usb_dcd.c **** #ifndef USE_OTG_MODE
 400:../inc/STM32_USB_OTG_Driver/src/usb_dcd.c ****   USB_OTG_DCTL_TypeDef  dctl;
 401:../inc/STM32_USB_OTG_Driver/src/usb_dcd.c ****   dctl.d32 = USB_OTG_READ_REG32(&pdev->regs.DREGS->DCTL);
 25929              		.loc 1 401 0
 25930 0008 7B68     		ldr	r3, [r7, #4]
 25931 000a 1B69     		ldr	r3, [r3, #16]
 25932 000c 5B68     		ldr	r3, [r3, #4]
 25933 000e FB60     		str	r3, [r7, #12]
 402:../inc/STM32_USB_OTG_Driver/src/usb_dcd.c ****   /* Disconnect device for 3ms */
 403:../inc/STM32_USB_OTG_Driver/src/usb_dcd.c ****   dctl.b.sftdiscon  = 1;
 25934              		.loc 1 403 0
 25935 0010 FB68     		ldr	r3, [r7, #12]
 25936 0012 43F00203 		orr	r3, r3, #2
 25937 0016 FB60     		str	r3, [r7, #12]
 404:../inc/STM32_USB_OTG_Driver/src/usb_dcd.c ****   USB_OTG_WRITE_REG32(&pdev->regs.DREGS->DCTL, dctl.d32);
 25938              		.loc 1 404 0
 25939 0018 7B68     		ldr	r3, [r7, #4]
 25940 001a 1B69     		ldr	r3, [r3, #16]
 25941 001c FA68     		ldr	r2, [r7, #12]
 25942 001e 5A60     		str	r2, [r3, #4]
 405:../inc/STM32_USB_OTG_Driver/src/usb_dcd.c ****   USB_OTG_BSP_mDelay(3);
 25943              		.loc 1 405 0
 25944 0020 4FF00300 		mov	r0, #3
 25945 0024 FFF7FEFF 		bl	USB_OTG_BSP_mDelay
 406:../inc/STM32_USB_OTG_Driver/src/usb_dcd.c **** #endif
 407:../inc/STM32_USB_OTG_Driver/src/usb_dcd.c **** }
 25946              		.loc 1 407 0
 25947 0028 07F11007 		add	r7, r7, #16
 25948 002c BD46     		mov	sp, r7
 25949 002e 80BD     		pop	{r7, pc}
 25950              		.cfi_endproc
 25951              	.LFE120:
 25953              		.section	.text.DCD_GetEPStatus,"ax",%progbits
 25954              		.align	2
 25955              		.global	DCD_GetEPStatus
 25956              		.thumb
 25957              		.thumb_func
 25959              	DCD_GetEPStatus:
 25960              	.LFB121:
 408:../inc/STM32_USB_OTG_Driver/src/usb_dcd.c **** 
 409:../inc/STM32_USB_OTG_Driver/src/usb_dcd.c **** 
 410:../inc/STM32_USB_OTG_Driver/src/usb_dcd.c **** /**
 411:../inc/STM32_USB_OTG_Driver/src/usb_dcd.c **** * @brief  returns the EP Status
 412:../inc/STM32_USB_OTG_Driver/src/usb_dcd.c **** * @param  pdev : Selected device
 413:../inc/STM32_USB_OTG_Driver/src/usb_dcd.c **** *         epnum : endpoint address
 414:../inc/STM32_USB_OTG_Driver/src/usb_dcd.c **** * @retval : EP status
 415:../inc/STM32_USB_OTG_Driver/src/usb_dcd.c **** */
 416:../inc/STM32_USB_OTG_Driver/src/usb_dcd.c **** 
 417:../inc/STM32_USB_OTG_Driver/src/usb_dcd.c **** uint32_t DCD_GetEPStatus(USB_OTG_CORE_HANDLE *pdev ,uint8_t epnum)
 418:../inc/STM32_USB_OTG_Driver/src/usb_dcd.c **** {
 25961              		.loc 1 418 0
 25962              		.cfi_startproc
 25963              		@ args = 0, pretend = 0, frame = 16
 25964              		@ frame_needed = 1, uses_anonymous_args = 0
 25965 0000 80B5     		push	{r7, lr}
 25966              	.LCFI33:
 25967              		.cfi_def_cfa_offset 8
 25968 0002 84B0     		sub	sp, sp, #16
 25969              	.LCFI34:
 25970              		.cfi_def_cfa_offset 24
 25971 0004 00AF     		add	r7, sp, #0
 25972              		.cfi_offset 14, -4
 25973              		.cfi_offset 7, -8
 25974              	.LCFI35:
 25975              		.cfi_def_cfa_register 7
 25976 0006 7860     		str	r0, [r7, #4]
 25977 0008 0B46     		mov	r3, r1
 25978 000a FB70     		strb	r3, [r7, #3]
 419:../inc/STM32_USB_OTG_Driver/src/usb_dcd.c ****   USB_OTG_EP *ep;
 420:../inc/STM32_USB_OTG_Driver/src/usb_dcd.c ****   uint32_t Status = 0;  
 25979              		.loc 1 420 0
 25980 000c 4FF00003 		mov	r3, #0
 25981 0010 BB60     		str	r3, [r7, #8]
 421:../inc/STM32_USB_OTG_Driver/src/usb_dcd.c ****   
 422:../inc/STM32_USB_OTG_Driver/src/usb_dcd.c ****   if ((0x80 & epnum) == 0x80)
 25982              		.loc 1 422 0
 25983 0012 FB78     		ldrb	r3, [r7, #3]	@ zero_extendqisi2
 25984 0014 5BB2     		sxtb	r3, r3
 25985 0016 002B     		cmp	r3, #0
 25986 0018 0EDA     		bge	.L34
 423:../inc/STM32_USB_OTG_Driver/src/usb_dcd.c ****   {
 424:../inc/STM32_USB_OTG_Driver/src/usb_dcd.c ****     ep = &pdev->dev.in_ep[epnum & 0x7F];    
 25987              		.loc 1 424 0
 25988 001a 7B68     		ldr	r3, [r7, #4]
 25989 001c 03F58C71 		add	r1, r3, #280
 25990 0020 FB78     		ldrb	r3, [r7, #3]	@ zero_extendqisi2
 25991 0022 03F07F02 		and	r2, r3, #127
 25992 0026 1346     		mov	r3, r2
 25993 0028 4FEA8303 		lsl	r3, r3, #2
 25994 002c 9B18     		adds	r3, r3, r2
 25995 002e 4FEAC303 		lsl	r3, r3, #3
 25996 0032 CB18     		adds	r3, r1, r3
 25997 0034 FB60     		str	r3, [r7, #12]
 25998 0036 0BE0     		b	.L35
 25999              	.L34:
 425:../inc/STM32_USB_OTG_Driver/src/usb_dcd.c ****   }
 426:../inc/STM32_USB_OTG_Driver/src/usb_dcd.c ****   else
 427:../inc/STM32_USB_OTG_Driver/src/usb_dcd.c ****   {
 428:../inc/STM32_USB_OTG_Driver/src/usb_dcd.c ****     ep = &pdev->dev.out_ep[epnum];
 26000              		.loc 1 428 0
 26001 0038 7B68     		ldr	r3, [r7, #4]
 26002 003a 03F55C71 		add	r1, r3, #880
 26003 003e FA78     		ldrb	r2, [r7, #3]	@ zero_extendqisi2
 26004 0040 1346     		mov	r3, r2
 26005 0042 4FEA8303 		lsl	r3, r3, #2
 26006 0046 9B18     		adds	r3, r3, r2
 26007 0048 4FEAC303 		lsl	r3, r3, #3
 26008 004c CB18     		adds	r3, r1, r3
 26009 004e FB60     		str	r3, [r7, #12]
 26010              	.L35:
 429:../inc/STM32_USB_OTG_Driver/src/usb_dcd.c ****   }
 430:../inc/STM32_USB_OTG_Driver/src/usb_dcd.c ****   
 431:../inc/STM32_USB_OTG_Driver/src/usb_dcd.c ****   Status = USB_OTG_GetEPStatus(pdev ,ep);
 26011              		.loc 1 431 0
 26012 0050 7868     		ldr	r0, [r7, #4]
 26013 0052 F968     		ldr	r1, [r7, #12]
 26014 0054 FFF7FEFF 		bl	USB_OTG_GetEPStatus
 26015 0058 B860     		str	r0, [r7, #8]
 432:../inc/STM32_USB_OTG_Driver/src/usb_dcd.c **** 
 433:../inc/STM32_USB_OTG_Driver/src/usb_dcd.c ****   /* Return the current status */
 434:../inc/STM32_USB_OTG_Driver/src/usb_dcd.c ****   return Status;
 26016              		.loc 1 434 0
 26017 005a BB68     		ldr	r3, [r7, #8]
 435:../inc/STM32_USB_OTG_Driver/src/usb_dcd.c **** }
 26018              		.loc 1 435 0
 26019 005c 1846     		mov	r0, r3
 26020 005e 07F11007 		add	r7, r7, #16
 26021 0062 BD46     		mov	sp, r7
 26022 0064 80BD     		pop	{r7, pc}
 26023              		.cfi_endproc
 26024              	.LFE121:
 26026 0066 00BF     		.section	.text.DCD_SetEPStatus,"ax",%progbits
 26027              		.align	2
 26028              		.global	DCD_SetEPStatus
 26029              		.thumb
 26030              		.thumb_func
 26032              	DCD_SetEPStatus:
 26033              	.LFB122:
 436:../inc/STM32_USB_OTG_Driver/src/usb_dcd.c **** 
 437:../inc/STM32_USB_OTG_Driver/src/usb_dcd.c **** /**
 438:../inc/STM32_USB_OTG_Driver/src/usb_dcd.c **** * @brief  Set the EP Status
 439:../inc/STM32_USB_OTG_Driver/src/usb_dcd.c **** * @param  pdev : Selected device
 440:../inc/STM32_USB_OTG_Driver/src/usb_dcd.c **** *         Status : new Status
 441:../inc/STM32_USB_OTG_Driver/src/usb_dcd.c **** *         epnum : EP address
 442:../inc/STM32_USB_OTG_Driver/src/usb_dcd.c **** * @retval : None
 443:../inc/STM32_USB_OTG_Driver/src/usb_dcd.c **** */
 444:../inc/STM32_USB_OTG_Driver/src/usb_dcd.c **** void DCD_SetEPStatus (USB_OTG_CORE_HANDLE *pdev , uint8_t epnum , uint32_t Status)
 445:../inc/STM32_USB_OTG_Driver/src/usb_dcd.c **** {
 26034              		.loc 1 445 0
 26035              		.cfi_startproc
 26036              		@ args = 0, pretend = 0, frame = 24
 26037              		@ frame_needed = 1, uses_anonymous_args = 0
 26038 0000 80B5     		push	{r7, lr}
 26039              	.LCFI36:
 26040              		.cfi_def_cfa_offset 8
 26041 0002 86B0     		sub	sp, sp, #24
 26042              	.LCFI37:
 26043              		.cfi_def_cfa_offset 32
 26044 0004 00AF     		add	r7, sp, #0
 26045              		.cfi_offset 14, -4
 26046              		.cfi_offset 7, -8
 26047              	.LCFI38:
 26048              		.cfi_def_cfa_register 7
 26049 0006 F860     		str	r0, [r7, #12]
 26050 0008 0B46     		mov	r3, r1
 26051 000a 7A60     		str	r2, [r7, #4]
 26052 000c FB72     		strb	r3, [r7, #11]
 446:../inc/STM32_USB_OTG_Driver/src/usb_dcd.c ****   USB_OTG_EP *ep;
 447:../inc/STM32_USB_OTG_Driver/src/usb_dcd.c ****   
 448:../inc/STM32_USB_OTG_Driver/src/usb_dcd.c ****   if ((0x80 & epnum) == 0x80)
 26053              		.loc 1 448 0
 26054 000e FB7A     		ldrb	r3, [r7, #11]	@ zero_extendqisi2
 26055 0010 5BB2     		sxtb	r3, r3
 26056 0012 002B     		cmp	r3, #0
 26057 0014 0EDA     		bge	.L37
 449:../inc/STM32_USB_OTG_Driver/src/usb_dcd.c ****   {
 450:../inc/STM32_USB_OTG_Driver/src/usb_dcd.c ****     ep = &pdev->dev.in_ep[epnum & 0x7F];    
 26058              		.loc 1 450 0
 26059 0016 FB68     		ldr	r3, [r7, #12]
 26060 0018 03F58C71 		add	r1, r3, #280
 26061 001c FB7A     		ldrb	r3, [r7, #11]	@ zero_extendqisi2
 26062 001e 03F07F02 		and	r2, r3, #127
 26063 0022 1346     		mov	r3, r2
 26064 0024 4FEA8303 		lsl	r3, r3, #2
 26065 0028 9B18     		adds	r3, r3, r2
 26066 002a 4FEAC303 		lsl	r3, r3, #3
 26067 002e CB18     		adds	r3, r1, r3
 26068 0030 7B61     		str	r3, [r7, #20]
 26069 0032 0BE0     		b	.L38
 26070              	.L37:
 451:../inc/STM32_USB_OTG_Driver/src/usb_dcd.c ****   }
 452:../inc/STM32_USB_OTG_Driver/src/usb_dcd.c ****   else
 453:../inc/STM32_USB_OTG_Driver/src/usb_dcd.c ****   {
 454:../inc/STM32_USB_OTG_Driver/src/usb_dcd.c ****     ep = &pdev->dev.out_ep[epnum];
 26071              		.loc 1 454 0
 26072 0034 FB68     		ldr	r3, [r7, #12]
 26073 0036 03F55C71 		add	r1, r3, #880
 26074 003a FA7A     		ldrb	r2, [r7, #11]	@ zero_extendqisi2
 26075 003c 1346     		mov	r3, r2
 26076 003e 4FEA8303 		lsl	r3, r3, #2
 26077 0042 9B18     		adds	r3, r3, r2
 26078 0044 4FEAC303 		lsl	r3, r3, #3
 26079 0048 CB18     		adds	r3, r1, r3
 26080 004a 7B61     		str	r3, [r7, #20]
 26081              	.L38:
 455:../inc/STM32_USB_OTG_Driver/src/usb_dcd.c ****   }
 456:../inc/STM32_USB_OTG_Driver/src/usb_dcd.c ****   
 457:../inc/STM32_USB_OTG_Driver/src/usb_dcd.c ****    USB_OTG_SetEPStatus(pdev ,ep , Status);
 26082              		.loc 1 457 0
 26083 004c F868     		ldr	r0, [r7, #12]
 26084 004e 7969     		ldr	r1, [r7, #20]
 26085 0050 7A68     		ldr	r2, [r7, #4]
 26086 0052 FFF7FEFF 		bl	USB_OTG_SetEPStatus
 458:../inc/STM32_USB_OTG_Driver/src/usb_dcd.c **** }
 26087              		.loc 1 458 0
 26088 0056 07F11807 		add	r7, r7, #24
 26089 005a BD46     		mov	sp, r7
 26090 005c 80BD     		pop	{r7, pc}
 26091              		.cfi_endproc
 26092              	.LFE122:
 26094 005e 00BF     		.text
 26095              	.Letext0: